   1               		.file	"RNDIS.c"
   2               	__SREG__ = 0x3f
   3               	__SP_H__ = 0x3e
   4               	__SP_L__ = 0x3d
   5               	__CCP__  = 0x34
   6               	__tmp_reg__ = 0
   7               	__zero_reg__ = 1
  15               	.Ltext0:
  16               		.section	.text.RNDIS_Device_IsPacketReceived,"ax",@progbits
  17               	.global	RNDIS_Device_IsPacketReceived
  19               	RNDIS_Device_IsPacketReceived:
  20               	.LFB102:
  21               	.LSM0:
  22               	.LVL0:
  23               	/* prologue: function */
  24               	/* frame size = 0 */
  25 0000 FC01      		movw r30,r24
  26               	.LSM1:
  27 0002 8091 0000 		lds r24,USB_DeviceState
  28               	.LVL1:
  29 0006 8430      		cpi r24,lo8(4)
  30 0008 01F4      		brne .L2
  31 000a EA56      		subi r30,lo8(-(150))
  32 000c FF4F      		sbci r31,hi8(-(150))
  33 000e 8081      		ld r24,Z
  34 0010 E659      		subi r30,lo8(-(-150))
  35 0012 F040      		sbci r31,hi8(-(-150))
  36 0014 8230      		cpi r24,lo8(2)
  37 0016 01F4      		brne .L2
  38               	.LSM2:
  39 0018 8581      		ldd r24,Z+5
  40               	.LBB44:
  41               	.LBB45:
  42               	.LSM3:
  43 001a 8093 E900 		sts 233,r24
  44               	.LBE45:
  45               	.LBE44:
  46               	.LBB46:
  47               	.LBB47:
  48               	.LSM4:
  49 001e 8091 E800 		lds r24,232
  50 0022 90E0      		ldi r25,lo8(0)
  51 0024 9695      		lsr r25
  52 0026 8795      		ror r24
  53 0028 9695      		lsr r25
  54 002a 8795      		ror r24
  55 002c 8170      		andi r24,lo8(1)
  56 002e 0895      		ret
  57               	.L2:
  58               	.LSM5:
  59 0030 80E0      		ldi r24,lo8(0)
  60               	.LBE47:
  61               	.LBE46:
  62               	.LSM6:
  63 0032 0895      		ret
  64               	.LFE102:
  66               		.section	.text.RNDIS_Device_SendPacket,"ax",@progbits
  67               	.global	RNDIS_Device_SendPacket
  69               	RNDIS_Device_SendPacket:
  70               	.LFB104:
  71               	.LSM7:
  72               	.LVL2:
  73 0000 CF92      		push r12
  74 0002 DF92      		push r13
  75 0004 FF92      		push r15
  76 0006 0F93      		push r16
  77 0008 1F93      		push r17
  78 000a DF93      		push r29
  79 000c CF93      		push r28
  80 000e CDB7      		in r28,__SP_L__
  81 0010 DEB7      		in r29,__SP_H__
  82 0012 AC97      		sbiw r28,44
  83 0014 0FB6      		in __tmp_reg__,__SREG__
  84 0016 F894      		cli
  85 0018 DEBF      		out __SP_H__,r29
  86 001a 0FBE      		out __SREG__,__tmp_reg__
  87 001c CDBF      		out __SP_L__,r28
  88               	/* prologue: function */
  89               	/* frame size = 44 */
  90 001e FC01      		movw r30,r24
  91 0020 6B01      		movw r12,r22
  92 0022 8A01      		movw r16,r20
  93               	.LSM8:
  94 0024 8091 0000 		lds r24,USB_DeviceState
  95               	.LVL3:
  96 0028 8430      		cpi r24,lo8(4)
  97 002a 01F0      		breq .+2
  98 002c 00C0      		rjmp .L6
  99               	.LVL4:
 100 002e EA56      		subi r30,lo8(-(150))
 101 0030 FF4F      		sbci r31,hi8(-(150))
 102 0032 8081      		ld r24,Z
 103 0034 E659      		subi r30,lo8(-(-150))
 104 0036 F040      		sbci r31,hi8(-(-150))
 105 0038 8230      		cpi r24,lo8(2)
 106 003a 01F0      		breq .+2
 107 003c 00C0      		rjmp .L6
 108               	.LSM9:
 109 003e 8181      		ldd r24,Z+1
 110               	.LBB48:
 111               	.LBB49:
 112               	.LSM10:
 113 0040 8093 E900 		sts 233,r24
 114               	.LBE49:
 115               	.LBE48:
 116               	.LSM11:
 117 0044 0E94 0000 		call Endpoint_WaitUntilReady
 118               	.LVL5:
 119 0048 F82E      		mov r15,r24
 120               	.LVL6:
 121 004a 8823      		tst r24
 122 004c 01F4      		brne .L7
 123               	.LVL7:
 124               	.LSM12:
 125 004e FE01      		movw r30,r28
 126 0050 3196      		adiw r30,1
 127 0052 8CE2      		ldi r24,lo8(44)
 128               	.LVL8:
 129 0054 DF01      		movw r26,r30
 130 0056 1D92      		st X+,__zero_reg__
 131 0058 8A95      	        dec r24
 132 005a 01F4      		brne .-6
 133               	.LSM13:
 134 005c 81E0      		ldi r24,lo8(1)
 135 005e 90E0      		ldi r25,hi8(1)
 136 0060 A0E0      		ldi r26,hlo8(1)
 137 0062 B0E0      		ldi r27,hhi8(1)
 138 0064 8983      		std Y+1,r24
 139 0066 9A83      		std Y+2,r25
 140 0068 AB83      		std Y+3,r26
 141 006a BC83      		std Y+4,r27
 142               	.LSM14:
 143 006c 045D      		subi r16,lo8(-(44))
 144 006e 1F4F      		sbci r17,hi8(-(44))
 145 0070 C801      		movw r24,r16
 146 0072 A0E0      		ldi r26,lo8(0)
 147 0074 B0E0      		ldi r27,hi8(0)
 148 0076 0C52      		subi r16,lo8(-(-44))
 149 0078 1040      		sbci r17,hi8(-(-44))
 150 007a 8D83      		std Y+5,r24
 151 007c 9E83      		std Y+6,r25
 152 007e AF83      		std Y+7,r26
 153 0080 B887      		std Y+8,r27
 154               	.LSM15:
 155 0082 84E2      		ldi r24,lo8(36)
 156 0084 90E0      		ldi r25,hi8(36)
 157 0086 A0E0      		ldi r26,hlo8(36)
 158 0088 B0E0      		ldi r27,hhi8(36)
 159 008a 8987      		std Y+9,r24
 160 008c 9A87      		std Y+10,r25
 161 008e AB87      		std Y+11,r26
 162 0090 BC87      		std Y+12,r27
 163               	.LSM16:
 164 0092 C801      		movw r24,r16
 165 0094 A0E0      		ldi r26,lo8(0)
 166 0096 B0E0      		ldi r27,hi8(0)
 167               	.LVL9:
 168 0098 8D87      		std Y+13,r24
 169 009a 9E87      		std Y+14,r25
 170 009c AF87      		std Y+15,r26
 171 009e B88B      		std Y+16,r27
 172               	.LSM17:
 173 00a0 CF01      		movw r24,r30
 174 00a2 6CE2      		ldi r22,lo8(44)
 175 00a4 70E0      		ldi r23,hi8(44)
 176 00a6 40E0      		ldi r20,lo8(0)
 177 00a8 50E0      		ldi r21,hi8(0)
 178 00aa 0E94 0000 		call Endpoint_Write_Stream_LE
 179               	.LVL10:
 180               	.LSM18:
 181 00ae C601      		movw r24,r12
 182 00b0 B801      		movw r22,r16
 183 00b2 40E0      		ldi r20,lo8(0)
 184 00b4 50E0      		ldi r21,hi8(0)
 185 00b6 0E94 0000 		call Endpoint_Write_Stream_LE
 186               	.LBB50:
 187               	.LBB51:
 188               	.LSM19:
 189 00ba 8091 E800 		lds r24,232
 190 00be 8E77      		andi r24,lo8(126)
 191 00c0 8093 E800 		sts 232,r24
 192 00c4 00C0      		rjmp .L7
 193               	.LVL11:
 194               	.L6:
 195               	.LSM20:
 196 00c6 32E0      		ldi r19,lo8(2)
 197 00c8 F32E      		mov r15,r19
 198               	.LVL12:
 199               	.L7:
 200               	.LBE51:
 201               	.LBE50:
 202               	.LSM21:
 203 00ca 8F2D      		mov r24,r15
 204               	/* epilogue start */
 205 00cc AC96      		adiw r28,44
 206 00ce 0FB6      		in __tmp_reg__,__SREG__
 207 00d0 F894      		cli
 208 00d2 DEBF      		out __SP_H__,r29
 209 00d4 0FBE      		out __SREG__,__tmp_reg__
 210 00d6 CDBF      		out __SP_L__,r28
 211 00d8 CF91      		pop r28
 212 00da DF91      		pop r29
 213 00dc 1F91      		pop r17
 214 00de 0F91      		pop r16
 215               	.LVL13:
 216 00e0 FF90      		pop r15
 217               	.LVL14:
 218 00e2 DF90      		pop r13
 219 00e4 CF90      		pop r12
 220               	.LVL15:
 221 00e6 0895      		ret
 222               	.LFE104:
 224               		.section	.text.RNDIS_Device_USBTask,"ax",@progbits
 225               	.global	RNDIS_Device_USBTask
 227               	RNDIS_Device_USBTask:
 228               	.LFB98:
 229               	.LSM22:
 230               	.LVL16:
 231 0000 0F93      		push r16
 232 0002 1F93      		push r17
 233 0004 DF93      		push r29
 234 0006 CF93      		push r28
 235 0008 CDB7      		in r28,__SP_L__
 236 000a DEB7      		in r29,__SP_H__
 237 000c 2897      		sbiw r28,8
 238 000e 0FB6      		in __tmp_reg__,__SREG__
 239 0010 F894      		cli
 240 0012 DEBF      		out __SP_H__,r29
 241 0014 0FBE      		out __SREG__,__tmp_reg__
 242 0016 CDBF      		out __SP_L__,r28
 243               	/* prologue: function */
 244               	/* frame size = 8 */
 245 0018 8C01      		movw r16,r24
 246               	.LSM23:
 247 001a 8091 0000 		lds r24,USB_DeviceState
 248               	.LVL17:
 249 001e 8430      		cpi r24,lo8(4)
 250 0020 01F4      		brne .L12
 251               	.LSM24:
 252 0022 F801      		movw r30,r16
 253 0024 8185      		ldd r24,Z+9
 254               	.LBB52:
 255               	.LBB53:
 256               	.LSM25:
 257 0026 8093 E900 		sts 233,r24
 258               	.LBE53:
 259               	.LBE52:
 260               	.LBB54:
 261               	.LBB55:
 262               	.LSM26:
 263 002a 8091 E800 		lds r24,232
 264               	.LBE55:
 265               	.LBE54:
 266               	.LSM27:
 267 002e 80FF      		sbrs r24,0
 268 0030 00C0      		rjmp .L12
 269 0032 0B56      		subi r16,lo8(-(149))
 270 0034 1F4F      		sbci r17,hi8(-(149))
 271 0036 F801      		movw r30,r16
 272 0038 8081      		ld r24,Z
 273 003a 0559      		subi r16,lo8(-(-149))
 274 003c 1040      		sbci r17,hi8(-(-149))
 275 003e 8823      		tst r24
 276 0040 01F0      		breq .L12
 277               	.LBB56:
 278               	.LSM28:
 279 0042 DE01      		movw r26,r28
 280 0044 1196      		adiw r26,1
 281 0046 E0E0      		ldi r30,lo8(C.13.3829)
 282 0048 F0E0      		ldi r31,hi8(C.13.3829)
 283 004a 88E0      		ldi r24,lo8(8)
 284               	.L11:
 285 004c 0190      		ld r0,Z+
 286 004e 0D92      		st X+,r0
 287 0050 8150      		subi r24,lo8(-(-1))
 288 0052 01F4      		brne .L11
 289               	.LSM29:
 290 0054 CE01      		movw r24,r28
 291 0056 0196      		adiw r24,1
 292 0058 68E0      		ldi r22,lo8(8)
 293 005a 70E0      		ldi r23,hi8(8)
 294 005c 40E0      		ldi r20,lo8(0)
 295 005e 50E0      		ldi r21,hi8(0)
 296 0060 0E94 0000 		call Endpoint_Write_Stream_LE
 297               	.LBB57:
 298               	.LBB58:
 299               	.LSM30:
 300 0064 8091 E800 		lds r24,232
 301 0068 8E77      		andi r24,lo8(126)
 302 006a 8093 E800 		sts 232,r24
 303               	.LBE58:
 304               	.LBE57:
 305               	.LSM31:
 306 006e 0B56      		subi r16,lo8(-(149))
 307 0070 1F4F      		sbci r17,hi8(-(149))
 308 0072 F801      		movw r30,r16
 309 0074 1082      		st Z,__zero_reg__
 310               	.L12:
 311               	/* epilogue start */
 312               	.LBE56:
 313               	.LSM32:
 314 0076 2896      		adiw r28,8
 315 0078 0FB6      		in __tmp_reg__,__SREG__
 316 007a F894      		cli
 317 007c DEBF      		out __SP_H__,r29
 318 007e 0FBE      		out __SREG__,__tmp_reg__
 319 0080 CDBF      		out __SP_L__,r28
 320 0082 CF91      		pop r28
 321 0084 DF91      		pop r29
 322 0086 1F91      		pop r17
 323 0088 0F91      		pop r16
 324               	.LVL18:
 325 008a 0895      		ret
 326               	.LFE98:
 328               		.section	.text.RNDIS_Device_ReadPacket,"ax",@progbits
 329               	.global	RNDIS_Device_ReadPacket
 331               	RNDIS_Device_ReadPacket:
 332               	.LFB103:
 333               	.LSM33:
 334               	.LVL19:
 335 0000 EF92      		push r14
 336 0002 FF92      		push r15
 337 0004 0F93      		push r16
 338 0006 1F93      		push r17
 339 0008 DF93      		push r29
 340 000a CF93      		push r28
 341 000c CDB7      		in r28,__SP_L__
 342 000e DEB7      		in r29,__SP_H__
 343 0010 AC97      		sbiw r28,44
 344 0012 0FB6      		in __tmp_reg__,__SREG__
 345 0014 F894      		cli
 346 0016 DEBF      		out __SP_H__,r29
 347 0018 0FBE      		out __SREG__,__tmp_reg__
 348 001a CDBF      		out __SP_L__,r28
 349               	/* prologue: function */
 350               	/* frame size = 44 */
 351 001c FC01      		movw r30,r24
 352 001e 7B01      		movw r14,r22
 353 0020 8A01      		movw r16,r20
 354               	.LSM34:
 355 0022 8091 0000 		lds r24,USB_DeviceState
 356               	.LVL20:
 357 0026 8430      		cpi r24,lo8(4)
 358 0028 01F4      		brne .L15
 359               	.LVL21:
 360 002a EA56      		subi r30,lo8(-(150))
 361 002c FF4F      		sbci r31,hi8(-(150))
 362 002e 8081      		ld r24,Z
 363 0030 E659      		subi r30,lo8(-(-150))
 364 0032 F040      		sbci r31,hi8(-(-150))
 365 0034 8230      		cpi r24,lo8(2)
 366 0036 01F4      		brne .L15
 367               	.LSM35:
 368 0038 8581      		ldd r24,Z+5
 369               	.LBB59:
 370               	.LBB60:
 371               	.LSM36:
 372 003a 8093 E900 		sts 233,r24
 373               	.LBE60:
 374               	.LBE59:
 375               	.LSM37:
 376 003e FA01      		movw r30,r20
 377               	.LVL22:
 378 0040 1182      		std Z+1,__zero_reg__
 379 0042 1082      		st Z,__zero_reg__
 380               	.LBB61:
 381               	.LBB62:
 382               	.LSM38:
 383 0044 8091 E800 		lds r24,232
 384               	.LBE62:
 385               	.LBE61:
 386               	.LSM39:
 387 0048 82FF      		sbrs r24,2
 388 004a 00C0      		rjmp .L20
 389               	.LVL23:
 390               	.L16:
 391               	.LSM40:
 392 004c CE01      		movw r24,r28
 393 004e 0196      		adiw r24,1
 394 0050 6CE2      		ldi r22,lo8(44)
 395 0052 70E0      		ldi r23,hi8(44)
 396 0054 40E0      		ldi r20,lo8(0)
 397 0056 50E0      		ldi r21,hi8(0)
 398               	.LVL24:
 399 0058 0E94 0000 		call Endpoint_Read_Stream_LE
 400               	.LSM41:
 401 005c 8D85      		ldd r24,Y+13
 402 005e 9E85      		ldd r25,Y+14
 403 0060 AF85      		ldd r26,Y+15
 404 0062 B889      		ldd r27,Y+16
 405 0064 8D3D      		cpi r24,lo8(1501)
 406 0066 F5E0      		ldi r31,hi8(1501)
 407 0068 9F07      		cpc r25,r31
 408 006a F0E0      		ldi r31,hlo8(1501)
 409 006c AF07      		cpc r26,r31
 410 006e F0E0      		ldi r31,hhi8(1501)
 411 0070 BF07      		cpc r27,r31
 412 0072 00F0      		brlo .L18
 413               	.LBB63:
 414               	.LBB64:
 415               	.LSM42:
 416 0074 8091 EB00 		lds r24,235
 417 0078 8062      		ori r24,lo8(32)
 418 007a 8093 EB00 		sts 235,r24
 419 007e 80E8      		ldi r24,lo8(-128)
 420 0080 00C0      		rjmp .L17
 421               	.L18:
 422               	.LBE64:
 423               	.LBE63:
 424               	.LSM43:
 425 0082 F801      		movw r30,r16
 426 0084 9183      		std Z+1,r25
 427 0086 8083      		st Z,r24
 428               	.LSM44:
 429 0088 6D85      		ldd r22,Y+13
 430 008a 7E85      		ldd r23,Y+14
 431 008c C701      		movw r24,r14
 432 008e 40E0      		ldi r20,lo8(0)
 433 0090 50E0      		ldi r21,hi8(0)
 434 0092 0E94 0000 		call Endpoint_Read_Stream_LE
 435               	.LBB65:
 436               	.LBB66:
 437               	.LSM45:
 438 0096 8091 E800 		lds r24,232
 439 009a 8B77      		andi r24,lo8(123)
 440 009c 8093 E800 		sts 232,r24
 441               	.LVL25:
 442               	.L20:
 443 00a0 80E0      		ldi r24,lo8(0)
 444 00a2 00C0      		rjmp .L17
 445               	.LVL26:
 446               	.L15:
 447               	.LSM46:
 448 00a4 82E0      		ldi r24,lo8(2)
 449               	.L17:
 450               	/* epilogue start */
 451               	.LBE66:
 452               	.LBE65:
 453               	.LSM47:
 454 00a6 AC96      		adiw r28,44
 455 00a8 0FB6      		in __tmp_reg__,__SREG__
 456 00aa F894      		cli
 457 00ac DEBF      		out __SP_H__,r29
 458 00ae 0FBE      		out __SREG__,__tmp_reg__
 459 00b0 CDBF      		out __SP_L__,r28
 460 00b2 CF91      		pop r28
 461 00b4 DF91      		pop r29
 462 00b6 1F91      		pop r17
 463 00b8 0F91      		pop r16
 464               	.LVL27:
 465 00ba FF90      		pop r15
 466 00bc EF90      		pop r14
 467               	.LVL28:
 468 00be 0895      		ret
 469               	.LFE103:
 471               		.section	.text.RNDIS_Device_ConfigureEndpoints,"ax",@progbits
 472               	.global	RNDIS_Device_ConfigureEndpoints
 474               	RNDIS_Device_ConfigureEndpoints:
 475               	.LFB97:
 476               	.LSM48:
 477               	.LVL29:
 478 0000 1F93      		push r17
 479 0002 CF93      		push r28
 480 0004 DF93      		push r29
 481               	/* prologue: function */
 482               	/* frame size = 0 */
 483 0006 EC01      		movw r28,r24
 484               	.LSM49:
 485 0008 4596      		adiw r24,21
 486               	.LVL30:
 487 000a FC01      		movw r30,r24
 488 000c 86E8      		ldi r24,lo8(-122)
 489 000e DF01      		movw r26,r30
 490 0010 1D92      		st X+,__zero_reg__
 491 0012 8A95      	        dec r24
 492 0014 01F4      		brne .-6
 493 0016 11E0      		ldi r17,lo8(1)
 494               	.LVL31:
 495               	.L31:
 496               	.LBB67:
 497               	.LBB68:
 498               	.LSM50:
 499 0018 8981      		ldd r24,Y+1
 500 001a 1817      		cp r17,r24
 501 001c 01F4      		brne .L22
 502               	.LSM51:
 503 001e EA81      		ldd r30,Y+2
 504 0020 FB81      		ldd r31,Y+3
 505               	.LVL32:
 506               	.LSM52:
 507 0022 8C81      		ldd r24,Y+4
 508               	.LVL33:
 509 0024 62E0      		ldi r22,lo8(2)
 510               	.LVL34:
 511 0026 00C0      		rjmp .L34
 512               	.LVL35:
 513               	.L22:
 514               	.LSM53:
 515 0028 8D81      		ldd r24,Y+5
 516 002a 1817      		cp r17,r24
 517 002c 01F4      		brne .L24
 518               	.LSM54:
 519 002e EE81      		ldd r30,Y+6
 520 0030 FF81      		ldd r31,Y+7
 521               	.LVL36:
 522               	.LSM55:
 523 0032 8885      		ldd r24,Y+8
 524               	.LVL37:
 525 0034 62E0      		ldi r22,lo8(2)
 526               	.LVL38:
 527 0036 30E0      		ldi r19,lo8(0)
 528               	.LVL39:
 529 0038 00C0      		rjmp .L23
 530               	.LVL40:
 531               	.L24:
 532               	.LSM56:
 533 003a 8985      		ldd r24,Y+9
 534 003c 1817      		cp r17,r24
 535 003e 01F4      		brne .L25
 536               	.LSM57:
 537 0040 EA85      		ldd r30,Y+10
 538 0042 FB85      		ldd r31,Y+11
 539               	.LVL41:
 540               	.LSM58:
 541 0044 8C85      		ldd r24,Y+12
 542               	.LVL42:
 543 0046 63E0      		ldi r22,lo8(3)
 544               	.LVL43:
 545               	.L34:
 546 0048 31E0      		ldi r19,lo8(1)
 547               	.LVL44:
 548               	.L23:
 549               	.LSM59:
 550 004a 8823      		tst r24
 551 004c 01F4      		brne .L26
 552 004e 40E0      		ldi r20,lo8(0)
 553 0050 00C0      		rjmp .L27
 554               	.L26:
 555 0052 44E0      		ldi r20,lo8(4)
 556               	.L27:
 557 0054 20E0      		ldi r18,lo8(0)
 558               	.LVL45:
 559 0056 88E0      		ldi r24,lo8(8)
 560 0058 90E0      		ldi r25,hi8(8)
 561               	.LVL46:
 562 005a 00C0      		rjmp .L28
 563               	.L29:
 564               	.LBB69:
 565               	.LBB70:
 566               	.LBB71:
 567               	.LBB72:
 568               	.LSM60:
 569 005c 2F5F      		subi r18,lo8(-(1))
 570               	.LSM61:
 571 005e 880F      		lsl r24
 572 0060 991F      		rol r25
 573               	.L28:
 574               	.LSM62:
 575 0062 8E17      		cp r24,r30
 576 0064 9F07      		cpc r25,r31
 577 0066 00F0      		brlo .L29
 578               	.LBE72:
 579               	.LBE71:
 580               	.LBE70:
 581               	.LSM63:
 582 0068 6295      		swap r22
 583 006a 660F      		lsl r22
 584 006c 660F      		lsl r22
 585 006e 607C      		andi r22,lo8(-64)
 586 0070 632B      		or r22,r19
 587 0072 4260      		ori r20,lo8(2)
 588 0074 2295      		swap r18
 589 0076 207F      		andi r18,lo8(-16)
 590 0078 422B      		or r20,r18
 591 007a 812F      		mov r24,r17
 592               	.LVL47:
 593 007c 0E94 0000 		call Endpoint_ConfigureEndpoint_Prv
 594               	.LVL48:
 595               	.LBE69:
 596               	.LSM64:
 597 0080 8823      		tst r24
 598 0082 01F0      		breq .L30
 599               	.L25:
 600               	.LBE68:
 601               	.LSM65:
 602 0084 1F5F      		subi r17,lo8(-(1))
 603 0086 1730      		cpi r17,lo8(7)
 604 0088 01F4      		brne .L31
 605 008a 81E0      		ldi r24,lo8(1)
 606               	.L30:
 607               	/* epilogue start */
 608               	.LBE67:
 609               	.LSM66:
 610 008c DF91      		pop r29
 611 008e CF91      		pop r28
 612               	.LVL49:
 613 0090 1F91      		pop r17
 614               	.LVL50:
 615 0092 0895      		ret
 616               	.LFE97:
 618               		.section	.text.RNDIS_Device_ProcessControlRequest,"ax",@progbits
 619               	.global	RNDIS_Device_ProcessControlRequest
 621               	RNDIS_Device_ProcessControlRequest:
 622               	.LFB96:
 623               	.LSM67:
 624               	.LVL51:
 625 0000 EF92      		push r14
 626 0002 FF92      		push r15
 627 0004 0F93      		push r16
 628 0006 1F93      		push r17
 629 0008 CF93      		push r28
 630 000a DF93      		push r29
 631               	/* prologue: function */
 632               	/* frame size = 0 */
 633 000c EC01      		movw r28,r24
 634               	.LBB91:
 635               	.LBB92:
 636               	.LSM68:
 637 000e 8091 E800 		lds r24,232
 638               	.LVL52:
 639               	.LBE92:
 640               	.LBE91:
 641               	.LSM69:
 642 0012 83FF      		sbrs r24,3
 643 0014 00C0      		rjmp .L75
 644               	.LSM70:
 645 0016 8881      		ld r24,Y
 646 0018 90E0      		ldi r25,lo8(0)
 647 001a 2091 0000 		lds r18,USB_ControlRequest+4
 648 001e 3091 0000 		lds r19,(USB_ControlRequest+4)+1
 649 0022 2817      		cp r18,r24
 650 0024 3907      		cpc r19,r25
 651 0026 01F0      		breq .+2
 652 0028 00C0      		rjmp .L75
 653               	.LSM71:
 654 002a 8091 0000 		lds r24,USB_ControlRequest+1
 655 002e 8823      		tst r24
 656 0030 01F0      		breq .L37
 657 0032 8130      		cpi r24,lo8(1)
 658 0034 01F0      		breq .+2
 659 0036 00C0      		rjmp .L75
 660 0038 00C0      		rjmp .L83
 661               	.L37:
 662               	.LSM72:
 663 003a 8091 0000 		lds r24,USB_ControlRequest
 664 003e 8132      		cpi r24,lo8(33)
 665 0040 01F0      		breq .+2
 666 0042 00C0      		rjmp .L75
 667               	.LBB93:
 668               	.LBB94:
 669               	.LSM73:
 670 0044 8091 E800 		lds r24,232
 671 0048 877F      		andi r24,lo8(-9)
 672 004a 8093 E800 		sts 232,r24
 673               	.LBE94:
 674               	.LBE93:
 675               	.LSM74:
 676 004e 8E01      		movw r16,r28
 677 0050 0B5E      		subi r16,lo8(-(21))
 678 0052 1F4F      		sbci r17,hi8(-(21))
 679 0054 6091 0000 		lds r22,USB_ControlRequest+6
 680 0058 7091 0000 		lds r23,(USB_ControlRequest+6)+1
 681 005c C801      		movw r24,r16
 682 005e 0E94 0000 		call Endpoint_Read_Control_Stream_LE
 683               	.LBB95:
 684               	.LBB96:
 685               	.LSM75:
 686 0062 8091 E800 		lds r24,232
 687 0066 8E77      		andi r24,lo8(126)
 688 0068 8093 E800 		sts 232,r24
 689               	.LBE96:
 690               	.LBE95:
 691               	.LBB97:
 692               	.LBB98:
 693               	.LSM76:
 694 006c 8D89      		ldd r24,Y+21
 695 006e 9E89      		ldd r25,Y+22
 696 0070 AF89      		ldd r26,Y+23
 697 0072 B88D      		ldd r27,Y+24
 698 0074 8430      		cpi r24,lo8(4)
 699 0076 9105      		cpc r25,__zero_reg__
 700 0078 A105      		cpc r26,__zero_reg__
 701 007a B105      		cpc r27,__zero_reg__
 702 007c 01F4      		brne .+2
 703 007e 00C0      		rjmp .L41
 704 0080 8530      		cpi r24,lo8(5)
 705 0082 9105      		cpc r25,__zero_reg__
 706 0084 A105      		cpc r26,__zero_reg__
 707 0086 B105      		cpc r27,__zero_reg__
 708 0088 00F4      		brsh .L45
 709 008a 8230      		cpi r24,lo8(2)
 710 008c 9105      		cpc r25,__zero_reg__
 711 008e A105      		cpc r26,__zero_reg__
 712 0090 B105      		cpc r27,__zero_reg__
 713 0092 01F0      		breq .L39
 714 0094 0397      		sbiw r24,3
 715 0096 A105      		cpc r26,__zero_reg__
 716 0098 B105      		cpc r27,__zero_reg__
 717 009a 01F0      		breq .+2
 718 009c 00C0      		rjmp .L75
 719 009e 00C0      		rjmp .L84
 720               	.L45:
 721 00a0 8630      		cpi r24,lo8(6)
 722 00a2 9105      		cpc r25,__zero_reg__
 723 00a4 A105      		cpc r26,__zero_reg__
 724 00a6 B105      		cpc r27,__zero_reg__
 725 00a8 01F4      		brne .+2
 726 00aa 00C0      		rjmp .L43
 727 00ac 8630      		cpi r24,lo8(6)
 728 00ae 9105      		cpc r25,__zero_reg__
 729 00b0 A105      		cpc r26,__zero_reg__
 730 00b2 B105      		cpc r27,__zero_reg__
 731 00b4 00F4      		brsh .+2
 732 00b6 00C0      		rjmp .L42
 733 00b8 0897      		sbiw r24,8
 734 00ba A105      		cpc r26,__zero_reg__
 735 00bc B105      		cpc r27,__zero_reg__
 736 00be 01F0      		breq .+2
 737 00c0 00C0      		rjmp .L75
 738 00c2 00C0      		rjmp .L85
 739               	.L39:
 740               	.LBB99:
 741               	.LSM77:
 742 00c4 CB56      		subi r28,lo8(-(149))
 743 00c6 DF4F      		sbci r29,hi8(-(149))
 744 00c8 21E0      		ldi r18,lo8(1)
 745 00ca 2883      		st Y,r18
 746 00cc C559      		subi r28,lo8(-(-149))
 747 00ce D040      		sbci r29,hi8(-(-149))
 748               	.LSM78:
 749 00d0 82E0      		ldi r24,lo8(-2147483646)
 750 00d2 90E0      		ldi r25,hi8(-2147483646)
 751 00d4 A0E0      		ldi r26,hlo8(-2147483646)
 752 00d6 B0E8      		ldi r27,hhi8(-2147483646)
 753 00d8 8D8B      		std Y+21,r24
 754 00da 9E8B      		std Y+22,r25
 755 00dc AF8B      		std Y+23,r26
 756 00de B88F      		std Y+24,r27
 757               	.LSM79:
 758 00e0 84E3      		ldi r24,lo8(52)
 759 00e2 90E0      		ldi r25,hi8(52)
 760 00e4 A0E0      		ldi r26,hlo8(52)
 761 00e6 B0E0      		ldi r27,hhi8(52)
 762 00e8 F801      		movw r30,r16
 763 00ea 8483      		std Z+4,r24
 764 00ec 9583      		std Z+5,r25
 765 00ee A683      		std Z+6,r26
 766 00f0 B783      		std Z+7,r27
 767               	.LSM80:
 768 00f2 1486      		std Z+12,__zero_reg__
 769 00f4 1586      		std Z+13,__zero_reg__
 770 00f6 1686      		std Z+14,__zero_reg__
 771 00f8 1786      		std Z+15,__zero_reg__
 772               	.LSM81:
 773 00fa 81E0      		ldi r24,lo8(1)
 774 00fc 90E0      		ldi r25,hi8(1)
 775 00fe A0E0      		ldi r26,hlo8(1)
 776 0100 B0E0      		ldi r27,hhi8(1)
 777 0102 808B      		std Z+16,r24
 778 0104 918B      		std Z+17,r25
 779 0106 A28B      		std Z+18,r26
 780 0108 B38B      		std Z+19,r27
 781               	.LSM82:
 782 010a 148A      		std Z+20,__zero_reg__
 783 010c 158A      		std Z+21,__zero_reg__
 784 010e 168A      		std Z+22,__zero_reg__
 785 0110 178A      		std Z+23,__zero_reg__
 786               	.LSM83:
 787 0112 808F      		std Z+24,r24
 788 0114 918F      		std Z+25,r25
 789 0116 A28F      		std Z+26,r26
 790 0118 B38F      		std Z+27,r27
 791               	.LSM84:
 792 011a 148E      		std Z+28,__zero_reg__
 793 011c 158E      		std Z+29,__zero_reg__
 794 011e 168E      		std Z+30,__zero_reg__
 795 0120 178E      		std Z+31,__zero_reg__
 796               	.LSM85:
 797 0122 80A3      		std Z+32,r24
 798 0124 91A3      		std Z+33,r25
 799 0126 A2A3      		std Z+34,r26
 800 0128 B3A3      		std Z+35,r27
 801               	.LSM86:
 802 012a 88E0      		ldi r24,lo8(1544)
 803 012c 96E0      		ldi r25,hi8(1544)
 804 012e A0E0      		ldi r26,hlo8(1544)
 805 0130 B0E0      		ldi r27,hhi8(1544)
 806 0132 84A3      		std Z+36,r24
 807 0134 95A3      		std Z+37,r25
 808 0136 A6A3      		std Z+38,r26
 809 0138 B7A3      		std Z+39,r27
 810               	.LSM87:
 811 013a 10A6      		std Z+40,__zero_reg__
 812 013c 11A6      		std Z+41,__zero_reg__
 813 013e 12A6      		std Z+42,__zero_reg__
 814 0140 13A6      		std Z+43,__zero_reg__
 815               	.LSM88:
 816 0142 14A6      		std Z+44,__zero_reg__
 817 0144 15A6      		std Z+45,__zero_reg__
 818 0146 16A6      		std Z+46,__zero_reg__
 819 0148 17A6      		std Z+47,__zero_reg__
 820               	.LSM89:
 821 014a 10AA      		std Z+48,__zero_reg__
 822 014c 11AA      		std Z+49,__zero_reg__
 823 014e 12AA      		std Z+50,__zero_reg__
 824 0150 13AA      		std Z+51,__zero_reg__
 825               	.LSM90:
 826 0152 CA56      		subi r28,lo8(-(150))
 827 0154 DF4F      		sbci r29,hi8(-(150))
 828 0156 2883      		st Y,r18
 829 0158 00C0      		rjmp .L75
 830               	.L84:
 831               	.LSM91:
 832 015a CB56      		subi r28,lo8(-(149))
 833 015c DF4F      		sbci r29,hi8(-(149))
 834 015e 1992      		st Y+,__zero_reg__
 835               	.LSM92:
 836 0160 F801      		movw r30,r16
 837 0162 1482      		std Z+4,__zero_reg__
 838 0164 1582      		std Z+5,__zero_reg__
 839 0166 1682      		std Z+6,__zero_reg__
 840 0168 1782      		std Z+7,__zero_reg__
 841               	.LSM93:
 842 016a 1882      		st Y,__zero_reg__
 843               	.LVL53:
 844 016c 00C0      		rjmp .L75
 845               	.LVL54:
 846               	.L41:
 847               	.LSM94:
 848 016e CB56      		subi r28,lo8(-(149))
 849 0170 DF4F      		sbci r29,hi8(-(149))
 850 0172 81E0      		ldi r24,lo8(1)
 851 0174 8883      		st Y,r24
 852 0176 C559      		subi r28,lo8(-(-149))
 853 0178 D040      		sbci r29,hi8(-(-149))
 854               	.LSM95:
 855 017a F801      		movw r30,r16
 856 017c 2485      		ldd r18,Z+12
 857 017e 3585      		ldd r19,Z+13
 858 0180 4685      		ldd r20,Z+14
 859 0182 5785      		ldd r21,Z+15
 860               	.LVL55:
 861               	.LSM96:
 862 0184 6DE2      		ldi r22,lo8(45)
 863 0186 E62E      		mov r14,r22
 864 0188 F12C      		mov r15,__zero_reg__
 865               	.LVL56:
 866 018a EC0E      		add r14,r28
 867 018c FD1E      		adc r15,r29
 868               	.LSM97:
 869 018e 84E0      		ldi r24,lo8(-2147483644)
 870 0190 90E0      		ldi r25,hi8(-2147483644)
 871 0192 A0E0      		ldi r26,hlo8(-2147483644)
 872 0194 B0E8      		ldi r27,hhi8(-2147483644)
 873 0196 8D8B      		std Y+21,r24
 874 0198 9E8B      		std Y+22,r25
 875 019a AF8B      		std Y+23,r26
 876 019c B88F      		std Y+24,r27
 877               	.LSM98:
 878 019e 88E1      		ldi r24,lo8(24)
 879 01a0 90E0      		ldi r25,hi8(24)
 880 01a2 A0E0      		ldi r26,hlo8(24)
 881 01a4 B0E0      		ldi r27,hhi8(24)
 882 01a6 8483      		std Z+4,r24
 883 01a8 9583      		std Z+5,r25
 884 01aa A683      		std Z+6,r26
 885 01ac B783      		std Z+7,r27
 886               	.LBB102:
 887               	.LBB103:
 888               	.LSM99:
 889 01ae 2E30      		cpi r18,lo8(65806)
 890 01b0 F1E0      		ldi r31,hi8(65806)
 891 01b2 3F07      		cpc r19,r31
 892 01b4 F1E0      		ldi r31,hlo8(65806)
 893 01b6 4F07      		cpc r20,r31
 894 01b8 F0E0      		ldi r31,hhi8(65806)
 895 01ba 5F07      		cpc r21,r31
 896 01bc 01F4      		brne .+2
 897 01be 00C0      		rjmp .L54
 898 01c0 2F30      		cpi r18,lo8(65807)
 899 01c2 61E0      		ldi r22,hi8(65807)
 900 01c4 3607      		cpc r19,r22
 901 01c6 61E0      		ldi r22,hlo8(65807)
 902 01c8 4607      		cpc r20,r22
 903 01ca 60E0      		ldi r22,hhi8(65807)
 904 01cc 5607      		cpc r21,r22
 905 01ce 00F0      		brlo .+2
 906 01d0 00C0      		rjmp .L61
 907 01d2 2630      		cpi r18,lo8(65798)
 908 01d4 81E0      		ldi r24,hi8(65798)
 909 01d6 3807      		cpc r19,r24
 910 01d8 81E0      		ldi r24,hlo8(65798)
 911 01da 4807      		cpc r20,r24
 912 01dc 80E0      		ldi r24,hhi8(65798)
 913 01de 5807      		cpc r21,r24
 914 01e0 01F4      		brne .+2
 915 01e2 00C0      		rjmp .L50
 916 01e4 2730      		cpi r18,lo8(65799)
 917 01e6 E1E0      		ldi r30,hi8(65799)
 918 01e8 3E07      		cpc r19,r30
 919 01ea E1E0      		ldi r30,hlo8(65799)
 920 01ec 4E07      		cpc r20,r30
 921 01ee E0E0      		ldi r30,hhi8(65799)
 922 01f0 5E07      		cpc r21,r30
 923 01f2 00F4      		brsh .L62
 924 01f4 2230      		cpi r18,lo8(65794)
 925 01f6 F1E0      		ldi r31,hi8(65794)
 926 01f8 3F07      		cpc r19,r31
 927 01fa F1E0      		ldi r31,hlo8(65794)
 928 01fc 4F07      		cpc r20,r31
 929 01fe F0E0      		ldi r31,hhi8(65794)
 930 0200 5F07      		cpc r21,r31
 931 0202 01F4      		brne .+2
 932 0204 00C0      		rjmp .L58
 933 0206 2330      		cpi r18,lo8(65795)
 934 0208 61E0      		ldi r22,hi8(65795)
 935 020a 3607      		cpc r19,r22
 936 020c 61E0      		ldi r22,hlo8(65795)
 937 020e 4607      		cpc r20,r22
 938 0210 60E0      		ldi r22,hhi8(65795)
 939 0212 5607      		cpc r21,r22
 940 0214 00F4      		brsh .L63
 941 0216 2150      		subi r18,lo8(65793)
 942 0218 3140      		sbci r19,hi8(65793)
 943 021a 4140      		sbci r20,hlo8(65793)
 944 021c 5040      		sbci r21,hhi8(65793)
 945 021e 01F0      		breq .+2
 946 0220 00C0      		rjmp .L46
 947 0222 00C0      		rjmp .L86
 948               	.L63:
 949 0224 2550      		subi r18,lo8(65797)
 950 0226 3140      		sbci r19,hi8(65797)
 951 0228 4140      		sbci r20,hlo8(65797)
 952 022a 5040      		sbci r21,hhi8(65797)
 953 022c 00F0      		brlo .+2
 954 022e 00C0      		rjmp .L46
 955 0230 00C0      		rjmp .L58
 956               	.L62:
 957 0232 2C30      		cpi r18,lo8(65804)
 958 0234 F1E0      		ldi r31,hi8(65804)
 959 0236 3F07      		cpc r19,r31
 960 0238 F1E0      		ldi r31,hlo8(65804)
 961 023a 4F07      		cpc r20,r31
 962 023c F0E0      		ldi r31,hhi8(65804)
 963 023e 5F07      		cpc r21,r31
 964 0240 00F4      		brsh .L64
 965 0242 2A30      		cpi r18,lo8(65802)
 966 0244 61E0      		ldi r22,hi8(65802)
 967 0246 3607      		cpc r19,r22
 968 0248 61E0      		ldi r22,hlo8(65802)
 969 024a 4607      		cpc r20,r22
 970 024c 60E0      		ldi r22,hhi8(65802)
 971 024e 5607      		cpc r21,r22
 972 0250 00F0      		brlo .+2
 973 0252 00C0      		rjmp .L50
 974 0254 2750      		subi r18,lo8(65799)
 975 0256 3140      		sbci r19,hi8(65799)
 976 0258 4140      		sbci r20,hlo8(65799)
 977 025a 5040      		sbci r21,hhi8(65799)
 978 025c 01F0      		breq .+2
 979 025e 00C0      		rjmp .L46
 980 0260 00C0      		rjmp .L87
 981               	.L64:
 982 0262 2C30      		cpi r18,lo8(65804)
 983 0264 E1E0      		ldi r30,hi8(65804)
 984 0266 3E07      		cpc r19,r30
 985 0268 E1E0      		ldi r30,hlo8(65804)
 986 026a 4E07      		cpc r20,r30
 987 026c E0E0      		ldi r30,hhi8(65804)
 988 026e 5E07      		cpc r21,r30
 989 0270 01F4      		brne .+2
 990 0272 00C0      		rjmp .L52
 991 0274 2D50      		subi r18,lo8(65805)
 992 0276 3140      		sbci r19,hi8(65805)
 993 0278 4140      		sbci r20,hlo8(65805)
 994 027a 5040      		sbci r21,hhi8(65805)
 995 027c 01F0      		breq .+2
 996 027e 00C0      		rjmp .L46
 997 0280 00C0      		rjmp .L88
 998               	.L61:
 999 0282 2630      		cpi r18,lo8(131334)
 1000 0284 61E0      		ldi r22,hi8(131334)
 1001 0286 3607      		cpc r19,r22
 1002 0288 62E0      		ldi r22,hlo8(131334)
 1003 028a 4607      		cpc r20,r22
 1004 028c 60E0      		ldi r22,hhi8(131334)
 1005 028e 5607      		cpc r21,r22
 1006 0290 00F4      		brsh .L65
 1007 0292 2130      		cpi r18,lo8(131329)
 1008 0294 81E0      		ldi r24,hi8(131329)
 1009 0296 3807      		cpc r19,r24
 1010 0298 82E0      		ldi r24,hlo8(131329)
 1011 029a 4807      		cpc r20,r24
 1012 029c 80E0      		ldi r24,hhi8(131329)
 1013 029e 5807      		cpc r21,r24
 1014 02a0 00F0      		brlo .+2
 1015 02a2 00C0      		rjmp .L58
 1016 02a4 2431      		cpi r18,lo8(65812)
 1017 02a6 E1E0      		ldi r30,hi8(65812)
 1018 02a8 3E07      		cpc r19,r30
 1019 02aa E1E0      		ldi r30,hlo8(65812)
 1020 02ac 4E07      		cpc r20,r30
 1021 02ae E0E0      		ldi r30,hhi8(65812)
 1022 02b0 5E07      		cpc r21,r30
 1023 02b2 01F4      		brne .+2
 1024 02b4 00C0      		rjmp .L58
 1025 02b6 2230      		cpi r18,lo8(66050)
 1026 02b8 F2E0      		ldi r31,hi8(66050)
 1027 02ba 3F07      		cpc r19,r31
 1028 02bc F1E0      		ldi r31,hlo8(66050)
 1029 02be 4F07      		cpc r20,r31
 1030 02c0 F0E0      		ldi r31,hhi8(66050)
 1031 02c2 5F07      		cpc r21,r31
 1032 02c4 01F4      		brne .+2
 1033 02c6 00C0      		rjmp .L58
 1034 02c8 2151      		subi r18,lo8(65809)
 1035 02ca 3140      		sbci r19,hi8(65809)
 1036 02cc 4140      		sbci r20,hlo8(65809)
 1037 02ce 5040      		sbci r21,hhi8(65809)
 1038 02d0 01F0      		breq .+2
 1039 02d2 00C0      		rjmp .L46
 1040 02d4 00C0      		rjmp .L89
 1041               	.L65:
 1042 02d6 2430      		cpi r18,lo8(16843012)
 1043 02d8 81E0      		ldi r24,hi8(16843012)
 1044 02da 3807      		cpc r19,r24
 1045 02dc 81E0      		ldi r24,hlo8(16843012)
 1046 02de 4807      		cpc r20,r24
 1047 02e0 81E0      		ldi r24,hhi8(16843012)
 1048 02e2 5807      		cpc r21,r24
 1049 02e4 01F4      		brne .+2
 1050 02e6 00C0      		rjmp .L60
 1051 02e8 2530      		cpi r18,lo8(16843013)
 1052 02ea E1E0      		ldi r30,hi8(16843013)
 1053 02ec 3E07      		cpc r19,r30
 1054 02ee E1E0      		ldi r30,hlo8(16843013)
 1055 02f0 4E07      		cpc r20,r30
 1056 02f2 E1E0      		ldi r30,hhi8(16843013)
 1057 02f4 5E07      		cpc r21,r30
 1058 02f6 00F4      		brsh .L66
 1059 02f8 2150      		subi r18,lo8(-(-16843009))
 1060 02fa 3140      		sbci r19,hi8(-(-16843009))
 1061 02fc 4140      		sbci r20,hlo8(-(-16843009))
 1062 02fe 5140      		sbci r21,hhi8(-(-16843009))
 1063 0300 2230      		cpi r18,lo8(2)
 1064 0302 3105      		cpc r19,__zero_reg__
 1065 0304 4105      		cpc r20,__zero_reg__
 1066 0306 5105      		cpc r21,__zero_reg__
 1067 0308 00F0      		brlo .+2
 1068 030a 00C0      		rjmp .L46
 1069 030c 00C0      		rjmp .L90
 1070               	.L66:
 1071 030e 2150      		subi r18,lo8(-(-16908545))
 1072 0310 3140      		sbci r19,hi8(-(-16908545))
 1073 0312 4240      		sbci r20,hlo8(-(-16908545))
 1074 0314 5140      		sbci r21,hhi8(-(-16908545))
 1075 0316 2330      		cpi r18,lo8(3)
 1076 0318 3105      		cpc r19,__zero_reg__
 1077 031a 4105      		cpc r20,__zero_reg__
 1078 031c 5105      		cpc r21,__zero_reg__
 1079 031e 00F0      		brlo .+2
 1080 0320 00C0      		rjmp .L46
 1081 0322 00C0      		rjmp .L58
 1082               	.L86:
 1083               	.LSM100:
 1084 0324 C701      		movw r24,r14
 1085 0326 60E0      		ldi r22,lo8(AdapterSupportedOIDList)
 1086 0328 70E0      		ldi r23,hi8(AdapterSupportedOIDList)
 1087 032a 4CE6      		ldi r20,lo8(108)
 1088 032c 50E0      		ldi r21,hi8(108)
 1089 032e 0E94 0000 		call memcpy_P
 1090               	.LVL57:
 1091 0332 CCE6      		ldi r28,lo8(108)
 1092 0334 D0E0      		ldi r29,hi8(108)
 1093               	.LVL58:
 1094 0336 00C0      		rjmp .L67
 1095               	.LVL59:
 1096               	.L52:
 1097               	.LSM101:
 1098 0338 8FEF      		ldi r24,lo8(16777215)
 1099 033a 9FEF      		ldi r25,hi8(16777215)
 1100 033c AFEF      		ldi r26,hlo8(16777215)
 1101 033e B0E0      		ldi r27,hhi8(16777215)
 1102 0340 00C0      		rjmp .L82
 1103               	.L50:
 1104               	.LSM102:
 1105 0342 8CED      		ldi r24,lo8(1500)
 1106 0344 95E0      		ldi r25,hi8(1500)
 1107 0346 A0E0      		ldi r26,hlo8(1500)
 1108 0348 B0E0      		ldi r27,hhi8(1500)
 1109 034a 00C0      		rjmp .L82
 1110               	.L88:
 1111               	.LSM103:
 1112 034c 6D85      		ldd r22,Y+13
 1113 034e 7E85      		ldd r23,Y+14
 1114               	.LBE103:
 1115 0350 FB01      		movw r30,r22
 1116 0352 EF01      		movw r28,r30
 1117               	.LVL60:
 1118 0354 0990      		ld __tmp_reg__,Y+
 1119 0356 0020      		tst __tmp_reg__
 1120 0358 01F4      		brne .-6
 1121               	.LBB104:
 1122 035a CE1B      		sub r28,r30
 1123 035c DF0B      		sbc r29,r31
 1124               	.LSM104:
 1125 035e C701      		movw r24,r14
 1126               	.LVL61:
 1127 0360 AE01      		movw r20,r28
 1128               	.LVL62:
 1129 0362 0E94 0000 		call memcpy
 1130               	.LVL63:
 1131 0366 00C0      		rjmp .L67
 1132               	.LVL64:
 1133               	.L87:
 1134               	.LSM105:
 1135 0368 80EA      		ldi r24,lo8(100000)
 1136 036a 96E8      		ldi r25,hi8(100000)
 1137 036c A1E0      		ldi r26,hlo8(100000)
 1138 036e B0E0      		ldi r27,hhi8(100000)
 1139 0370 00C0      		rjmp .L82
 1140               	.L90:
 1141               	.LSM106:
 1142 0372 D701      		movw r26,r14
 1143 0374 FE01      		movw r30,r28
 1144 0376 3F96      		adiw r30,15
 1145 0378 86E0      		ldi r24,lo8(6)
 1146               	.LVL65:
 1147               	.L69:
 1148 037a 0190      		ld r0,Z+
 1149 037c 0D92      		st X+,r0
 1150 037e 8150      		subi r24,lo8(-(-1))
 1151 0380 01F4      		brne .L69
 1152 0382 C6E0      		ldi r28,lo8(6)
 1153 0384 D0E0      		ldi r29,hi8(6)
 1154               	.LVL66:
 1155 0386 00C0      		rjmp .L67
 1156               	.LVL67:
 1157               	.L60:
 1158               	.LSM107:
 1159 0388 81E0      		ldi r24,lo8(1)
 1160 038a 90E0      		ldi r25,hi8(1)
 1161 038c A0E0      		ldi r26,hlo8(1)
 1162 038e B0E0      		ldi r27,hhi8(1)
 1163 0390 00C0      		rjmp .L82
 1164               	.L54:
 1165               	.LSM108:
 1166 0392 C956      		subi r28,lo8(-(151))
 1167 0394 DF4F      		sbci r29,hi8(-(151))
 1168 0396 8881      		ld r24,Y
 1169 0398 9981      		ldd r25,Y+1
 1170 039a AA81      		ldd r26,Y+2
 1171 039c BB81      		ldd r27,Y+3
 1172 039e C759      		subi r28,lo8(-(-151))
 1173 03a0 D040      		sbci r29,hi8(-(-151))
 1174 03a2 00C0      		rjmp .L82
 1175               	.L58:
 1176               	.LSM109:
 1177 03a4 1DA6      		std Y+45,__zero_reg__
 1178 03a6 1EA6      		std Y+46,__zero_reg__
 1179 03a8 1FA6      		std Y+47,__zero_reg__
 1180 03aa 18AA      		std Y+48,__zero_reg__
 1181 03ac 00C0      		rjmp .L80
 1182               	.L89:
 1183               	.LSM110:
 1184 03ae 8CE5      		ldi r24,lo8(1628)
 1185 03b0 96E0      		ldi r25,hi8(1628)
 1186 03b2 A0E0      		ldi r26,hlo8(1628)
 1187 03b4 B0E0      		ldi r27,hhi8(1628)
 1188               	.L82:
 1189 03b6 8DA7      		std Y+45,r24
 1190 03b8 9EA7      		std Y+46,r25
 1191 03ba AFA7      		std Y+47,r26
 1192 03bc B8AB      		std Y+48,r27
 1193               	.L80:
 1194 03be C4E0      		ldi r28,lo8(4)
 1195 03c0 D0E0      		ldi r29,hi8(4)
 1196               	.LVL68:
 1197 03c2 00C0      		rjmp .L67
 1198               	.LVL69:
 1199               	.L46:
 1200               	.LBE104:
 1201               	.LBE102:
 1202               	.LSM111:
 1203 03c4 8BEB      		ldi r24,lo8(-1073741637)
 1204 03c6 90E0      		ldi r25,hi8(-1073741637)
 1205 03c8 A0E0      		ldi r26,hlo8(-1073741637)
 1206 03ca B0EC      		ldi r27,hhi8(-1073741637)
 1207 03cc F801      		movw r30,r16
 1208 03ce 8487      		std Z+12,r24
 1209 03d0 9587      		std Z+13,r25
 1210 03d2 A687      		std Z+14,r26
 1211 03d4 B787      		std Z+15,r27
 1212               	.LSM112:
 1213 03d6 108A      		std Z+16,__zero_reg__
 1214 03d8 118A      		std Z+17,__zero_reg__
 1215 03da 128A      		std Z+18,__zero_reg__
 1216 03dc 138A      		std Z+19,__zero_reg__
 1217               	.LSM113:
 1218 03de 148A      		std Z+20,__zero_reg__
 1219 03e0 158A      		std Z+21,__zero_reg__
 1220 03e2 168A      		std Z+22,__zero_reg__
 1221 03e4 178A      		std Z+23,__zero_reg__
 1222 03e6 00C0      		rjmp .L75
 1223               	.LVL70:
 1224               	.L42:
 1225               	.LSM114:
 1226 03e8 CB56      		subi r28,lo8(-(149))
 1227 03ea DF4F      		sbci r29,hi8(-(149))
 1228 03ec 81E0      		ldi r24,lo8(1)
 1229 03ee 8883      		st Y,r24
 1230 03f0 C559      		subi r28,lo8(-(-149))
 1231 03f2 D040      		sbci r29,hi8(-(-149))
 1232               	.LSM115:
 1233 03f4 F801      		movw r30,r16
 1234 03f6 2485      		ldd r18,Z+12
 1235 03f8 3585      		ldd r19,Z+13
 1236 03fa 4685      		ldd r20,Z+14
 1237 03fc 5785      		ldd r21,Z+15
 1238               	.LVL71:
 1239               	.LSM116:
 1240 03fe 85E0      		ldi r24,lo8(-2147483643)
 1241 0400 90E0      		ldi r25,hi8(-2147483643)
 1242 0402 A0E0      		ldi r26,hlo8(-2147483643)
 1243 0404 B0E8      		ldi r27,hhi8(-2147483643)
 1244 0406 8D8B      		std Y+21,r24
 1245 0408 9E8B      		std Y+22,r25
 1246 040a AF8B      		std Y+23,r26
 1247 040c B88F      		std Y+24,r27
 1248               	.LSM117:
 1249 040e 80E1      		ldi r24,lo8(16)
 1250 0410 90E0      		ldi r25,hi8(16)
 1251 0412 A0E0      		ldi r26,hlo8(16)
 1252 0414 B0E0      		ldi r27,hhi8(16)
 1253 0416 8483      		std Z+4,r24
 1254 0418 9583      		std Z+5,r25
 1255 041a A683      		std Z+6,r26
 1256 041c B783      		std Z+7,r27
 1257               	.LSM118:
 1258 041e 8489      		ldd r24,Z+20
 1259 0420 9589      		ldd r25,Z+21
 1260 0422 A689      		ldd r26,Z+22
 1261 0424 B789      		ldd r27,Z+23
 1262               	.LBB100:
 1263               	.LBB101:
 1264               	.LSM119:
 1265 0426 2E30      		cpi r18,lo8(65806)
 1266 0428 F1E0      		ldi r31,hi8(65806)
 1267 042a 3F07      		cpc r19,r31
 1268 042c F1E0      		ldi r31,hlo8(65806)
 1269 042e 4F07      		cpc r20,r31
 1270 0430 F0E0      		ldi r31,hhi8(65806)
 1271 0432 5F07      		cpc r21,r31
 1272 0434 01F0      		breq .L71
 1273 0436 2350      		subi r18,lo8(16843011)
 1274 0438 3140      		sbci r19,hi8(16843011)
 1275 043a 4140      		sbci r20,hlo8(16843011)
 1276 043c 5140      		sbci r21,hhi8(16843011)
 1277 043e 01F0      		breq .L79
 1278 0440 8BEB      		ldi r24,lo8(-1073741637)
 1279 0442 90E0      		ldi r25,hi8(-1073741637)
 1280 0444 A0E0      		ldi r26,hlo8(-1073741637)
 1281 0446 B0EC      		ldi r27,hhi8(-1073741637)
 1282 0448 00C0      		rjmp .L73
 1283               	.L71:
 1284               	.LSM120:
 1285 044a FE01      		movw r30,r28
 1286 044c E80F      		add r30,r24
 1287 044e F91F      		adc r31,r25
 1288 0450 858D      		ldd r24,Z+29
 1289 0452 968D      		ldd r25,Z+30
 1290 0454 A78D      		ldd r26,Z+31
 1291 0456 B0A1      		ldd r27,Z+32
 1292 0458 C956      		subi r28,lo8(-(151))
 1293 045a DF4F      		sbci r29,hi8(-(151))
 1294 045c 8883      		st Y,r24
 1295 045e 9983      		std Y+1,r25
 1296 0460 AA83      		std Y+2,r26
 1297 0462 BB83      		std Y+3,r27
 1298               	.LSM121:
 1299 0464 FE01      		movw r30,r28
 1300 0466 82E0      		ldi r24,lo8(2)
 1301 0468 8293      		st -Z,r24
 1302               	.L79:
 1303 046a 80E0      		ldi r24,lo8(0)
 1304 046c 90E0      		ldi r25,hi8(0)
 1305 046e A0E0      		ldi r26,hlo8(0)
 1306 0470 B0E0      		ldi r27,hhi8(0)
 1307               	.L73:
 1308               	.LBE101:
 1309               	.LBE100:
 1310               	.LSM122:
 1311 0472 F801      		movw r30,r16
 1312 0474 8487      		std Z+12,r24
 1313 0476 9587      		std Z+13,r25
 1314 0478 A687      		std Z+14,r26
 1315 047a B787      		std Z+15,r27
 1316 047c 00C0      		rjmp .L75
 1317               	.LVL72:
 1318               	.L43:
 1319               	.LSM123:
 1320 047e CB56      		subi r28,lo8(-(149))
 1321 0480 DF4F      		sbci r29,hi8(-(149))
 1322 0482 81E0      		ldi r24,lo8(1)
 1323 0484 8883      		st Y,r24
 1324 0486 C559      		subi r28,lo8(-(-149))
 1325 0488 D040      		sbci r29,hi8(-(-149))
 1326               	.LSM124:
 1327 048a 86E0      		ldi r24,lo8(-2147483642)
 1328 048c 90E0      		ldi r25,hi8(-2147483642)
 1329 048e A0E0      		ldi r26,hlo8(-2147483642)
 1330 0490 B0E8      		ldi r27,hhi8(-2147483642)
 1331 0492 8D8B      		std Y+21,r24
 1332 0494 9E8B      		std Y+22,r25
 1333 0496 AF8B      		std Y+23,r26
 1334 0498 B88F      		std Y+24,r27
 1335               	.LSM125:
 1336 049a 80E1      		ldi r24,lo8(16)
 1337 049c 90E0      		ldi r25,hi8(16)
 1338 049e A0E0      		ldi r26,hlo8(16)
 1339 04a0 B0E0      		ldi r27,hhi8(16)
 1340 04a2 F801      		movw r30,r16
 1341 04a4 8483      		std Z+4,r24
 1342 04a6 9583      		std Z+5,r25
 1343 04a8 A683      		std Z+6,r26
 1344 04aa B783      		std Z+7,r27
 1345               	.LSM126:
 1346 04ac 1086      		std Z+8,__zero_reg__
 1347 04ae 1186      		std Z+9,__zero_reg__
 1348 04b0 1286      		std Z+10,__zero_reg__
 1349 04b2 1386      		std Z+11,__zero_reg__
 1350 04b4 00C0      		rjmp .L81
 1351               	.L85:
 1352               	.LSM127:
 1353 04b6 CB56      		subi r28,lo8(-(149))
 1354 04b8 DF4F      		sbci r29,hi8(-(149))
 1355 04ba 81E0      		ldi r24,lo8(1)
 1356 04bc 8883      		st Y,r24
 1357 04be C559      		subi r28,lo8(-(-149))
 1358 04c0 D040      		sbci r29,hi8(-(-149))
 1359               	.LSM128:
 1360 04c2 88E0      		ldi r24,lo8(-2147483640)
 1361 04c4 90E0      		ldi r25,hi8(-2147483640)
 1362 04c6 A0E0      		ldi r26,hlo8(-2147483640)
 1363 04c8 B0E8      		ldi r27,hhi8(-2147483640)
 1364 04ca 8D8B      		std Y+21,r24
 1365 04cc 9E8B      		std Y+22,r25
 1366 04ce AF8B      		std Y+23,r26
 1367 04d0 B88F      		std Y+24,r27
 1368               	.LSM129:
 1369 04d2 80E1      		ldi r24,lo8(16)
 1370 04d4 90E0      		ldi r25,hi8(16)
 1371 04d6 A0E0      		ldi r26,hlo8(16)
 1372 04d8 B0E0      		ldi r27,hhi8(16)
 1373 04da F801      		movw r30,r16
 1374 04dc 8483      		std Z+4,r24
 1375 04de 9583      		std Z+5,r25
 1376 04e0 A683      		std Z+6,r26
 1377 04e2 B783      		std Z+7,r27
 1378               	.L81:
 1379               	.LSM130:
 1380 04e4 1486      		std Z+12,__zero_reg__
 1381 04e6 1586      		std Z+13,__zero_reg__
 1382 04e8 1686      		std Z+14,__zero_reg__
 1383 04ea 1786      		std Z+15,__zero_reg__
 1384 04ec 00C0      		rjmp .L75
 1385               	.L83:
 1386               	.LBE99:
 1387               	.LBE98:
 1388               	.LBE97:
 1389               	.LSM131:
 1390 04ee 8091 0000 		lds r24,USB_ControlRequest
 1391 04f2 813A      		cpi r24,lo8(-95)
 1392 04f4 01F0      		breq .+2
 1393 04f6 00C0      		rjmp .L75
 1394               	.LBB107:
 1395               	.LSM132:
 1396 04f8 8E01      		movw r16,r28
 1397               	.LVL73:
 1398 04fa 0B5E      		subi r16,lo8(-(21))
 1399 04fc 1F4F      		sbci r17,hi8(-(21))
 1400               	.LSM133:
 1401 04fe F801      		movw r30,r16
 1402 0500 8481      		ldd r24,Z+4
 1403 0502 9581      		ldd r25,Z+5
 1404 0504 A681      		ldd r26,Z+6
 1405 0506 B781      		ldd r27,Z+7
 1406 0508 0097      		sbiw r24,0
 1407 050a A105      		cpc r26,__zero_reg__
 1408 050c B105      		cpc r27,__zero_reg__
 1409 050e 01F4      		brne .L74
 1410               	.LSM134:
 1411 0510 1D8A      		std Y+21,__zero_reg__
 1412               	.LSM135:
 1413 0512 81E0      		ldi r24,lo8(1)
 1414 0514 90E0      		ldi r25,hi8(1)
 1415 0516 A0E0      		ldi r26,hlo8(1)
 1416 0518 B0E0      		ldi r27,hhi8(1)
 1417 051a 8483      		std Z+4,r24
 1418 051c 9583      		std Z+5,r25
 1419 051e A683      		std Z+6,r26
 1420 0520 B783      		std Z+7,r27
 1421               	.L74:
 1422               	.LBB108:
 1423               	.LBB109:
 1424               	.LSM136:
 1425 0522 8091 E800 		lds r24,232
 1426 0526 877F      		andi r24,lo8(-9)
 1427 0528 8093 E800 		sts 232,r24
 1428               	.LBE109:
 1429               	.LBE108:
 1430               	.LSM137:
 1431 052c F801      		movw r30,r16
 1432 052e 6481      		ldd r22,Z+4
 1433 0530 7581      		ldd r23,Z+5
 1434 0532 CE01      		movw r24,r28
 1435 0534 4596      		adiw r24,21
 1436 0536 0E94 0000 		call Endpoint_Write_Control_Stream_LE
 1437               	.LBB110:
 1438               	.LBB111:
 1439               	.LSM138:
 1440 053a 8091 E800 		lds r24,232
 1441 053e 8B77      		andi r24,lo8(123)
 1442 0540 8093 E800 		sts 232,r24
 1443               	.LBE111:
 1444               	.LBE110:
 1445               	.LSM139:
 1446 0544 F801      		movw r30,r16
 1447 0546 1482      		std Z+4,__zero_reg__
 1448 0548 1582      		std Z+5,__zero_reg__
 1449 054a 1682      		std Z+6,__zero_reg__
 1450 054c 1782      		std Z+7,__zero_reg__
 1451 054e 00C0      		rjmp .L75
 1452               	.LVL74:
 1453               	.L67:
 1454               	.LBE107:
 1455               	.LBB112:
 1456               	.LBB106:
 1457               	.LBB105:
 1458               	.LSM140:
 1459 0550 F801      		movw r30,r16
 1460 0552 1486      		std Z+12,__zero_reg__
 1461 0554 1586      		std Z+13,__zero_reg__
 1462 0556 1686      		std Z+14,__zero_reg__
 1463 0558 1786      		std Z+15,__zero_reg__
 1464               	.LSM141:
 1465 055a CE01      		movw r24,r28
 1466 055c A0E0      		ldi r26,lo8(0)
 1467 055e B0E0      		ldi r27,hi8(0)
 1468 0560 2481      		ldd r18,Z+4
 1469 0562 3581      		ldd r19,Z+5
 1470 0564 4681      		ldd r20,Z+6
 1471 0566 5781      		ldd r21,Z+7
 1472               	.LVL75:
 1473 0568 280F      		add r18,r24
 1474 056a 391F      		adc r19,r25
 1475 056c 4A1F      		adc r20,r26
 1476 056e 5B1F      		adc r21,r27
 1477 0570 2483      		std Z+4,r18
 1478 0572 3583      		std Z+5,r19
 1479 0574 4683      		std Z+6,r20
 1480 0576 5783      		std Z+7,r21
 1481               	.LSM142:
 1482 0578 808B      		std Z+16,r24
 1483 057a 918B      		std Z+17,r25
 1484 057c A28B      		std Z+18,r26
 1485 057e B38B      		std Z+19,r27
 1486               	.LSM143:
 1487 0580 80E1      		ldi r24,lo8(16)
 1488 0582 90E0      		ldi r25,hi8(16)
 1489 0584 A0E0      		ldi r26,hlo8(16)
 1490 0586 B0E0      		ldi r27,hhi8(16)
 1491 0588 848B      		std Z+20,r24
 1492 058a 958B      		std Z+21,r25
 1493 058c A68B      		std Z+22,r26
 1494 058e B78B      		std Z+23,r27
 1495               	.LVL76:
 1496               	.L75:
 1497               	/* epilogue start */
 1498               	.LBE105:
 1499               	.LBE106:
 1500               	.LBE112:
 1501               	.LSM144:
 1502 0590 DF91      		pop r29
 1503 0592 CF91      		pop r28
 1504               	.LVL77:
 1505 0594 1F91      		pop r17
 1506 0596 0F91      		pop r16
 1507               	.LVL78:
 1508 0598 FF90      		pop r15
 1509 059a EF90      		pop r14
 1510               	.LVL79:
 1511 059c 0895      		ret
 1512               	.LFE96:
 1514               		.data
 1517               	C.13.3829:
 1518 0000 A1        		.byte	-95
 1519 0001 01        		.byte	1
 1520 0002 0000      		.word	0
 1521 0004 0000      		.word	0
 1522 0006 0000      		.word	0
 1523               		.section	.progmem.data,"a",@progbits
 1526               	AdapterSupportedOIDList:
 1527 0000 01        		.byte	1
 1528 0001 01        		.byte	1
 1529 0002 01        		.byte	1
 1530 0003 00        		.byte	0
 1531 0004 02        		.byte	2
 1532 0005 02        		.byte	2
 1533 0006 01        		.byte	1
 1534 0007 00        		.byte	0
 1535 0008 02        		.byte	2
 1536 0009 01        		.byte	1
 1537 000a 01        		.byte	1
 1538 000b 00        		.byte	0
 1539 000c 03        		.byte	3
 1540 000d 01        		.byte	1
 1541 000e 01        		.byte	1
 1542 000f 00        		.byte	0
 1543 0010 04        		.byte	4
 1544 0011 01        		.byte	1
 1545 0012 01        		.byte	1
 1546 0013 00        		.byte	0
 1547 0014 06        		.byte	6
 1548 0015 01        		.byte	1
 1549 0016 01        		.byte	1
 1550 0017 00        		.byte	0
 1551 0018 11        		.byte	17
 1552 0019 01        		.byte	1
 1553 001a 01        		.byte	1
 1554 001b 00        		.byte	0
 1555 001c 07        		.byte	7
 1556 001d 01        		.byte	1
 1557 001e 01        		.byte	1
 1558 001f 00        		.byte	0
 1559 0020 0A        		.byte	10
 1560 0021 01        		.byte	1
 1561 0022 01        		.byte	1
 1562 0023 00        		.byte	0
 1563 0024 0B        		.byte	11
 1564 0025 01        		.byte	1
 1565 0026 01        		.byte	1
 1566 0027 00        		.byte	0
 1567 0028 0C        		.byte	12
 1568 0029 01        		.byte	1
 1569 002a 01        		.byte	1
 1570 002b 00        		.byte	0
 1571 002c 0D        		.byte	13
 1572 002d 01        		.byte	1
 1573 002e 01        		.byte	1
 1574 002f 00        		.byte	0
 1575 0030 0E        		.byte	14
 1576 0031 01        		.byte	1
 1577 0032 01        		.byte	1
 1578 0033 00        		.byte	0
 1579 0034 11        		.byte	17
 1580 0035 01        		.byte	1
 1581 0036 01        		.byte	1
 1582 0037 00        		.byte	0
 1583 0038 14        		.byte	20
 1584 0039 01        		.byte	1
 1585 003a 01        		.byte	1
 1586 003b 00        		.byte	0
 1587 003c 01        		.byte	1
 1588 003d 01        		.byte	1
 1589 003e 02        		.byte	2
 1590 003f 00        		.byte	0
 1591 0040 02        		.byte	2
 1592 0041 01        		.byte	1
 1593 0042 02        		.byte	2
 1594 0043 00        		.byte	0
 1595 0044 03        		.byte	3
 1596 0045 01        		.byte	1
 1597 0046 02        		.byte	2
 1598 0047 00        		.byte	0
 1599 0048 04        		.byte	4
 1600 0049 01        		.byte	1
 1601 004a 02        		.byte	2
 1602 004b 00        		.byte	0
 1603 004c 05        		.byte	5
 1604 004d 01        		.byte	1
 1605 004e 02        		.byte	2
 1606 004f 00        		.byte	0
 1607 0050 01        		.byte	1
 1608 0051 01        		.byte	1
 1609 0052 01        		.byte	1
 1610 0053 01        		.byte	1
 1611 0054 02        		.byte	2
 1612 0055 01        		.byte	1
 1613 0056 01        		.byte	1
 1614 0057 01        		.byte	1
 1615 0058 03        		.byte	3
 1616 0059 01        		.byte	1
 1617 005a 01        		.byte	1
 1618 005b 01        		.byte	1
 1619 005c 04        		.byte	4
 1620 005d 01        		.byte	1
 1621 005e 01        		.byte	1
 1622 005f 01        		.byte	1
 1623 0060 01        		.byte	1
 1624 0061 01        		.byte	1
 1625 0062 02        		.byte	2
 1626 0063 01        		.byte	1
 1627 0064 02        		.byte	2
 1628 0065 01        		.byte	1
 1629 0066 02        		.byte	2
 1630 0067 01        		.byte	1
 1631 0068 03        		.byte	3
 1632 0069 01        		.byte	1
 1633 006a 02        		.byte	2
 1634 006b 01        		.byte	1
 1699               	.Letext0:
DEFINED SYMBOLS
                            *ABS*:00000000 RNDIS.c
C:\Users\JEFFRO~1\AppData\Local\Temp/ccj54NwP.s:2      *ABS*:0000003f __SREG__
C:\Users\JEFFRO~1\AppData\Local\Temp/ccj54NwP.s:3      *ABS*:0000003e __SP_H__
C:\Users\JEFFRO~1\AppData\Local\Temp/ccj54NwP.s:4      *ABS*:0000003d __SP_L__
C:\Users\JEFFRO~1\AppData\Local\Temp/ccj54NwP.s:5      *ABS*:00000034 __CCP__
C:\Users\JEFFRO~1\AppData\Local\Temp/ccj54NwP.s:6      *ABS*:00000000 __tmp_reg__
C:\Users\JEFFRO~1\AppData\Local\Temp/ccj54NwP.s:7      *ABS*:00000001 __zero_reg__
C:\Users\JEFFRO~1\AppData\Local\Temp/ccj54NwP.s:19     .text.RNDIS_Device_IsPacketReceived:00000000 RNDIS_Device_IsPacketReceived
C:\Users\JEFFRO~1\AppData\Local\Temp/ccj54NwP.s:69     .text.RNDIS_Device_SendPacket:00000000 RNDIS_Device_SendPacket
C:\Users\JEFFRO~1\AppData\Local\Temp/ccj54NwP.s:227    .text.RNDIS_Device_USBTask:00000000 RNDIS_Device_USBTask
C:\Users\JEFFRO~1\AppData\Local\Temp/ccj54NwP.s:1517   .data:00000000 C.13.3829
C:\Users\JEFFRO~1\AppData\Local\Temp/ccj54NwP.s:331    .text.RNDIS_Device_ReadPacket:00000000 RNDIS_Device_ReadPacket
C:\Users\JEFFRO~1\AppData\Local\Temp/ccj54NwP.s:474    .text.RNDIS_Device_ConfigureEndpoints:00000000 RNDIS_Device_ConfigureEndpoints
C:\Users\JEFFRO~1\AppData\Local\Temp/ccj54NwP.s:621    .text.RNDIS_Device_ProcessControlRequest:00000000 RNDIS_Device_ProcessControlRequest
C:\Users\JEFFRO~1\AppData\Local\Temp/ccj54NwP.s:1526   .progmem.data:00000000 AdapterSupportedOIDList

UNDEFINED SYMBOLS
USB_DeviceState
Endpoint_WaitUntilReady
Endpoint_Write_Stream_LE
Endpoint_Read_Stream_LE
Endpoint_ConfigureEndpoint_Prv
USB_ControlRequest
Endpoint_Read_Control_Stream_LE
memcpy_P
memcpy
Endpoint_Write_Control_Stream_LE
__do_copy_data
