   1               		.file	"wiring_analog.c"
   2               	__SREG__ = 0x3f
   3               	__SP_H__ = 0x3e
   4               	__SP_L__ = 0x3d
   5               	__CCP__  = 0x34
   6               	__tmp_reg__ = 0
   7               	__zero_reg__ = 1
  15               	.Ltext0:
  16               		.section	.text.analogReference,"ax",@progbits
  17               	.global	analogReference
  19               	analogReference:
  20               	.LFB7:
  21               	.LSM0:
  22               	.LVL0:
  23               	/* prologue: function */
  24               	/* frame size = 0 */
  25               	.LSM1:
  26 0000 8093 0000 		sts analog_reference,r24
  27               	/* epilogue start */
  28               	.LSM2:
  29 0004 0895      		ret
  30               	.LFE7:
  32               		.section	.text.analogRead,"ax",@progbits
  33               	.global	analogRead
  35               	analogRead:
  36               	.LFB8:
  37               	.LSM3:
  38               	.LVL1:
  39               	/* prologue: function */
  40               	/* frame size = 0 */
  41 0000 982F      		mov r25,r24
  42               	.LSM4:
  43 0002 8E30      		cpi r24,lo8(14)
  44 0004 00F0      		brlo .L4
  45 0006 9E50      		subi r25,lo8(-(-14))
  46               	.LVL2:
  47               	.L4:
  48               	.LSM5:
  49 0008 9770      		andi r25,lo8(7)
  50 000a 8091 0000 		lds r24,analog_reference
  51 000e 8295      		swap r24
  52 0010 880F      		lsl r24
  53 0012 880F      		lsl r24
  54 0014 807C      		andi r24,lo8(-64)
  55 0016 892B      		or r24,r25
  56 0018 8093 7C00 		sts 124,r24
  57               	.LSM6:
  58 001c 8091 7A00 		lds r24,122
  59 0020 8064      		ori r24,lo8(64)
  60 0022 8093 7A00 		sts 122,r24
  61               	.L5:
  62               	.LSM7:
  63 0026 8091 7A00 		lds r24,122
  64 002a 86FD      		sbrc r24,6
  65 002c 00C0      		rjmp .L5
  66               	.LSM8:
  67 002e 2091 7800 		lds r18,120
  68               	.LVL3:
  69               	.LSM9:
  70 0032 4091 7900 		lds r20,121
  71               	.LVL4:
  72 0036 942F      		mov r25,r20
  73               	.LVL5:
  74 0038 80E0      		ldi r24,lo8(0)
  75               	.LVL6:
  76 003a 30E0      		ldi r19,lo8(0)
  77 003c 282B      		or r18,r24
  78 003e 392B      		or r19,r25
  79               	.LVL7:
  80               	.LSM10:
  81 0040 C901      		movw r24,r18
  82               	.LVL8:
  83               	/* epilogue start */
  84 0042 0895      		ret
  85               	.LFE8:
  87               		.section	.text.analogWrite,"ax",@progbits
  88               	.global	analogWrite
  90               	analogWrite:
  91               	.LFB9:
  92               	.LSM11:
  93               	.LVL9:
  94 0000 1F93      		push r17
  95 0002 CF93      		push r28
  96 0004 DF93      		push r29
  97               	/* prologue: function */
  98               	/* frame size = 0 */
  99 0006 182F      		mov r17,r24
 100 0008 EB01      		movw r28,r22
 101               	.LSM12:
 102 000a 61E0      		ldi r22,lo8(1)
 103               	.LVL10:
 104 000c 0E94 0000 		call pinMode
 105               	.LVL11:
 106               	.LSM13:
 107 0010 2097      		sbiw r28,0
 108 0012 01F4      		brne .+2
 109 0014 00C0      		rjmp .L27
 110               	.L9:
 111               	.LSM14:
 112 0016 CF3F      		cpi r28,255
 113 0018 D105      		cpc r29,__zero_reg__
 114 001a 01F4      		brne .+2
 115 001c 00C0      		rjmp .L24
 116               	.L11:
 117               	.LBB2:
 118               	.LSM15:
 119 001e E12F      		mov r30,r17
 120 0020 F0E0      		ldi r31,lo8(0)
 121               	.LVL12:
 122 0022 E050      		subi r30,lo8(-(digital_pin_to_timer_PGM))
 123 0024 F040      		sbci r31,hi8(-(digital_pin_to_timer_PGM))
 124               	.LVL13:
 125               	/* #APP */
 126               	 ;  111 "wiring/wiring_analog.c" 1
 127 0026 8491      		lpm r24, Z
 128               		
 129               	 ;  0 "" 2
 130               	.LVL14:
 131               	/* #NOAPP */
 132               	.LBE2:
 133 0028 8630      		cpi r24,lo8(6)
 134 002a 01F0      		breq .L17
 135 002c 8730      		cpi r24,lo8(7)
 136 002e 00F4      		brsh .L22
 137 0030 8230      		cpi r24,lo8(2)
 138 0032 01F0      		breq .L14
 139 0034 8330      		cpi r24,lo8(3)
 140 0036 00F4      		brsh .L23
 141 0038 8130      		cpi r24,lo8(1)
 142 003a 01F0      		breq .+2
 143 003c 00C0      		rjmp .L12
 144 003e 00C0      		rjmp .L28
 145               	.L23:
 146 0040 8330      		cpi r24,lo8(3)
 147 0042 01F0      		breq .L15
 148 0044 8430      		cpi r24,lo8(4)
 149 0046 01F0      		breq .+2
 150 0048 00C0      		rjmp .L12
 151 004a 00C0      		rjmp .L29
 152               	.L22:
 153 004c 8830      		cpi r24,lo8(8)
 154 004e 01F0      		breq .L19
 155 0050 8830      		cpi r24,lo8(8)
 156 0052 00F0      		brlo .L18
 157 0054 8930      		cpi r24,lo8(9)
 158 0056 01F0      		breq .L20
 159 0058 8A30      		cpi r24,lo8(10)
 160 005a 01F0      		breq .+2
 161 005c 00C0      		rjmp .L12
 162 005e 00C0      		rjmp .L30
 163               	.L28:
 164               	.LSM16:
 165 0060 84B5      		in r24,68-32
 166               	.LVL15:
 167 0062 8068      		ori r24,lo8(-128)
 168 0064 84BD      		out 68-32,r24
 169               	.LSM17:
 170 0066 C7BD      		out 71-32,r28
 171 0068 00C0      		rjmp .L25
 172               	.LVL16:
 173               	.L14:
 174               	.LSM18:
 175 006a 84B5      		in r24,68-32
 176               	.LVL17:
 177 006c 8062      		ori r24,lo8(32)
 178 006e 84BD      		out 68-32,r24
 179               	.LSM19:
 180 0070 C8BD      		out 72-32,r28
 181 0072 00C0      		rjmp .L25
 182               	.LVL18:
 183               	.L15:
 184               	.LSM20:
 185 0074 8091 8000 		lds r24,128
 186               	.LVL19:
 187 0078 8068      		ori r24,lo8(-128)
 188 007a 8093 8000 		sts 128,r24
 189               	.LSM21:
 190 007e D093 8900 		sts (136)+1,r29
 191 0082 C093 8800 		sts 136,r28
 192 0086 00C0      		rjmp .L25
 193               	.LVL20:
 194               	.L29:
 195               	.LSM22:
 196 0088 8091 8000 		lds r24,128
 197               	.LVL21:
 198 008c 8062      		ori r24,lo8(32)
 199 008e 8093 8000 		sts 128,r24
 200               	.LSM23:
 201 0092 D093 8B00 		sts (138)+1,r29
 202 0096 C093 8A00 		sts 138,r28
 203 009a 00C0      		rjmp .L25
 204               	.LVL22:
 205               	.L17:
 206               	.LSM24:
 207 009c 8091 B000 		lds r24,176
 208               	.LVL23:
 209 00a0 8068      		ori r24,lo8(-128)
 210 00a2 8093 B000 		sts 176,r24
 211               	.LSM25:
 212 00a6 C093 B300 		sts 179,r28
 213 00aa 00C0      		rjmp .L25
 214               	.LVL24:
 215               	.L18:
 216               	.LSM26:
 217 00ac 8091 B000 		lds r24,176
 218               	.LVL25:
 219 00b0 8062      		ori r24,lo8(32)
 220 00b2 8093 B000 		sts 176,r24
 221               	.LSM27:
 222 00b6 C093 B400 		sts 180,r28
 223 00ba 00C0      		rjmp .L25
 224               	.LVL26:
 225               	.L19:
 226               	.LSM28:
 227 00bc 8091 9000 		lds r24,144
 228               	.LVL27:
 229 00c0 8068      		ori r24,lo8(-128)
 230 00c2 8093 9000 		sts 144,r24
 231               	.LSM29:
 232 00c6 D093 9900 		sts (152)+1,r29
 233 00ca C093 9800 		sts 152,r28
 234 00ce 00C0      		rjmp .L25
 235               	.LVL28:
 236               	.L20:
 237               	.LSM30:
 238 00d0 8091 9000 		lds r24,144
 239               	.LVL29:
 240 00d4 8062      		ori r24,lo8(32)
 241 00d6 8093 9000 		sts 144,r24
 242               	.LSM31:
 243 00da D093 9B00 		sts (154)+1,r29
 244 00de C093 9A00 		sts 154,r28
 245 00e2 00C0      		rjmp .L25
 246               	.LVL30:
 247               	.L30:
 248               	.LSM32:
 249 00e4 8091 9000 		lds r24,144
 250               	.LVL31:
 251 00e8 8860      		ori r24,lo8(8)
 252 00ea 8093 9000 		sts 144,r24
 253               	.LSM33:
 254 00ee D093 9D00 		sts (156)+1,r29
 255 00f2 C093 9C00 		sts 156,r28
 256 00f6 00C0      		rjmp .L25
 257               	.LVL32:
 258               	.L12:
 259               	.LSM34:
 260 00f8 C038      		cpi r28,128
 261 00fa D105      		cpc r29,__zero_reg__
 262 00fc 04F4      		brge .L24
 263               	.LVL33:
 264               	.L27:
 265               	.LSM35:
 266 00fe 812F      		mov r24,r17
 267               	.LVL34:
 268 0100 60E0      		ldi r22,lo8(0)
 269 0102 00C0      		rjmp .L26
 270               	.LVL35:
 271               	.L24:
 272               	.LSM36:
 273 0104 812F      		mov r24,r17
 274               	.LVL36:
 275 0106 61E0      		ldi r22,lo8(1)
 276               	.LVL37:
 277               	.L26:
 278 0108 0E94 0000 		call digitalWrite
 279               	.LVL38:
 280               	.L25:
 281               	/* epilogue start */
 282               	.LSM37:
 283 010c DF91      		pop r29
 284 010e CF91      		pop r28
 285               	.LVL39:
 286 0110 1F91      		pop r17
 287 0112 0895      		ret
 288               	.LFE9:
 290               	.global	analog_reference
 291               		.data
 294               	analog_reference:
 295 0000 01        		.byte	1
 336               	.Letext0:
DEFINED SYMBOLS
                            *ABS*:00000000 wiring_analog.c
C:\Users\JEFFRO~1\AppData\Local\Temp/ccmc1Vft.s:2      *ABS*:0000003f __SREG__
C:\Users\JEFFRO~1\AppData\Local\Temp/ccmc1Vft.s:3      *ABS*:0000003e __SP_H__
C:\Users\JEFFRO~1\AppData\Local\Temp/ccmc1Vft.s:4      *ABS*:0000003d __SP_L__
C:\Users\JEFFRO~1\AppData\Local\Temp/ccmc1Vft.s:5      *ABS*:00000034 __CCP__
C:\Users\JEFFRO~1\AppData\Local\Temp/ccmc1Vft.s:6      *ABS*:00000000 __tmp_reg__
C:\Users\JEFFRO~1\AppData\Local\Temp/ccmc1Vft.s:7      *ABS*:00000001 __zero_reg__
C:\Users\JEFFRO~1\AppData\Local\Temp/ccmc1Vft.s:19     .text.analogReference:00000000 analogReference
C:\Users\JEFFRO~1\AppData\Local\Temp/ccmc1Vft.s:294    .data:00000000 analog_reference
C:\Users\JEFFRO~1\AppData\Local\Temp/ccmc1Vft.s:35     .text.analogRead:00000000 analogRead
C:\Users\JEFFRO~1\AppData\Local\Temp/ccmc1Vft.s:90     .text.analogWrite:00000000 analogWrite

UNDEFINED SYMBOLS
pinMode
digital_pin_to_timer_PGM
digitalWrite
__do_copy_data
