   1               		.file	"Keyglove.cpp"
   2               	__SREG__ = 0x3f
   3               	__SP_H__ = 0x3e
   4               	__SP_L__ = 0x3d
   5               	__CCP__  = 0x34
   6               	__tmp_reg__ = 0
   7               	__zero_reg__ = 1
  15               	.Ltext0:
  16               	.global	_Z11setup_boardv
  18               	_Z11setup_boardv:
  19               	.LFB126:
  20               	.LM1:
  21               	/* prologue: function */
  22               	/* frame size = 0 */
  23               	/* epilogue start */
  24               	.LM2:
  25 0000 0895      		ret
  26               	.LFE126:
  28               	.global	_Z15setup_touchconnv
  30               	_Z15setup_touchconnv:
  31               	.LFB127:
  32               	.LM3:
  33               	/* prologue: function */
  34               	/* frame size = 0 */
  35               	/* epilogue start */
  36               	.LM4:
  37 0002 0895      		ret
  38               	.LFE127:
  40               	.global	_Z19setup_hostif_serialv
  42               	_Z19setup_hostif_serialv:
  43               	.LFB128:
  44               	.LM5:
  45               	/* prologue: function */
  46               	/* frame size = 0 */
  47               	/* epilogue start */
  48               	.LM6:
  49 0004 0895      		ret
  50               	.LFE128:
  52               	.global	_Z16setup_hostif_usbv
  54               	_Z16setup_hostif_usbv:
  55               	.LFB129:
  56               	.LM7:
  57               	/* prologue: function */
  58               	/* frame size = 0 */
  59               	/* epilogue start */
  60               	.LM8:
  61 0006 0895      		ret
  62               	.LFE129:
  64               	.global	_Z19setup_hostif_bt_sppv
  66               	_Z19setup_hostif_bt_sppv:
  67               	.LFB131:
  68               	.LM9:
  69               	/* prologue: function */
  70               	/* frame size = 0 */
  71               	/* epilogue start */
  72               	.LM10:
  73 0008 0895      		ret
  74               	.LFE131:
  76               	.global	_Z14setup_keyboardv
  78               	_Z14setup_keyboardv:
  79               	.LFB142:
  80               	.LM11:
  81               	/* prologue: function */
  82               	/* frame size = 0 */
  83               	/* epilogue start */
  84               	.LM12:
  85 000a 0895      		ret
  86               	.LFE142:
  88               	.global	_Z15update_keyboardv
  90               	_Z15update_keyboardv:
  91               	.LFB143:
  92               	.LM13:
  93               	/* prologue: function */
  94               	/* frame size = 0 */
  95               	/* epilogue start */
  96               	.LM14:
  97 000c 0895      		ret
  98               	.LFE143:
 100               	.global	_Z11setup_mousev
 102               	_Z11setup_mousev:
 103               	.LFB144:
 104               	.LM15:
 105               	/* prologue: function */
 106               	/* frame size = 0 */
 107               	.LM16:
 108 000e 1092 0000 		sts (mz0)+1,__zero_reg__
 109 0012 1092 0000 		sts mz0,__zero_reg__
 110 0016 1092 0000 		sts (my0)+1,__zero_reg__
 111 001a 1092 0000 		sts my0,__zero_reg__
 112 001e 1092 0000 		sts (mx0)+1,__zero_reg__
 113 0022 1092 0000 		sts mx0,__zero_reg__
 114 0026 1092 0000 		sts (mz)+1,__zero_reg__
 115 002a 1092 0000 		sts mz,__zero_reg__
 116 002e 1092 0000 		sts (my)+1,__zero_reg__
 117 0032 1092 0000 		sts my,__zero_reg__
 118 0036 1092 0000 		sts (mx)+1,__zero_reg__
 119 003a 1092 0000 		sts mx,__zero_reg__
 120               	.LM17:
 121 003e 1092 0000 		sts (sy0)+1,__zero_reg__
 122 0042 1092 0000 		sts sy0,__zero_reg__
 123 0046 1092 0000 		sts (sy)+1,__zero_reg__
 124 004a 1092 0000 		sts sy,__zero_reg__
 125               	/* epilogue start */
 126               	.LM18:
 127 004e 0895      		ret
 128               	.LFE144:
 130               	.global	_Z14setup_joystickv
 132               	_Z14setup_joystickv:
 133               	.LFB146:
 134               	.LM19:
 135               	/* prologue: function */
 136               	/* frame size = 0 */
 137               	/* epilogue start */
 138               	.LM20:
 139 0050 0895      		ret
 140               	.LFE146:
 142               	.global	_Z15update_joystickv
 144               	_Z15update_joystickv:
 145               	.LFB147:
 146               	.LM21:
 147               	/* prologue: function */
 148               	/* frame size = 0 */
 149               	/* epilogue start */
 150               	.LM22:
 151 0052 0895      		ret
 152               	.LFE147:
 154               	.global	_Z9modeCheckhh
 156               	_Z9modeCheckhh:
 157               	.LFB148:
 158               	.LM23:
 159               	.LVL0:
 160               	/* prologue: function */
 161               	/* frame size = 0 */
 162 0054 282F      		mov r18,r24
 163               	.LM24:
 164 0056 E091 0000 		lds r30,modeStackPos
 165 005a E617      		cp r30,r22
 166 005c 00F4      		brsh .L22
 167               	.LVL1:
 168 005e 90E0      		ldi r25,lo8(0)
 169 0060 00C0      		rjmp .L23
 170               	.L22:
 171               	.LM25:
 172 0062 90E0      		ldi r25,lo8(0)
 173 0064 F0E0      		ldi r31,lo8(0)
 174 0066 E61B      		sub r30,r22
 175 0068 F109      		sbc r31,__zero_reg__
 176 006a E050      		subi r30,lo8(-(modeStack))
 177 006c F040      		sbci r31,hi8(-(modeStack))
 178 006e 8081      		ld r24,Z
 179 0070 8217      		cp r24,r18
 180 0072 01F4      		brne .L23
 181 0074 91E0      		ldi r25,lo8(1)
 182               	.LVL2:
 183               	.L23:
 184               	.LM26:
 185 0076 892F      		mov r24,r25
 186               	/* epilogue start */
 187 0078 0895      		ret
 188               	.LFE148:
 190               	.global	EVENT_USB_Device_Connect
 192               	EVENT_USB_Device_Connect:
 193               	.LFB181:
 194               	.LM27:
 195               	/* prologue: function */
 196               	/* frame size = 0 */
 197               	.LBB550:
 198               	.LBB551:
 199               	.LM28:
 200 007a 81B3      		in r24,49-32
 201 007c 8F71      		andi r24,lo8(31)
 202 007e 806C      		ori r24,lo8(-64)
 203 0080 81BB      		out 49-32,r24
 204               	/* epilogue start */
 205               	.LBE551:
 206               	.LBE550:
 207               	.LM29:
 208 0082 0895      		ret
 209               	.LFE181:
 211               	.global	EVENT_USB_Device_Disconnect
 213               	EVENT_USB_Device_Disconnect:
 214               	.LFB182:
 215               	.LM30:
 216               	/* prologue: function */
 217               	/* frame size = 0 */
 218               	.LBB552:
 219               	.LBB553:
 220               	.LM31:
 221 0084 81B3      		in r24,49-32
 222 0086 8F71      		andi r24,lo8(31)
 223 0088 8066      		ori r24,lo8(96)
 224 008a 81BB      		out 49-32,r24
 225               	/* epilogue start */
 226               	.LBE553:
 227               	.LBE552:
 228               	.LM32:
 229 008c 0895      		ret
 230               	.LFE182:
 232               	.global	ProcessHIDReport
 234               	ProcessHIDReport:
 235               	.LFB187:
 236               	.LM33:
 237               	.LVL3:
 238               	/* prologue: function */
 239               	/* frame size = 0 */
 240               	/* epilogue start */
 241               	.LM34:
 242 008e 0895      		ret
 243               	.LFE187:
 245               	.global	_Z25Keyboard_ProcessLEDReporth
 247               	_Z25Keyboard_ProcessLEDReporth:
 248               	.LFB188:
 249               	.LM35:
 250               	.LVL4:
 251               	/* prologue: function */
 252               	/* frame size = 0 */
 253               	.LBB554:
 254               	.LM36:
 255 0090 282F      		mov r18,r24
 256               	.LM37:
 257 0092 81FD      		sbrc r24,1
 258 0094 00C0      		rjmp .L33
 259               	.LVL5:
 260 0096 90E4      		ldi r25,lo8(64)
 261               	.LVL6:
 262 0098 00C0      		rjmp .L34
 263               	.LVL7:
 264               	.L33:
 265 009a 90EC      		ldi r25,lo8(-64)
 266               	.LVL8:
 267               	.L34:
 268               	.LM38:
 269 009c 22FD      		sbrc r18,2
 270               	.LM39:
 271 009e 9064      		ori r25,lo8(64)
 272               	.L35:
 273               	.LBB555:
 274               	.LBB556:
 275               	.LM40:
 276 00a0 81B3      		in r24,49-32
 277 00a2 8F71      		andi r24,lo8(31)
 278 00a4 982B      		or r25,r24
 279 00a6 91BB      		out 49-32,r25
 280               	/* epilogue start */
 281               	.LBE556:
 282               	.LBE555:
 283               	.LBE554:
 284               	.LM41:
 285 00a8 0895      		ret
 286               	.LFE188:
 289               	_GLOBAL__I_HIDReportInData:
 290               	.LFB190:
 291               	.LM42:
 292               	/* prologue: function */
 293               	/* frame size = 0 */
 294               	.LBB557:
 295               	.LBB558:
 296               	.LM43:
 297 00aa 80E0      		ldi r24,lo8(bluetooth)
 298 00ac 90E0      		ldi r25,hi8(bluetooth)
 299 00ae 60E0      		ldi r22,lo8(Uart)
 300 00b0 70E0      		ldi r23,hi8(Uart)
 301 00b2 0E94 0000 		call _ZN5iWRAPC1EP14HardwareSerial
 302               	.LM44:
 303 00b6 80E0      		ldi r24,lo8(accelerometer)
 304 00b8 90E0      		ldi r25,hi8(accelerometer)
 305 00ba 0E94 0000 		call _ZN7ADXL345C1Ev
 306               	.LM45:
 307 00be 80E0      		ldi r24,lo8(gyroscope)
 308 00c0 90E0      		ldi r25,hi8(gyroscope)
 309 00c2 0E94 0000 		call _ZN7ITG3200C1Ev
 310               	/* epilogue start */
 311               	.LBE558:
 312               	.LBE557:
 313               	.LM46:
 314 00c6 0895      		ret
 315               	.LFE190:
 317               		.global __do_global_ctors
 318               		.section .ctors,"a",@progbits
 319 0000 0000      		.word	gs(_GLOBAL__I_HIDReportInData)
 320               		.text
 321               	.global	HID_Task
 323               	HID_Task:
 324               	.LFB186:
 325               	.LM47:
 326 00c8 0F93      		push r16
 327 00ca 1F93      		push r17
 328               	/* prologue: function */
 329               	/* frame size = 0 */
 330               	.LM48:
 331 00cc 8091 0000 		lds r24,USB_DeviceState
 332 00d0 8430      		cpi r24,lo8(4)
 333 00d2 01F4      		brne .L43
 334               	.LBB559:
 335               	.LBB560:
 336               	.LM49:
 337 00d4 85E0      		ldi r24,lo8(5)
 338 00d6 8093 E900 		sts 233,r24
 339               	.LBE560:
 340               	.LBE559:
 341               	.LBB561:
 342               	.LBB562:
 343               	.LM50:
 344 00da 8091 E800 		lds r24,232
 345               	.LBE562:
 346               	.LBE561:
 347               	.LM51:
 348 00de 82FF      		sbrs r24,2
 349 00e0 00C0      		rjmp .L41
 350               	.LBB563:
 351               	.LBB564:
 352               	.LM52:
 353 00e2 8091 E800 		lds r24,232
 354               	.LBE564:
 355               	.LBE563:
 356               	.LM53:
 357 00e6 85FF      		sbrs r24,5
 358 00e8 00C0      		rjmp .L42
 359               	.LM54:
 360 00ea 80E0      		ldi r24,lo8(HIDReportOutData)
 361 00ec 90E0      		ldi r25,hi8(HIDReportOutData)
 362 00ee 69E0      		ldi r22,lo8(9)
 363 00f0 70E0      		ldi r23,hi8(9)
 364 00f2 40E0      		ldi r20,lo8(0)
 365 00f4 50E0      		ldi r21,hi8(0)
 366 00f6 0E94 0000 		call Endpoint_Read_Stream_LE
 367               	.L42:
 368               	.LBB565:
 369               	.LBB566:
 370               	.LM55:
 371 00fa 8091 E800 		lds r24,232
 372 00fe 8B77      		andi r24,lo8(123)
 373 0100 8093 E800 		sts 232,r24
 374               	.L41:
 375               	.LBE566:
 376               	.LBE565:
 377               	.LBB567:
 378               	.LBB568:
 379               	.LM56:
 380 0104 84E0      		ldi r24,lo8(4)
 381 0106 8093 E900 		sts 233,r24
 382               	.LBE568:
 383               	.LBE567:
 384               	.LBB569:
 385               	.LBB570:
 386               	.LM57:
 387 010a 8091 E800 		lds r24,232
 388               	.LBE570:
 389               	.LBE569:
 390               	.LM58:
 391 010e 80FF      		sbrs r24,0
 392 0110 00C0      		rjmp .L43
 393               	.LM59:
 394 0112 00E0      		ldi r16,lo8(HIDReportInData)
 395 0114 10E0      		ldi r17,hi8(HIDReportInData)
 396 0116 C801      		movw r24,r16
 397 0118 69E0      		ldi r22,lo8(9)
 398 011a 70E0      		ldi r23,hi8(9)
 399 011c 40E0      		ldi r20,lo8(0)
 400 011e 50E0      		ldi r21,hi8(0)
 401 0120 0E94 0000 		call Endpoint_Write_Stream_LE
 402               	.LM60:
 403 0124 89E0      		ldi r24,lo8(9)
 404 0126 F801      		movw r30,r16
 405 0128 1192      		st Z+,__zero_reg__
 406 012a 8A95      	        dec r24
 407 012c 01F4      		brne .-6
 408               	.LBB571:
 409               	.LBB572:
 410               	.LM61:
 411 012e 8091 E800 		lds r24,232
 412 0132 8E77      		andi r24,lo8(126)
 413 0134 8093 E800 		sts 232,r24
 414               	.L43:
 415               	/* epilogue start */
 416               	.LBE572:
 417               	.LBE571:
 418               	.LM62:
 419 0138 1F91      		pop r17
 420 013a 0F91      		pop r16
 421 013c 0895      		ret
 422               	.LFE186:
 424               	.global	CDC_Task
 426               	CDC_Task:
 427               	.LFB185:
 428               	.LM63:
 429 013e CF93      		push r28
 430 0140 DF93      		push r29
 431               	/* prologue: function */
 432               	/* frame size = 0 */
 433               	.LBB573:
 434               	.LM64:
 435 0142 8091 0000 		lds r24,USB_DeviceState
 436 0146 8430      		cpi r24,lo8(4)
 437 0148 01F0      		breq .+2
 438 014a 00C0      		rjmp .L53
 439               	.LBB574:
 440               	.LBB575:
 441               	.LBB576:
 442               	.LBB577:
 443               	.LBB578:
 444               	.LM65:
 445               	.LM66:
 446 014c 8FB7      		in r24,__SREG__
 447               	.LVL9:
 448               	.LBE578:
 449               	.LBE577:
 450               	.LBB579:
 451               	.LBB580:
 452               	.LM67:
 453               	.LM68:
 454               	/* #APP */
 455               	 ;  370 "./LUFA/Drivers/USB/../../Common/Common.h" 1
 456 014e F894      		cli
 457               	 ;  0 "" 2
 458               	.LM69:
 459               	/* #NOAPP */
 460               	.LBE580:
 461               	.LBE579:
 462               	.LM70:
 463 0150 2091 0000 		lds r18,HostTXSerial_Buffer+9
 464 0154 3091 0000 		lds r19,(HostTXSerial_Buffer+9)+1
 465               	.LVL10:
 466               	.LBB581:
 467               	.LBB582:
 468               	.LM71:
 469               	.LM72:
 470 0158 8FBF      		out __SREG__,r24
 471               	.LM73:
 472               	.LBE582:
 473               	.LBE581:
 474               	.LBE576:
 475               	.LBE575:
 476               	.LBE574:
 477               	.LM74:
 478 015a 2115      		cp r18,__zero_reg__
 479 015c 3105      		cpc r19,__zero_reg__
 480 015e 01F4      		brne .+2
 481 0160 00C0      		rjmp .L46
 482 0162 8091 0000 		lds r24,LineEncodingData
 483 0166 9091 0000 		lds r25,(LineEncodingData)+1
 484 016a A091 0000 		lds r26,(LineEncodingData)+2
 485 016e B091 0000 		lds r27,(LineEncodingData)+3
 486               	.LVL11:
 487 0172 0097      		sbiw r24,0
 488 0174 A105      		cpc r26,__zero_reg__
 489 0176 B105      		cpc r27,__zero_reg__
 490 0178 01F4      		brne .+2
 491 017a 00C0      		rjmp .L46
 492               	.LBB583:
 493               	.LBB584:
 494               	.LBB585:
 495               	.LM75:
 496 017c 82E0      		ldi r24,lo8(2)
 497 017e 8093 E900 		sts 233,r24
 498 0182 A901      		movw r20,r18
 499               	.LBE585:
 500               	.LBE584:
 501               	.LBB586:
 502               	.LBB587:
 503               	.LBB588:
 504               	.LBB589:
 505               	.LM76:
 506 0184 A0E0      		ldi r26,lo8(HostTXSerial_Buffer)
 507 0186 B0E0      		ldi r27,hi8(HostTXSerial_Buffer)
 508               	.LBE589:
 509               	.LBE588:
 510               	.LBE587:
 511               	.LM77:
 512 0188 B901      		movw r22,r18
 513 018a 6F50      		subi r22,lo8(-(-15))
 514 018c 7040      		sbci r23,hi8(-(-15))
 515               	.LVL12:
 516               	.L49:
 517               	.LBB598:
 518               	.LBB597:
 519               	.LBB596:
 520               	.LM78:
 521 018e ED01      		movw r28,r26
 522               	.LM79:
 523 0190 EA81      		ldd r30,Y+2
 524 0192 FB81      		ldd r31,Y+3
 525 0194 3191      		ld r19,Z+
 526               	.LM80:
 527 0196 FB83      		std Y+3,r31
 528 0198 EA83      		std Y+2,r30
 529 019a 8E81      		ldd r24,Y+6
 530 019c 9F81      		ldd r25,Y+7
 531 019e E817      		cp r30,r24
 532 01a0 F907      		cpc r31,r25
 533 01a2 01F4      		brne .L47
 534               	.LM81:
 535 01a4 8C81      		ldd r24,Y+4
 536 01a6 9D81      		ldd r25,Y+5
 537 01a8 9B83      		std Y+3,r25
 538 01aa 8A83      		std Y+2,r24
 539               	.L47:
 540               	.LBB590:
 541               	.LBB591:
 542               	.LM82:
 543               	.LM83:
 544 01ac 2FB7      		in r18,__SREG__
 545               	.LBE591:
 546               	.LBE590:
 547               	.LBB592:
 548               	.LBB593:
 549               	.LM84:
 550               	.LM85:
 551               	/* #APP */
 552               	 ;  370 "./LUFA/Drivers/USB/../../Common/Common.h" 1
 553 01ae F894      		cli
 554               	 ;  0 "" 2
 555               	.LM86:
 556               	/* #NOAPP */
 557               	.LBE593:
 558               	.LBE592:
 559               	.LM87:
 560 01b0 8985      		ldd r24,Y+9
 561 01b2 9A85      		ldd r25,Y+10
 562 01b4 0197      		sbiw r24,1
 563 01b6 9A87      		std Y+10,r25
 564 01b8 8987      		std Y+9,r24
 565               	.LBB594:
 566               	.LBB595:
 567               	.LM88:
 568               	.LM89:
 569 01ba 2FBF      		out __SREG__,r18
 570               	.LM90:
 571               	.LBE595:
 572               	.LBE594:
 573               	.LBE596:
 574               	.LBE597:
 575               	.LBE598:
 576               	.LM91:
 577 01bc 3093 F100 		sts 241,r19
 578               	.LM92:
 579 01c0 4617      		cp r20,r22
 580 01c2 5707      		cpc r21,r23
 581 01c4 01F0      		breq .L48
 582 01c6 4150      		subi r20,lo8(-(-1))
 583 01c8 5040      		sbci r21,hi8(-(-1))
 584 01ca 01F4      		brne .L49
 585               	.L48:
 586               	.LBE586:
 587               	.LBB599:
 588               	.LBB600:
 589               	.LM93:
 590 01cc 2091 F200 		lds r18,242
 591 01d0 3091 F300 		lds r19,(242)+1
 592               	.LVL13:
 593               	.LBE600:
 594               	.LBE599:
 595               	.LBB601:
 596               	.LBB602:
 597               	.LM94:
 598 01d4 8091 E800 		lds r24,232
 599 01d8 8E77      		andi r24,lo8(126)
 600 01da 8093 E800 		sts 232,r24
 601               	.LBE602:
 602               	.LBE601:
 603               	.LM95:
 604 01de 2031      		cpi r18,16
 605 01e0 3105      		cpc r19,__zero_reg__
 606 01e2 01F4      		brne .L46
 607               	.LM96:
 608 01e4 0E94 0000 		call Endpoint_WaitUntilReady
 609               	.LVL14:
 610               	.LBB603:
 611               	.LBB604:
 612               	.LM97:
 613 01e8 8091 E800 		lds r24,232
 614 01ec 8E77      		andi r24,lo8(126)
 615 01ee 8093 E800 		sts 232,r24
 616               	.LVL15:
 617               	.L46:
 618               	.LBE604:
 619               	.LBE603:
 620               	.LBE583:
 621               	.LBB605:
 622               	.LBB606:
 623               	.LM98:
 624 01f2 83E0      		ldi r24,lo8(3)
 625               	.LVL16:
 626 01f4 8093 E900 		sts 233,r24
 627               	.LBE606:
 628               	.LBE605:
 629               	.LBB607:
 630               	.LBB608:
 631               	.LM99:
 632 01f8 8091 E800 		lds r24,232
 633               	.LBE608:
 634               	.LBE607:
 635               	.LM100:
 636 01fc 82FF      		sbrs r24,2
 637 01fe 00C0      		rjmp .L53
 638               	.LBB609:
 639               	.LBB610:
 640               	.LM101:
 641 0200 6091 F200 		lds r22,242
 642 0204 7091 F300 		lds r23,(242)+1
 643               	.LVL17:
 644 0208 40E0      		ldi r20,lo8(0)
 645               	.LVL18:
 646               	.LBE610:
 647               	.LBE609:
 648               	.LBB611:
 649               	.LBB612:
 650               	.LBB613:
 651               	.LBB614:
 652               	.LBB615:
 653               	.LM102:
 654 020a A0E0      		ldi r26,lo8(HostRXSerial_Buffer)
 655 020c B0E0      		ldi r27,hi8(HostRXSerial_Buffer)
 656 020e 00C0      		rjmp .L50
 657               	.LVL19:
 658               	.L52:
 659               	.LBE615:
 660               	.LBE614:
 661               	.LBE613:
 662               	.LM103:
 663 0210 8091 F100 		lds r24,241
 664               	.LVL20:
 665               	.LBB624:
 666               	.LBB623:
 667               	.LBB622:
 668               	.LM104:
 669 0214 ED01      		movw r28,r26
 670               	.LVL21:
 671               	.LM105:
 672 0216 E881      		ld r30,Y
 673 0218 F981      		ldd r31,Y+1
 674 021a 8083      		st Z,r24
 675               	.LM106:
 676 021c 8881      		ld r24,Y
 677 021e 9981      		ldd r25,Y+1
 678               	.LVL22:
 679 0220 0196      		adiw r24,1
 680 0222 9983      		std Y+1,r25
 681 0224 8883      		st Y,r24
 682 0226 2E81      		ldd r18,Y+6
 683 0228 3F81      		ldd r19,Y+7
 684               	.LVL23:
 685 022a 8217      		cp r24,r18
 686 022c 9307      		cpc r25,r19
 687 022e 01F4      		brne .L51
 688               	.LM107:
 689 0230 8C81      		ldd r24,Y+4
 690 0232 9D81      		ldd r25,Y+5
 691 0234 9983      		std Y+1,r25
 692 0236 8883      		st Y,r24
 693               	.L51:
 694               	.LBB616:
 695               	.LBB617:
 696               	.LM108:
 697               	.LM109:
 698 0238 2FB7      		in r18,__SREG__
 699               	.LVL24:
 700               	.LBE617:
 701               	.LBE616:
 702               	.LBB618:
 703               	.LBB619:
 704               	.LM110:
 705               	.LM111:
 706               	/* #APP */
 707               	 ;  370 "./LUFA/Drivers/USB/../../Common/Common.h" 1
 708 023a F894      		cli
 709               	 ;  0 "" 2
 710               	.LM112:
 711               	/* #NOAPP */
 712               	.LBE619:
 713               	.LBE618:
 714               	.LM113:
 715 023c 8985      		ldd r24,Y+9
 716 023e 9A85      		ldd r25,Y+10
 717 0240 0196      		adiw r24,1
 718 0242 9A87      		std Y+10,r25
 719 0244 8987      		std Y+9,r24
 720               	.LBB620:
 721               	.LBB621:
 722               	.LM114:
 723               	.LM115:
 724 0246 2FBF      		out __SREG__,r18
 725               	.LM116:
 726               	.LBE621:
 727               	.LBE620:
 728               	.LBE622:
 729               	.LBE623:
 730               	.LBE624:
 731               	.LBE612:
 732               	.LM117:
 733 0248 4F5F      		subi r20,lo8(-(1))
 734               	.LVL25:
 735               	.L50:
 736 024a 842F      		mov r24,r20
 737 024c 90E0      		ldi r25,lo8(0)
 738 024e 8617      		cp r24,r22
 739 0250 9707      		cpc r25,r23
 740 0252 00F0      		brlo .L52
 741               	.LVL26:
 742               	.LBE611:
 743               	.LBB625:
 744               	.LBB626:
 745               	.LM118:
 746 0254 8091 E800 		lds r24,232
 747               	.LVL27:
 748 0258 8B77      		andi r24,lo8(123)
 749 025a 8093 E800 		sts 232,r24
 750               	.LVL28:
 751               	.L53:
 752               	/* epilogue start */
 753               	.LBE626:
 754               	.LBE625:
 755               	.LBE573:
 756               	.LM119:
 757 025e DF91      		pop r29
 758 0260 CF91      		pop r28
 759               	.LVL29:
 760 0262 0895      		ret
 761               	.LFE185:
 763               	.global	EVENT_USB_Device_ControlRequest
 765               	EVENT_USB_Device_ControlRequest:
 766               	.LFB184:
 767               	.LM120:
 768 0264 0F93      		push r16
 769 0266 1F93      		push r17
 770               	/* prologue: function */
 771               	/* frame size = 0 */
 772               	.LM121:
 773 0268 8091 0000 		lds r24,USB_ControlRequest+1
 774 026c 8032      		cpi r24,lo8(32)
 775 026e 01F4      		brne .+2
 776 0270 00C0      		rjmp .L59
 777 0272 8132      		cpi r24,lo8(33)
 778 0274 00F4      		brsh .L62
 779 0276 8130      		cpi r24,lo8(1)
 780 0278 01F0      		breq .L57
 781 027a 8930      		cpi r24,lo8(9)
 782 027c 01F0      		breq .+2
 783 027e 00C0      		rjmp .L63
 784 0280 00C0      		rjmp .L67
 785               	.L62:
 786 0282 8132      		cpi r24,lo8(33)
 787 0284 01F0      		breq .L60
 788 0286 8232      		cpi r24,lo8(34)
 789 0288 01F0      		breq .+2
 790 028a 00C0      		rjmp .L63
 791 028c 00C0      		rjmp .L68
 792               	.L57:
 793               	.LM122:
 794 028e 8091 0000 		lds r24,USB_ControlRequest
 795 0292 813A      		cpi r24,lo8(-95)
 796 0294 01F0      		breq .+2
 797 0296 00C0      		rjmp .L63
 798               	.LBB627:
 799               	.LBB628:
 800               	.LM123:
 801 0298 8091 E800 		lds r24,232
 802 029c 877F      		andi r24,lo8(-9)
 803 029e 8093 E800 		sts 232,r24
 804               	.LBE628:
 805               	.LBE627:
 806               	.LM124:
 807 02a2 00E0      		ldi r16,lo8(HIDReportInData)
 808 02a4 10E0      		ldi r17,hi8(HIDReportInData)
 809 02a6 C801      		movw r24,r16
 810 02a8 69E0      		ldi r22,lo8(9)
 811 02aa 70E0      		ldi r23,hi8(9)
 812 02ac 0E94 0000 		call Endpoint_Write_Control_Stream_LE
 813               	.LM125:
 814 02b0 89E0      		ldi r24,lo8(9)
 815 02b2 F801      		movw r30,r16
 816 02b4 1192      		st Z+,__zero_reg__
 817 02b6 8A95      	        dec r24
 818 02b8 01F4      		brne .-6
 819 02ba 00C0      		rjmp .L65
 820               	.L67:
 821               	.LM126:
 822 02bc 8091 0000 		lds r24,USB_ControlRequest
 823 02c0 8132      		cpi r24,lo8(33)
 824 02c2 01F4      		brne .L63
 825               	.LBB629:
 826               	.LBB630:
 827               	.LM127:
 828 02c4 8091 E800 		lds r24,232
 829 02c8 877F      		andi r24,lo8(-9)
 830 02ca 8093 E800 		sts 232,r24
 831               	.LBE630:
 832               	.LBE629:
 833               	.LM128:
 834 02ce 80E0      		ldi r24,lo8(HIDReportOutData)
 835 02d0 90E0      		ldi r25,hi8(HIDReportOutData)
 836 02d2 69E0      		ldi r22,lo8(9)
 837 02d4 70E0      		ldi r23,hi8(9)
 838               	.L66:
 839 02d6 0E94 0000 		call Endpoint_Read_Control_Stream_LE
 840               	.LBB631:
 841               	.LBB632:
 842               	.LM129:
 843 02da 8091 E800 		lds r24,232
 844 02de 8E77      		andi r24,lo8(126)
 845               	.L64:
 846 02e0 8093 E800 		sts 232,r24
 847 02e4 00C0      		rjmp .L63
 848               	.L60:
 849               	.LBE632:
 850               	.LBE631:
 851               	.LM130:
 852 02e6 8091 0000 		lds r24,USB_ControlRequest
 853 02ea 813A      		cpi r24,lo8(-95)
 854 02ec 01F4      		brne .L63
 855               	.LBB633:
 856               	.LBB634:
 857               	.LM131:
 858 02ee 8091 E800 		lds r24,232
 859 02f2 877F      		andi r24,lo8(-9)
 860 02f4 8093 E800 		sts 232,r24
 861               	.LBE634:
 862               	.LBE633:
 863               	.LM132:
 864 02f8 80E0      		ldi r24,lo8(LineEncodingData)
 865 02fa 90E0      		ldi r25,hi8(LineEncodingData)
 866 02fc 67E0      		ldi r22,lo8(7)
 867 02fe 70E0      		ldi r23,hi8(7)
 868 0300 0E94 0000 		call Endpoint_Write_Control_Stream_LE
 869               	.L65:
 870               	.LBB635:
 871               	.LBB636:
 872               	.LM133:
 873 0304 8091 E800 		lds r24,232
 874 0308 8B77      		andi r24,lo8(123)
 875 030a 00C0      		rjmp .L64
 876               	.L59:
 877               	.LBE636:
 878               	.LBE635:
 879               	.LM134:
 880 030c 8091 0000 		lds r24,USB_ControlRequest
 881 0310 8132      		cpi r24,lo8(33)
 882 0312 01F4      		brne .L63
 883               	.LBB637:
 884               	.LBB638:
 885               	.LM135:
 886 0314 8091 E800 		lds r24,232
 887 0318 877F      		andi r24,lo8(-9)
 888 031a 8093 E800 		sts 232,r24
 889               	.LBE638:
 890               	.LBE637:
 891               	.LM136:
 892 031e 80E0      		ldi r24,lo8(LineEncodingData)
 893 0320 90E0      		ldi r25,hi8(LineEncodingData)
 894 0322 67E0      		ldi r22,lo8(7)
 895 0324 70E0      		ldi r23,hi8(7)
 896 0326 00C0      		rjmp .L66
 897               	.L68:
 898               	.LM137:
 899 0328 8091 0000 		lds r24,USB_ControlRequest
 900 032c 8132      		cpi r24,lo8(33)
 901 032e 01F4      		brne .L63
 902               	.LBB639:
 903               	.LBB640:
 904               	.LM138:
 905 0330 8091 E800 		lds r24,232
 906 0334 877F      		andi r24,lo8(-9)
 907 0336 8093 E800 		sts 232,r24
 908               	.LBE640:
 909               	.LBE639:
 910               	.LM139:
 911 033a 0E94 0000 		call Endpoint_ClearStatusStage
 912               	.L63:
 913               	/* epilogue start */
 914               	.LM140:
 915 033e 1F91      		pop r17
 916 0340 0F91      		pop r16
 917 0342 0895      		ret
 918               	.LFE184:
 920               	.global	EVENT_USB_Device_ConfigurationChanged
 922               	EVENT_USB_Device_ConfigurationChanged:
 923               	.LFB183:
 924               	.LM141:
 925 0344 BF92      		push r11
 926 0346 CF92      		push r12
 927 0348 DF92      		push r13
 928 034a EF92      		push r14
 929 034c FF92      		push r15
 930 034e 0F93      		push r16
 931 0350 1F93      		push r17
 932               	/* prologue: function */
 933               	/* frame size = 0 */
 934               	.LBB641:
 935               	.LBB642:
 936               	.LM142:
 937 0352 81E0      		ldi r24,lo8(1)
 938 0354 61EC      		ldi r22,lo8(-63)
 939 0356 42E0      		ldi r20,lo8(2)
 940 0358 0E94 0000 		call Endpoint_ConfigureEndpoint_Prv
 941 035c 082F      		mov r16,r24
 942               	.LBE642:
 943               	.LBB643:
 944 035e 82E0      		ldi r24,lo8(2)
 945 0360 61E8      		ldi r22,lo8(-127)
 946 0362 42E1      		ldi r20,lo8(18)
 947 0364 0E94 0000 		call Endpoint_ConfigureEndpoint_Prv
 948 0368 C82E      		mov r12,r24
 949               	.LBE643:
 950               	.LBB644:
 951 036a 83E0      		ldi r24,lo8(3)
 952 036c 60E8      		ldi r22,lo8(-128)
 953 036e 42E1      		ldi r20,lo8(18)
 954 0370 0E94 0000 		call Endpoint_ConfigureEndpoint_Prv
 955 0374 E82E      		mov r14,r24
 956               	.LBE644:
 957               	.LM143:
 958 0376 1092 0000 		sts LineEncodingData,__zero_reg__
 959 037a 1092 0000 		sts (LineEncodingData)+1,__zero_reg__
 960 037e 1092 0000 		sts (LineEncodingData)+2,__zero_reg__
 961 0382 1092 0000 		sts (LineEncodingData)+3,__zero_reg__
 962               	.LBB645:
 963               	.LM144:
 964 0386 84E0      		ldi r24,lo8(4)
 965 0388 61EC      		ldi r22,lo8(-63)
 966 038a 42E1      		ldi r20,lo8(18)
 967 038c 0E94 0000 		call Endpoint_ConfigureEndpoint_Prv
 968 0390 B82E      		mov r11,r24
 969               	.LBE645:
 970               	.LBB646:
 971 0392 85E0      		ldi r24,lo8(5)
 972 0394 60EC      		ldi r22,lo8(-64)
 973 0396 42E1      		ldi r20,lo8(18)
 974 0398 0E94 0000 		call Endpoint_ConfigureEndpoint_Prv
 975 039c 682F      		mov r22,r24
 976               	.LBE646:
 977               	.LM145:
 978 039e 10E0      		ldi r17,lo8(0)
 979 03a0 DD24      		clr r13
 980 03a2 0C21      		and r16,r12
 981 03a4 1D21      		and r17,r13
 982 03a6 0170      		andi r16,lo8(1)
 983 03a8 1070      		andi r17,hi8(1)
 984 03aa FF24      		clr r15
 985 03ac 0E21      		and r16,r14
 986 03ae 1F21      		and r17,r15
 987               	.LM146:
 988 03b0 40E0      		ldi r20,lo8(0)
 989 03b2 50E0      		ldi r21,hi8(0)
 990 03b4 012B      		or r16,r17
 991 03b6 01F0      		breq .L70
 992 03b8 41E0      		ldi r20,lo8(1)
 993 03ba 50E0      		ldi r21,hi8(1)
 994               	.L70:
 995 03bc 8B2D      		mov r24,r11
 996 03be 90E0      		ldi r25,lo8(0)
 997 03c0 4823      		and r20,r24
 998 03c2 5923      		and r21,r25
 999               	.LM147:
 1000 03c4 20E0      		ldi r18,lo8(0)
 1001 03c6 30E0      		ldi r19,hi8(0)
 1002 03c8 452B      		or r20,r21
 1003 03ca 01F0      		breq .L72
 1004 03cc 21E0      		ldi r18,lo8(1)
 1005 03ce 30E0      		ldi r19,hi8(1)
 1006               	.L72:
 1007 03d0 862F      		mov r24,r22
 1008 03d2 90E0      		ldi r25,lo8(0)
 1009 03d4 2823      		and r18,r24
 1010 03d6 3923      		and r19,r25
 1011 03d8 232B      		or r18,r19
 1012 03da 01F4      		brne .L71
 1013 03dc 90E2      		ldi r25,lo8(32)
 1014 03de 00C0      		rjmp .L73
 1015               	.L71:
 1016 03e0 90E4      		ldi r25,lo8(64)
 1017               	.L73:
 1018               	.LBB647:
 1019               	.LBB648:
 1020               	.LM148:
 1021 03e2 81B3      		in r24,49-32
 1022 03e4 8F71      		andi r24,lo8(31)
 1023 03e6 982B      		or r25,r24
 1024 03e8 91BB      		out 49-32,r25
 1025               	/* epilogue start */
 1026               	.LBE648:
 1027               	.LBE647:
 1028               	.LBE641:
 1029               	.LM149:
 1030 03ea 1F91      		pop r17
 1031 03ec 0F91      		pop r16
 1032 03ee FF90      		pop r15
 1033 03f0 EF90      		pop r14
 1034 03f2 DF90      		pop r13
 1035 03f4 CF90      		pop r12
 1036 03f6 BF90      		pop r11
 1037 03f8 0895      		ret
 1038               	.LFE183:
 1040               	.global	SetupHardware
 1042               	SetupHardware:
 1043               	.LFB180:
 1044               	.LM150:
 1045               	/* prologue: function */
 1046               	/* frame size = 0 */
 1047               	.LM151:
 1048 03fa 81E8      		ldi r24,lo8(-127)
 1049 03fc 85BF      		out 85-32,r24
 1050               	.LM152:
 1051 03fe 20E8      		ldi r18,lo8(-128)
 1052 0400 25BF      		out 85-32,r18
 1053               	.LM153:
 1054 0402 84B7      		in r24,84-32
 1055 0404 877F      		andi r24,lo8(-9)
 1056 0406 84BF      		out 84-32,r24
 1057               	.LM154:
 1058 0408 88E1      		ldi r24,lo8(24)
 1059               	/* #APP */
 1060               	 ;  164 "Keyglove.cpp" 1
 1061 040a 0FB6      		in __tmp_reg__, __SREG__
 1062 040c F894      		cli
 1063 040e 8093 6000 		sts 96, r24
 1064 0412 1092 6000 		sts 96, __zero_reg__
 1065 0416 0FBE      		out __SREG__,__tmp_reg__
 1066               		
 1067               	 ;  0 "" 2
 1068               	.LM155:
 1069               	/* #NOAPP */
 1070 0418 83E0      		ldi r24,lo8(3)
 1071 041a 84BD      		out 68-32,r24
 1072               	.LM156:
 1073 041c 85BD      		out 69-32,r24
 1074               	.LM157:
 1075 041e 91E0      		ldi r25,lo8(1)
 1076 0420 9093 8000 		sts 128,r25
 1077               	.LM158:
 1078 0424 82E0      		ldi r24,lo8(2)
 1079 0426 8093 8100 		sts 129,r24
 1080               	.LM159:
 1081 042a 9093 B000 		sts 176,r25
 1082               	.LM160:
 1083 042e 8093 B100 		sts 177,r24
 1084               	.LM161:
 1085 0432 9093 9000 		sts 144,r25
 1086               	.LM162:
 1087 0436 8093 9100 		sts 145,r24
 1088               	.LM163:
 1089 043a 1092 7E00 		sts 126,__zero_reg__
 1090               	.LM164:
 1091 043e E1E6      		ldi r30,lo8(97)
 1092 0440 F0E0      		ldi r31,hi8(97)
 1093 0442 2083      		st Z,r18
 1094 0444 9083      		st Z,r25
 1095               	.LBB649:
 1096               	.LBB650:
 1097               	.LM165:
 1098 0446 569A      		sbi 42-32,6
 1099               	.LM166:
 1100 0448 80B3      		in r24,48-32
 1101 044a 806E      		ori r24,lo8(-32)
 1102 044c 80BB      		out 48-32,r24
 1103               	.LM167:
 1104 044e 81B3      		in r24,49-32
 1105 0450 8F71      		andi r24,lo8(31)
 1106 0452 81BB      		out 49-32,r24
 1107               	.LBE650:
 1108               	.LBE649:
 1109               	.LM168:
 1110 0454 0E94 0000 		call USB_Init
 1111               	.LM169:
 1112               	/* #APP */
 1113               	 ;  214 "Keyglove.cpp" 1
 1114 0458 7894      		sei
 1115               	 ;  0 "" 2
 1116               	/* epilogue start */
 1117               	.LM170:
 1118               	/* #NOAPP */
 1119 045a 0895      		ret
 1120               	.LFE180:
 1122               	.global	_Z7set_rgbhhh
 1124               	_Z7set_rgbhhh:
 1125               	.LFB140:
 1126               	.LM171:
 1127               	.LVL30:
 1128 045c 0F93      		push r16
 1129 045e 1F93      		push r17
 1130               	/* prologue: function */
 1131               	/* frame size = 0 */
 1132 0460 982F      		mov r25,r24
 1133 0462 162F      		mov r17,r22
 1134 0464 042F      		mov r16,r20
 1135               	.LM172:
 1136 0466 8F3F      		cpi r24,lo8(-1)
 1137 0468 01F0      		breq .L78
 1138               	.LVL31:
 1139 046a 8BE2      		ldi r24,lo8(43)
 1140               	.LVL32:
 1141 046c 692F      		mov r22,r25
 1142 046e 0E94 0000 		call digitalWrite
 1143               	.LVL33:
 1144               	.L78:
 1145               	.LM173:
 1146 0472 1F3F      		cpi r17,lo8(-1)
 1147 0474 01F0      		breq .L79
 1148 0476 8CE2      		ldi r24,lo8(44)
 1149               	.LVL34:
 1150 0478 612F      		mov r22,r17
 1151 047a 0E94 0000 		call digitalWrite
 1152               	.LVL35:
 1153               	.L79:
 1154               	.LM174:
 1155 047e 0F3F      		cpi r16,lo8(-1)
 1156 0480 01F0      		breq .L81
 1157 0482 8DE2      		ldi r24,lo8(45)
 1158               	.LVL36:
 1159 0484 602F      		mov r22,r16
 1160 0486 0E94 0000 		call digitalWrite
 1161               	.LVL37:
 1162               	.L81:
 1163               	/* epilogue start */
 1164               	.LM175:
 1165 048a 1F91      		pop r17
 1166               	.LVL38:
 1167 048c 0F91      		pop r16
 1168               	.LVL39:
 1169 048e 0895      		ret
 1170               	.LFE140:
 1172               	.global	_Z20setup_feedback_blinkv
 1174               	_Z20setup_feedback_blinkv:
 1175               	.LFB137:
 1176               	.LM176:
 1177               	/* prologue: function */
 1178               	/* frame size = 0 */
 1179               	.LM177:
 1180 0490 86E0      		ldi r24,lo8(6)
 1181 0492 61E0      		ldi r22,lo8(1)
 1182 0494 0E94 0000 		call pinMode
 1183               	.LM178:
 1184 0498 86E0      		ldi r24,lo8(6)
 1185 049a 60E0      		ldi r22,lo8(0)
 1186 049c 0E94 0000 		call digitalWrite
 1187               	.LM179:
 1188 04a0 1092 0000 		sts blink_led,__zero_reg__
 1189               	/* epilogue start */
 1190               	.LM180:
 1191 04a4 0895      		ret
 1192               	.LFE137:
 1194               		.data
 1195               	.LC0:
 1196 0000 746F 7563 		.string	"touchset vibrate "
 1196      6873 6574 
 1196      2076 6962 
 1196      7261 7465 
 1196      2000 
 1197               	.LC1:
 1198 0012 2000      		.string	" "
 1199               		.text
 1200               	.global	_Z7vibratehj
 1202               	_Z7vibratehj:
 1203               	.LFB169:
 1204               	.LM181:
 1205               	.LVL40:
 1206 04a6 DF92      		push r13
 1207 04a8 EF92      		push r14
 1208 04aa FF92      		push r15
 1209 04ac 0F93      		push r16
 1210 04ae 1F93      		push r17
 1211               	/* prologue: function */
 1212               	/* frame size = 0 */
 1213 04b0 D82E      		mov r13,r24
 1214 04b2 7B01      		movw r14,r22
 1215               	.LM182:
 1216 04b4 00E0      		ldi r16,lo8(Serial)
 1217 04b6 10E0      		ldi r17,hi8(Serial)
 1218 04b8 C801      		movw r24,r16
 1219               	.LVL41:
 1220 04ba 60E0      		ldi r22,lo8(.LC0)
 1221 04bc 70E0      		ldi r23,hi8(.LC0)
 1222               	.LVL42:
 1223 04be 0E94 0000 		call _ZN16USBVirtualSerial5printEPKc
 1224               	.LM183:
 1225 04c2 C801      		movw r24,r16
 1226 04c4 6D2D      		mov r22,r13
 1227 04c6 0E94 0000 		call _ZN16USBVirtualSerial5printEh
 1228               	.LM184:
 1229 04ca C801      		movw r24,r16
 1230 04cc 60E0      		ldi r22,lo8(.LC1)
 1231 04ce 70E0      		ldi r23,hi8(.LC1)
 1232 04d0 0E94 0000 		call _ZN16USBVirtualSerial5printEPKc
 1233               	.LM185:
 1234 04d4 C801      		movw r24,r16
 1235 04d6 B701      		movw r22,r14
 1236 04d8 0E94 0000 		call _ZN16USBVirtualSerial7printlnEj
 1237               	/* epilogue start */
 1238               	.LM186:
 1239 04dc 1F91      		pop r17
 1240 04de 0F91      		pop r16
 1241 04e0 FF90      		pop r15
 1242 04e2 EF90      		pop r14
 1243               	.LVL43:
 1244 04e4 DF90      		pop r13
 1245               	.LVL44:
 1246 04e6 0895      		ret
 1247               	.LFE169:
 1249               		.data
 1250               	.LC2:
 1251 0014 746F 7563 		.string	"touchset blueled "
 1251      6873 6574 
 1251      2062 6C75 
 1251      656C 6564 
 1251      2000 
 1252               		.text
 1253               	.global	_Z7blueledhj
 1255               	_Z7blueledhj:
 1256               	.LFB167:
 1257               	.LM187:
 1258               	.LVL45:
 1259 04e8 DF92      		push r13
 1260 04ea EF92      		push r14
 1261 04ec FF92      		push r15
 1262 04ee 0F93      		push r16
 1263 04f0 1F93      		push r17
 1264               	/* prologue: function */
 1265               	/* frame size = 0 */
 1266 04f2 D82E      		mov r13,r24
 1267 04f4 7B01      		movw r14,r22
 1268               	.LM188:
 1269 04f6 00E0      		ldi r16,lo8(Serial)
 1270 04f8 10E0      		ldi r17,hi8(Serial)
 1271 04fa C801      		movw r24,r16
 1272               	.LVL46:
 1273 04fc 60E0      		ldi r22,lo8(.LC2)
 1274 04fe 70E0      		ldi r23,hi8(.LC2)
 1275               	.LVL47:
 1276 0500 0E94 0000 		call _ZN16USBVirtualSerial5printEPKc
 1277               	.LM189:
 1278 0504 C801      		movw r24,r16
 1279 0506 6D2D      		mov r22,r13
 1280 0508 0E94 0000 		call _ZN16USBVirtualSerial5printEh
 1281               	.LM190:
 1282 050c C801      		movw r24,r16
 1283 050e 60E0      		ldi r22,lo8(.LC1)
 1284 0510 70E0      		ldi r23,hi8(.LC1)
 1285 0512 0E94 0000 		call _ZN16USBVirtualSerial5printEPKc
 1286               	.LM191:
 1287 0516 C801      		movw r24,r16
 1288 0518 B701      		movw r22,r14
 1289 051a 0E94 0000 		call _ZN16USBVirtualSerial7printlnEj
 1290               	/* epilogue start */
 1291               	.LM192:
 1292 051e 1F91      		pop r17
 1293 0520 0F91      		pop r16
 1294 0522 FF90      		pop r15
 1295 0524 EF90      		pop r14
 1296               	.LVL48:
 1297 0526 DF90      		pop r13
 1298               	.LVL49:
 1299 0528 0895      		ret
 1300               	.LFE167:
 1302               		.data
 1303               	.LC3:
 1304 0026 746F 7563 		.string	"touchset greenled "
 1304      6873 6574 
 1304      2067 7265 
 1304      656E 6C65 
 1304      6420 00
 1305               		.text
 1306               	.global	_Z8greenledhj
 1308               	_Z8greenledhj:
 1309               	.LFB166:
 1310               	.LM193:
 1311               	.LVL50:
 1312 052a DF92      		push r13
 1313 052c EF92      		push r14
 1314 052e FF92      		push r15
 1315 0530 0F93      		push r16
 1316 0532 1F93      		push r17
 1317               	/* prologue: function */
 1318               	/* frame size = 0 */
 1319 0534 D82E      		mov r13,r24
 1320 0536 7B01      		movw r14,r22
 1321               	.LM194:
 1322 0538 00E0      		ldi r16,lo8(Serial)
 1323 053a 10E0      		ldi r17,hi8(Serial)
 1324 053c C801      		movw r24,r16
 1325               	.LVL51:
 1326 053e 60E0      		ldi r22,lo8(.LC3)
 1327 0540 70E0      		ldi r23,hi8(.LC3)
 1328               	.LVL52:
 1329 0542 0E94 0000 		call _ZN16USBVirtualSerial5printEPKc
 1330               	.LM195:
 1331 0546 C801      		movw r24,r16
 1332 0548 6D2D      		mov r22,r13
 1333 054a 0E94 0000 		call _ZN16USBVirtualSerial5printEh
 1334               	.LM196:
 1335 054e C801      		movw r24,r16
 1336 0550 60E0      		ldi r22,lo8(.LC1)
 1337 0552 70E0      		ldi r23,hi8(.LC1)
 1338 0554 0E94 0000 		call _ZN16USBVirtualSerial5printEPKc
 1339               	.LM197:
 1340 0558 C801      		movw r24,r16
 1341 055a B701      		movw r22,r14
 1342 055c 0E94 0000 		call _ZN16USBVirtualSerial7printlnEj
 1343               	/* epilogue start */
 1344               	.LM198:
 1345 0560 1F91      		pop r17
 1346 0562 0F91      		pop r16
 1347 0564 FF90      		pop r15
 1348 0566 EF90      		pop r14
 1349               	.LVL53:
 1350 0568 DF90      		pop r13
 1351               	.LVL54:
 1352 056a 0895      		ret
 1353               	.LFE166:
 1355               		.data
 1356               	.LC4:
 1357 0039 746F 7563 		.string	"touchset redled "
 1357      6873 6574 
 1357      2072 6564 
 1357      6C65 6420 
 1357      00
 1358               		.text
 1359               	.global	_Z6redledhj
 1361               	_Z6redledhj:
 1362               	.LFB165:
 1363               	.LM199:
 1364               	.LVL55:
 1365 056c DF92      		push r13
 1366 056e EF92      		push r14
 1367 0570 FF92      		push r15
 1368 0572 0F93      		push r16
 1369 0574 1F93      		push r17
 1370               	/* prologue: function */
 1371               	/* frame size = 0 */
 1372 0576 D82E      		mov r13,r24
 1373 0578 7B01      		movw r14,r22
 1374               	.LM200:
 1375 057a 00E0      		ldi r16,lo8(Serial)
 1376 057c 10E0      		ldi r17,hi8(Serial)
 1377 057e C801      		movw r24,r16
 1378               	.LVL56:
 1379 0580 60E0      		ldi r22,lo8(.LC4)
 1380 0582 70E0      		ldi r23,hi8(.LC4)
 1381               	.LVL57:
 1382 0584 0E94 0000 		call _ZN16USBVirtualSerial5printEPKc
 1383               	.LM201:
 1384 0588 C801      		movw r24,r16
 1385 058a 6D2D      		mov r22,r13
 1386 058c 0E94 0000 		call _ZN16USBVirtualSerial5printEh
 1387               	.LM202:
 1388 0590 C801      		movw r24,r16
 1389 0592 60E0      		ldi r22,lo8(.LC1)
 1390 0594 70E0      		ldi r23,hi8(.LC1)
 1391 0596 0E94 0000 		call _ZN16USBVirtualSerial5printEPKc
 1392               	.LM203:
 1393 059a C801      		movw r24,r16
 1394 059c B701      		movw r22,r14
 1395 059e 0E94 0000 		call _ZN16USBVirtualSerial7printlnEj
 1396               	/* epilogue start */
 1397               	.LM204:
 1398 05a2 1F91      		pop r17
 1399 05a4 0F91      		pop r16
 1400 05a6 FF90      		pop r15
 1401 05a8 EF90      		pop r14
 1402               	.LVL58:
 1403 05aa DF90      		pop r13
 1404               	.LVL59:
 1405 05ac 0895      		ret
 1406               	.LFE165:
 1408               		.data
 1409               	.LC5:
 1410 004a 746F 7563 		.string	"touchset beep "
 1410      6873 6574 
 1410      2062 6565 
 1410      7020 00
 1411               		.text
 1412               	.global	_Z4beepjhj
 1414               	_Z4beepjhj:
 1415               	.LFB168:
 1416               	.LM205:
 1417               	.LVL60:
 1418 05ae BF92      		push r11
 1419 05b0 CF92      		push r12
 1420 05b2 DF92      		push r13
 1421 05b4 EF92      		push r14
 1422 05b6 FF92      		push r15
 1423 05b8 0F93      		push r16
 1424 05ba 1F93      		push r17
 1425               	/* prologue: function */
 1426               	/* frame size = 0 */
 1427 05bc 7C01      		movw r14,r24
 1428 05be B62E      		mov r11,r22
 1429 05c0 6A01      		movw r12,r20
 1430               	.LM206:
 1431 05c2 00E0      		ldi r16,lo8(Serial)
 1432 05c4 10E0      		ldi r17,hi8(Serial)
 1433 05c6 C801      		movw r24,r16
 1434               	.LVL61:
 1435 05c8 60E0      		ldi r22,lo8(.LC5)
 1436 05ca 70E0      		ldi r23,hi8(.LC5)
 1437               	.LVL62:
 1438 05cc 0E94 0000 		call _ZN16USBVirtualSerial5printEPKc
 1439               	.LVL63:
 1440               	.LM207:
 1441 05d0 C801      		movw r24,r16
 1442 05d2 B701      		movw r22,r14
 1443 05d4 0E94 0000 		call _ZN16USBVirtualSerial5printEj
 1444               	.LM208:
 1445 05d8 80E0      		ldi r24,lo8(.LC1)
 1446 05da E82E      		mov r14,r24
 1447 05dc 80E0      		ldi r24,hi8(.LC1)
 1448 05de F82E      		mov r15,r24
 1449               	.LVL64:
 1450 05e0 C801      		movw r24,r16
 1451 05e2 B701      		movw r22,r14
 1452 05e4 0E94 0000 		call _ZN16USBVirtualSerial5printEPKc
 1453               	.LM209:
 1454 05e8 C801      		movw r24,r16
 1455 05ea 6B2D      		mov r22,r11
 1456 05ec 0E94 0000 		call _ZN16USBVirtualSerial5printEh
 1457               	.LM210:
 1458 05f0 C801      		movw r24,r16
 1459 05f2 B701      		movw r22,r14
 1460 05f4 0E94 0000 		call _ZN16USBVirtualSerial5printEPKc
 1461               	.LM211:
 1462 05f8 C801      		movw r24,r16
 1463 05fa B601      		movw r22,r12
 1464 05fc 0E94 0000 		call _ZN16USBVirtualSerial7printlnEj
 1465               	/* epilogue start */
 1466               	.LM212:
 1467 0600 1F91      		pop r17
 1468 0602 0F91      		pop r16
 1469 0604 FF90      		pop r15
 1470 0606 EF90      		pop r14
 1471 0608 DF90      		pop r13
 1472 060a CF90      		pop r12
 1473               	.LVL65:
 1474 060c BF90      		pop r11
 1475               	.LVL66:
 1476 060e 0895      		ret
 1477               	.LFE168:
 1479               		.data
 1480               	.LC6:
 1481 0059 746F 7563 		.string	"touchset mouseoff "
 1481      6873 6574 
 1481      206D 6F75 
 1481      7365 6F66 
 1481      6620 00
 1482               		.text
 1483               	.global	_Z8mouseoffh
 1485               	_Z8mouseoffh:
 1486               	.LFB154:
 1487               	.LM213:
 1488               	.LVL67:
 1489 0610 1F93      		push r17
 1490               	/* prologue: function */
 1491               	/* frame size = 0 */
 1492 0612 182F      		mov r17,r24
 1493               	.LM214:
 1494 0614 80E0      		ldi r24,lo8(Serial)
 1495 0616 90E0      		ldi r25,hi8(Serial)
 1496               	.LVL68:
 1497 0618 60E0      		ldi r22,lo8(.LC6)
 1498 061a 70E0      		ldi r23,hi8(.LC6)
 1499 061c 0E94 0000 		call _ZN16USBVirtualSerial5printEPKc
 1500               	.LM215:
 1501 0620 80E0      		ldi r24,lo8(Serial)
 1502 0622 90E0      		ldi r25,hi8(Serial)
 1503 0624 612F      		mov r22,r17
 1504 0626 0E94 0000 		call _ZN16USBVirtualSerial7printlnEh
 1505               	.LM216:
 1506 062a 1123      		tst r17
 1507 062c 01F4      		brne .L95
 1508               	.LM217:
 1509 062e 1092 0000 		sts opt_mouse_mode,__zero_reg__
 1510 0632 00C0      		rjmp .L97
 1511               	.L95:
 1512               	.LM218:
 1513 0634 1130      		cpi r17,lo8(1)
 1514 0636 01F4      		brne .L97
 1515               	.LM219:
 1516 0638 1092 0000 		sts opt_scroll_mode,__zero_reg__
 1517               	.L97:
 1518               	/* epilogue start */
 1519               	.LM220:
 1520 063c 1F91      		pop r17
 1521               	.LVL69:
 1522 063e 0895      		ret
 1523               	.LFE154:
 1525               		.data
 1526               	.LC7:
 1527 006c 746F 7563 		.string	"touchset mouseon "
 1527      6873 6574 
 1527      206D 6F75 
 1527      7365 6F6E 
 1527      2000 
 1528               		.text
 1529               	.global	_Z7mouseonh
 1531               	_Z7mouseonh:
 1532               	.LFB153:
 1533               	.LM221:
 1534               	.LVL70:
 1535 0640 1F93      		push r17
 1536               	/* prologue: function */
 1537               	/* frame size = 0 */
 1538 0642 182F      		mov r17,r24
 1539               	.LM222:
 1540 0644 80E0      		ldi r24,lo8(Serial)
 1541 0646 90E0      		ldi r25,hi8(Serial)
 1542               	.LVL71:
 1543 0648 60E0      		ldi r22,lo8(.LC7)
 1544 064a 70E0      		ldi r23,hi8(.LC7)
 1545 064c 0E94 0000 		call _ZN16USBVirtualSerial5printEPKc
 1546               	.LM223:
 1547 0650 80E0      		ldi r24,lo8(Serial)
 1548 0652 90E0      		ldi r25,hi8(Serial)
 1549 0654 612F      		mov r22,r17
 1550 0656 0E94 0000 		call _ZN16USBVirtualSerial7printlnEh
 1551               	.LM224:
 1552 065a 1123      		tst r17
 1553 065c 01F4      		brne .L99
 1554               	.LM225:
 1555 065e 82E0      		ldi r24,lo8(2)
 1556 0660 8093 0000 		sts opt_mouse_mode,r24
 1557 0664 00C0      		rjmp .L101
 1558               	.L99:
 1559               	.LM226:
 1560 0666 1130      		cpi r17,lo8(1)
 1561 0668 01F4      		brne .L101
 1562               	.LM227:
 1563 066a 82E0      		ldi r24,lo8(2)
 1564 066c 8093 0000 		sts opt_scroll_mode,r24
 1565               	.L101:
 1566               	/* epilogue start */
 1567               	.LM228:
 1568 0670 1F91      		pop r17
 1569               	.LVL72:
 1570 0672 0895      		ret
 1571               	.LFE153:
 1573               	.global	_Z18setup_feedback_rgbv
 1575               	_Z18setup_feedback_rgbv:
 1576               	.LFB141:
 1577               	.LM229:
 1578               	/* prologue: function */
 1579               	/* frame size = 0 */
 1580               	.LM230:
 1581 0674 8BE2      		ldi r24,lo8(43)
 1582 0676 61E0      		ldi r22,lo8(1)
 1583 0678 0E94 0000 		call pinMode
 1584               	.LM231:
 1585 067c 8CE2      		ldi r24,lo8(44)
 1586 067e 61E0      		ldi r22,lo8(1)
 1587 0680 0E94 0000 		call pinMode
 1588               	.LM232:
 1589 0684 8DE2      		ldi r24,lo8(45)
 1590 0686 61E0      		ldi r22,lo8(1)
 1591 0688 0E94 0000 		call pinMode
 1592               	.LM233:
 1593 068c 81E0      		ldi r24,lo8(1)
 1594 068e 61E0      		ldi r22,lo8(1)
 1595 0690 41E0      		ldi r20,lo8(1)
 1596 0692 0E94 0000 		call _Z7set_rgbhhh
 1597               	.LM234:
 1598 0696 64E6      		ldi r22,lo8(100)
 1599 0698 70E0      		ldi r23,hi8(100)
 1600 069a 80E0      		ldi r24,hlo8(100)
 1601 069c 90E0      		ldi r25,hhi8(100)
 1602 069e 0E94 0000 		call delay
 1603               	.LM235:
 1604 06a2 80E0      		ldi r24,lo8(0)
 1605 06a4 60E0      		ldi r22,lo8(0)
 1606 06a6 40E0      		ldi r20,lo8(0)
 1607 06a8 0E94 0000 		call _Z7set_rgbhhh
 1608               	/* epilogue start */
 1609               	.LM236:
 1610 06ac 0895      		ret
 1611               	.LFE141:
 1613               	.global	_Z22setup_feedback_vibratev
 1615               	_Z22setup_feedback_vibratev:
 1616               	.LFB139:
 1617               	.LM237:
 1618               	/* prologue: function */
 1619               	/* frame size = 0 */
 1620               	.LM238:
 1621 06ae 89E2      		ldi r24,lo8(41)
 1622 06b0 61E0      		ldi r22,lo8(1)
 1623 06b2 0E94 0000 		call pinMode
 1624               	.LM239:
 1625 06b6 89E2      		ldi r24,lo8(41)
 1626 06b8 60E0      		ldi r22,lo8(0)
 1627 06ba 0E94 0000 		call digitalWrite
 1628               	.LM240:
 1629 06be 64E6      		ldi r22,lo8(100)
 1630 06c0 70E0      		ldi r23,hi8(100)
 1631 06c2 80E0      		ldi r24,hlo8(100)
 1632 06c4 90E0      		ldi r25,hhi8(100)
 1633 06c6 0E94 0000 		call delay
 1634               	.LM241:
 1635 06ca 89E2      		ldi r24,lo8(41)
 1636 06cc 61E0      		ldi r22,lo8(1)
 1637 06ce 0E94 0000 		call digitalWrite
 1638               	/* epilogue start */
 1639               	.LM242:
 1640 06d2 0895      		ret
 1641               	.LFE139:
 1643               		.data
 1644               	.LC8:
 1645 007e 746F 7563 		.string	"touchset modifierup "
 1645      6873 6574 
 1645      206D 6F64 
 1645      6966 6965 
 1645      7275 7020 
 1646               		.text
 1647               	.global	_Z10modifieruph
 1649               	_Z10modifieruph:
 1650               	.LFB162:
 1651               	.LM243:
 1652               	.LVL73:
 1653 06d4 1F93      		push r17
 1654               	/* prologue: function */
 1655               	/* frame size = 0 */
 1656 06d6 182F      		mov r17,r24
 1657               	.LM244:
 1658 06d8 80E0      		ldi r24,lo8(Serial)
 1659 06da 90E0      		ldi r25,hi8(Serial)
 1660               	.LVL74:
 1661 06dc 60E0      		ldi r22,lo8(.LC8)
 1662 06de 70E0      		ldi r23,hi8(.LC8)
 1663 06e0 0E94 0000 		call _ZN16USBVirtualSerial5printEPKc
 1664               	.LM245:
 1665 06e4 80E0      		ldi r24,lo8(Serial)
 1666 06e6 90E0      		ldi r25,hi8(Serial)
 1667 06e8 612F      		mov r22,r17
 1668 06ea 0E94 0000 		call _ZN16USBVirtualSerial7printlnEh
 1669               	.LM246:
 1670 06ee 6091 0000 		lds r22,modifiersDown
 1671 06f2 812F      		mov r24,r17
 1672 06f4 90E0      		ldi r25,lo8(0)
 1673               	.LVL75:
 1674 06f6 262F      		mov r18,r22
 1675 06f8 30E0      		ldi r19,lo8(0)
 1676 06fa 8223      		and r24,r18
 1677 06fc 9323      		and r25,r19
 1678               	.LVL76:
 1679 06fe 1816      		cp __zero_reg__,r24
 1680 0700 1906      		cpc __zero_reg__,r25
 1681 0702 04F4      		brge .L108
 1682               	.LM247:
 1683 0704 611B      		sub r22,r17
 1684 0706 6093 0000 		sts modifiersDown,r22
 1685               	.LM248:
 1686 070a 80E0      		ldi r24,lo8(Keyboard)
 1687 070c 90E0      		ldi r25,hi8(Keyboard)
 1688               	.LVL77:
 1689 070e 0E94 0000 		call _ZN11USBKeyboard12set_modifierEh
 1690               	.LVL78:
 1691               	.LM249:
 1692 0712 80E0      		ldi r24,lo8(Keyboard)
 1693 0714 90E0      		ldi r25,hi8(Keyboard)
 1694 0716 0E94 0000 		call _ZN11USBKeyboard8send_nowEv
 1695               	.LVL79:
 1696               	.L108:
 1697               	/* epilogue start */
 1698               	.LM250:
 1699 071a 1F91      		pop r17
 1700               	.LVL80:
 1701 071c 0895      		ret
 1702               	.LFE162:
 1705               	_ZL15deactivate_modeh:
 1706               	.LFB171:
 1707               	.LM251:
 1708               	.LVL81:
 1709               	/* prologue: function */
 1710               	/* frame size = 0 */
 1711               	.LM252:
 1712 071e 8430      		cpi r24,lo8(4)
 1713 0720 01F4      		brne .L112
 1714               	.LM253:
 1715 0722 88E0      		ldi r24,lo8(8)
 1716               	.LVL82:
 1717 0724 0E94 0000 		call _Z10modifieruph
 1718               	.LVL83:
 1719               	.L112:
 1720 0728 0895      		ret
 1721               	.LFE171:
 1723               		.data
 1724               	.LC9:
 1725 0093 746F 7563 		.string	"touchset modifierdown "
 1725      6873 6574 
 1725      206D 6F64 
 1725      6966 6965 
 1725      7264 6F77 
 1726               		.text
 1727               	.global	_Z12modifierdownh
 1729               	_Z12modifierdownh:
 1730               	.LFB161:
 1731               	.LM254:
 1732               	.LVL84:
 1733 072a FF92      		push r15
 1734 072c 0F93      		push r16
 1735 072e 1F93      		push r17
 1736               	/* prologue: function */
 1737               	/* frame size = 0 */
 1738 0730 F82E      		mov r15,r24
 1739               	.LM255:
 1740 0732 00E0      		ldi r16,lo8(Serial)
 1741 0734 10E0      		ldi r17,hi8(Serial)
 1742 0736 C801      		movw r24,r16
 1743               	.LVL85:
 1744 0738 60E0      		ldi r22,lo8(.LC9)
 1745 073a 70E0      		ldi r23,hi8(.LC9)
 1746 073c 0E94 0000 		call _ZN16USBVirtualSerial5printEPKc
 1747               	.LM256:
 1748 0740 C801      		movw r24,r16
 1749 0742 6F2D      		mov r22,r15
 1750 0744 0E94 0000 		call _ZN16USBVirtualSerial7printlnEh
 1751               	.LM257:
 1752 0748 6091 0000 		lds r22,modifiersDown
 1753 074c 6F29      		or r22,r15
 1754 074e 6093 0000 		sts modifiersDown,r22
 1755               	.LM258:
 1756 0752 00E0      		ldi r16,lo8(Keyboard)
 1757 0754 10E0      		ldi r17,hi8(Keyboard)
 1758 0756 C801      		movw r24,r16
 1759 0758 0E94 0000 		call _ZN11USBKeyboard12set_modifierEh
 1760               	.LM259:
 1761 075c C801      		movw r24,r16
 1762 075e 0E94 0000 		call _ZN11USBKeyboard8send_nowEv
 1763               	/* epilogue start */
 1764               	.LM260:
 1765 0762 1F91      		pop r17
 1766 0764 0F91      		pop r16
 1767 0766 FF90      		pop r15
 1768               	.LVL86:
 1769 0768 0895      		ret
 1770               	.LFE161:
 1772               		.data
 1773               	.LC10:
 1774 00aa 746F 7563 		.string	"touchset modifierpress "
 1774      6873 6574 
 1774      206D 6F64 
 1774      6966 6965 
 1774      7270 7265 
 1775               		.text
 1776               	.global	_Z13modifierpressh
 1778               	_Z13modifierpressh:
 1779               	.LFB164:
 1780               	.LM261:
 1781               	.LVL87:
 1782 076a FF92      		push r15
 1783 076c 0F93      		push r16
 1784 076e 1F93      		push r17
 1785               	/* prologue: function */
 1786               	/* frame size = 0 */
 1787 0770 F82E      		mov r15,r24
 1788               	.LM262:
 1789 0772 00E0      		ldi r16,lo8(Serial)
 1790 0774 10E0      		ldi r17,hi8(Serial)
 1791 0776 C801      		movw r24,r16
 1792               	.LVL88:
 1793 0778 60E0      		ldi r22,lo8(.LC10)
 1794 077a 70E0      		ldi r23,hi8(.LC10)
 1795 077c 0E94 0000 		call _ZN16USBVirtualSerial5printEPKc
 1796               	.LM263:
 1797 0780 C801      		movw r24,r16
 1798 0782 6F2D      		mov r22,r15
 1799 0784 0E94 0000 		call _ZN16USBVirtualSerial7printlnEh
 1800               	.LM264:
 1801 0788 8F2D      		mov r24,r15
 1802 078a 0E94 0000 		call _Z12modifierdownh
 1803               	.LM265:
 1804 078e 65E0      		ldi r22,lo8(5)
 1805 0790 70E0      		ldi r23,hi8(5)
 1806 0792 80E0      		ldi r24,hlo8(5)
 1807 0794 90E0      		ldi r25,hhi8(5)
 1808 0796 0E94 0000 		call delay
 1809               	.LM266:
 1810 079a 8F2D      		mov r24,r15
 1811 079c 0E94 0000 		call _Z10modifieruph
 1812               	/* epilogue start */
 1813               	.LM267:
 1814 07a0 1F91      		pop r17
 1815 07a2 0F91      		pop r16
 1816 07a4 FF90      		pop r15
 1817               	.LVL89:
 1818 07a6 0895      		ret
 1819               	.LFE164:
 1821               		.data
 1822               	.LC11:
 1823 00c2 746F 7563 		.string	"touchset modifiertoggle "
 1823      6873 6574 
 1823      206D 6F64 
 1823      6966 6965 
 1823      7274 6F67 
 1824               		.text
 1825               	.global	_Z14togglemodifierh
 1827               	_Z14togglemodifierh:
 1828               	.LFB163:
 1829               	.LM268:
 1830               	.LVL90:
 1831 07a8 1F93      		push r17
 1832               	/* prologue: function */
 1833               	/* frame size = 0 */
 1834 07aa 182F      		mov r17,r24
 1835               	.LM269:
 1836 07ac 80E0      		ldi r24,lo8(Serial)
 1837 07ae 90E0      		ldi r25,hi8(Serial)
 1838               	.LVL91:
 1839 07b0 60E0      		ldi r22,lo8(.LC11)
 1840 07b2 70E0      		ldi r23,hi8(.LC11)
 1841 07b4 0E94 0000 		call _ZN16USBVirtualSerial5printEPKc
 1842               	.LM270:
 1843 07b8 80E0      		ldi r24,lo8(Serial)
 1844 07ba 90E0      		ldi r25,hi8(Serial)
 1845 07bc 612F      		mov r22,r17
 1846 07be 0E94 0000 		call _ZN16USBVirtualSerial7printlnEh
 1847               	.LM271:
 1848 07c2 212F      		mov r18,r17
 1849 07c4 30E0      		ldi r19,lo8(0)
 1850               	.LVL92:
 1851 07c6 8091 0000 		lds r24,modifiersDown
 1852 07ca 90E0      		ldi r25,lo8(0)
 1853 07cc 2823      		and r18,r24
 1854 07ce 3923      		and r19,r25
 1855               	.LVL93:
 1856 07d0 1216      		cp __zero_reg__,r18
 1857 07d2 1306      		cpc __zero_reg__,r19
 1858 07d4 04F4      		brge .L118
 1859               	.LM272:
 1860 07d6 812F      		mov r24,r17
 1861 07d8 0E94 0000 		call _Z10modifieruph
 1862               	.LVL94:
 1863 07dc 00C0      		rjmp .L120
 1864               	.LVL95:
 1865               	.L118:
 1866               	.LM273:
 1867 07de 812F      		mov r24,r17
 1868 07e0 0E94 0000 		call _Z12modifierdownh
 1869               	.LVL96:
 1870               	.L120:
 1871               	/* epilogue start */
 1872               	.LM274:
 1873 07e4 1F91      		pop r17
 1874               	.LVL97:
 1875 07e6 0895      		ret
 1876               	.LFE163:
 1879               	_ZL13activate_modeh:
 1880               	.LFB170:
 1881               	.LM275:
 1882               	.LVL98:
 1883               	/* prologue: function */
 1884               	/* frame size = 0 */
 1885               	.LM276:
 1886 07e8 8230      		cpi r24,lo8(2)
 1887 07ea 01F0      		breq .L125
 1888 07ec 8330      		cpi r24,lo8(3)
 1889 07ee 00F4      		brsh .L128
 1890 07f0 8823      		tst r24
 1891 07f2 01F0      		breq .L123
 1892 07f4 8130      		cpi r24,lo8(1)
 1893 07f6 01F0      		breq .+2
 1894 07f8 00C0      		rjmp .L129
 1895 07fa 00C0      		rjmp .L133
 1896               	.L128:
 1897 07fc 8330      		cpi r24,lo8(3)
 1898 07fe 01F0      		breq .L126
 1899 0800 8430      		cpi r24,lo8(4)
 1900 0802 01F0      		breq .+2
 1901 0804 00C0      		rjmp .L129
 1902 0806 00C0      		rjmp .L134
 1903               	.L123:
 1904               	.LM277:
 1905 0808 80ED      		ldi r24,lo8(2000)
 1906 080a 97E0      		ldi r25,hi8(2000)
 1907               	.LVL99:
 1908 080c 63E0      		ldi r22,lo8(3)
 1909 080e 41E0      		ldi r20,lo8(1)
 1910 0810 50E0      		ldi r21,hi8(1)
 1911 0812 0E94 0000 		call _Z4beepjhj
 1912               	.LM278:
 1913 0816 80E0      		ldi r24,lo8(0)
 1914 0818 60E0      		ldi r22,lo8(0)
 1915 081a 70E0      		ldi r23,hi8(0)
 1916 081c 0E94 0000 		call _Z6redledhj
 1917               	.LM279:
 1918 0820 85E0      		ldi r24,lo8(5)
 1919 0822 00C0      		rjmp .L131
 1920               	.LVL100:
 1921               	.L133:
 1922               	.LM280:
 1923 0824 80ED      		ldi r24,lo8(2000)
 1924 0826 97E0      		ldi r25,hi8(2000)
 1925               	.LVL101:
 1926 0828 63E0      		ldi r22,lo8(3)
 1927 082a 42E0      		ldi r20,lo8(2)
 1928 082c 50E0      		ldi r21,hi8(2)
 1929 082e 0E94 0000 		call _Z4beepjhj
 1930               	.LM281:
 1931 0832 80E0      		ldi r24,lo8(0)
 1932 0834 60E0      		ldi r22,lo8(0)
 1933 0836 70E0      		ldi r23,hi8(0)
 1934 0838 0E94 0000 		call _Z6redledhj
 1935               	.LM282:
 1936 083c 80E0      		ldi r24,lo8(0)
 1937 083e 00C0      		rjmp .L132
 1938               	.LVL102:
 1939               	.L125:
 1940               	.LM283:
 1941 0840 80ED      		ldi r24,lo8(2000)
 1942 0842 97E0      		ldi r25,hi8(2000)
 1943               	.LVL103:
 1944 0844 63E0      		ldi r22,lo8(3)
 1945 0846 43E0      		ldi r20,lo8(3)
 1946 0848 50E0      		ldi r21,hi8(3)
 1947 084a 0E94 0000 		call _Z4beepjhj
 1948               	.LM284:
 1949 084e 80E0      		ldi r24,lo8(0)
 1950 0850 60E0      		ldi r22,lo8(0)
 1951 0852 70E0      		ldi r23,hi8(0)
 1952 0854 0E94 0000 		call _Z6redledhj
 1953               	.LM285:
 1954 0858 85E0      		ldi r24,lo8(5)
 1955               	.L132:
 1956 085a 60E0      		ldi r22,lo8(0)
 1957 085c 70E0      		ldi r23,hi8(0)
 1958 085e 0E94 0000 		call _Z8greenledhj
 1959               	.LM286:
 1960 0862 85E0      		ldi r24,lo8(5)
 1961 0864 00C0      		rjmp .L130
 1962               	.LVL104:
 1963               	.L126:
 1964               	.LM287:
 1965 0866 80ED      		ldi r24,lo8(2000)
 1966 0868 97E0      		ldi r25,hi8(2000)
 1967               	.LVL105:
 1968 086a 63E0      		ldi r22,lo8(3)
 1969 086c 44E0      		ldi r20,lo8(4)
 1970 086e 50E0      		ldi r21,hi8(4)
 1971 0870 0E94 0000 		call _Z4beepjhj
 1972               	.LM288:
 1973 0874 85E0      		ldi r24,lo8(5)
 1974 0876 60E0      		ldi r22,lo8(0)
 1975 0878 70E0      		ldi r23,hi8(0)
 1976 087a 0E94 0000 		call _Z6redledhj
 1977               	.LM289:
 1978 087e 80E0      		ldi r24,lo8(0)
 1979               	.L131:
 1980 0880 60E0      		ldi r22,lo8(0)
 1981 0882 70E0      		ldi r23,hi8(0)
 1982 0884 0E94 0000 		call _Z8greenledhj
 1983               	.LM290:
 1984 0888 80E0      		ldi r24,lo8(0)
 1985               	.L130:
 1986 088a 60E0      		ldi r22,lo8(0)
 1987 088c 70E0      		ldi r23,hi8(0)
 1988 088e 0E94 0000 		call _Z7blueledhj
 1989 0892 0895      		ret
 1990               	.LVL106:
 1991               	.L134:
 1992               	.LM291:
 1993 0894 80E4      		ldi r24,lo8(1600)
 1994 0896 96E0      		ldi r25,hi8(1600)
 1995               	.LVL107:
 1996 0898 64E0      		ldi r22,lo8(4)
 1997 089a 41E0      		ldi r20,lo8(1)
 1998 089c 50E0      		ldi r21,hi8(1)
 1999 089e 0E94 0000 		call _Z4beepjhj
 2000               	.LM292:
 2001 08a2 83E0      		ldi r24,lo8(3)
 2002 08a4 60E0      		ldi r22,lo8(0)
 2003 08a6 70E0      		ldi r23,hi8(0)
 2004 08a8 0E94 0000 		call _Z8greenledhj
 2005               	.LM293:
 2006 08ac 88E0      		ldi r24,lo8(8)
 2007 08ae 0E94 0000 		call _Z12modifierdownh
 2008               	.LVL108:
 2009               	.L129:
 2010 08b2 0895      		ret
 2011               	.LFE170:
 2013               		.data
 2014               	.LC12:
 2015 00db 746F 7563 		.string	"touchset popmode"
 2015      6873 6574 
 2015      2070 6F70 
 2015      6D6F 6465 
 2015      00
 2016               		.text
 2017               	.global	_Z7popmodev
 2019               	_Z7popmodev:
 2020               	.LFB151:
 2021               	.LM294:
 2022               	/* prologue: function */
 2023               	/* frame size = 0 */
 2024               	.LM295:
 2025 08b4 80E0      		ldi r24,lo8(Serial)
 2026 08b6 90E0      		ldi r25,hi8(Serial)
 2027 08b8 60E0      		ldi r22,lo8(.LC12)
 2028 08ba 70E0      		ldi r23,hi8(.LC12)
 2029 08bc 0E94 0000 		call _ZN16USBVirtualSerial7printlnEPKc
 2030               	.LM296:
 2031 08c0 E091 0000 		lds r30,modeStackPos
 2032 08c4 EE23      		tst r30
 2033 08c6 01F0      		breq .L136
 2034 08c8 E150      		subi r30,lo8(-(-1))
 2035 08ca E093 0000 		sts modeStackPos,r30
 2036 08ce F0E0      		ldi r31,lo8(0)
 2037 08d0 E050      		subi r30,lo8(-(modeStack))
 2038 08d2 F040      		sbci r31,hi8(-(modeStack))
 2039 08d4 8081      		ld r24,Z
 2040 08d6 0E94 0000 		call _ZL15deactivate_modeh
 2041               	.L136:
 2042               	.LM297:
 2043 08da 8091 0000 		lds r24,modeStackPos
 2044 08de 8823      		tst r24
 2045 08e0 01F4      		brne .L137
 2046 08e2 1092 0000 		sts modeStack,__zero_reg__
 2047 08e6 81E0      		ldi r24,lo8(1)
 2048 08e8 8093 0000 		sts modeStackPos,r24
 2049               	.L137:
 2050               	.LM298:
 2051 08ec E091 0000 		lds r30,modeStackPos
 2052 08f0 F0E0      		ldi r31,lo8(0)
 2053 08f2 E050      		subi r30,lo8(-(modeStack-1))
 2054 08f4 F040      		sbci r31,hi8(-(modeStack-1))
 2055 08f6 8081      		ld r24,Z
 2056 08f8 0E94 0000 		call _ZL13activate_modeh
 2057               	/* epilogue start */
 2058               	.LM299:
 2059 08fc 0895      		ret
 2060               	.LFE151:
 2062               		.data
 2063               	.LC13:
 2064 00ec 746F 7563 		.string	"touchset pushmode "
 2064      6873 6574 
 2064      2070 7573 
 2064      686D 6F64 
 2064      6520 00
 2065               		.text
 2066               	.global	_Z8pushmodeh
 2068               	_Z8pushmodeh:
 2069               	.LFB150:
 2070               	.LM300:
 2071               	.LVL109:
 2072 08fe 1F93      		push r17
 2073               	/* prologue: function */
 2074               	/* frame size = 0 */
 2075 0900 182F      		mov r17,r24
 2076               	.LM301:
 2077 0902 80E0      		ldi r24,lo8(Serial)
 2078 0904 90E0      		ldi r25,hi8(Serial)
 2079               	.LVL110:
 2080 0906 60E0      		ldi r22,lo8(.LC13)
 2081 0908 70E0      		ldi r23,hi8(.LC13)
 2082 090a 0E94 0000 		call _ZN16USBVirtualSerial5printEPKc
 2083               	.LM302:
 2084 090e 80E0      		ldi r24,lo8(Serial)
 2085 0910 90E0      		ldi r25,hi8(Serial)
 2086 0912 612F      		mov r22,r17
 2087 0914 0E94 0000 		call _ZN16USBVirtualSerial7printlnEh
 2088               	.LM303:
 2089 0918 8091 0000 		lds r24,modeStackPos
 2090 091c 8A30      		cpi r24,lo8(10)
 2091 091e 00F4      		brsh .L141
 2092               	.LM304:
 2093 0920 E82F      		mov r30,r24
 2094 0922 F0E0      		ldi r31,lo8(0)
 2095 0924 E050      		subi r30,lo8(-(modeStack))
 2096 0926 F040      		sbci r31,hi8(-(modeStack))
 2097 0928 1083      		st Z,r17
 2098               	.LM305:
 2099 092a 8F5F      		subi r24,lo8(-(1))
 2100 092c 8093 0000 		sts modeStackPos,r24
 2101               	.LM306:
 2102 0930 812F      		mov r24,r17
 2103 0932 0E94 0000 		call _ZL13activate_modeh
 2104               	.L141:
 2105               	/* epilogue start */
 2106               	.LM307:
 2107 0936 1F91      		pop r17
 2108               	.LVL111:
 2109 0938 0895      		ret
 2110               	.LFE150:
 2112               		.data
 2113               	.LC14:
 2114 00ff 746F 7563 		.string	"touchset togglemode "
 2114      6873 6574 
 2114      2074 6F67 
 2114      676C 656D 
 2114      6F64 6520 
 2115               		.text
 2116               	.global	_Z10togglemodeh
 2118               	_Z10togglemodeh:
 2119               	.LFB152:
 2120               	.LM308:
 2121               	.LVL112:
 2122 093a 9F92      		push r9
 2123 093c AF92      		push r10
 2124 093e BF92      		push r11
 2125 0940 CF92      		push r12
 2126 0942 DF92      		push r13
 2127 0944 EF92      		push r14
 2128 0946 FF92      		push r15
 2129 0948 0F93      		push r16
 2130 094a 1F93      		push r17
 2131 094c CF93      		push r28
 2132 094e DF93      		push r29
 2133               	/* prologue: function */
 2134               	/* frame size = 0 */
 2135 0950 982E      		mov r9,r24
 2136               	.LM309:
 2137 0952 80E0      		ldi r24,lo8(Serial)
 2138 0954 90E0      		ldi r25,hi8(Serial)
 2139               	.LVL113:
 2140 0956 60E0      		ldi r22,lo8(.LC14)
 2141 0958 70E0      		ldi r23,hi8(.LC14)
 2142 095a 0E94 0000 		call _ZN16USBVirtualSerial5printEPKc
 2143               	.LM310:
 2144 095e 80E0      		ldi r24,lo8(Serial)
 2145 0960 90E0      		ldi r25,hi8(Serial)
 2146 0962 692D      		mov r22,r9
 2147 0964 0E94 0000 		call _ZN16USBVirtualSerial7printlnEh
 2148               	.LM311:
 2149 0968 1092 0000 		sts i,__zero_reg__
 2150 096c 1092 0000 		sts (i)+1,__zero_reg__
 2151 0970 1092 0000 		sts (i)+2,__zero_reg__
 2152 0974 1092 0000 		sts (i)+3,__zero_reg__
 2153 0978 8091 0000 		lds r24,modeStackPos
 2154 097c A82E      		mov r10,r24
 2155 097e BB24      		clr r11
 2156 0980 CC24      		clr r12
 2157 0982 DD24      		clr r13
 2158 0984 E0E0      		ldi r30,lo8(modeStack)
 2159 0986 F0E0      		ldi r31,hi8(modeStack)
 2160 0988 20E0      		ldi r18,lo8(0)
 2161 098a 30E0      		ldi r19,hi8(0)
 2162 098c 40E0      		ldi r20,hlo8(0)
 2163 098e 50E0      		ldi r21,hhi8(0)
 2164               	.L146:
 2165 0990 2A15      		cp r18,r10
 2166 0992 3B05      		cpc r19,r11
 2167 0994 4C05      		cpc r20,r12
 2168 0996 5D05      		cpc r21,r13
 2169 0998 00F0      		brlo .L143
 2170 099a 2093 0000 		sts i,r18
 2171 099e 3093 0000 		sts (i)+1,r19
 2172 09a2 4093 0000 		sts (i)+2,r20
 2173 09a6 5093 0000 		sts (i)+3,r21
 2174               	.LM312:
 2175 09aa 892D      		mov r24,r9
 2176 09ac 0E94 0000 		call _Z8pushmodeh
 2177 09b0 00C0      		rjmp .L149
 2178               	.L143:
 2179               	.LM313:
 2180 09b2 8191      		ld r24,Z+
 2181 09b4 7901      		movw r14,r18
 2182 09b6 8A01      		movw r16,r20
 2183 09b8 0894      		sec
 2184 09ba E11C      		adc r14,__zero_reg__
 2185 09bc F11C      		adc r15,__zero_reg__
 2186 09be 011D      		adc r16,__zero_reg__
 2187 09c0 111D      		adc r17,__zero_reg__
 2188 09c2 8915      		cp r24,r9
 2189 09c4 01F0      		breq .L145
 2190 09c6 A801      		movw r20,r16
 2191 09c8 9701      		movw r18,r14
 2192 09ca 00C0      		rjmp .L146
 2193               	.L145:
 2194 09cc 2093 0000 		sts i,r18
 2195 09d0 3093 0000 		sts (i)+1,r19
 2196 09d4 4093 0000 		sts (i)+2,r20
 2197 09d8 5093 0000 		sts (i)+3,r21
 2198               	.LM314:
 2199 09dc 892D      		mov r24,r9
 2200 09de 0E94 0000 		call _ZL15deactivate_modeh
 2201               	.LM315:
 2202 09e2 8091 0000 		lds r24,i
 2203 09e6 9091 0000 		lds r25,(i)+1
 2204 09ea A091 0000 		lds r26,(i)+2
 2205 09ee B091 0000 		lds r27,(i)+3
 2206 09f2 6091 0000 		lds r22,modeStackPos
 2207 09f6 E62E      		mov r14,r22
 2208 09f8 FF24      		clr r15
 2209 09fa 00E0      		ldi r16,lo8(0)
 2210 09fc 10E0      		ldi r17,hi8(0)
 2211               	.LM316:
 2212 09fe EC01      		movw r28,r24
 2213 0a00 C050      		subi r28,lo8(-(modeStack))
 2214 0a02 D040      		sbci r29,hi8(-(modeStack))
 2215 0a04 9C01      		movw r18,r24
 2216 0a06 AD01      		movw r20,r26
 2217 0a08 2F5F      		subi r18,lo8(-(1))
 2218 0a0a 3F4F      		sbci r19,hi8(-(1))
 2219 0a0c 4F4F      		sbci r20,hlo8(-(1))
 2220 0a0e 5F4F      		sbci r21,hhi8(-(1))
 2221               	.LM317:
 2222 0a10 D901      		movw r26,r18
 2223 0a12 A81B      		sub r26,r24
 2224 0a14 B90B      		sbc r27,r25
 2225 0a16 00C0      		rjmp .L147
 2226               	.L148:
 2227 0a18 FD01      		movw r30,r26
 2228 0a1a EC0F      		add r30,r28
 2229 0a1c FD1F      		adc r31,r29
 2230 0a1e 8081      		ld r24,Z
 2231 0a20 8993      		st Y+,r24
 2232 0a22 2F5F      		subi r18,lo8(-(1))
 2233 0a24 3F4F      		sbci r19,hi8(-(1))
 2234 0a26 4F4F      		sbci r20,hlo8(-(1))
 2235 0a28 5F4F      		sbci r21,hhi8(-(1))
 2236               	.L147:
 2237 0a2a 2E15      		cp r18,r14
 2238 0a2c 3F05      		cpc r19,r15
 2239 0a2e 4007      		cpc r20,r16
 2240 0a30 5107      		cpc r21,r17
 2241 0a32 00F0      		brlo .L148
 2242 0a34 2093 0000 		sts i,r18
 2243 0a38 3093 0000 		sts (i)+1,r19
 2244 0a3c 4093 0000 		sts (i)+2,r20
 2245 0a40 5093 0000 		sts (i)+3,r21
 2246               	.LM318:
 2247 0a44 6150      		subi r22,lo8(-(-1))
 2248 0a46 6093 0000 		sts modeStackPos,r22
 2249               	.L149:
 2250               	/* epilogue start */
 2251               	.LM319:
 2252 0a4a DF91      		pop r29
 2253 0a4c CF91      		pop r28
 2254 0a4e 1F91      		pop r17
 2255 0a50 0F91      		pop r16
 2256 0a52 FF90      		pop r15
 2257 0a54 EF90      		pop r14
 2258 0a56 DF90      		pop r13
 2259 0a58 CF90      		pop r12
 2260 0a5a BF90      		pop r11
 2261 0a5c AF90      		pop r10
 2262 0a5e 9F90      		pop r9
 2263               	.LVL114:
 2264 0a60 0895      		ret
 2265               	.LFE152:
 2267               		.data
 2268               	.LC15:
 2269 0114 746F 7563 		.string	"touchset setmode "
 2269      6873 6574 
 2269      2073 6574 
 2269      6D6F 6465 
 2269      2000 
 2270               		.text
 2271               	.global	_Z7setmodeh
 2273               	_Z7setmodeh:
 2274               	.LFB149:
 2275               	.LM320:
 2276               	.LVL115:
 2277 0a62 1F93      		push r17
 2278               	/* prologue: function */
 2279               	/* frame size = 0 */
 2280 0a64 182F      		mov r17,r24
 2281               	.LM321:
 2282 0a66 80E0      		ldi r24,lo8(Serial)
 2283 0a68 90E0      		ldi r25,hi8(Serial)
 2284               	.LVL116:
 2285 0a6a 60E0      		ldi r22,lo8(.LC15)
 2286 0a6c 70E0      		ldi r23,hi8(.LC15)
 2287 0a6e 0E94 0000 		call _ZN16USBVirtualSerial5printEPKc
 2288               	.LM322:
 2289 0a72 80E0      		ldi r24,lo8(Serial)
 2290 0a74 90E0      		ldi r25,hi8(Serial)
 2291 0a76 612F      		mov r22,r17
 2292 0a78 0E94 0000 		call _ZN16USBVirtualSerial7printlnEh
 2293 0a7c 00C0      		rjmp .L151
 2294               	.L152:
 2295               	.LM323:
 2296 0a7e F0E0      		ldi r31,lo8(0)
 2297 0a80 E050      		subi r30,lo8(-(modeStack-1))
 2298 0a82 F040      		sbci r31,hi8(-(modeStack-1))
 2299 0a84 8081      		ld r24,Z
 2300 0a86 0E94 0000 		call _ZL15deactivate_modeh
 2301 0a8a 8091 0000 		lds r24,modeStackPos
 2302 0a8e 8150      		subi r24,lo8(-(-1))
 2303 0a90 8093 0000 		sts modeStackPos,r24
 2304               	.L151:
 2305 0a94 E091 0000 		lds r30,modeStackPos
 2306 0a98 EE23      		tst r30
 2307 0a9a 01F4      		brne .L152
 2308               	.LM324:
 2309 0a9c 81E0      		ldi r24,lo8(1)
 2310 0a9e 8093 0000 		sts modeStackPos,r24
 2311               	.LM325:
 2312 0aa2 1093 0000 		sts modeStack,r17
 2313               	.LM326:
 2314 0aa6 812F      		mov r24,r17
 2315 0aa8 0E94 0000 		call _ZL13activate_modeh
 2316               	/* epilogue start */
 2317               	.LM327:
 2318 0aac 1F91      		pop r17
 2319               	.LVL117:
 2320 0aae 0895      		ret
 2321               	.LFE149:
 2323               	.global	_Z11setup_touchv
 2325               	_Z11setup_touchv:
 2326               	.LFB174:
 2327               	.LM328:
 2328               	/* prologue: function */
 2329               	/* frame size = 0 */
 2330               	.LM329:
 2331 0ab0 1092 0000 		sts detect2,__zero_reg__
 2332 0ab4 1092 0000 		sts (detect2)+1,__zero_reg__
 2333 0ab8 1092 0000 		sts (detect2)+2,__zero_reg__
 2334 0abc 1092 0000 		sts (detect2)+3,__zero_reg__
 2335 0ac0 1092 0000 		sts detect1,__zero_reg__
 2336 0ac4 1092 0000 		sts (detect1)+1,__zero_reg__
 2337 0ac8 1092 0000 		sts (detect1)+2,__zero_reg__
 2338 0acc 1092 0000 		sts (detect1)+3,__zero_reg__
 2339               	.LM330:
 2340 0ad0 1092 0000 		sts verify2,__zero_reg__
 2341 0ad4 1092 0000 		sts (verify2)+1,__zero_reg__
 2342 0ad8 1092 0000 		sts (verify2)+2,__zero_reg__
 2343 0adc 1092 0000 		sts (verify2)+3,__zero_reg__
 2344 0ae0 1092 0000 		sts verify1,__zero_reg__
 2345 0ae4 1092 0000 		sts (verify1)+1,__zero_reg__
 2346 0ae8 1092 0000 		sts (verify1)+2,__zero_reg__
 2347 0aec 1092 0000 		sts (verify1)+3,__zero_reg__
 2348               	.LM331:
 2349 0af0 1092 0000 		sts sensors2,__zero_reg__
 2350 0af4 1092 0000 		sts (sensors2)+1,__zero_reg__
 2351 0af8 1092 0000 		sts (sensors2)+2,__zero_reg__
 2352 0afc 1092 0000 		sts (sensors2)+3,__zero_reg__
 2353 0b00 1092 0000 		sts sensors1,__zero_reg__
 2354 0b04 1092 0000 		sts (sensors1)+1,__zero_reg__
 2355 0b08 1092 0000 		sts (sensors1)+2,__zero_reg__
 2356 0b0c 1092 0000 		sts (sensors1)+3,__zero_reg__
 2357               	.LM332:
 2358 0b10 1092 0000 		sts i,__zero_reg__
 2359 0b14 1092 0000 		sts (i)+1,__zero_reg__
 2360 0b18 1092 0000 		sts (i)+2,__zero_reg__
 2361 0b1c 1092 0000 		sts (i)+3,__zero_reg__
 2362 0b20 00C0      		rjmp .L155
 2363               	.L156:
 2364               	.LM333:
 2365 0b22 FC01      		movw r30,r24
 2366 0b24 E050      		subi r30,lo8(-(pins))
 2367 0b26 F040      		sbci r31,hi8(-(pins))
 2368 0b28 8081      		ld r24,Z
 2369 0b2a 60E0      		ldi r22,lo8(0)
 2370 0b2c 0E94 0000 		call pinMode
 2371               	.LM334:
 2372 0b30 E091 0000 		lds r30,i
 2373 0b34 F091 0000 		lds r31,(i)+1
 2374 0b38 E050      		subi r30,lo8(-(pins))
 2375 0b3a F040      		sbci r31,hi8(-(pins))
 2376 0b3c 8081      		ld r24,Z
 2377 0b3e 61E0      		ldi r22,lo8(1)
 2378 0b40 0E94 0000 		call digitalWrite
 2379               	.LM335:
 2380 0b44 8091 0000 		lds r24,i
 2381 0b48 9091 0000 		lds r25,(i)+1
 2382 0b4c A091 0000 		lds r26,(i)+2
 2383 0b50 B091 0000 		lds r27,(i)+3
 2384 0b54 0196      		adiw r24,1
 2385 0b56 A11D      		adc r26,__zero_reg__
 2386 0b58 B11D      		adc r27,__zero_reg__
 2387 0b5a 8093 0000 		sts i,r24
 2388 0b5e 9093 0000 		sts (i)+1,r25
 2389 0b62 A093 0000 		sts (i)+2,r26
 2390 0b66 B093 0000 		sts (i)+3,r27
 2391               	.L155:
 2392 0b6a 8091 0000 		lds r24,i
 2393 0b6e 9091 0000 		lds r25,(i)+1
 2394 0b72 A091 0000 		lds r26,(i)+2
 2395 0b76 B091 0000 		lds r27,(i)+3
 2396 0b7a 8232      		cpi r24,lo8(34)
 2397 0b7c 9105      		cpc r25,__zero_reg__
 2398 0b7e A105      		cpc r26,__zero_reg__
 2399 0b80 B105      		cpc r27,__zero_reg__
 2400 0b82 00F0      		brlo .L156
 2401               	.LM336:
 2402 0b84 1092 0000 		sts mode,__zero_reg__
 2403               	.LM337:
 2404 0b88 80E0      		ldi r24,lo8(0)
 2405 0b8a 0E94 0000 		call _Z7setmodeh
 2406               	/* epilogue start */
 2407               	.LM338:
 2408 0b8e 0895      		ret
 2409               	.LFE174:
 2411               		.data
 2412               	.LC16:
 2413 0126 746F 7563 		.string	"touchset keyup "
 2413      6873 6574 
 2413      206B 6579 
 2413      7570 2000 
 2414               		.text
 2415               	.global	_Z5keyuph
 2417               	_Z5keyuph:
 2418               	.LFB159:
 2419               	.LM339:
 2420               	.LVL118:
 2421 0b90 1F93      		push r17
 2422               	/* prologue: function */
 2423               	/* frame size = 0 */
 2424 0b92 182F      		mov r17,r24
 2425               	.LBB651:
 2426               	.LM340:
 2427 0b94 80E0      		ldi r24,lo8(Serial)
 2428 0b96 90E0      		ldi r25,hi8(Serial)
 2429               	.LVL119:
 2430 0b98 60E0      		ldi r22,lo8(.LC16)
 2431 0b9a 70E0      		ldi r23,hi8(.LC16)
 2432 0b9c 0E94 0000 		call _ZN16USBVirtualSerial5printEPKc
 2433               	.LM341:
 2434 0ba0 80E0      		ldi r24,lo8(Serial)
 2435 0ba2 90E0      		ldi r25,hi8(Serial)
 2436 0ba4 612F      		mov r22,r17
 2437 0ba6 0E94 0000 		call _ZN16USBVirtualSerial7printlnEh
 2438 0baa E0E0      		ldi r30,lo8(keysDown)
 2439 0bac F0E0      		ldi r31,hi8(keysDown)
 2440 0bae 90E0      		ldi r25,lo8(0)
 2441               	.LVL120:
 2442 0bb0 00C0      		rjmp .L159
 2443               	.L161:
 2444               	.LM342:
 2445 0bb2 9F5F      		subi r25,lo8(-(1))
 2446 0bb4 3196      		adiw r30,1
 2447 0bb6 9630      		cpi r25,lo8(6)
 2448 0bb8 01F4      		brne .+2
 2449 0bba 00C0      		rjmp .L170
 2450               	.L159:
 2451 0bbc 8081      		ld r24,Z
 2452 0bbe 8117      		cp r24,r17
 2453 0bc0 01F4      		brne .L161
 2454               	.LM343:
 2455 0bc2 E92F      		mov r30,r25
 2456 0bc4 F0E0      		ldi r31,lo8(0)
 2457               	.LVL121:
 2458 0bc6 E050      		subi r30,lo8(-(keysDown))
 2459 0bc8 F040      		sbci r31,hi8(-(keysDown))
 2460               	.LVL122:
 2461 0bca 1082      		st Z,__zero_reg__
 2462               	.LM344:
 2463 0bcc 9230      		cpi r25,lo8(2)
 2464 0bce 01F0      		breq .L165
 2465               	.LVL123:
 2466 0bd0 9330      		cpi r25,lo8(3)
 2467 0bd2 00F4      		brsh .L169
 2468 0bd4 9923      		tst r25
 2469 0bd6 01F0      		breq .L163
 2470 0bd8 9130      		cpi r25,lo8(1)
 2471 0bda 01F0      		breq .+2
 2472 0bdc 00C0      		rjmp .L162
 2473 0bde 00C0      		rjmp .L171
 2474               	.L169:
 2475 0be0 9430      		cpi r25,lo8(4)
 2476 0be2 01F0      		breq .L167
 2477 0be4 9430      		cpi r25,lo8(4)
 2478 0be6 00F0      		brlo .L166
 2479 0be8 9530      		cpi r25,lo8(5)
 2480 0bea 01F0      		breq .+2
 2481 0bec 00C0      		rjmp .L162
 2482 0bee 00C0      		rjmp .L172
 2483               	.L163:
 2484               	.LM345:
 2485 0bf0 80E0      		ldi r24,lo8(Keyboard)
 2486 0bf2 90E0      		ldi r25,hi8(Keyboard)
 2487 0bf4 60E0      		ldi r22,lo8(0)
 2488 0bf6 0E94 0000 		call _ZN11USBKeyboard8set_key1Eh
 2489               	.LVL124:
 2490               	.LM346:
 2491 0bfa 80E0      		ldi r24,lo8(bluetooth)
 2492 0bfc 90E0      		ldi r25,hi8(bluetooth)
 2493 0bfe 60E0      		ldi r22,lo8(0)
 2494 0c00 0E94 0000 		call _ZN5iWRAP8set_key1Eh
 2495 0c04 00C0      		rjmp .L162
 2496               	.LVL125:
 2497               	.L171:
 2498               	.LM347:
 2499 0c06 80E0      		ldi r24,lo8(Keyboard)
 2500 0c08 90E0      		ldi r25,hi8(Keyboard)
 2501 0c0a 60E0      		ldi r22,lo8(0)
 2502 0c0c 0E94 0000 		call _ZN11USBKeyboard8set_key2Eh
 2503               	.LVL126:
 2504               	.LM348:
 2505 0c10 80E0      		ldi r24,lo8(bluetooth)
 2506 0c12 90E0      		ldi r25,hi8(bluetooth)
 2507 0c14 60E0      		ldi r22,lo8(0)
 2508 0c16 0E94 0000 		call _ZN5iWRAP8set_key2Eh
 2509 0c1a 00C0      		rjmp .L162
 2510               	.LVL127:
 2511               	.L165:
 2512               	.LM349:
 2513 0c1c 80E0      		ldi r24,lo8(Keyboard)
 2514 0c1e 90E0      		ldi r25,hi8(Keyboard)
 2515 0c20 60E0      		ldi r22,lo8(0)
 2516 0c22 0E94 0000 		call _ZN11USBKeyboard8set_key3Eh
 2517               	.LVL128:
 2518               	.LM350:
 2519 0c26 80E0      		ldi r24,lo8(bluetooth)
 2520 0c28 90E0      		ldi r25,hi8(bluetooth)
 2521 0c2a 60E0      		ldi r22,lo8(0)
 2522 0c2c 0E94 0000 		call _ZN5iWRAP8set_key3Eh
 2523 0c30 00C0      		rjmp .L162
 2524               	.LVL129:
 2525               	.L166:
 2526               	.LM351:
 2527 0c32 80E0      		ldi r24,lo8(Keyboard)
 2528 0c34 90E0      		ldi r25,hi8(Keyboard)
 2529 0c36 60E0      		ldi r22,lo8(0)
 2530 0c38 0E94 0000 		call _ZN11USBKeyboard8set_key4Eh
 2531               	.LVL130:
 2532               	.LM352:
 2533 0c3c 80E0      		ldi r24,lo8(bluetooth)
 2534 0c3e 90E0      		ldi r25,hi8(bluetooth)
 2535 0c40 60E0      		ldi r22,lo8(0)
 2536 0c42 0E94 0000 		call _ZN5iWRAP8set_key4Eh
 2537 0c46 00C0      		rjmp .L162
 2538               	.LVL131:
 2539               	.L167:
 2540               	.LM353:
 2541 0c48 80E0      		ldi r24,lo8(Keyboard)
 2542 0c4a 90E0      		ldi r25,hi8(Keyboard)
 2543 0c4c 60E0      		ldi r22,lo8(0)
 2544 0c4e 0E94 0000 		call _ZN11USBKeyboard8set_key5Eh
 2545               	.LVL132:
 2546               	.LM354:
 2547 0c52 80E0      		ldi r24,lo8(bluetooth)
 2548 0c54 90E0      		ldi r25,hi8(bluetooth)
 2549 0c56 60E0      		ldi r22,lo8(0)
 2550 0c58 0E94 0000 		call _ZN5iWRAP8set_key5Eh
 2551 0c5c 00C0      		rjmp .L162
 2552               	.LVL133:
 2553               	.L172:
 2554               	.LM355:
 2555 0c5e 80E0      		ldi r24,lo8(Keyboard)
 2556 0c60 90E0      		ldi r25,hi8(Keyboard)
 2557 0c62 60E0      		ldi r22,lo8(0)
 2558 0c64 0E94 0000 		call _ZN11USBKeyboard8set_key6Eh
 2559               	.LVL134:
 2560               	.LM356:
 2561 0c68 80E0      		ldi r24,lo8(bluetooth)
 2562 0c6a 90E0      		ldi r25,hi8(bluetooth)
 2563 0c6c 60E0      		ldi r22,lo8(0)
 2564 0c6e 0E94 0000 		call _ZN5iWRAP8set_key6Eh
 2565               	.LVL135:
 2566               	.L162:
 2567               	.LM357:
 2568 0c72 80E0      		ldi r24,lo8(Keyboard)
 2569 0c74 90E0      		ldi r25,hi8(Keyboard)
 2570 0c76 0E94 0000 		call _ZN11USBKeyboard8send_nowEv
 2571               	.LVL136:
 2572               	.LM358:
 2573 0c7a 80E0      		ldi r24,lo8(bluetooth)
 2574 0c7c 90E0      		ldi r25,hi8(bluetooth)
 2575 0c7e 0E94 0000 		call _ZN5iWRAP8send_nowEv
 2576               	.LVL137:
 2577               	.L170:
 2578               	/* epilogue start */
 2579               	.LBE651:
 2580               	.LM359:
 2581 0c82 1F91      		pop r17
 2582               	.LVL138:
 2583 0c84 0895      		ret
 2584               	.LFE159:
 2586               		.data
 2587               	.LC17:
 2588 0136 746F 7563 		.string	"touchset keydown "
 2588      6873 6574 
 2588      206B 6579 
 2588      646F 776E 
 2588      2000 
 2589               		.text
 2590               	.global	_Z7keydownh
 2592               	_Z7keydownh:
 2593               	.LFB158:
 2594               	.LM360:
 2595               	.LVL139:
 2596 0c86 1F93      		push r17
 2597               	/* prologue: function */
 2598               	/* frame size = 0 */
 2599 0c88 182F      		mov r17,r24
 2600               	.LBB652:
 2601               	.LM361:
 2602 0c8a 80E0      		ldi r24,lo8(Serial)
 2603 0c8c 90E0      		ldi r25,hi8(Serial)
 2604               	.LVL140:
 2605 0c8e 60E0      		ldi r22,lo8(.LC17)
 2606 0c90 70E0      		ldi r23,hi8(.LC17)
 2607 0c92 0E94 0000 		call _ZN16USBVirtualSerial5printEPKc
 2608               	.LM362:
 2609 0c96 80E0      		ldi r24,lo8(Serial)
 2610 0c98 90E0      		ldi r25,hi8(Serial)
 2611 0c9a 612F      		mov r22,r17
 2612 0c9c 0E94 0000 		call _ZN16USBVirtualSerial7printlnEh
 2613 0ca0 E0E0      		ldi r30,lo8(keysDown)
 2614 0ca2 F0E0      		ldi r31,hi8(keysDown)
 2615 0ca4 90E0      		ldi r25,lo8(0)
 2616               	.LVL141:
 2617 0ca6 00C0      		rjmp .L174
 2618               	.L176:
 2619               	.LM363:
 2620 0ca8 9F5F      		subi r25,lo8(-(1))
 2621 0caa 3196      		adiw r30,1
 2622 0cac 9630      		cpi r25,lo8(6)
 2623 0cae 01F4      		brne .+2
 2624 0cb0 00C0      		rjmp .L185
 2625               	.L174:
 2626 0cb2 8081      		ld r24,Z
 2627 0cb4 8823      		tst r24
 2628 0cb6 01F4      		brne .L176
 2629               	.LM364:
 2630 0cb8 E92F      		mov r30,r25
 2631 0cba F0E0      		ldi r31,lo8(0)
 2632               	.LVL142:
 2633 0cbc E050      		subi r30,lo8(-(keysDown))
 2634 0cbe F040      		sbci r31,hi8(-(keysDown))
 2635               	.LVL143:
 2636 0cc0 1083      		st Z,r17
 2637               	.LM365:
 2638 0cc2 9230      		cpi r25,lo8(2)
 2639 0cc4 01F0      		breq .L180
 2640               	.LVL144:
 2641 0cc6 9330      		cpi r25,lo8(3)
 2642 0cc8 00F4      		brsh .L184
 2643 0cca 9923      		tst r25
 2644 0ccc 01F0      		breq .L178
 2645 0cce 9130      		cpi r25,lo8(1)
 2646 0cd0 01F0      		breq .+2
 2647 0cd2 00C0      		rjmp .L177
 2648 0cd4 00C0      		rjmp .L186
 2649               	.L184:
 2650 0cd6 9430      		cpi r25,lo8(4)
 2651 0cd8 01F0      		breq .L182
 2652 0cda 9430      		cpi r25,lo8(4)
 2653 0cdc 00F0      		brlo .L181
 2654 0cde 9530      		cpi r25,lo8(5)
 2655 0ce0 01F0      		breq .+2
 2656 0ce2 00C0      		rjmp .L177
 2657 0ce4 00C0      		rjmp .L187
 2658               	.L178:
 2659               	.LM366:
 2660 0ce6 80E0      		ldi r24,lo8(Keyboard)
 2661 0ce8 90E0      		ldi r25,hi8(Keyboard)
 2662 0cea 612F      		mov r22,r17
 2663 0cec 0E94 0000 		call _ZN11USBKeyboard8set_key1Eh
 2664               	.LVL145:
 2665               	.LM367:
 2666 0cf0 80E0      		ldi r24,lo8(bluetooth)
 2667 0cf2 90E0      		ldi r25,hi8(bluetooth)
 2668 0cf4 612F      		mov r22,r17
 2669 0cf6 0E94 0000 		call _ZN5iWRAP8set_key1Eh
 2670 0cfa 00C0      		rjmp .L177
 2671               	.LVL146:
 2672               	.L186:
 2673               	.LM368:
 2674 0cfc 80E0      		ldi r24,lo8(Keyboard)
 2675 0cfe 90E0      		ldi r25,hi8(Keyboard)
 2676 0d00 612F      		mov r22,r17
 2677 0d02 0E94 0000 		call _ZN11USBKeyboard8set_key2Eh
 2678               	.LVL147:
 2679               	.LM369:
 2680 0d06 80E0      		ldi r24,lo8(bluetooth)
 2681 0d08 90E0      		ldi r25,hi8(bluetooth)
 2682 0d0a 612F      		mov r22,r17
 2683 0d0c 0E94 0000 		call _ZN5iWRAP8set_key2Eh
 2684 0d10 00C0      		rjmp .L177
 2685               	.LVL148:
 2686               	.L180:
 2687               	.LM370:
 2688 0d12 80E0      		ldi r24,lo8(Keyboard)
 2689 0d14 90E0      		ldi r25,hi8(Keyboard)
 2690 0d16 612F      		mov r22,r17
 2691 0d18 0E94 0000 		call _ZN11USBKeyboard8set_key3Eh
 2692               	.LVL149:
 2693               	.LM371:
 2694 0d1c 80E0      		ldi r24,lo8(bluetooth)
 2695 0d1e 90E0      		ldi r25,hi8(bluetooth)
 2696 0d20 612F      		mov r22,r17
 2697 0d22 0E94 0000 		call _ZN5iWRAP8set_key3Eh
 2698 0d26 00C0      		rjmp .L177
 2699               	.LVL150:
 2700               	.L181:
 2701               	.LM372:
 2702 0d28 80E0      		ldi r24,lo8(Keyboard)
 2703 0d2a 90E0      		ldi r25,hi8(Keyboard)
 2704 0d2c 612F      		mov r22,r17
 2705 0d2e 0E94 0000 		call _ZN11USBKeyboard8set_key4Eh
 2706               	.LVL151:
 2707               	.LM373:
 2708 0d32 80E0      		ldi r24,lo8(bluetooth)
 2709 0d34 90E0      		ldi r25,hi8(bluetooth)
 2710 0d36 612F      		mov r22,r17
 2711 0d38 0E94 0000 		call _ZN5iWRAP8set_key4Eh
 2712 0d3c 00C0      		rjmp .L177
 2713               	.LVL152:
 2714               	.L182:
 2715               	.LM374:
 2716 0d3e 80E0      		ldi r24,lo8(Keyboard)
 2717 0d40 90E0      		ldi r25,hi8(Keyboard)
 2718 0d42 612F      		mov r22,r17
 2719 0d44 0E94 0000 		call _ZN11USBKeyboard8set_key5Eh
 2720               	.LVL153:
 2721               	.LM375:
 2722 0d48 80E0      		ldi r24,lo8(bluetooth)
 2723 0d4a 90E0      		ldi r25,hi8(bluetooth)
 2724 0d4c 612F      		mov r22,r17
 2725 0d4e 0E94 0000 		call _ZN5iWRAP8set_key5Eh
 2726 0d52 00C0      		rjmp .L177
 2727               	.LVL154:
 2728               	.L187:
 2729               	.LM376:
 2730 0d54 80E0      		ldi r24,lo8(Keyboard)
 2731 0d56 90E0      		ldi r25,hi8(Keyboard)
 2732 0d58 612F      		mov r22,r17
 2733 0d5a 0E94 0000 		call _ZN11USBKeyboard8set_key6Eh
 2734               	.LVL155:
 2735               	.LM377:
 2736 0d5e 80E0      		ldi r24,lo8(bluetooth)
 2737 0d60 90E0      		ldi r25,hi8(bluetooth)
 2738 0d62 612F      		mov r22,r17
 2739 0d64 0E94 0000 		call _ZN5iWRAP8set_key6Eh
 2740               	.LVL156:
 2741               	.L177:
 2742               	.LM378:
 2743 0d68 80E0      		ldi r24,lo8(Keyboard)
 2744 0d6a 90E0      		ldi r25,hi8(Keyboard)
 2745 0d6c 0E94 0000 		call _ZN11USBKeyboard8send_nowEv
 2746               	.LVL157:
 2747               	.LM379:
 2748 0d70 80E0      		ldi r24,lo8(bluetooth)
 2749 0d72 90E0      		ldi r25,hi8(bluetooth)
 2750 0d74 0E94 0000 		call _ZN5iWRAP8send_nowEv
 2751               	.LVL158:
 2752               	.L185:
 2753               	/* epilogue start */
 2754               	.LBE652:
 2755               	.LM380:
 2756 0d78 1F91      		pop r17
 2757               	.LVL159:
 2758 0d7a 0895      		ret
 2759               	.LFE158:
 2761               		.data
 2762               	.LC18:
 2763 0148 746F 7563 		.string	"touchset keypress "
 2763      6873 6574 
 2763      206B 6579 
 2763      7072 6573 
 2763      7320 00
 2764               		.text
 2765               	.global	_Z8keypressh
 2767               	_Z8keypressh:
 2768               	.LFB160:
 2769               	.LM381:
 2770               	.LVL160:
 2771 0d7c FF92      		push r15
 2772 0d7e 0F93      		push r16
 2773 0d80 1F93      		push r17
 2774               	/* prologue: function */
 2775               	/* frame size = 0 */
 2776 0d82 F82E      		mov r15,r24
 2777               	.LM382:
 2778 0d84 00E0      		ldi r16,lo8(Serial)
 2779 0d86 10E0      		ldi r17,hi8(Serial)
 2780 0d88 C801      		movw r24,r16
 2781               	.LVL161:
 2782 0d8a 60E0      		ldi r22,lo8(.LC18)
 2783 0d8c 70E0      		ldi r23,hi8(.LC18)
 2784 0d8e 0E94 0000 		call _ZN16USBVirtualSerial5printEPKc
 2785               	.LM383:
 2786 0d92 C801      		movw r24,r16
 2787 0d94 6F2D      		mov r22,r15
 2788 0d96 0E94 0000 		call _ZN16USBVirtualSerial7printlnEh
 2789               	.LM384:
 2790 0d9a 8F2D      		mov r24,r15
 2791 0d9c 0E94 0000 		call _Z7keydownh
 2792               	.LM385:
 2793 0da0 65E0      		ldi r22,lo8(5)
 2794 0da2 70E0      		ldi r23,hi8(5)
 2795 0da4 80E0      		ldi r24,hlo8(5)
 2796 0da6 90E0      		ldi r25,hhi8(5)
 2797 0da8 0E94 0000 		call delay
 2798               	.LM386:
 2799 0dac 8F2D      		mov r24,r15
 2800 0dae 0E94 0000 		call _Z5keyuph
 2801               	/* epilogue start */
 2802               	.LM387:
 2803 0db2 1F91      		pop r17
 2804 0db4 0F91      		pop r16
 2805 0db6 FF90      		pop r15
 2806               	.LVL162:
 2807 0db8 0895      		ret
 2808               	.LFE160:
 2810               		.data
 2811               	.LC19:
 2812 015b 746F 7563 		.string	"touchset mouseup "
 2812      6873 6574 
 2812      206D 6F75 
 2812      7365 7570 
 2812      2000 
 2813               		.text
 2814               	.global	_Z7mouseuph
 2816               	_Z7mouseuph:
 2817               	.LFB156:
 2818               	.LM388:
 2819               	.LVL163:
 2820 0dba 1F93      		push r17
 2821               	/* prologue: function */
 2822               	/* frame size = 0 */
 2823 0dbc 182F      		mov r17,r24
 2824               	.LM389:
 2825 0dbe 80E0      		ldi r24,lo8(Serial)
 2826 0dc0 90E0      		ldi r25,hi8(Serial)
 2827               	.LVL164:
 2828 0dc2 60E0      		ldi r22,lo8(.LC19)
 2829 0dc4 70E0      		ldi r23,hi8(.LC19)
 2830 0dc6 0E94 0000 		call _ZN16USBVirtualSerial5printEPKc
 2831               	.LM390:
 2832 0dca 80E0      		ldi r24,lo8(Serial)
 2833 0dcc 90E0      		ldi r25,hi8(Serial)
 2834 0dce 612F      		mov r22,r17
 2835 0dd0 0E94 0000 		call _ZN16USBVirtualSerial7printlnEh
 2836               	.LM391:
 2837 0dd4 6091 0000 		lds r22,mouseDown
 2838 0dd8 812F      		mov r24,r17
 2839 0dda 90E0      		ldi r25,lo8(0)
 2840               	.LVL165:
 2841 0ddc 262F      		mov r18,r22
 2842 0dde 30E0      		ldi r19,lo8(0)
 2843 0de0 8223      		and r24,r18
 2844 0de2 9323      		and r25,r19
 2845               	.LVL166:
 2846 0de4 1816      		cp __zero_reg__,r24
 2847 0de6 1906      		cpc __zero_reg__,r25
 2848 0de8 04F4      		brge .L193
 2849               	.LM392:
 2850 0dea 862F      		mov r24,r22
 2851               	.LVL167:
 2852 0dec 811B      		sub r24,r17
 2853               	.LVL168:
 2854 0dee 8093 0000 		sts mouseDown,r24
 2855               	.LM393:
 2856 0df2 282F      		mov r18,r24
 2857 0df4 30E0      		ldi r19,lo8(0)
 2858 0df6 60E0      		ldi r22,lo8(0)
 2859 0df8 80FD      		sbrc r24,0
 2860 0dfa 61E0      		ldi r22,lo8(1)
 2861               	.L192:
 2862 0dfc 3695      		lsr r19
 2863 0dfe 2795      		ror r18
 2864 0e00 422F      		mov r20,r18
 2865 0e02 4170      		andi r20,lo8(1)
 2866 0e04 3695      		lsr r19
 2867 0e06 2795      		ror r18
 2868               	.LVL169:
 2869 0e08 2170      		andi r18,lo8(1)
 2870 0e0a 80E0      		ldi r24,lo8(Mouse)
 2871 0e0c 90E0      		ldi r25,hi8(Mouse)
 2872 0e0e 0E94 0000 		call _ZN8USBMouse11set_buttonsEhhh
 2873               	.LVL170:
 2874               	.L193:
 2875               	/* epilogue start */
 2876               	.LM394:
 2877 0e12 1F91      		pop r17
 2878               	.LVL171:
 2879 0e14 0895      		ret
 2880               	.LFE156:
 2882               	.global	_Z21check_sensors_releasemmh
 2884               	_Z21check_sensors_releasemmh:
 2885               	.LFB173:
 2886               	.LM395:
 2887               	.LVL172:
 2888 0e16 4F92      		push r4
 2889 0e18 5F92      		push r5
 2890 0e1a 6F92      		push r6
 2891 0e1c 7F92      		push r7
 2892 0e1e 8F92      		push r8
 2893 0e20 9F92      		push r9
 2894 0e22 AF92      		push r10
 2895 0e24 BF92      		push r11
 2896 0e26 CF92      		push r12
 2897 0e28 DF92      		push r13
 2898 0e2a EF92      		push r14
 2899 0e2c FF92      		push r15
 2900 0e2e 0F93      		push r16
 2901               	.LVL173:
 2902 0e30 1F93      		push r17
 2903 0e32 DF93      		push r29
 2904 0e34 CF93      		push r28
 2905 0e36 CDB7      		in r28,__SP_L__
 2906 0e38 DEB7      		in r29,__SP_H__
 2907 0e3a CC55      		subi r28,lo8(-(-92))
 2908 0e3c D040      		sbci r29,hi8(-(-92))
 2909 0e3e 0FB6      		in __tmp_reg__,__SREG__
 2910 0e40 F894      		cli
 2911 0e42 DEBF      		out __SP_H__,r29
 2912 0e44 0FBE      		out __SREG__,__tmp_reg__
 2913 0e46 CDBF      		out __SP_L__,r28
 2914               	/* prologue: function */
 2915               	/* frame size = 92 */
 2916 0e48 6B01      		movw r12,r22
 2917 0e4a 7C01      		movw r14,r24
 2918 0e4c BA01      		movw r22,r20
 2919 0e4e A901      		movw r20,r18
 2920               	.LBB653:
 2921               	.LBB654:
 2922               	.LM396:
 2923 0e50 1091 0000 		lds r17,modeStackPos
 2924               	.LM397:
 2925 0e54 212F      		mov r18,r17
 2926               	.LVL174:
 2927 0e56 30E0      		ldi r19,lo8(0)
 2928               	.LBE654:
 2929               	.LBE653:
 2930               	.LM398:
 2931 0e58 D701      		movw r26,r14
 2932 0e5a C601      		movw r24,r12
 2933 0e5c 8270      		andi r24,lo8(2)
 2934 0e5e 9070      		andi r25,hi8(2)
 2935 0e60 A070      		andi r26,hlo8(2)
 2936 0e62 B070      		andi r27,hhi8(2)
 2937 0e64 8983      		std Y+1,r24
 2938 0e66 9A83      		std Y+2,r25
 2939 0e68 AB83      		std Y+3,r26
 2940 0e6a BC83      		std Y+4,r27
 2941               	.LM399:
 2942 0e6c D701      		movw r26,r14
 2943 0e6e C601      		movw r24,r12
 2944 0e70 8870      		andi r24,lo8(8)
 2945 0e72 9070      		andi r25,hi8(8)
 2946 0e74 A070      		andi r26,hlo8(8)
 2947 0e76 B070      		andi r27,hhi8(8)
 2948 0e78 8D83      		std Y+5,r24
 2949 0e7a 9E83      		std Y+6,r25
 2950 0e7c AF83      		std Y+7,r26
 2951 0e7e B887      		std Y+8,r27
 2952               	.LM400:
 2953 0e80 D701      		movw r26,r14
 2954 0e82 C601      		movw r24,r12
 2955 0e84 8071      		andi r24,lo8(16)
 2956 0e86 9070      		andi r25,hi8(16)
 2957 0e88 A070      		andi r26,hlo8(16)
 2958 0e8a B070      		andi r27,hhi8(16)
 2959 0e8c 8987      		std Y+9,r24
 2960 0e8e 9A87      		std Y+10,r25
 2961 0e90 AB87      		std Y+11,r26
 2962 0e92 BC87      		std Y+12,r27
 2963               	.LM401:
 2964 0e94 D701      		movw r26,r14
 2965 0e96 C601      		movw r24,r12
 2966 0e98 8072      		andi r24,lo8(32)
 2967 0e9a 9070      		andi r25,hi8(32)
 2968 0e9c A070      		andi r26,hlo8(32)
 2969 0e9e B070      		andi r27,hhi8(32)
 2970 0ea0 8D87      		std Y+13,r24
 2971 0ea2 9E87      		std Y+14,r25
 2972 0ea4 AF87      		std Y+15,r26
 2973 0ea6 B88B      		std Y+16,r27
 2974               	.LM402:
 2975 0ea8 D701      		movw r26,r14
 2976 0eaa C601      		movw r24,r12
 2977 0eac 8074      		andi r24,lo8(64)
 2978 0eae 9070      		andi r25,hi8(64)
 2979 0eb0 A070      		andi r26,hlo8(64)
 2980 0eb2 B070      		andi r27,hhi8(64)
 2981 0eb4 898B      		std Y+17,r24
 2982 0eb6 9A8B      		std Y+18,r25
 2983 0eb8 AB8B      		std Y+19,r26
 2984 0eba BC8B      		std Y+20,r27
 2985               	.LM403:
 2986 0ebc D701      		movw r26,r14
 2987 0ebe C601      		movw r24,r12
 2988 0ec0 8070      		andi r24,lo8(256)
 2989 0ec2 9170      		andi r25,hi8(256)
 2990 0ec4 A070      		andi r26,hlo8(256)
 2991 0ec6 B070      		andi r27,hhi8(256)
 2992 0ec8 8D8B      		std Y+21,r24
 2993 0eca 9E8B      		std Y+22,r25
 2994 0ecc AF8B      		std Y+23,r26
 2995 0ece B88F      		std Y+24,r27
 2996               	.LM404:
 2997 0ed0 D701      		movw r26,r14
 2998 0ed2 C601      		movw r24,r12
 2999 0ed4 8070      		andi r24,lo8(512)
 3000 0ed6 9270      		andi r25,hi8(512)
 3001 0ed8 A070      		andi r26,hlo8(512)
 3002 0eda B070      		andi r27,hhi8(512)
 3003 0edc 898F      		std Y+25,r24
 3004 0ede 9A8F      		std Y+26,r25
 3005 0ee0 AB8F      		std Y+27,r26
 3006 0ee2 BC8F      		std Y+28,r27
 3007               	.LM405:
 3008 0ee4 D701      		movw r26,r14
 3009 0ee6 C601      		movw r24,r12
 3010 0ee8 8070      		andi r24,lo8(2048)
 3011 0eea 9870      		andi r25,hi8(2048)
 3012 0eec A070      		andi r26,hlo8(2048)
 3013 0eee B070      		andi r27,hhi8(2048)
 3014 0ef0 8D8F      		std Y+29,r24
 3015 0ef2 9E8F      		std Y+30,r25
 3016 0ef4 AF8F      		std Y+31,r26
 3017 0ef6 B8A3      		std Y+32,r27
 3018               	.LM406:
 3019 0ef8 D701      		movw r26,r14
 3020 0efa C601      		movw r24,r12
 3021 0efc 8070      		andi r24,lo8(8192)
 3022 0efe 9072      		andi r25,hi8(8192)
 3023 0f00 A070      		andi r26,hlo8(8192)
 3024 0f02 B070      		andi r27,hhi8(8192)
 3025 0f04 89A3      		std Y+33,r24
 3026 0f06 9AA3      		std Y+34,r25
 3027 0f08 ABA3      		std Y+35,r26
 3028 0f0a BCA3      		std Y+36,r27
 3029               	.LM407:
 3030 0f0c D701      		movw r26,r14
 3031 0f0e C601      		movw r24,r12
 3032 0f10 8070      		andi r24,lo8(16384)
 3033 0f12 9074      		andi r25,hi8(16384)
 3034 0f14 A070      		andi r26,hlo8(16384)
 3035 0f16 B070      		andi r27,hhi8(16384)
 3036 0f18 8DA3      		std Y+37,r24
 3037 0f1a 9EA3      		std Y+38,r25
 3038 0f1c AFA3      		std Y+39,r26
 3039 0f1e B8A7      		std Y+40,r27
 3040               	.LM408:
 3041 0f20 D701      		movw r26,r14
 3042 0f22 C601      		movw r24,r12
 3043 0f24 8070      		andi r24,lo8(65536)
 3044 0f26 9070      		andi r25,hi8(65536)
 3045 0f28 A170      		andi r26,hlo8(65536)
 3046 0f2a B070      		andi r27,hhi8(65536)
 3047 0f2c 89A7      		std Y+41,r24
 3048 0f2e 9AA7      		std Y+42,r25
 3049 0f30 ABA7      		std Y+43,r26
 3050 0f32 BCA7      		std Y+44,r27
 3051               	.LM409:
 3052 0f34 D701      		movw r26,r14
 3053 0f36 C601      		movw r24,r12
 3054 0f38 8070      		andi r24,lo8(131072)
 3055 0f3a 9070      		andi r25,hi8(131072)
 3056 0f3c A270      		andi r26,hlo8(131072)
 3057 0f3e B070      		andi r27,hhi8(131072)
 3058 0f40 8DA7      		std Y+45,r24
 3059 0f42 9EA7      		std Y+46,r25
 3060 0f44 AFA7      		std Y+47,r26
 3061 0f46 B8AB      		std Y+48,r27
 3062               	.LM410:
 3063 0f48 D701      		movw r26,r14
 3064 0f4a C601      		movw r24,r12
 3065 0f4c 8070      		andi r24,lo8(1048576)
 3066 0f4e 9070      		andi r25,hi8(1048576)
 3067 0f50 A071      		andi r26,hlo8(1048576)
 3068 0f52 B070      		andi r27,hhi8(1048576)
 3069 0f54 89AB      		std Y+49,r24
 3070 0f56 9AAB      		std Y+50,r25
 3071 0f58 ABAB      		std Y+51,r26
 3072 0f5a BCAB      		std Y+52,r27
 3073               	.LM411:
 3074 0f5c D701      		movw r26,r14
 3075 0f5e C601      		movw r24,r12
 3076 0f60 8070      		andi r24,lo8(2097152)
 3077 0f62 9070      		andi r25,hi8(2097152)
 3078 0f64 A072      		andi r26,hlo8(2097152)
 3079 0f66 B070      		andi r27,hhi8(2097152)
 3080 0f68 8DAB      		std Y+53,r24
 3081 0f6a 9EAB      		std Y+54,r25
 3082 0f6c AFAB      		std Y+55,r26
 3083 0f6e B8AF      		std Y+56,r27
 3084               	.LM412:
 3085 0f70 D701      		movw r26,r14
 3086 0f72 C601      		movw r24,r12
 3087 0f74 8070      		andi r24,lo8(4194304)
 3088 0f76 9070      		andi r25,hi8(4194304)
 3089 0f78 A074      		andi r26,hlo8(4194304)
 3090 0f7a B070      		andi r27,hhi8(4194304)
 3091 0f7c 89AF      		std Y+57,r24
 3092 0f7e 9AAF      		std Y+58,r25
 3093 0f80 ABAF      		std Y+59,r26
 3094 0f82 BCAF      		std Y+60,r27
 3095               	.LM413:
 3096 0f84 D701      		movw r26,r14
 3097 0f86 C601      		movw r24,r12
 3098 0f88 8070      		andi r24,lo8(8388608)
 3099 0f8a 9070      		andi r25,hi8(8388608)
 3100 0f8c A078      		andi r26,hlo8(8388608)
 3101 0f8e B070      		andi r27,hhi8(8388608)
 3102 0f90 2196      		adiw r28,61-60
 3103 0f92 8CAF      		std Y+60,r24
 3104 0f94 9DAF      		std Y+61,r25
 3105 0f96 AEAF      		std Y+62,r26
 3106 0f98 BFAF      		std Y+63,r27
 3107 0f9a 2197      		sbiw r28,61-60
 3108               	.LM414:
 3109 0f9c D701      		movw r26,r14
 3110 0f9e C601      		movw r24,r12
 3111 0fa0 8070      		andi r24,lo8(16777216)
 3112 0fa2 9070      		andi r25,hi8(16777216)
 3113 0fa4 A070      		andi r26,hlo8(16777216)
 3114 0fa6 B170      		andi r27,hhi8(16777216)
 3115 0fa8 2596      		adiw r28,65-60
 3116 0faa 8CAF      		std Y+60,r24
 3117 0fac 9DAF      		std Y+61,r25
 3118 0fae AEAF      		std Y+62,r26
 3119 0fb0 BFAF      		std Y+63,r27
 3120 0fb2 2597      		sbiw r28,65-60
 3121               	.LM415:
 3122 0fb4 D701      		movw r26,r14
 3123 0fb6 C601      		movw r24,r12
 3124 0fb8 8070      		andi r24,lo8(67108864)
 3125 0fba 9070      		andi r25,hi8(67108864)
 3126 0fbc A070      		andi r26,hlo8(67108864)
 3127 0fbe B470      		andi r27,hhi8(67108864)
 3128 0fc0 2996      		adiw r28,69-60
 3129 0fc2 8CAF      		std Y+60,r24
 3130 0fc4 9DAF      		std Y+61,r25
 3131 0fc6 AEAF      		std Y+62,r26
 3132 0fc8 BFAF      		std Y+63,r27
 3133 0fca 2997      		sbiw r28,69-60
 3134               	.LM416:
 3135 0fcc D701      		movw r26,r14
 3136 0fce C601      		movw r24,r12
 3137 0fd0 8070      		andi r24,lo8(268435456)
 3138 0fd2 9070      		andi r25,hi8(268435456)
 3139 0fd4 A070      		andi r26,hlo8(268435456)
 3140 0fd6 B071      		andi r27,hhi8(268435456)
 3141 0fd8 2D96      		adiw r28,73-60
 3142 0fda 8CAF      		std Y+60,r24
 3143 0fdc 9DAF      		std Y+61,r25
 3144 0fde AEAF      		std Y+62,r26
 3145 0fe0 BFAF      		std Y+63,r27
 3146 0fe2 2D97      		sbiw r28,73-60
 3147               	.LM417:
 3148 0fe4 D701      		movw r26,r14
 3149 0fe6 C601      		movw r24,r12
 3150 0fe8 8070      		andi r24,lo8(1073741824)
 3151 0fea 9070      		andi r25,hi8(1073741824)
 3152 0fec A070      		andi r26,hlo8(1073741824)
 3153 0fee B074      		andi r27,hhi8(1073741824)
 3154 0ff0 6196      		adiw r28,77-60
 3155 0ff2 8CAF      		std Y+60,r24
 3156 0ff4 9DAF      		std Y+61,r25
 3157 0ff6 AEAF      		std Y+62,r26
 3158 0ff8 BFAF      		std Y+63,r27
 3159 0ffa 6197      		sbiw r28,77-60
 3160               	.LM418:
 3161 0ffc DB01      		movw r26,r22
 3162 0ffe CA01      		movw r24,r20
 3163 1000 8071      		andi r24,lo8(16)
 3164 1002 9070      		andi r25,hi8(16)
 3165 1004 A070      		andi r26,hlo8(16)
 3166 1006 B070      		andi r27,hhi8(16)
 3167 1008 6596      		adiw r28,81-60
 3168 100a 8CAF      		std Y+60,r24
 3169 100c 9DAF      		std Y+61,r25
 3170 100e AEAF      		std Y+62,r26
 3171 1010 BFAF      		std Y+63,r27
 3172 1012 6597      		sbiw r28,81-60
 3173               	.LM419:
 3174 1014 DB01      		movw r26,r22
 3175 1016 CA01      		movw r24,r20
 3176 1018 8072      		andi r24,lo8(32)
 3177 101a 9070      		andi r25,hi8(32)
 3178 101c A070      		andi r26,hlo8(32)
 3179 101e B070      		andi r27,hhi8(32)
 3180 1020 6996      		adiw r28,85-60
 3181 1022 8CAF      		std Y+60,r24
 3182 1024 9DAF      		std Y+61,r25
 3183 1026 AEAF      		std Y+62,r26
 3184 1028 BFAF      		std Y+63,r27
 3185 102a 6997      		sbiw r28,85-60
 3186               	.LM420:
 3187 102c F0E4      		ldi r31,lo8(64)
 3188 102e 8F2E      		mov r8,r31
 3189 1030 912C      		mov r9,__zero_reg__
 3190 1032 A12C      		mov r10,__zero_reg__
 3191 1034 B12C      		mov r11,__zero_reg__
 3192 1036 8422      		and r8,r20
 3193 1038 9522      		and r9,r21
 3194 103a A622      		and r10,r22
 3195 103c B722      		and r11,r23
 3196               	.LM421:
 3197 103e 412C      		mov r4,__zero_reg__
 3198 1040 E1E0      		ldi r30,hi8(256)
 3199 1042 5E2E      		mov r5,r30
 3200 1044 612C      		mov r6,__zero_reg__
 3201 1046 712C      		mov r7,__zero_reg__
 3202 1048 4422      		and r4,r20
 3203 104a 5522      		and r5,r21
 3204 104c 6622      		and r6,r22
 3205 104e 7722      		and r7,r23
 3206               	.LM422:
 3207 1050 DB01      		movw r26,r22
 3208 1052 CA01      		movw r24,r20
 3209 1054 8070      		andi r24,lo8(512)
 3210 1056 9270      		andi r25,hi8(512)
 3211 1058 A070      		andi r26,hlo8(512)
 3212 105a B070      		andi r27,hhi8(512)
 3213 105c 6D96      		adiw r28,89-60
 3214 105e 8CAF      		std Y+60,r24
 3215 1060 9DAF      		std Y+61,r25
 3216 1062 AEAF      		std Y+62,r26
 3217 1064 BFAF      		std Y+63,r27
 3218 1066 6D97      		sbiw r28,89-60
 3219               	.LVL175:
 3220               	.L321:
 3221               	.LM423:
 3222 1068 8981      		ldd r24,Y+1
 3223 106a 9A81      		ldd r25,Y+2
 3224 106c AB81      		ldd r26,Y+3
 3225 106e BC81      		ldd r27,Y+4
 3226 1070 0097      		sbiw r24,0
 3227 1072 A105      		cpc r26,__zero_reg__
 3228 1074 B105      		cpc r27,__zero_reg__
 3229 1076 01F0      		breq .L195
 3230               	.LBB656:
 3231               	.LBB655:
 3232               	.LM424:
 3233 1078 1017      		cp r17,r16
 3234 107a 00F4      		brsh .+4
 3235 107c 0C94 0000 		jmp .L334
 3236               	.LM425:
 3237 1080 F901      		movw r30,r18
 3238 1082 E01B      		sub r30,r16
 3239 1084 F109      		sbc r31,__zero_reg__
 3240 1086 E050      		subi r30,lo8(-(modeStack))
 3241 1088 F040      		sbci r31,hi8(-(modeStack))
 3242 108a E081      		ld r30,Z
 3243               	.LBE655:
 3244               	.LBE656:
 3245               	.LM426:
 3246 108c EE23      		tst r30
 3247 108e 01F4      		brne .L197
 3248               	.LM427:
 3249 1090 87E3      		ldi r24,lo8(55)
 3250 1092 0E94 0000 		call _Z8keypressh
 3251               	.LVL176:
 3252               	.LM428:
 3253 1096 82E0      		ldi r24,lo8(2)
 3254 1098 0E94 0000 		call _Z10modifieruph
 3255               	.LM429:
 3256 109c 84E0      		ldi r24,lo8(4)
 3257 109e 0E94 0000 		call _Z10modifieruph
 3258               	.LM430:
 3259 10a2 81E0      		ldi r24,lo8(1)
 3260 10a4 0E94 0000 		call _Z10modifieruph
 3261 10a8 0C94 0000 		jmp .L334
 3262               	.LVL177:
 3263               	.L197:
 3264               	.LM431:
 3265 10ac E130      		cpi r30,lo8(1)
 3266 10ae 01F0      		breq .L198
 3267 10b0 E230      		cpi r30,lo8(2)
 3268 10b2 01F0      		breq .L198
 3269 10b4 E330      		cpi r30,lo8(3)
 3270 10b6 01F0      		breq .+4
 3271 10b8 0C94 0000 		jmp .L199
 3272               	.L198:
 3273               	.LM432:
 3274 10bc 89E2      		ldi r24,lo8(41)
 3275 10be 0E94 0000 		call _Z8keypressh
 3276               	.LVL178:
 3277               	.LM433:
 3278 10c2 82E0      		ldi r24,lo8(2)
 3279 10c4 0E94 0000 		call _Z10modifieruph
 3280               	.LM434:
 3281 10c8 84E0      		ldi r24,lo8(4)
 3282 10ca 0E94 0000 		call _Z10modifieruph
 3283               	.LM435:
 3284 10ce 81E0      		ldi r24,lo8(1)
 3285 10d0 0E94 0000 		call _Z10modifieruph
 3286 10d4 0C94 0000 		jmp .L334
 3287               	.LVL179:
 3288               	.L195:
 3289               	.LM436:
 3290 10d8 8D81      		ldd r24,Y+5
 3291 10da 9E81      		ldd r25,Y+6
 3292 10dc AF81      		ldd r26,Y+7
 3293 10de B885      		ldd r27,Y+8
 3294 10e0 0097      		sbiw r24,0
 3295 10e2 A105      		cpc r26,__zero_reg__
 3296 10e4 B105      		cpc r27,__zero_reg__
 3297 10e6 01F4      		brne .+2
 3298 10e8 00C0      		rjmp .L200
 3299               	.LM437:
 3300 10ea D701      		movw r26,r14
 3301 10ec C601      		movw r24,r12
 3302 10ee 8870      		andi r24,lo8(8200)
 3303 10f0 9072      		andi r25,hi8(8200)
 3304 10f2 A070      		andi r26,hlo8(8200)
 3305 10f4 B070      		andi r27,hhi8(8200)
 3306 10f6 8850      		subi r24,lo8(8200)
 3307 10f8 9042      		sbci r25,hi8(8200)
 3308 10fa A040      		sbci r26,hlo8(8200)
 3309 10fc B040      		sbci r27,hhi8(8200)
 3310 10fe 01F4      		brne .L201
 3311               	.LBB657:
 3312               	.LBB658:
 3313               	.LM438:
 3314 1100 1017      		cp r17,r16
 3315 1102 00F4      		brsh .+4
 3316 1104 0C94 0000 		jmp .L334
 3317               	.LM439:
 3318 1108 F901      		movw r30,r18
 3319 110a E01B      		sub r30,r16
 3320 110c F109      		sbc r31,__zero_reg__
 3321 110e E050      		subi r30,lo8(-(modeStack))
 3322 1110 F040      		sbci r31,hi8(-(modeStack))
 3323 1112 E081      		ld r30,Z
 3324               	.LBE658:
 3325               	.LBE657:
 3326               	.LM440:
 3327 1114 EE23      		tst r30
 3328 1116 01F0      		breq .L202
 3329 1118 E230      		cpi r30,lo8(2)
 3330 111a 01F0      		breq .L202
 3331 111c E330      		cpi r30,lo8(3)
 3332 111e 01F4      		brne .L203
 3333               	.L202:
 3334               	.LM441:
 3335 1120 88E2      		ldi r24,lo8(40)
 3336 1122 0E94 0000 		call _Z8keypressh
 3337               	.LVL180:
 3338               	.LM442:
 3339 1126 82E0      		ldi r24,lo8(2)
 3340 1128 0E94 0000 		call _Z10modifieruph
 3341               	.LM443:
 3342 112c 84E0      		ldi r24,lo8(4)
 3343 112e 0E94 0000 		call _Z10modifieruph
 3344               	.LM444:
 3345 1132 81E0      		ldi r24,lo8(1)
 3346 1134 0E94 0000 		call _Z10modifieruph
 3347 1138 0C94 0000 		jmp .L334
 3348               	.LVL181:
 3349               	.L203:
 3350               	.LM445:
 3351 113c E130      		cpi r30,lo8(1)
 3352 113e 01F0      		breq .+4
 3353 1140 0C94 0000 		jmp .L199
 3354               	.LM446:
 3355 1144 88E5      		ldi r24,lo8(88)
 3356 1146 0E94 0000 		call _Z8keypressh
 3357               	.LVL182:
 3358               	.LM447:
 3359 114a 82E0      		ldi r24,lo8(2)
 3360 114c 0E94 0000 		call _Z10modifieruph
 3361               	.LM448:
 3362 1150 84E0      		ldi r24,lo8(4)
 3363 1152 0E94 0000 		call _Z10modifieruph
 3364               	.LM449:
 3365 1156 81E0      		ldi r24,lo8(1)
 3366 1158 0E94 0000 		call _Z10modifieruph
 3367 115c 0C94 0000 		jmp .L334
 3368               	.LVL183:
 3369               	.L201:
 3370               	.LM450:
 3371 1160 47FD      		sbrc r20,7
 3372 1162 00C0      		rjmp .+4
 3373 1164 0C94 0000 		jmp .L204
 3374               	.LBB659:
 3375               	.LBB660:
 3376               	.LM451:
 3377 1168 1017      		cp r17,r16
 3378 116a 00F4      		brsh .+4
 3379 116c 0C94 0000 		jmp .L334
 3380               	.LM452:
 3381 1170 F901      		movw r30,r18
 3382 1172 E01B      		sub r30,r16
 3383 1174 F109      		sbc r31,__zero_reg__
 3384 1176 E050      		subi r30,lo8(-(modeStack))
 3385 1178 F040      		sbci r31,hi8(-(modeStack))
 3386 117a E081      		ld r30,Z
 3387               	.LBE660:
 3388               	.LBE659:
 3389               	.LM453:
 3390 117c EE23      		tst r30
 3391 117e 01F0      		breq .L205
 3392 1180 E130      		cpi r30,lo8(1)
 3393 1182 01F0      		breq .L205
 3394 1184 E230      		cpi r30,lo8(2)
 3395 1186 01F0      		breq .L205
 3396 1188 E330      		cpi r30,lo8(3)
 3397 118a 01F4      		brne .L206
 3398               	.L205:
 3399               	.LM454:
 3400 118c 8BE2      		ldi r24,lo8(43)
 3401 118e 0E94 0000 		call _Z8keypressh
 3402               	.LVL184:
 3403               	.LM455:
 3404 1192 82E0      		ldi r24,lo8(2)
 3405 1194 0E94 0000 		call _Z10modifieruph
 3406               	.LM456:
 3407 1198 84E0      		ldi r24,lo8(4)
 3408 119a 0E94 0000 		call _Z10modifieruph
 3409               	.LM457:
 3410 119e 81E0      		ldi r24,lo8(1)
 3411 11a0 0E94 0000 		call _Z10modifieruph
 3412 11a4 0C94 0000 		jmp .L334
 3413               	.LVL185:
 3414               	.L206:
 3415               	.LBB661:
 3416               	.LBB662:
 3417               	.LM458:
 3418 11a8 F901      		movw r30,r18
 3419 11aa E01B      		sub r30,r16
 3420 11ac F109      		sbc r31,__zero_reg__
 3421 11ae E050      		subi r30,lo8(-(modeStack))
 3422 11b0 F040      		sbci r31,hi8(-(modeStack))
 3423 11b2 E081      		ld r30,Z
 3424               	.LBE662:
 3425               	.LBE661:
 3426               	.LM459:
 3427 11b4 EE23      		tst r30
 3428 11b6 01F4      		brne .L207
 3429               	.LM460:
 3430 11b8 86E1      		ldi r24,lo8(22)
 3431 11ba 0E94 0000 		call _Z8keypressh
 3432               	.LVL186:
 3433               	.LM461:
 3434 11be 82E0      		ldi r24,lo8(2)
 3435 11c0 0E94 0000 		call _Z10modifieruph
 3436               	.LM462:
 3437 11c4 84E0      		ldi r24,lo8(4)
 3438 11c6 0E94 0000 		call _Z10modifieruph
 3439               	.LM463:
 3440 11ca 81E0      		ldi r24,lo8(1)
 3441 11cc 0E94 0000 		call _Z10modifieruph
 3442 11d0 0C94 0000 		jmp .L334
 3443               	.LVL187:
 3444               	.L207:
 3445               	.LM464:
 3446 11d4 E130      		cpi r30,lo8(1)
 3447 11d6 01F4      		brne .L208
 3448               	.LM465:
 3449 11d8 82E0      		ldi r24,lo8(2)
 3450 11da 0E94 0000 		call _Z12modifierdownh
 3451               	.LVL188:
 3452               	.LM466:
 3453 11de 80E2      		ldi r24,lo8(32)
 3454 11e0 0E94 0000 		call _Z8keypressh
 3455               	.LM467:
 3456 11e4 82E0      		ldi r24,lo8(2)
 3457 11e6 0E94 0000 		call _Z10modifieruph
 3458               	.LM468:
 3459 11ea 84E0      		ldi r24,lo8(4)
 3460 11ec 0E94 0000 		call _Z10modifieruph
 3461               	.LM469:
 3462 11f0 81E0      		ldi r24,lo8(1)
 3463 11f2 0E94 0000 		call _Z10modifieruph
 3464 11f6 0C94 0000 		jmp .L334
 3465               	.LVL189:
 3466               	.L208:
 3467               	.LM470:
 3468 11fa E230      		cpi r30,lo8(2)
 3469 11fc 01F4      		brne .L209
 3470               	.LM471:
 3471 11fe 83E3      		ldi r24,lo8(51)
 3472 1200 0E94 0000 		call _Z8keypressh
 3473               	.LVL190:
 3474               	.LM472:
 3475 1204 82E0      		ldi r24,lo8(2)
 3476 1206 0E94 0000 		call _Z10modifieruph
 3477               	.LM473:
 3478 120a 84E0      		ldi r24,lo8(4)
 3479 120c 0E94 0000 		call _Z10modifieruph
 3480               	.LM474:
 3481 1210 81E0      		ldi r24,lo8(1)
 3482 1212 0E94 0000 		call _Z10modifieruph
 3483 1216 0C94 0000 		jmp .L334
 3484               	.LVL191:
 3485               	.L209:
 3486               	.LM475:
 3487 121a E330      		cpi r30,lo8(3)
 3488 121c 01F0      		breq .+4
 3489 121e 0C94 0000 		jmp .L199
 3490               	.LM476:
 3491 1222 83E4      		ldi r24,lo8(67)
 3492 1224 0E94 0000 		call _Z8keypressh
 3493               	.LVL192:
 3494               	.LM477:
 3495 1228 82E0      		ldi r24,lo8(2)
 3496 122a 0E94 0000 		call _Z10modifieruph
 3497               	.LM478:
 3498 122e 84E0      		ldi r24,lo8(4)
 3499 1230 0E94 0000 		call _Z10modifieruph
 3500               	.LM479:
 3501 1234 81E0      		ldi r24,lo8(1)
 3502 1236 0E94 0000 		call _Z10modifieruph
 3503 123a 0C94 0000 		jmp .L334
 3504               	.LVL193:
 3505               	.L200:
 3506               	.LM480:
 3507 123e 8985      		ldd r24,Y+9
 3508 1240 9A85      		ldd r25,Y+10
 3509 1242 AB85      		ldd r26,Y+11
 3510 1244 BC85      		ldd r27,Y+12
 3511 1246 0097      		sbiw r24,0
 3512 1248 A105      		cpc r26,__zero_reg__
 3513 124a B105      		cpc r27,__zero_reg__
 3514 124c 01F4      		brne .+2
 3515 124e 00C0      		rjmp .L210
 3516               	.LBB664:
 3517               	.LBB665:
 3518               	.LM481:
 3519 1250 1017      		cp r17,r16
 3520 1252 00F4      		brsh .+4
 3521 1254 0C94 0000 		jmp .L334
 3522               	.LM482:
 3523 1258 F901      		movw r30,r18
 3524 125a E01B      		sub r30,r16
 3525 125c F109      		sbc r31,__zero_reg__
 3526 125e E050      		subi r30,lo8(-(modeStack))
 3527 1260 F040      		sbci r31,hi8(-(modeStack))
 3528 1262 E081      		ld r30,Z
 3529               	.LBE665:
 3530               	.LBE664:
 3531               	.LM483:
 3532 1264 EE23      		tst r30
 3533 1266 01F4      		brne .L211
 3534               	.LM484:
 3535 1268 86E0      		ldi r24,lo8(6)
 3536 126a 0E94 0000 		call _Z8keypressh
 3537               	.LVL194:
 3538               	.LM485:
 3539 126e 82E0      		ldi r24,lo8(2)
 3540 1270 0E94 0000 		call _Z10modifieruph
 3541               	.LM486:
 3542 1274 84E0      		ldi r24,lo8(4)
 3543 1276 0E94 0000 		call _Z10modifieruph
 3544               	.LM487:
 3545 127a 81E0      		ldi r24,lo8(1)
 3546 127c 0E94 0000 		call _Z10modifieruph
 3547 1280 0C94 0000 		jmp .L334
 3548               	.LVL195:
 3549               	.L211:
 3550               	.LM488:
 3551 1284 E130      		cpi r30,lo8(1)
 3552 1286 01F4      		brne .L212
 3553               	.LM489:
 3554 1288 87E2      		ldi r24,lo8(39)
 3555 128a 0E94 0000 		call _Z8keypressh
 3556               	.LVL196:
 3557               	.LM490:
 3558 128e 82E0      		ldi r24,lo8(2)
 3559 1290 0E94 0000 		call _Z10modifieruph
 3560               	.LM491:
 3561 1294 84E0      		ldi r24,lo8(4)
 3562 1296 0E94 0000 		call _Z10modifieruph
 3563               	.LM492:
 3564 129a 81E0      		ldi r24,lo8(1)
 3565 129c 0E94 0000 		call _Z10modifieruph
 3566 12a0 0C94 0000 		jmp .L334
 3567               	.LVL197:
 3568               	.L212:
 3569               	.LM493:
 3570 12a4 E230      		cpi r30,lo8(2)
 3571 12a6 01F4      		brne .L213
 3572               	.LM494:
 3573 12a8 82E0      		ldi r24,lo8(2)
 3574 12aa 0E94 0000 		call _Z12modifierdownh
 3575               	.LVL198:
 3576               	.LM495:
 3577 12ae 83E3      		ldi r24,lo8(51)
 3578 12b0 0E94 0000 		call _Z8keypressh
 3579               	.LM496:
 3580 12b4 82E0      		ldi r24,lo8(2)
 3581 12b6 0E94 0000 		call _Z10modifieruph
 3582               	.LM497:
 3583 12ba 84E0      		ldi r24,lo8(4)
 3584 12bc 0E94 0000 		call _Z10modifieruph
 3585               	.LM498:
 3586 12c0 81E0      		ldi r24,lo8(1)
 3587 12c2 0E94 0000 		call _Z10modifieruph
 3588 12c6 0C94 0000 		jmp .L334
 3589               	.LVL199:
 3590               	.L213:
 3591               	.LM499:
 3592 12ca E330      		cpi r30,lo8(3)
 3593 12cc 01F0      		breq .+4
 3594 12ce 0C94 0000 		jmp .L199
 3595               	.LM500:
 3596 12d2 84E4      		ldi r24,lo8(68)
 3597 12d4 0E94 0000 		call _Z8keypressh
 3598               	.LVL200:
 3599               	.LM501:
 3600 12d8 82E0      		ldi r24,lo8(2)
 3601 12da 0E94 0000 		call _Z10modifieruph
 3602               	.LM502:
 3603 12de 84E0      		ldi r24,lo8(4)
 3604 12e0 0E94 0000 		call _Z10modifieruph
 3605               	.LM503:
 3606 12e4 81E0      		ldi r24,lo8(1)
 3607 12e6 0E94 0000 		call _Z10modifieruph
 3608 12ea 0C94 0000 		jmp .L334
 3609               	.LVL201:
 3610               	.L210:
 3611               	.LM504:
 3612 12ee 8D85      		ldd r24,Y+13
 3613 12f0 9E85      		ldd r25,Y+14
 3614 12f2 AF85      		ldd r26,Y+15
 3615 12f4 B889      		ldd r27,Y+16
 3616 12f6 0097      		sbiw r24,0
 3617 12f8 A105      		cpc r26,__zero_reg__
 3618 12fa B105      		cpc r27,__zero_reg__
 3619 12fc 01F4      		brne .+2
 3620 12fe 00C0      		rjmp .L214
 3621               	.LBB666:
 3622               	.LBB667:
 3623               	.LM505:
 3624 1300 1017      		cp r17,r16
 3625 1302 00F4      		brsh .+4
 3626 1304 0C94 0000 		jmp .L334
 3627               	.LM506:
 3628 1308 F901      		movw r30,r18
 3629 130a E01B      		sub r30,r16
 3630 130c F109      		sbc r31,__zero_reg__
 3631 130e E050      		subi r30,lo8(-(modeStack))
 3632 1310 F040      		sbci r31,hi8(-(modeStack))
 3633 1312 E081      		ld r30,Z
 3634               	.LBE667:
 3635               	.LBE666:
 3636               	.LM507:
 3637 1314 EE23      		tst r30
 3638 1316 01F4      		brne .L215
 3639               	.LM508:
 3640 1318 83E1      		ldi r24,lo8(19)
 3641 131a 0E94 0000 		call _Z8keypressh
 3642               	.LVL202:
 3643               	.LM509:
 3644 131e 82E0      		ldi r24,lo8(2)
 3645 1320 0E94 0000 		call _Z10modifieruph
 3646               	.LM510:
 3647 1324 84E0      		ldi r24,lo8(4)
 3648 1326 0E94 0000 		call _Z10modifieruph
 3649               	.LM511:
 3650 132a 81E0      		ldi r24,lo8(1)
 3651 132c 0E94 0000 		call _Z10modifieruph
 3652 1330 0C94 0000 		jmp .L334
 3653               	.LVL203:
 3654               	.L215:
 3655               	.LM512:
 3656 1334 E130      		cpi r30,lo8(1)
 3657 1336 01F4      		brne .L216
 3658               	.LM513:
 3659 1338 82E0      		ldi r24,lo8(2)
 3660 133a 0E94 0000 		call _Z12modifierdownh
 3661               	.LVL204:
 3662               	.LM514:
 3663 133e 85E2      		ldi r24,lo8(37)
 3664 1340 0E94 0000 		call _Z8keypressh
 3665               	.LM515:
 3666 1344 82E0      		ldi r24,lo8(2)
 3667 1346 0E94 0000 		call _Z10modifieruph
 3668               	.LM516:
 3669 134a 84E0      		ldi r24,lo8(4)
 3670 134c 0E94 0000 		call _Z10modifieruph
 3671               	.LM517:
 3672 1350 81E0      		ldi r24,lo8(1)
 3673 1352 0E94 0000 		call _Z10modifieruph
 3674 1356 0C94 0000 		jmp .L334
 3675               	.LVL205:
 3676               	.L216:
 3677               	.LM518:
 3678 135a E230      		cpi r30,lo8(2)
 3679 135c 01F4      		brne .L217
 3680               	.LM519:
 3681 135e 82E0      		ldi r24,lo8(2)
 3682 1360 0E94 0000 		call _Z12modifierdownh
 3683               	.LVL206:
 3684               	.LM520:
 3685 1364 85E3      		ldi r24,lo8(53)
 3686 1366 0E94 0000 		call _Z8keypressh
 3687               	.LM521:
 3688 136a 82E0      		ldi r24,lo8(2)
 3689 136c 0E94 0000 		call _Z10modifieruph
 3690               	.LM522:
 3691 1370 84E0      		ldi r24,lo8(4)
 3692 1372 0E94 0000 		call _Z10modifieruph
 3693               	.LM523:
 3694 1376 81E0      		ldi r24,lo8(1)
 3695 1378 0E94 0000 		call _Z10modifieruph
 3696 137c 0C94 0000 		jmp .L334
 3697               	.LVL207:
 3698               	.L217:
 3699               	.LM524:
 3700 1380 E330      		cpi r30,lo8(3)
 3701 1382 01F0      		breq .+2
 3702 1384 00C0      		rjmp .L199
 3703               	.LM525:
 3704 1386 85E4      		ldi r24,lo8(69)
 3705 1388 0E94 0000 		call _Z8keypressh
 3706               	.LVL208:
 3707               	.LM526:
 3708 138c 82E0      		ldi r24,lo8(2)
 3709 138e 0E94 0000 		call _Z10modifieruph
 3710               	.LM527:
 3711 1392 84E0      		ldi r24,lo8(4)
 3712 1394 0E94 0000 		call _Z10modifieruph
 3713               	.LM528:
 3714 1398 81E0      		ldi r24,lo8(1)
 3715 139a 0E94 0000 		call _Z10modifieruph
 3716 139e 0C94 0000 		jmp .L334
 3717               	.LVL209:
 3718               	.L214:
 3719               	.LM529:
 3720 13a2 8989      		ldd r24,Y+17
 3721 13a4 9A89      		ldd r25,Y+18
 3722 13a6 AB89      		ldd r26,Y+19
 3723 13a8 BC89      		ldd r27,Y+20
 3724 13aa 0097      		sbiw r24,0
 3725 13ac A105      		cpc r26,__zero_reg__
 3726 13ae B105      		cpc r27,__zero_reg__
 3727 13b0 01F4      		brne .+2
 3728 13b2 00C0      		rjmp .L218
 3729               	.LBB668:
 3730               	.LBB669:
 3731               	.LM530:
 3732 13b4 1017      		cp r17,r16
 3733 13b6 00F4      		brsh .+2
 3734 13b8 00C0      		rjmp .L334
 3735               	.LM531:
 3736 13ba F901      		movw r30,r18
 3737 13bc E01B      		sub r30,r16
 3738 13be F109      		sbc r31,__zero_reg__
 3739 13c0 E050      		subi r30,lo8(-(modeStack))
 3740 13c2 F040      		sbci r31,hi8(-(modeStack))
 3741 13c4 E081      		ld r30,Z
 3742               	.LBE669:
 3743               	.LBE668:
 3744               	.LM532:
 3745 13c6 EE23      		tst r30
 3746 13c8 01F4      		brne .L219
 3747               	.LM533:
 3748 13ca 8FE0      		ldi r24,lo8(15)
 3749 13cc 0E94 0000 		call _Z8keypressh
 3750               	.LVL210:
 3751               	.LM534:
 3752 13d0 82E0      		ldi r24,lo8(2)
 3753 13d2 0E94 0000 		call _Z10modifieruph
 3754               	.LM535:
 3755 13d6 84E0      		ldi r24,lo8(4)
 3756 13d8 0E94 0000 		call _Z10modifieruph
 3757               	.LM536:
 3758 13dc 81E0      		ldi r24,lo8(1)
 3759 13de 0E94 0000 		call _Z10modifieruph
 3760 13e2 00C0      		rjmp .L334
 3761               	.LVL211:
 3762               	.L219:
 3763               	.LM537:
 3764 13e4 E130      		cpi r30,lo8(1)
 3765 13e6 01F4      		brne .L220
 3766               	.LM538:
 3767 13e8 85E2      		ldi r24,lo8(37)
 3768 13ea 0E94 0000 		call _Z8keypressh
 3769               	.LVL212:
 3770               	.LM539:
 3771 13ee 82E0      		ldi r24,lo8(2)
 3772 13f0 0E94 0000 		call _Z10modifieruph
 3773               	.LM540:
 3774 13f4 84E0      		ldi r24,lo8(4)
 3775 13f6 0E94 0000 		call _Z10modifieruph
 3776               	.LM541:
 3777 13fa 81E0      		ldi r24,lo8(1)
 3778 13fc 0E94 0000 		call _Z10modifieruph
 3779 1400 00C0      		rjmp .L334
 3780               	.LVL213:
 3781               	.L220:
 3782               	.LM542:
 3783 1402 E230      		cpi r30,lo8(2)
 3784 1404 01F4      		brne .L221
 3785               	.LM543:
 3786 1406 82E0      		ldi r24,lo8(2)
 3787 1408 0E94 0000 		call _Z12modifierdownh
 3788               	.LVL214:
 3789               	.LM544:
 3790 140c 87E3      		ldi r24,lo8(55)
 3791 140e 0E94 0000 		call _Z8keypressh
 3792               	.LM545:
 3793 1412 82E0      		ldi r24,lo8(2)
 3794 1414 0E94 0000 		call _Z10modifieruph
 3795               	.LM546:
 3796 1418 84E0      		ldi r24,lo8(4)
 3797 141a 0E94 0000 		call _Z10modifieruph
 3798               	.LM547:
 3799 141e 81E0      		ldi r24,lo8(1)
 3800 1420 0E94 0000 		call _Z10modifieruph
 3801 1424 00C0      		rjmp .L334
 3802               	.LVL215:
 3803               	.L221:
 3804               	.LM548:
 3805 1426 E330      		cpi r30,lo8(3)
 3806 1428 01F0      		breq .+2
 3807 142a 00C0      		rjmp .L199
 3808               	.LM549:
 3809 142c 81E4      		ldi r24,lo8(65)
 3810 142e 0E94 0000 		call _Z8keypressh
 3811               	.LVL216:
 3812               	.LM550:
 3813 1432 82E0      		ldi r24,lo8(2)
 3814 1434 0E94 0000 		call _Z10modifieruph
 3815               	.LM551:
 3816 1438 84E0      		ldi r24,lo8(4)
 3817 143a 0E94 0000 		call _Z10modifieruph
 3818               	.LM552:
 3819 143e 81E0      		ldi r24,lo8(1)
 3820 1440 0E94 0000 		call _Z10modifieruph
 3821 1444 00C0      		rjmp .L334
 3822               	.LVL217:
 3823               	.L218:
 3824               	.LM553:
 3825 1446 C7FE      		sbrs r12,7
 3826 1448 00C0      		rjmp .L222
 3827               	.LBB670:
 3828               	.LBB671:
 3829               	.LM554:
 3830 144a 1017      		cp r17,r16
 3831 144c 00F4      		brsh .+2
 3832 144e 00C0      		rjmp .L334
 3833               	.LM555:
 3834 1450 F901      		movw r30,r18
 3835 1452 E01B      		sub r30,r16
 3836 1454 F109      		sbc r31,__zero_reg__
 3837 1456 E050      		subi r30,lo8(-(modeStack))
 3838 1458 F040      		sbci r31,hi8(-(modeStack))
 3839 145a E081      		ld r30,Z
 3840               	.LBE671:
 3841               	.LBE670:
 3842               	.LM556:
 3843 145c EE23      		tst r30
 3844 145e 01F4      		brne .L223
 3845               	.LM557:
 3846 1460 84E1      		ldi r24,lo8(20)
 3847 1462 0E94 0000 		call _Z8keypressh
 3848               	.LVL218:
 3849               	.LM558:
 3850 1466 82E0      		ldi r24,lo8(2)
 3851 1468 0E94 0000 		call _Z10modifieruph
 3852               	.LM559:
 3853 146c 84E0      		ldi r24,lo8(4)
 3854 146e 0E94 0000 		call _Z10modifieruph
 3855               	.LM560:
 3856 1472 81E0      		ldi r24,lo8(1)
 3857 1474 0E94 0000 		call _Z10modifieruph
 3858 1478 00C0      		rjmp .L334
 3859               	.LVL219:
 3860               	.L223:
 3861               	.LM561:
 3862 147a E130      		cpi r30,lo8(1)
 3863 147c 01F4      		brne .L224
 3864               	.LM562:
 3865 147e 83E6      		ldi r24,lo8(99)
 3866 1480 0E94 0000 		call _Z8keypressh
 3867               	.LVL220:
 3868               	.LM563:
 3869 1484 82E0      		ldi r24,lo8(2)
 3870 1486 0E94 0000 		call _Z10modifieruph
 3871               	.LM564:
 3872 148a 84E0      		ldi r24,lo8(4)
 3873 148c 0E94 0000 		call _Z10modifieruph
 3874               	.LM565:
 3875 1490 81E0      		ldi r24,lo8(1)
 3876 1492 0E94 0000 		call _Z10modifieruph
 3877 1496 00C0      		rjmp .L334
 3878               	.LVL221:
 3879               	.L224:
 3880               	.LM566:
 3881 1498 E230      		cpi r30,lo8(2)
 3882 149a 01F0      		breq .+2
 3883 149c 00C0      		rjmp .L199
 3884               	.LM567:
 3885 149e 85E3      		ldi r24,lo8(53)
 3886 14a0 0E94 0000 		call _Z8keypressh
 3887               	.LVL222:
 3888               	.LM568:
 3889 14a4 82E0      		ldi r24,lo8(2)
 3890 14a6 0E94 0000 		call _Z10modifieruph
 3891               	.LM569:
 3892 14aa 84E0      		ldi r24,lo8(4)
 3893 14ac 0E94 0000 		call _Z10modifieruph
 3894               	.LM570:
 3895 14b0 81E0      		ldi r24,lo8(1)
 3896 14b2 0E94 0000 		call _Z10modifieruph
 3897 14b6 00C0      		rjmp .L334
 3898               	.LVL223:
 3899               	.L222:
 3900               	.LM571:
 3901 14b8 8D89      		ldd r24,Y+21
 3902 14ba 9E89      		ldd r25,Y+22
 3903 14bc AF89      		ldd r26,Y+23
 3904 14be B88D      		ldd r27,Y+24
 3905 14c0 0097      		sbiw r24,0
 3906 14c2 A105      		cpc r26,__zero_reg__
 3907 14c4 B105      		cpc r27,__zero_reg__
 3908 14c6 01F0      		breq .L225
 3909               	.LBB672:
 3910               	.LBB673:
 3911               	.LM572:
 3912 14c8 1017      		cp r17,r16
 3913 14ca 00F4      		brsh .+2
 3914 14cc 00C0      		rjmp .L334
 3915               	.LM573:
 3916 14ce F901      		movw r30,r18
 3917 14d0 E01B      		sub r30,r16
 3918 14d2 F109      		sbc r31,__zero_reg__
 3919 14d4 E050      		subi r30,lo8(-(modeStack))
 3920 14d6 F040      		sbci r31,hi8(-(modeStack))
 3921 14d8 E081      		ld r30,Z
 3922               	.LBE673:
 3923               	.LBE672:
 3924               	.LM574:
 3925 14da EE23      		tst r30
 3926 14dc 01F4      		brne .L226
 3927               	.LM575:
 3928 14de 8CE1      		ldi r24,lo8(28)
 3929 14e0 0E94 0000 		call _Z8keypressh
 3930               	.LVL224:
 3931               	.LM576:
 3932 14e4 82E0      		ldi r24,lo8(2)
 3933 14e6 0E94 0000 		call _Z10modifieruph
 3934               	.LM577:
 3935 14ea 84E0      		ldi r24,lo8(4)
 3936 14ec 0E94 0000 		call _Z10modifieruph
 3937               	.LM578:
 3938 14f0 81E0      		ldi r24,lo8(1)
 3939 14f2 0E94 0000 		call _Z10modifieruph
 3940 14f6 00C0      		rjmp .L334
 3941               	.LVL225:
 3942               	.L226:
 3943               	.LM579:
 3944 14f8 E230      		cpi r30,lo8(2)
 3945 14fa 01F4      		brne .L227
 3946               	.LM580:
 3947 14fc 82E0      		ldi r24,lo8(2)
 3948 14fe 0E94 0000 		call _Z12modifierdownh
 3949               	.LVL226:
 3950               	.LM581:
 3951 1502 8DE2      		ldi r24,lo8(45)
 3952 1504 0E94 0000 		call _Z8keypressh
 3953               	.LM582:
 3954 1508 82E0      		ldi r24,lo8(2)
 3955 150a 0E94 0000 		call _Z10modifieruph
 3956               	.LM583:
 3957 150e 84E0      		ldi r24,lo8(4)
 3958 1510 0E94 0000 		call _Z10modifieruph
 3959               	.LM584:
 3960 1514 81E0      		ldi r24,lo8(1)
 3961 1516 0E94 0000 		call _Z10modifieruph
 3962 151a 00C0      		rjmp .L334
 3963               	.LVL227:
 3964               	.L227:
 3965               	.LM585:
 3966 151c E330      		cpi r30,lo8(3)
 3967 151e 01F0      		breq .+2
 3968 1520 00C0      		rjmp .L199
 3969               	.LM586:
 3970 1522 89E4      		ldi r24,lo8(73)
 3971 1524 0E94 0000 		call _Z8keypressh
 3972               	.LVL228:
 3973               	.LM587:
 3974 1528 82E0      		ldi r24,lo8(2)
 3975 152a 0E94 0000 		call _Z10modifieruph
 3976               	.LM588:
 3977 152e 84E0      		ldi r24,lo8(4)
 3978 1530 0E94 0000 		call _Z10modifieruph
 3979               	.LM589:
 3980 1534 81E0      		ldi r24,lo8(1)
 3981 1536 0E94 0000 		call _Z10modifieruph
 3982 153a 00C0      		rjmp .L334
 3983               	.LVL229:
 3984               	.L225:
 3985               	.LM590:
 3986 153c 898D      		ldd r24,Y+25
 3987 153e 9A8D      		ldd r25,Y+26
 3988 1540 AB8D      		ldd r26,Y+27
 3989 1542 BC8D      		ldd r27,Y+28
 3990 1544 0097      		sbiw r24,0
 3991 1546 A105      		cpc r26,__zero_reg__
 3992 1548 B105      		cpc r27,__zero_reg__
 3993 154a 01F0      		breq .L228
 3994               	.LBB674:
 3995               	.LBB675:
 3996               	.LM591:
 3997 154c 1017      		cp r17,r16
 3998 154e 00F4      		brsh .+2
 3999 1550 00C0      		rjmp .L334
 4000               	.LM592:
 4001 1552 F901      		movw r30,r18
 4002 1554 E01B      		sub r30,r16
 4003 1556 F109      		sbc r31,__zero_reg__
 4004 1558 E050      		subi r30,lo8(-(modeStack))
 4005 155a F040      		sbci r31,hi8(-(modeStack))
 4006 155c E081      		ld r30,Z
 4007               	.LBE675:
 4008               	.LBE674:
 4009               	.LM593:
 4010 155e EE23      		tst r30
 4011 1560 01F4      		brne .L229
 4012               	.LM594:
 4013 1562 8BE1      		ldi r24,lo8(27)
 4014 1564 0E94 0000 		call _Z8keypressh
 4015               	.LVL230:
 4016               	.LM595:
 4017 1568 82E0      		ldi r24,lo8(2)
 4018 156a 0E94 0000 		call _Z10modifieruph
 4019               	.LM596:
 4020 156e 84E0      		ldi r24,lo8(4)
 4021 1570 0E94 0000 		call _Z10modifieruph
 4022               	.LM597:
 4023 1574 81E0      		ldi r24,lo8(1)
 4024 1576 0E94 0000 		call _Z10modifieruph
 4025 157a 00C0      		rjmp .L334
 4026               	.LVL231:
 4027               	.L229:
 4028               	.LM598:
 4029 157c E230      		cpi r30,lo8(2)
 4030 157e 01F4      		brne .L230
 4031               	.LM599:
 4032 1580 82E0      		ldi r24,lo8(2)
 4033 1582 0E94 0000 		call _Z12modifierdownh
 4034               	.LVL232:
 4035               	.LM600:
 4036 1586 81E3      		ldi r24,lo8(49)
 4037 1588 0E94 0000 		call _Z8keypressh
 4038               	.LM601:
 4039 158c 82E0      		ldi r24,lo8(2)
 4040 158e 0E94 0000 		call _Z10modifieruph
 4041               	.LM602:
 4042 1592 84E0      		ldi r24,lo8(4)
 4043 1594 0E94 0000 		call _Z10modifieruph
 4044               	.LM603:
 4045 1598 81E0      		ldi r24,lo8(1)
 4046 159a 0E94 0000 		call _Z10modifieruph
 4047 159e 00C0      		rjmp .L334
 4048               	.LVL233:
 4049               	.L230:
 4050               	.LM604:
 4051 15a0 E330      		cpi r30,lo8(3)
 4052 15a2 01F0      		breq .+2
 4053 15a4 00C0      		rjmp .L199
 4054               	.LM605:
 4055 15a6 86E4      		ldi r24,lo8(70)
 4056 15a8 0E94 0000 		call _Z8keypressh
 4057               	.LVL234:
 4058               	.LM606:
 4059 15ac 82E0      		ldi r24,lo8(2)
 4060 15ae 0E94 0000 		call _Z10modifieruph
 4061               	.LM607:
 4062 15b2 84E0      		ldi r24,lo8(4)
 4063 15b4 0E94 0000 		call _Z10modifieruph
 4064               	.LM608:
 4065 15b8 81E0      		ldi r24,lo8(1)
 4066 15ba 0E94 0000 		call _Z10modifieruph
 4067 15be 00C0      		rjmp .L334
 4068               	.LVL235:
 4069               	.L228:
 4070               	.LM609:
 4071 15c0 8D8D      		ldd r24,Y+29
 4072 15c2 9E8D      		ldd r25,Y+30
 4073 15c4 AF8D      		ldd r26,Y+31
 4074 15c6 B8A1      		ldd r27,Y+32
 4075 15c8 0097      		sbiw r24,0
 4076 15ca A105      		cpc r26,__zero_reg__
 4077 15cc B105      		cpc r27,__zero_reg__
 4078 15ce 01F0      		breq .L231
 4079               	.LBB676:
 4080               	.LBB677:
 4081               	.LM610:
 4082 15d0 1017      		cp r17,r16
 4083 15d2 00F4      		brsh .+2
 4084 15d4 00C0      		rjmp .L334
 4085               	.LM611:
 4086 15d6 F901      		movw r30,r18
 4087 15d8 E01B      		sub r30,r16
 4088 15da F109      		sbc r31,__zero_reg__
 4089 15dc E050      		subi r30,lo8(-(modeStack))
 4090 15de F040      		sbci r31,hi8(-(modeStack))
 4091 15e0 E081      		ld r30,Z
 4092               	.LBE677:
 4093               	.LBE676:
 4094               	.LM612:
 4095 15e2 EE23      		tst r30
 4096 15e4 01F4      		brne .L232
 4097               	.LM613:
 4098 15e6 86E3      		ldi r24,lo8(54)
 4099 15e8 0E94 0000 		call _Z8keypressh
 4100               	.LVL236:
 4101               	.LM614:
 4102 15ec 82E0      		ldi r24,lo8(2)
 4103 15ee 0E94 0000 		call _Z10modifieruph
 4104               	.LM615:
 4105 15f2 84E0      		ldi r24,lo8(4)
 4106 15f4 0E94 0000 		call _Z10modifieruph
 4107               	.LM616:
 4108 15f8 81E0      		ldi r24,lo8(1)
 4109 15fa 0E94 0000 		call _Z10modifieruph
 4110 15fe 00C0      		rjmp .L334
 4111               	.LVL237:
 4112               	.L232:
 4113               	.LM617:
 4114 1600 E130      		cpi r30,lo8(1)
 4115 1602 01F0      		breq .L233
 4116 1604 E230      		cpi r30,lo8(2)
 4117 1606 01F0      		breq .L233
 4118 1608 E330      		cpi r30,lo8(3)
 4119 160a 01F0      		breq .+2
 4120 160c 00C0      		rjmp .L199
 4121               	.L233:
 4122               	.LM618:
 4123 160e 8CE4      		ldi r24,lo8(76)
 4124 1610 0E94 0000 		call _Z8keypressh
 4125               	.LVL238:
 4126               	.LM619:
 4127 1614 82E0      		ldi r24,lo8(2)
 4128 1616 0E94 0000 		call _Z10modifieruph
 4129               	.LM620:
 4130 161a 84E0      		ldi r24,lo8(4)
 4131 161c 0E94 0000 		call _Z10modifieruph
 4132               	.LM621:
 4133 1620 81E0      		ldi r24,lo8(1)
 4134 1622 0E94 0000 		call _Z10modifieruph
 4135 1626 00C0      		rjmp .L334
 4136               	.LVL239:
 4137               	.L231:
 4138               	.LM622:
 4139 1628 89A1      		ldd r24,Y+33
 4140 162a 9AA1      		ldd r25,Y+34
 4141 162c ABA1      		ldd r26,Y+35
 4142 162e BCA1      		ldd r27,Y+36
 4143 1630 0097      		sbiw r24,0
 4144 1632 A105      		cpc r26,__zero_reg__
 4145 1634 B105      		cpc r27,__zero_reg__
 4146 1636 01F4      		brne .+2
 4147 1638 00C0      		rjmp .L234
 4148               	.LM623:
 4149 163a D701      		movw r26,r14
 4150 163c C601      		movw r24,r12
 4151 163e 8070      		andi r24,lo8(4202496)
 4152 1640 9072      		andi r25,hi8(4202496)
 4153 1642 A074      		andi r26,hlo8(4202496)
 4154 1644 B070      		andi r27,hhi8(4202496)
 4155 1646 8050      		subi r24,lo8(4202496)
 4156 1648 9042      		sbci r25,hi8(4202496)
 4157 164a A044      		sbci r26,hlo8(4202496)
 4158 164c B040      		sbci r27,hhi8(4202496)
 4159 164e 01F4      		brne .L235
 4160               	.LBB678:
 4161               	.LBB679:
 4162               	.LM624:
 4163 1650 1017      		cp r17,r16
 4164 1652 00F4      		brsh .+2
 4165 1654 00C0      		rjmp .L334
 4166               	.LM625:
 4167 1656 F901      		movw r30,r18
 4168 1658 E01B      		sub r30,r16
 4169 165a F109      		sbc r31,__zero_reg__
 4170 165c E050      		subi r30,lo8(-(modeStack))
 4171 165e F040      		sbci r31,hi8(-(modeStack))
 4172 1660 E081      		ld r30,Z
 4173               	.LBE679:
 4174               	.LBE678:
 4175               	.LM626:
 4176 1662 EE23      		tst r30
 4177 1664 01F4      		brne .L236
 4178               	.LM627:
 4179 1666 8AE2      		ldi r24,lo8(42)
 4180 1668 0E94 0000 		call _Z8keypressh
 4181               	.LVL240:
 4182               	.LM628:
 4183 166c 82E0      		ldi r24,lo8(2)
 4184 166e 0E94 0000 		call _Z10modifieruph
 4185               	.LM629:
 4186 1672 84E0      		ldi r24,lo8(4)
 4187 1674 0E94 0000 		call _Z10modifieruph
 4188               	.LM630:
 4189 1678 81E0      		ldi r24,lo8(1)
 4190 167a 0E94 0000 		call _Z10modifieruph
 4191 167e 00C0      		rjmp .L334
 4192               	.LVL241:
 4193               	.L236:
 4194               	.LM631:
 4195 1680 E130      		cpi r30,lo8(1)
 4196 1682 01F0      		breq .L237
 4197 1684 E230      		cpi r30,lo8(2)
 4198 1686 01F0      		breq .L237
 4199 1688 E330      		cpi r30,lo8(3)
 4200 168a 01F0      		breq .+2
 4201 168c 00C0      		rjmp .L199
 4202               	.L237:
 4203               	.LM632:
 4204 168e 8CE2      		ldi r24,lo8(44)
 4205 1690 0E94 0000 		call _Z8keypressh
 4206               	.LVL242:
 4207               	.LM633:
 4208 1694 82E0      		ldi r24,lo8(2)
 4209 1696 0E94 0000 		call _Z10modifieruph
 4210               	.LM634:
 4211 169a 84E0      		ldi r24,lo8(4)
 4212 169c 0E94 0000 		call _Z10modifieruph
 4213               	.LM635:
 4214 16a0 81E0      		ldi r24,lo8(1)
 4215 16a2 0E94 0000 		call _Z10modifieruph
 4216 16a6 00C0      		rjmp .L334
 4217               	.LVL243:
 4218               	.L235:
 4219               	.LBB680:
 4220               	.LBB681:
 4221               	.LM636:
 4222 16a8 1017      		cp r17,r16
 4223 16aa 00F4      		brsh .+2
 4224 16ac 00C0      		rjmp .L334
 4225               	.LM637:
 4226 16ae F901      		movw r30,r18
 4227 16b0 E01B      		sub r30,r16
 4228 16b2 F109      		sbc r31,__zero_reg__
 4229 16b4 E050      		subi r30,lo8(-(modeStack))
 4230 16b6 F040      		sbci r31,hi8(-(modeStack))
 4231 16b8 E081      		ld r30,Z
 4232               	.LBE681:
 4233               	.LBE680:
 4234               	.LM638:
 4235 16ba EE23      		tst r30
 4236 16bc 01F4      		brne .L238
 4237               	.LM639:
 4238 16be 87E1      		ldi r24,lo8(23)
 4239 16c0 0E94 0000 		call _Z8keypressh
 4240               	.LVL244:
 4241               	.LM640:
 4242 16c4 82E0      		ldi r24,lo8(2)
 4243 16c6 0E94 0000 		call _Z10modifieruph
 4244               	.LM641:
 4245 16ca 84E0      		ldi r24,lo8(4)
 4246 16cc 0E94 0000 		call _Z10modifieruph
 4247               	.LM642:
 4248 16d0 81E0      		ldi r24,lo8(1)
 4249 16d2 0E94 0000 		call _Z10modifieruph
 4250 16d6 00C0      		rjmp .L334
 4251               	.LVL245:
 4252               	.L238:
 4253               	.LM643:
 4254 16d8 E130      		cpi r30,lo8(1)
 4255 16da 01F4      		brne .L239
 4256               	.LM644:
 4257 16dc 84E2      		ldi r24,lo8(36)
 4258 16de 0E94 0000 		call _Z8keypressh
 4259               	.LVL246:
 4260               	.LM645:
 4261 16e2 82E0      		ldi r24,lo8(2)
 4262 16e4 0E94 0000 		call _Z10modifieruph
 4263               	.LM646:
 4264 16e8 84E0      		ldi r24,lo8(4)
 4265 16ea 0E94 0000 		call _Z10modifieruph
 4266               	.LM647:
 4267 16ee 81E0      		ldi r24,lo8(1)
 4268 16f0 0E94 0000 		call _Z10modifieruph
 4269 16f4 00C0      		rjmp .L334
 4270               	.LVL247:
 4271               	.L239:
 4272               	.LM648:
 4273 16f6 E230      		cpi r30,lo8(2)
 4274 16f8 01F4      		brne .L240
 4275               	.LM649:
 4276 16fa 82E0      		ldi r24,lo8(2)
 4277 16fc 0E94 0000 		call _Z12modifierdownh
 4278               	.LVL248:
 4279               	.LM650:
 4280 1700 86E3      		ldi r24,lo8(54)
 4281 1702 0E94 0000 		call _Z8keypressh
 4282               	.LM651:
 4283 1706 82E0      		ldi r24,lo8(2)
 4284 1708 0E94 0000 		call _Z10modifieruph
 4285               	.LM652:
 4286 170c 84E0      		ldi r24,lo8(4)
 4287 170e 0E94 0000 		call _Z10modifieruph
 4288               	.LM653:
 4289 1712 81E0      		ldi r24,lo8(1)
 4290 1714 0E94 0000 		call _Z10modifieruph
 4291 1718 00C0      		rjmp .L334
 4292               	.LVL249:
 4293               	.L240:
 4294               	.LM654:
 4295 171a E330      		cpi r30,lo8(3)
 4296 171c 01F0      		breq .+2
 4297 171e 00C0      		rjmp .L199
 4298               	.LM655:
 4299 1720 80E4      		ldi r24,lo8(64)
 4300 1722 0E94 0000 		call _Z8keypressh
 4301               	.LVL250:
 4302               	.LM656:
 4303 1726 82E0      		ldi r24,lo8(2)
 4304 1728 0E94 0000 		call _Z10modifieruph
 4305               	.LM657:
 4306 172c 84E0      		ldi r24,lo8(4)
 4307 172e 0E94 0000 		call _Z10modifieruph
 4308               	.LM658:
 4309 1732 81E0      		ldi r24,lo8(1)
 4310 1734 0E94 0000 		call _Z10modifieruph
 4311 1738 00C0      		rjmp .L334
 4312               	.LVL251:
 4313               	.L234:
 4314               	.LM659:
 4315 173a 8DA1      		ldd r24,Y+37
 4316 173c 9EA1      		ldd r25,Y+38
 4317 173e AFA1      		ldd r26,Y+39
 4318 1740 B8A5      		ldd r27,Y+40
 4319 1742 0097      		sbiw r24,0
 4320 1744 A105      		cpc r26,__zero_reg__
 4321 1746 B105      		cpc r27,__zero_reg__
 4322 1748 01F4      		brne .+2
 4323 174a 00C0      		rjmp .L241
 4324               	.LBB682:
 4325               	.LBB683:
 4326               	.LM660:
 4327 174c 1017      		cp r17,r16
 4328 174e 00F4      		brsh .+2
 4329 1750 00C0      		rjmp .L334
 4330               	.LM661:
 4331 1752 F901      		movw r30,r18
 4332 1754 E01B      		sub r30,r16
 4333 1756 F109      		sbc r31,__zero_reg__
 4334 1758 E050      		subi r30,lo8(-(modeStack))
 4335 175a F040      		sbci r31,hi8(-(modeStack))
 4336 175c E081      		ld r30,Z
 4337               	.LBE683:
 4338               	.LBE682:
 4339               	.LM662:
 4340 175e EE23      		tst r30
 4341 1760 01F4      		brne .L242
 4342               	.LM663:
 4343 1762 8AE0      		ldi r24,lo8(10)
 4344 1764 0E94 0000 		call _Z8keypressh
 4345               	.LVL252:
 4346               	.LM664:
 4347 1768 82E0      		ldi r24,lo8(2)
 4348 176a 0E94 0000 		call _Z10modifieruph
 4349               	.LM665:
 4350 176e 84E0      		ldi r24,lo8(4)
 4351 1770 0E94 0000 		call _Z10modifieruph
 4352               	.LM666:
 4353 1774 81E0      		ldi r24,lo8(1)
 4354 1776 0E94 0000 		call _Z10modifieruph
 4355 177a 00C0      		rjmp .L334
 4356               	.LVL253:
 4357               	.L242:
 4358               	.LM667:
 4359 177c E130      		cpi r30,lo8(1)
 4360 177e 01F4      		brne .L243
 4361               	.LM668:
 4362 1780 86E2      		ldi r24,lo8(38)
 4363 1782 0E94 0000 		call _Z8keypressh
 4364               	.LVL254:
 4365               	.LM669:
 4366 1786 82E0      		ldi r24,lo8(2)
 4367 1788 0E94 0000 		call _Z10modifieruph
 4368               	.LM670:
 4369 178c 84E0      		ldi r24,lo8(4)
 4370 178e 0E94 0000 		call _Z10modifieruph
 4371               	.LM671:
 4372 1792 81E0      		ldi r24,lo8(1)
 4373 1794 0E94 0000 		call _Z10modifieruph
 4374 1798 00C0      		rjmp .L334
 4375               	.LVL255:
 4376               	.L243:
 4377               	.LM672:
 4378 179a E230      		cpi r30,lo8(2)
 4379 179c 01F4      		brne .L244
 4380               	.LM673:
 4381 179e 88E3      		ldi r24,lo8(56)
 4382 17a0 0E94 0000 		call _Z8keypressh
 4383               	.LVL256:
 4384               	.LM674:
 4385 17a4 82E0      		ldi r24,lo8(2)
 4386 17a6 0E94 0000 		call _Z10modifieruph
 4387               	.LM675:
 4388 17aa 84E0      		ldi r24,lo8(4)
 4389 17ac 0E94 0000 		call _Z10modifieruph
 4390               	.LM676:
 4391 17b0 81E0      		ldi r24,lo8(1)
 4392 17b2 0E94 0000 		call _Z10modifieruph
 4393 17b6 00C0      		rjmp .L334
 4394               	.LVL257:
 4395               	.L244:
 4396               	.LM677:
 4397 17b8 E330      		cpi r30,lo8(3)
 4398 17ba 01F0      		breq .+2
 4399 17bc 00C0      		rjmp .L199
 4400               	.LM678:
 4401 17be 82E4      		ldi r24,lo8(66)
 4402 17c0 0E94 0000 		call _Z8keypressh
 4403               	.LVL258:
 4404               	.LM679:
 4405 17c4 82E0      		ldi r24,lo8(2)
 4406 17c6 0E94 0000 		call _Z10modifieruph
 4407               	.LM680:
 4408 17ca 84E0      		ldi r24,lo8(4)
 4409 17cc 0E94 0000 		call _Z10modifieruph
 4410               	.LM681:
 4411 17d0 81E0      		ldi r24,lo8(1)
 4412 17d2 0E94 0000 		call _Z10modifieruph
 4413 17d6 00C0      		rjmp .L334
 4414               	.LVL259:
 4415               	.L241:
 4416               	.LM682:
 4417 17d8 C601      		movw r24,r12
 4418               	.LVL260:
 4419 17da 8070      		andi r24,lo8(-32768)
 4420 17dc 9078      		andi r25,hi8(-32768)
 4421 17de 892B      		or r24,r25
 4422 17e0 01F0      		breq .L245
 4423               	.LBB684:
 4424               	.LBB685:
 4425               	.LM683:
 4426 17e2 1017      		cp r17,r16
 4427 17e4 00F4      		brsh .+2
 4428 17e6 00C0      		rjmp .L334
 4429               	.LM684:
 4430 17e8 F901      		movw r30,r18
 4431 17ea E01B      		sub r30,r16
 4432 17ec F109      		sbc r31,__zero_reg__
 4433 17ee E050      		subi r30,lo8(-(modeStack))
 4434 17f0 F040      		sbci r31,hi8(-(modeStack))
 4435 17f2 E081      		ld r30,Z
 4436               	.LBE685:
 4437               	.LBE684:
 4438               	.LM685:
 4439 17f4 EE23      		tst r30
 4440 17f6 01F4      		brne .L246
 4441               	.LM686:
 4442 17f8 8AE1      		ldi r24,lo8(26)
 4443 17fa 0E94 0000 		call _Z8keypressh
 4444               	.LVL261:
 4445               	.LM687:
 4446 17fe 82E0      		ldi r24,lo8(2)
 4447 1800 0E94 0000 		call _Z10modifieruph
 4448               	.LM688:
 4449 1804 84E0      		ldi r24,lo8(4)
 4450 1806 0E94 0000 		call _Z10modifieruph
 4451               	.LM689:
 4452 180a 81E0      		ldi r24,lo8(1)
 4453 180c 0E94 0000 		call _Z10modifieruph
 4454 1810 00C0      		rjmp .L334
 4455               	.LVL262:
 4456               	.L246:
 4457               	.LM690:
 4458 1812 E130      		cpi r30,lo8(1)
 4459 1814 01F4      		brne .L247
 4460               	.LM691:
 4461 1816 87E6      		ldi r24,lo8(103)
 4462 1818 0E94 0000 		call _Z8keypressh
 4463               	.LVL263:
 4464               	.LM692:
 4465 181c 82E0      		ldi r24,lo8(2)
 4466 181e 0E94 0000 		call _Z10modifieruph
 4467               	.LM693:
 4468 1822 84E0      		ldi r24,lo8(4)
 4469 1824 0E94 0000 		call _Z10modifieruph
 4470               	.LM694:
 4471 1828 81E0      		ldi r24,lo8(1)
 4472 182a 0E94 0000 		call _Z10modifieruph
 4473 182e 00C0      		rjmp .L334
 4474               	.LVL264:
 4475               	.L247:
 4476               	.LM695:
 4477 1830 E230      		cpi r30,lo8(2)
 4478 1832 01F0      		breq .+2
 4479 1834 00C0      		rjmp .L199
 4480               	.LM696:
 4481 1836 8FE2      		ldi r24,lo8(47)
 4482 1838 0E94 0000 		call _Z8keypressh
 4483               	.LVL265:
 4484               	.LM697:
 4485 183c 82E0      		ldi r24,lo8(2)
 4486 183e 0E94 0000 		call _Z10modifieruph
 4487               	.LM698:
 4488 1842 84E0      		ldi r24,lo8(4)
 4489 1844 0E94 0000 		call _Z10modifieruph
 4490               	.LM699:
 4491 1848 81E0      		ldi r24,lo8(1)
 4492 184a 0E94 0000 		call _Z10modifieruph
 4493 184e 00C0      		rjmp .L334
 4494               	.LVL266:
 4495               	.L245:
 4496               	.LM700:
 4497 1850 89A5      		ldd r24,Y+41
 4498 1852 9AA5      		ldd r25,Y+42
 4499 1854 ABA5      		ldd r26,Y+43
 4500 1856 BCA5      		ldd r27,Y+44
 4501 1858 0097      		sbiw r24,0
 4502 185a A105      		cpc r26,__zero_reg__
 4503 185c B105      		cpc r27,__zero_reg__
 4504 185e 01F0      		breq .L248
 4505               	.LBB686:
 4506               	.LBB687:
 4507               	.LM701:
 4508 1860 1017      		cp r17,r16
 4509 1862 00F4      		brsh .+2
 4510 1864 00C0      		rjmp .L334
 4511               	.LM702:
 4512 1866 F901      		movw r30,r18
 4513 1868 E01B      		sub r30,r16
 4514 186a F109      		sbc r31,__zero_reg__
 4515 186c E050      		subi r30,lo8(-(modeStack))
 4516 186e F040      		sbci r31,hi8(-(modeStack))
 4517 1870 E081      		ld r30,Z
 4518               	.LBE687:
 4519               	.LBE686:
 4520               	.LM703:
 4521 1872 EE23      		tst r30
 4522 1874 01F4      		brne .L249
 4523               	.LM704:
 4524 1876 8EE0      		ldi r24,lo8(14)
 4525 1878 0E94 0000 		call _Z8keypressh
 4526               	.LVL267:
 4527               	.LM705:
 4528 187c 82E0      		ldi r24,lo8(2)
 4529 187e 0E94 0000 		call _Z10modifieruph
 4530               	.LM706:
 4531 1882 84E0      		ldi r24,lo8(4)
 4532 1884 0E94 0000 		call _Z10modifieruph
 4533               	.LM707:
 4534 1888 81E0      		ldi r24,lo8(1)
 4535 188a 0E94 0000 		call _Z10modifieruph
 4536 188e 00C0      		rjmp .L334
 4537               	.LVL268:
 4538               	.L249:
 4539               	.LM708:
 4540 1890 E130      		cpi r30,lo8(1)
 4541 1892 01F4      		brne .L250
 4542               	.LM709:
 4543 1894 82E0      		ldi r24,lo8(2)
 4544 1896 0E94 0000 		call _Z12modifierdownh
 4545               	.LVL269:
 4546               	.LM710:
 4547 189a 83E2      		ldi r24,lo8(35)
 4548 189c 0E94 0000 		call _Z8keypressh
 4549               	.LM711:
 4550 18a0 82E0      		ldi r24,lo8(2)
 4551 18a2 0E94 0000 		call _Z10modifieruph
 4552               	.LM712:
 4553 18a6 84E0      		ldi r24,lo8(4)
 4554 18a8 0E94 0000 		call _Z10modifieruph
 4555               	.LM713:
 4556 18ac 81E0      		ldi r24,lo8(1)
 4557 18ae 0E94 0000 		call _Z10modifieruph
 4558 18b2 00C0      		rjmp .L334
 4559               	.LVL270:
 4560               	.L250:
 4561               	.LM714:
 4562 18b4 E230      		cpi r30,lo8(2)
 4563 18b6 01F0      		breq .+2
 4564 18b8 00C0      		rjmp .L199
 4565               	.LM715:
 4566 18ba 80E3      		ldi r24,lo8(48)
 4567 18bc 0E94 0000 		call _Z8keypressh
 4568               	.LVL271:
 4569               	.LM716:
 4570 18c0 82E0      		ldi r24,lo8(2)
 4571 18c2 0E94 0000 		call _Z10modifieruph
 4572               	.LM717:
 4573 18c6 84E0      		ldi r24,lo8(4)
 4574 18c8 0E94 0000 		call _Z10modifieruph
 4575               	.LM718:
 4576 18cc 81E0      		ldi r24,lo8(1)
 4577 18ce 0E94 0000 		call _Z10modifieruph
 4578 18d2 00C0      		rjmp .L334
 4579               	.LVL272:
 4580               	.L248:
 4581               	.LM719:
 4582 18d4 8DA5      		ldd r24,Y+45
 4583 18d6 9EA5      		ldd r25,Y+46
 4584 18d8 AFA5      		ldd r26,Y+47
 4585 18da B8A9      		ldd r27,Y+48
 4586 18dc 0097      		sbiw r24,0
 4587 18de A105      		cpc r26,__zero_reg__
 4588 18e0 B105      		cpc r27,__zero_reg__
 4589 18e2 01F0      		breq .L251
 4590               	.LBB688:
 4591               	.LBB689:
 4592               	.LM720:
 4593 18e4 1017      		cp r17,r16
 4594 18e6 00F4      		brsh .+2
 4595 18e8 00C0      		rjmp .L334
 4596               	.LM721:
 4597 18ea F901      		movw r30,r18
 4598 18ec E01B      		sub r30,r16
 4599 18ee F109      		sbc r31,__zero_reg__
 4600 18f0 E050      		subi r30,lo8(-(modeStack))
 4601 18f2 F040      		sbci r31,hi8(-(modeStack))
 4602 18f4 E081      		ld r30,Z
 4603               	.LBE689:
 4604               	.LBE688:
 4605               	.LM722:
 4606 18f6 EE23      		tst r30
 4607 18f8 01F4      		brne .L252
 4608               	.LM723:
 4609 18fa 8DE1      		ldi r24,lo8(29)
 4610 18fc 0E94 0000 		call _Z8keypressh
 4611               	.LVL273:
 4612               	.LM724:
 4613 1900 82E0      		ldi r24,lo8(2)
 4614 1902 0E94 0000 		call _Z10modifieruph
 4615               	.LM725:
 4616 1906 84E0      		ldi r24,lo8(4)
 4617 1908 0E94 0000 		call _Z10modifieruph
 4618               	.LM726:
 4619 190c 81E0      		ldi r24,lo8(1)
 4620 190e 0E94 0000 		call _Z10modifieruph
 4621 1912 00C0      		rjmp .L334
 4622               	.LVL274:
 4623               	.L252:
 4624               	.LM727:
 4625 1914 E130      		cpi r30,lo8(1)
 4626 1916 01F4      		brne .L253
 4627               	.LM728:
 4628 1918 82E0      		ldi r24,lo8(2)
 4629 191a 0E94 0000 		call _Z12modifierdownh
 4630               	.LVL275:
 4631               	.LM729:
 4632 191e 82E2      		ldi r24,lo8(34)
 4633 1920 0E94 0000 		call _Z8keypressh
 4634               	.LM730:
 4635 1924 82E0      		ldi r24,lo8(2)
 4636 1926 0E94 0000 		call _Z10modifieruph
 4637               	.LM731:
 4638 192a 84E0      		ldi r24,lo8(4)
 4639 192c 0E94 0000 		call _Z10modifieruph
 4640               	.LM732:
 4641 1930 81E0      		ldi r24,lo8(1)
 4642 1932 0E94 0000 		call _Z10modifieruph
 4643 1936 00C0      		rjmp .L334
 4644               	.LVL276:
 4645               	.L253:
 4646               	.LM733:
 4647 1938 E230      		cpi r30,lo8(2)
 4648 193a 01F0      		breq .+2
 4649 193c 00C0      		rjmp .L199
 4650               	.LM734:
 4651 193e 81E3      		ldi r24,lo8(49)
 4652 1940 0E94 0000 		call _Z8keypressh
 4653               	.LVL277:
 4654               	.LM735:
 4655 1944 82E0      		ldi r24,lo8(2)
 4656 1946 0E94 0000 		call _Z10modifieruph
 4657               	.LM736:
 4658 194a 84E0      		ldi r24,lo8(4)
 4659 194c 0E94 0000 		call _Z10modifieruph
 4660               	.LM737:
 4661 1950 81E0      		ldi r24,lo8(1)
 4662 1952 0E94 0000 		call _Z10modifieruph
 4663 1956 00C0      		rjmp .L334
 4664               	.LVL278:
 4665               	.L251:
 4666               	.LM738:
 4667 1958 89A9      		ldd r24,Y+49
 4668 195a 9AA9      		ldd r25,Y+50
 4669 195c ABA9      		ldd r26,Y+51
 4670 195e BCA9      		ldd r27,Y+52
 4671 1960 0097      		sbiw r24,0
 4672 1962 A105      		cpc r26,__zero_reg__
 4673 1964 B105      		cpc r27,__zero_reg__
 4674 1966 01F4      		brne .+2
 4675 1968 00C0      		rjmp .L254
 4676               	.LBB690:
 4677               	.LBB691:
 4678               	.LM739:
 4679 196a 1017      		cp r17,r16
 4680 196c 00F4      		brsh .+2
 4681 196e 00C0      		rjmp .L254
 4682               	.LBE691:
 4683               	.LBE690:
 4684               	.LM740:
 4685 1970 F901      		movw r30,r18
 4686 1972 E01B      		sub r30,r16
 4687 1974 F109      		sbc r31,__zero_reg__
 4688 1976 E050      		subi r30,lo8(-(modeStack))
 4689 1978 F040      		sbci r31,hi8(-(modeStack))
 4690 197a 8081      		ld r24,Z
 4691 197c 8823      		tst r24
 4692 197e 01F0      		breq .+2
 4693 1980 00C0      		rjmp .L254
 4694               	.LM741:
 4695 1982 89E1      		ldi r24,lo8(25)
 4696 1984 0E94 0000 		call _Z8keypressh
 4697               	.LVL279:
 4698               	.LM742:
 4699 1988 82E0      		ldi r24,lo8(2)
 4700 198a 0E94 0000 		call _Z10modifieruph
 4701               	.LM743:
 4702 198e 84E0      		ldi r24,lo8(4)
 4703 1990 0E94 0000 		call _Z10modifieruph
 4704               	.LM744:
 4705 1994 81E0      		ldi r24,lo8(1)
 4706 1996 0E94 0000 		call _Z10modifieruph
 4707 199a 00C0      		rjmp .L334
 4708               	.LVL280:
 4709               	.L322:
 4710               	.LBB692:
 4711               	.LBB693:
 4712               	.LM745:
 4713 199c 1017      		cp r17,r16
 4714 199e 00F4      		brsh .+2
 4715 19a0 00C0      		rjmp .L255
 4716               	.LM746:
 4717 19a2 F901      		movw r30,r18
 4718 19a4 E01B      		sub r30,r16
 4719 19a6 F109      		sbc r31,__zero_reg__
 4720 19a8 E050      		subi r30,lo8(-(modeStack))
 4721 19aa F040      		sbci r31,hi8(-(modeStack))
 4722 19ac E081      		ld r30,Z
 4723               	.LBE693:
 4724               	.LBE692:
 4725               	.LM747:
 4726 19ae EE23      		tst r30
 4727 19b0 01F0      		breq .L256
 4728 19b2 E130      		cpi r30,lo8(1)
 4729 19b4 01F0      		breq .L256
 4730 19b6 E230      		cpi r30,lo8(2)
 4731 19b8 01F0      		breq .L256
 4732 19ba E330      		cpi r30,lo8(3)
 4733 19bc 01F0      		breq .+2
 4734 19be 00C0      		rjmp .L255
 4735               	.L256:
 4736               	.LM748:
 4737 19c0 81E0      		ldi r24,lo8(1)
 4738 19c2 0E94 0000 		call _Z8mouseoffh
 4739               	.LVL281:
 4740 19c6 00C0      		rjmp .L334
 4741               	.LVL282:
 4742               	.L323:
 4743               	.LM749:
 4744 19c8 47FF      		sbrs r20,7
 4745 19ca 00C0      		rjmp .L257
 4746               	.LBB694:
 4747               	.LBB695:
 4748               	.LM750:
 4749 19cc 1017      		cp r17,r16
 4750 19ce 00F4      		brsh .+2
 4751 19d0 00C0      		rjmp .L334
 4752               	.LM751:
 4753 19d2 F901      		movw r30,r18
 4754 19d4 E01B      		sub r30,r16
 4755 19d6 F109      		sbc r31,__zero_reg__
 4756 19d8 E050      		subi r30,lo8(-(modeStack))
 4757 19da F040      		sbci r31,hi8(-(modeStack))
 4758 19dc E081      		ld r30,Z
 4759               	.LBE695:
 4760               	.LBE694:
 4761               	.LM752:
 4762 19de EE23      		tst r30
 4763 19e0 01F4      		brne .L258
 4764               	.LM753:
 4765 19e2 8CE2      		ldi r24,lo8(44)
 4766 19e4 0E94 0000 		call _Z8keypressh
 4767               	.LVL283:
 4768               	.LM754:
 4769 19e8 82E0      		ldi r24,lo8(2)
 4770 19ea 0E94 0000 		call _Z10modifieruph
 4771               	.LM755:
 4772 19ee 84E0      		ldi r24,lo8(4)
 4773 19f0 0E94 0000 		call _Z10modifieruph
 4774               	.LM756:
 4775 19f4 81E0      		ldi r24,lo8(1)
 4776 19f6 0E94 0000 		call _Z10modifieruph
 4777 19fa 00C0      		rjmp .L334
 4778               	.LVL284:
 4779               	.L258:
 4780               	.LM757:
 4781 19fc E130      		cpi r30,lo8(1)
 4782 19fe 01F0      		breq .L259
 4783 1a00 E230      		cpi r30,lo8(2)
 4784 1a02 01F0      		breq .L259
 4785 1a04 E330      		cpi r30,lo8(3)
 4786 1a06 01F0      		breq .+2
 4787 1a08 00C0      		rjmp .L199
 4788               	.L259:
 4789               	.LM758:
 4790 1a0a 8AE2      		ldi r24,lo8(42)
 4791 1a0c 0E94 0000 		call _Z8keypressh
 4792               	.LVL285:
 4793               	.LM759:
 4794 1a10 82E0      		ldi r24,lo8(2)
 4795 1a12 0E94 0000 		call _Z10modifieruph
 4796               	.LM760:
 4797 1a16 84E0      		ldi r24,lo8(4)
 4798 1a18 0E94 0000 		call _Z10modifieruph
 4799               	.LM761:
 4800 1a1c 81E0      		ldi r24,lo8(1)
 4801 1a1e 0E94 0000 		call _Z10modifieruph
 4802 1a22 00C0      		rjmp .L334
 4803               	.LVL286:
 4804               	.L257:
 4805               	.LBB696:
 4806               	.LBB697:
 4807               	.LM762:
 4808 1a24 1017      		cp r17,r16
 4809 1a26 00F4      		brsh .+2
 4810 1a28 00C0      		rjmp .L334
 4811               	.LM763:
 4812 1a2a F901      		movw r30,r18
 4813 1a2c E01B      		sub r30,r16
 4814 1a2e F109      		sbc r31,__zero_reg__
 4815 1a30 E050      		subi r30,lo8(-(modeStack))
 4816 1a32 F040      		sbci r31,hi8(-(modeStack))
 4817 1a34 E081      		ld r30,Z
 4818               	.LBE697:
 4819               	.LBE696:
 4820               	.LM764:
 4821 1a36 EE23      		tst r30
 4822 1a38 01F4      		brne .L260
 4823               	.LM765:
 4824 1a3a 8BE0      		ldi r24,lo8(11)
 4825 1a3c 0E94 0000 		call _Z8keypressh
 4826               	.LVL287:
 4827               	.LM766:
 4828 1a40 82E0      		ldi r24,lo8(2)
 4829 1a42 0E94 0000 		call _Z10modifieruph
 4830               	.LM767:
 4831 1a46 84E0      		ldi r24,lo8(4)
 4832 1a48 0E94 0000 		call _Z10modifieruph
 4833               	.LM768:
 4834 1a4c 81E0      		ldi r24,lo8(1)
 4835 1a4e 0E94 0000 		call _Z10modifieruph
 4836 1a52 00C0      		rjmp .L334
 4837               	.LVL288:
 4838               	.L260:
 4839               	.LM769:
 4840 1a54 E130      		cpi r30,lo8(1)
 4841 1a56 01F4      		brne .L261
 4842               	.LM770:
 4843 1a58 81E2      		ldi r24,lo8(33)
 4844 1a5a 0E94 0000 		call _Z8keypressh
 4845               	.LVL289:
 4846               	.LM771:
 4847 1a5e 82E0      		ldi r24,lo8(2)
 4848 1a60 0E94 0000 		call _Z10modifieruph
 4849               	.LM772:
 4850 1a64 84E0      		ldi r24,lo8(4)
 4851 1a66 0E94 0000 		call _Z10modifieruph
 4852               	.LM773:
 4853 1a6a 81E0      		ldi r24,lo8(1)
 4854 1a6c 0E94 0000 		call _Z10modifieruph
 4855 1a70 00C0      		rjmp .L334
 4856               	.LVL290:
 4857               	.L261:
 4858               	.LM774:
 4859 1a72 E230      		cpi r30,lo8(2)
 4860 1a74 01F4      		brne .L262
 4861               	.LM775:
 4862 1a76 82E0      		ldi r24,lo8(2)
 4863 1a78 0E94 0000 		call _Z12modifierdownh
 4864               	.LVL291:
 4865               	.LM776:
 4866 1a7c 86E2      		ldi r24,lo8(38)
 4867 1a7e 0E94 0000 		call _Z8keypressh
 4868               	.LM777:
 4869 1a82 82E0      		ldi r24,lo8(2)
 4870 1a84 0E94 0000 		call _Z10modifieruph
 4871               	.LM778:
 4872 1a88 84E0      		ldi r24,lo8(4)
 4873 1a8a 0E94 0000 		call _Z10modifieruph
 4874               	.LM779:
 4875 1a8e 81E0      		ldi r24,lo8(1)
 4876 1a90 0E94 0000 		call _Z10modifieruph
 4877 1a94 00C0      		rjmp .L334
 4878               	.LVL292:
 4879               	.L262:
 4880               	.LM780:
 4881 1a96 E330      		cpi r30,lo8(3)
 4882 1a98 01F0      		breq .+2
 4883 1a9a 00C0      		rjmp .L199
 4884               	.LM781:
 4885 1a9c 8DE3      		ldi r24,lo8(61)
 4886 1a9e 0E94 0000 		call _Z8keypressh
 4887               	.LVL293:
 4888               	.LM782:
 4889 1aa2 82E0      		ldi r24,lo8(2)
 4890 1aa4 0E94 0000 		call _Z10modifieruph
 4891               	.LM783:
 4892 1aa8 84E0      		ldi r24,lo8(4)
 4893 1aaa 0E94 0000 		call _Z10modifieruph
 4894               	.LM784:
 4895 1aae 81E0      		ldi r24,lo8(1)
 4896 1ab0 0E94 0000 		call _Z10modifieruph
 4897 1ab4 00C0      		rjmp .L334
 4898               	.LVL294:
 4899               	.L339:
 4900               	.LM785:
 4901 1ab6 2196      		adiw r28,61-60
 4902 1ab8 8CAD      		ldd r24,Y+60
 4903 1aba 9DAD      		ldd r25,Y+61
 4904 1abc AEAD      		ldd r26,Y+62
 4905 1abe BFAD      		ldd r27,Y+63
 4906 1ac0 2197      		sbiw r28,61-60
 4907 1ac2 0097      		sbiw r24,0
 4908 1ac4 A105      		cpc r26,__zero_reg__
 4909 1ac6 B105      		cpc r27,__zero_reg__
 4910 1ac8 01F4      		brne .+2
 4911 1aca 00C0      		rjmp .L263
 4912               	.LBB698:
 4913               	.LBB699:
 4914               	.LM786:
 4915 1acc 1017      		cp r17,r16
 4916 1ace 00F4      		brsh .+2
 4917 1ad0 00C0      		rjmp .L334
 4918               	.LM787:
 4919 1ad2 F901      		movw r30,r18
 4920 1ad4 E01B      		sub r30,r16
 4921 1ad6 F109      		sbc r31,__zero_reg__
 4922 1ad8 E050      		subi r30,lo8(-(modeStack))
 4923 1ada F040      		sbci r31,hi8(-(modeStack))
 4924 1adc E081      		ld r30,Z
 4925               	.LBE699:
 4926               	.LBE698:
 4927               	.LM788:
 4928 1ade EE23      		tst r30
 4929 1ae0 01F4      		brne .L264
 4930               	.LM789:
 4931 1ae2 80E1      		ldi r24,lo8(16)
 4932 1ae4 0E94 0000 		call _Z8keypressh
 4933               	.LVL295:
 4934               	.LM790:
 4935 1ae8 82E0      		ldi r24,lo8(2)
 4936 1aea 0E94 0000 		call _Z10modifieruph
 4937               	.LM791:
 4938 1aee 84E0      		ldi r24,lo8(4)
 4939 1af0 0E94 0000 		call _Z10modifieruph
 4940               	.LM792:
 4941 1af4 81E0      		ldi r24,lo8(1)
 4942 1af6 0E94 0000 		call _Z10modifieruph
 4943 1afa 00C0      		rjmp .L334
 4944               	.LVL296:
 4945               	.L264:
 4946               	.LM793:
 4947 1afc E130      		cpi r30,lo8(1)
 4948 1afe 01F4      		brne .L265
 4949               	.LM794:
 4950 1b00 82E2      		ldi r24,lo8(34)
 4951 1b02 0E94 0000 		call _Z8keypressh
 4952               	.LVL297:
 4953               	.LM795:
 4954 1b06 82E0      		ldi r24,lo8(2)
 4955 1b08 0E94 0000 		call _Z10modifieruph
 4956               	.LM796:
 4957 1b0c 84E0      		ldi r24,lo8(4)
 4958 1b0e 0E94 0000 		call _Z10modifieruph
 4959               	.LM797:
 4960 1b12 81E0      		ldi r24,lo8(1)
 4961 1b14 0E94 0000 		call _Z10modifieruph
 4962 1b18 00C0      		rjmp .L334
 4963               	.LVL298:
 4964               	.L265:
 4965               	.LM798:
 4966 1b1a E230      		cpi r30,lo8(2)
 4967 1b1c 01F4      		brne .L266
 4968               	.LM799:
 4969 1b1e 82E0      		ldi r24,lo8(2)
 4970 1b20 0E94 0000 		call _Z12modifierdownh
 4971               	.LVL299:
 4972               	.LM800:
 4973 1b24 87E2      		ldi r24,lo8(39)
 4974 1b26 0E94 0000 		call _Z8keypressh
 4975               	.LM801:
 4976 1b2a 82E0      		ldi r24,lo8(2)
 4977 1b2c 0E94 0000 		call _Z10modifieruph
 4978               	.LM802:
 4979 1b30 84E0      		ldi r24,lo8(4)
 4980 1b32 0E94 0000 		call _Z10modifieruph
 4981               	.LM803:
 4982 1b36 81E0      		ldi r24,lo8(1)
 4983 1b38 0E94 0000 		call _Z10modifieruph
 4984 1b3c 00C0      		rjmp .L334
 4985               	.LVL300:
 4986               	.L266:
 4987               	.LM804:
 4988 1b3e E330      		cpi r30,lo8(3)
 4989 1b40 01F0      		breq .+2
 4990 1b42 00C0      		rjmp .L199
 4991               	.LM805:
 4992 1b44 8EE3      		ldi r24,lo8(62)
 4993 1b46 0E94 0000 		call _Z8keypressh
 4994               	.LVL301:
 4995               	.LM806:
 4996 1b4a 82E0      		ldi r24,lo8(2)
 4997 1b4c 0E94 0000 		call _Z10modifieruph
 4998               	.LM807:
 4999 1b50 84E0      		ldi r24,lo8(4)
 5000 1b52 0E94 0000 		call _Z10modifieruph
 5001               	.LM808:
 5002 1b56 81E0      		ldi r24,lo8(1)
 5003 1b58 0E94 0000 		call _Z10modifieruph
 5004 1b5c 00C0      		rjmp .L334
 5005               	.LVL302:
 5006               	.L263:
 5007               	.LM809:
 5008 1b5e 2596      		adiw r28,65-60
 5009 1b60 8CAD      		ldd r24,Y+60
 5010 1b62 9DAD      		ldd r25,Y+61
 5011 1b64 AEAD      		ldd r26,Y+62
 5012 1b66 BFAD      		ldd r27,Y+63
 5013 1b68 2597      		sbiw r28,65-60
 5014 1b6a 0097      		sbiw r24,0
 5015 1b6c A105      		cpc r26,__zero_reg__
 5016 1b6e B105      		cpc r27,__zero_reg__
 5017 1b70 01F4      		brne .+2
 5018 1b72 00C0      		rjmp .L267
 5019               	.LBB700:
 5020               	.LBB701:
 5021               	.LM810:
 5022 1b74 1017      		cp r17,r16
 5023 1b76 00F4      		brsh .+2
 5024 1b78 00C0      		rjmp .L334
 5025               	.LM811:
 5026 1b7a F901      		movw r30,r18
 5027 1b7c E01B      		sub r30,r16
 5028 1b7e F109      		sbc r31,__zero_reg__
 5029 1b80 E050      		subi r30,lo8(-(modeStack))
 5030 1b82 F040      		sbci r31,hi8(-(modeStack))
 5031 1b84 E081      		ld r30,Z
 5032               	.LBE701:
 5033               	.LBE700:
 5034               	.LM812:
 5035 1b86 EE23      		tst r30
 5036 1b88 01F4      		brne .L268
 5037               	.LM813:
 5038 1b8a 85E0      		ldi r24,lo8(5)
 5039 1b8c 0E94 0000 		call _Z8keypressh
 5040               	.LVL303:
 5041               	.LM814:
 5042 1b90 82E0      		ldi r24,lo8(2)
 5043 1b92 0E94 0000 		call _Z10modifieruph
 5044               	.LM815:
 5045 1b96 84E0      		ldi r24,lo8(4)
 5046 1b98 0E94 0000 		call _Z10modifieruph
 5047               	.LM816:
 5048 1b9c 81E0      		ldi r24,lo8(1)
 5049 1b9e 0E94 0000 		call _Z10modifieruph
 5050 1ba2 00C0      		rjmp .L334
 5051               	.LVL304:
 5052               	.L268:
 5053               	.LM817:
 5054 1ba4 E130      		cpi r30,lo8(1)
 5055 1ba6 01F4      		brne .L269
 5056               	.LM818:
 5057 1ba8 83E2      		ldi r24,lo8(35)
 5058 1baa 0E94 0000 		call _Z8keypressh
 5059               	.LVL305:
 5060               	.LM819:
 5061 1bae 82E0      		ldi r24,lo8(2)
 5062 1bb0 0E94 0000 		call _Z10modifieruph
 5063               	.LM820:
 5064 1bb4 84E0      		ldi r24,lo8(4)
 5065 1bb6 0E94 0000 		call _Z10modifieruph
 5066               	.LM821:
 5067 1bba 81E0      		ldi r24,lo8(1)
 5068 1bbc 0E94 0000 		call _Z10modifieruph
 5069 1bc0 00C0      		rjmp .L334
 5070               	.LVL306:
 5071               	.L269:
 5072               	.LM822:
 5073 1bc2 E230      		cpi r30,lo8(2)
 5074 1bc4 01F4      		brne .L270
 5075               	.LM823:
 5076 1bc6 82E0      		ldi r24,lo8(2)
 5077 1bc8 0E94 0000 		call _Z12modifierdownh
 5078               	.LVL307:
 5079               	.LM824:
 5080 1bcc 88E3      		ldi r24,lo8(56)
 5081 1bce 0E94 0000 		call _Z8keypressh
 5082               	.LM825:
 5083 1bd2 82E0      		ldi r24,lo8(2)
 5084 1bd4 0E94 0000 		call _Z10modifieruph
 5085               	.LM826:
 5086 1bd8 84E0      		ldi r24,lo8(4)
 5087 1bda 0E94 0000 		call _Z10modifieruph
 5088               	.LM827:
 5089 1bde 81E0      		ldi r24,lo8(1)
 5090 1be0 0E94 0000 		call _Z10modifieruph
 5091 1be4 00C0      		rjmp .L334
 5092               	.LVL308:
 5093               	.L270:
 5094               	.LM828:
 5095 1be6 E330      		cpi r30,lo8(3)
 5096 1be8 01F0      		breq .+2
 5097 1bea 00C0      		rjmp .L199
 5098               	.LM829:
 5099 1bec 8FE3      		ldi r24,lo8(63)
 5100 1bee 0E94 0000 		call _Z8keypressh
 5101               	.LVL309:
 5102               	.LM830:
 5103 1bf2 82E0      		ldi r24,lo8(2)
 5104 1bf4 0E94 0000 		call _Z10modifieruph
 5105               	.LM831:
 5106 1bf8 84E0      		ldi r24,lo8(4)
 5107 1bfa 0E94 0000 		call _Z10modifieruph
 5108               	.LM832:
 5109 1bfe 81E0      		ldi r24,lo8(1)
 5110 1c00 0E94 0000 		call _Z10modifieruph
 5111 1c04 00C0      		rjmp .L334
 5112               	.LVL310:
 5113               	.L267:
 5114               	.LM833:
 5115 1c06 2996      		adiw r28,69-60
 5116 1c08 8CAD      		ldd r24,Y+60
 5117 1c0a 9DAD      		ldd r25,Y+61
 5118 1c0c AEAD      		ldd r26,Y+62
 5119 1c0e BFAD      		ldd r27,Y+63
 5120 1c10 2997      		sbiw r28,69-60
 5121 1c12 0097      		sbiw r24,0
 5122 1c14 A105      		cpc r26,__zero_reg__
 5123 1c16 B105      		cpc r27,__zero_reg__
 5124 1c18 01F4      		brne .+2
 5125 1c1a 00C0      		rjmp .L271
 5126               	.LBB702:
 5127               	.LBB703:
 5128               	.LM834:
 5129 1c1c 1017      		cp r17,r16
 5130 1c1e 00F4      		brsh .+2
 5131 1c20 00C0      		rjmp .L334
 5132               	.LM835:
 5133 1c22 F901      		movw r30,r18
 5134 1c24 E01B      		sub r30,r16
 5135 1c26 F109      		sbc r31,__zero_reg__
 5136 1c28 E050      		subi r30,lo8(-(modeStack))
 5137 1c2a F040      		sbci r31,hi8(-(modeStack))
 5138 1c2c E081      		ld r30,Z
 5139               	.LBE703:
 5140               	.LBE702:
 5141               	.LM836:
 5142 1c2e EE23      		tst r30
 5143 1c30 01F4      		brne .L272
 5144               	.LM837:
 5145 1c32 82E1      		ldi r24,lo8(18)
 5146 1c34 0E94 0000 		call _Z8keypressh
 5147               	.LVL311:
 5148               	.LM838:
 5149 1c38 82E0      		ldi r24,lo8(2)
 5150 1c3a 0E94 0000 		call _Z10modifieruph
 5151               	.LM839:
 5152 1c3e 84E0      		ldi r24,lo8(4)
 5153 1c40 0E94 0000 		call _Z10modifieruph
 5154               	.LM840:
 5155 1c44 81E0      		ldi r24,lo8(1)
 5156 1c46 0E94 0000 		call _Z10modifieruph
 5157 1c4a 00C0      		rjmp .L334
 5158               	.LVL312:
 5159               	.L272:
 5160               	.LM841:
 5161 1c4c E130      		cpi r30,lo8(1)
 5162 1c4e 01F4      		brne .L273
 5163               	.LM842:
 5164 1c50 85E5      		ldi r24,lo8(85)
 5165 1c52 0E94 0000 		call _Z8keypressh
 5166               	.LVL313:
 5167               	.LM843:
 5168 1c56 82E0      		ldi r24,lo8(2)
 5169 1c58 0E94 0000 		call _Z10modifieruph
 5170               	.LM844:
 5171 1c5c 84E0      		ldi r24,lo8(4)
 5172 1c5e 0E94 0000 		call _Z10modifieruph
 5173               	.LM845:
 5174 1c62 81E0      		ldi r24,lo8(1)
 5175 1c64 0E94 0000 		call _Z10modifieruph
 5176 1c68 00C0      		rjmp .L334
 5177               	.LVL314:
 5178               	.L273:
 5179               	.LM846:
 5180 1c6a E230      		cpi r30,lo8(2)
 5181 1c6c 01F4      		brne .L274
 5182               	.LM847:
 5183 1c6e 82E0      		ldi r24,lo8(2)
 5184 1c70 0E94 0000 		call _Z12modifierdownh
 5185               	.LVL315:
 5186               	.LM848:
 5187 1c74 8FE2      		ldi r24,lo8(47)
 5188 1c76 0E94 0000 		call _Z8keypressh
 5189               	.LM849:
 5190 1c7a 82E0      		ldi r24,lo8(2)
 5191 1c7c 0E94 0000 		call _Z10modifieruph
 5192               	.LM850:
 5193 1c80 84E0      		ldi r24,lo8(4)
 5194 1c82 0E94 0000 		call _Z10modifieruph
 5195               	.LM851:
 5196 1c86 81E0      		ldi r24,lo8(1)
 5197 1c88 0E94 0000 		call _Z10modifieruph
 5198 1c8c 00C0      		rjmp .L334
 5199               	.LVL316:
 5200               	.L274:
 5201               	.LM852:
 5202 1c8e E330      		cpi r30,lo8(3)
 5203 1c90 01F0      		breq .+2
 5204 1c92 00C0      		rjmp .L199
 5205               	.LM853:
 5206 1c94 8FE7      		ldi r24,lo8(127)
 5207 1c96 0E94 0000 		call _Z8keypressh
 5208               	.LVL317:
 5209               	.LM854:
 5210 1c9a 82E0      		ldi r24,lo8(2)
 5211 1c9c 0E94 0000 		call _Z10modifieruph
 5212               	.LM855:
 5213 1ca0 84E0      		ldi r24,lo8(4)
 5214 1ca2 0E94 0000 		call _Z10modifieruph
 5215               	.LM856:
 5216 1ca6 81E0      		ldi r24,lo8(1)
 5217 1ca8 0E94 0000 		call _Z10modifieruph
 5218 1cac 00C0      		rjmp .L334
 5219               	.LVL318:
 5220               	.L271:
 5221               	.LM857:
 5222 1cae 2D96      		adiw r28,73-60
 5223 1cb0 8CAD      		ldd r24,Y+60
 5224 1cb2 9DAD      		ldd r25,Y+61
 5225 1cb4 AEAD      		ldd r26,Y+62
 5226 1cb6 BFAD      		ldd r27,Y+63
 5227 1cb8 2D97      		sbiw r28,73-60
 5228 1cba 0097      		sbiw r24,0
 5229 1cbc A105      		cpc r26,__zero_reg__
 5230 1cbe B105      		cpc r27,__zero_reg__
 5231 1cc0 01F0      		breq .L275
 5232               	.LBB704:
 5233               	.LBB705:
 5234               	.LM858:
 5235 1cc2 1017      		cp r17,r16
 5236 1cc4 00F4      		brsh .+2
 5237 1cc6 00C0      		rjmp .L334
 5238               	.LM859:
 5239 1cc8 F901      		movw r30,r18
 5240 1cca E01B      		sub r30,r16
 5241 1ccc F109      		sbc r31,__zero_reg__
 5242 1cce E050      		subi r30,lo8(-(modeStack))
 5243 1cd0 F040      		sbci r31,hi8(-(modeStack))
 5244 1cd2 E081      		ld r30,Z
 5245               	.LBE705:
 5246               	.LBE704:
 5247               	.LM860:
 5248 1cd4 EE23      		tst r30
 5249 1cd6 01F4      		brne .L276
 5250               	.LM861:
 5251 1cd8 88E1      		ldi r24,lo8(24)
 5252 1cda 0E94 0000 		call _Z8keypressh
 5253               	.LVL319:
 5254               	.LM862:
 5255 1cde 82E0      		ldi r24,lo8(2)
 5256 1ce0 0E94 0000 		call _Z10modifieruph
 5257               	.LM863:
 5258 1ce4 84E0      		ldi r24,lo8(4)
 5259 1ce6 0E94 0000 		call _Z10modifieruph
 5260               	.LM864:
 5261 1cea 81E0      		ldi r24,lo8(1)
 5262 1cec 0E94 0000 		call _Z10modifieruph
 5263 1cf0 00C0      		rjmp .L334
 5264               	.LVL320:
 5265               	.L276:
 5266               	.LM865:
 5267 1cf2 E130      		cpi r30,lo8(1)
 5268 1cf4 01F4      		brne .L277
 5269               	.LM866:
 5270 1cf6 84E5      		ldi r24,lo8(84)
 5271 1cf8 0E94 0000 		call _Z8keypressh
 5272               	.LVL321:
 5273               	.LM867:
 5274 1cfc 82E0      		ldi r24,lo8(2)
 5275 1cfe 0E94 0000 		call _Z10modifieruph
 5276               	.LM868:
 5277 1d02 84E0      		ldi r24,lo8(4)
 5278 1d04 0E94 0000 		call _Z10modifieruph
 5279               	.LM869:
 5280 1d08 81E0      		ldi r24,lo8(1)
 5281 1d0a 0E94 0000 		call _Z10modifieruph
 5282 1d0e 00C0      		rjmp .L334
 5283               	.LVL322:
 5284               	.L277:
 5285               	.LM870:
 5286 1d10 E230      		cpi r30,lo8(2)
 5287 1d12 01F0      		breq .+2
 5288 1d14 00C0      		rjmp .L199
 5289               	.LM871:
 5290 1d16 82E0      		ldi r24,lo8(2)
 5291 1d18 0E94 0000 		call _Z12modifierdownh
 5292               	.LVL323:
 5293               	.LM872:
 5294 1d1c 80E3      		ldi r24,lo8(48)
 5295 1d1e 0E94 0000 		call _Z8keypressh
 5296               	.LM873:
 5297 1d22 82E0      		ldi r24,lo8(2)
 5298 1d24 0E94 0000 		call _Z10modifieruph
 5299               	.LM874:
 5300 1d28 84E0      		ldi r24,lo8(4)
 5301 1d2a 0E94 0000 		call _Z10modifieruph
 5302               	.LM875:
 5303 1d2e 81E0      		ldi r24,lo8(1)
 5304 1d30 0E94 0000 		call _Z10modifieruph
 5305 1d34 00C0      		rjmp .L334
 5306               	.LVL324:
 5307               	.L275:
 5308               	.LM876:
 5309 1d36 6196      		adiw r28,77-60
 5310 1d38 8CAD      		ldd r24,Y+60
 5311 1d3a 9DAD      		ldd r25,Y+61
 5312 1d3c AEAD      		ldd r26,Y+62
 5313 1d3e BFAD      		ldd r27,Y+63
 5314 1d40 6197      		sbiw r28,77-60
 5315 1d42 0097      		sbiw r24,0
 5316 1d44 A105      		cpc r26,__zero_reg__
 5317 1d46 B105      		cpc r27,__zero_reg__
 5318 1d48 01F0      		breq .L278
 5319               	.LBB706:
 5320               	.LBB707:
 5321               	.LM877:
 5322 1d4a 1017      		cp r17,r16
 5323 1d4c 00F4      		brsh .+2
 5324 1d4e 00C0      		rjmp .L334
 5325               	.LM878:
 5326 1d50 F901      		movw r30,r18
 5327 1d52 E01B      		sub r30,r16
 5328 1d54 F109      		sbc r31,__zero_reg__
 5329 1d56 E050      		subi r30,lo8(-(modeStack))
 5330 1d58 F040      		sbci r31,hi8(-(modeStack))
 5331 1d5a E081      		ld r30,Z
 5332               	.LBE707:
 5333               	.LBE706:
 5334               	.LM879:
 5335 1d5c EE23      		tst r30
 5336 1d5e 01F4      		brne .L279
 5337               	.LM880:
 5338 1d60 87E0      		ldi r24,lo8(7)
 5339 1d62 0E94 0000 		call _Z8keypressh
 5340               	.LVL325:
 5341               	.LM881:
 5342 1d66 82E0      		ldi r24,lo8(2)
 5343 1d68 0E94 0000 		call _Z10modifieruph
 5344               	.LM882:
 5345 1d6c 84E0      		ldi r24,lo8(4)
 5346 1d6e 0E94 0000 		call _Z10modifieruph
 5347               	.LM883:
 5348 1d72 81E0      		ldi r24,lo8(1)
 5349 1d74 0E94 0000 		call _Z10modifieruph
 5350 1d78 00C0      		rjmp .L334
 5351               	.LVL326:
 5352               	.L279:
 5353               	.LM884:
 5354 1d7a E230      		cpi r30,lo8(2)
 5355 1d7c 01F0      		breq .+2
 5356 1d7e 00C0      		rjmp .L199
 5357               	.LM885:
 5358 1d80 82E0      		ldi r24,lo8(2)
 5359 1d82 0E94 0000 		call _Z12modifierdownh
 5360               	.LVL327:
 5361               	.LM886:
 5362 1d86 8EE1      		ldi r24,lo8(30)
 5363 1d88 0E94 0000 		call _Z8keypressh
 5364               	.LM887:
 5365 1d8c 82E0      		ldi r24,lo8(2)
 5366 1d8e 0E94 0000 		call _Z10modifieruph
 5367               	.LM888:
 5368 1d92 84E0      		ldi r24,lo8(4)
 5369 1d94 0E94 0000 		call _Z10modifieruph
 5370               	.LM889:
 5371 1d98 81E0      		ldi r24,lo8(1)
 5372 1d9a 0E94 0000 		call _Z10modifieruph
 5373 1d9e 00C0      		rjmp .L334
 5374               	.LVL328:
 5375               	.L278:
 5376               	.LM890:
 5377 1da0 6596      		adiw r28,81-60
 5378 1da2 8CAD      		ldd r24,Y+60
 5379 1da4 9DAD      		ldd r25,Y+61
 5380 1da6 AEAD      		ldd r26,Y+62
 5381 1da8 BFAD      		ldd r27,Y+63
 5382 1daa 6597      		sbiw r28,81-60
 5383 1dac 0097      		sbiw r24,0
 5384 1dae A105      		cpc r26,__zero_reg__
 5385 1db0 B105      		cpc r27,__zero_reg__
 5386 1db2 01F4      		brne .+2
 5387 1db4 00C0      		rjmp .L280
 5388               	.LBB708:
 5389               	.LBB709:
 5390               	.LM891:
 5391 1db6 1017      		cp r17,r16
 5392 1db8 00F4      		brsh .+2
 5393 1dba 00C0      		rjmp .L280
 5394               	.LBE709:
 5395               	.LBE708:
 5396               	.LM892:
 5397 1dbc F901      		movw r30,r18
 5398 1dbe E01B      		sub r30,r16
 5399 1dc0 F109      		sbc r31,__zero_reg__
 5400 1dc2 E050      		subi r30,lo8(-(modeStack))
 5401 1dc4 F040      		sbci r31,hi8(-(modeStack))
 5402 1dc6 8081      		ld r24,Z
 5403 1dc8 8823      		tst r24
 5404 1dca 01F0      		breq .+2
 5405 1dcc 00C0      		rjmp .L280
 5406               	.LM893:
 5407 1dce 8DE0      		ldi r24,lo8(13)
 5408 1dd0 0E94 0000 		call _Z8keypressh
 5409               	.LVL329:
 5410               	.LM894:
 5411 1dd4 82E0      		ldi r24,lo8(2)
 5412 1dd6 0E94 0000 		call _Z10modifieruph
 5413               	.LM895:
 5414 1dda 84E0      		ldi r24,lo8(4)
 5415 1ddc 0E94 0000 		call _Z10modifieruph
 5416               	.LM896:
 5417 1de0 81E0      		ldi r24,lo8(1)
 5418 1de2 0E94 0000 		call _Z10modifieruph
 5419 1de6 00C0      		rjmp .L334
 5420               	.LVL330:
 5421               	.L325:
 5422               	.LBB710:
 5423               	.LBB711:
 5424               	.LM897:
 5425 1de8 1017      		cp r17,r16
 5426 1dea 00F4      		brsh .+2
 5427 1dec 00C0      		rjmp .L281
 5428               	.LM898:
 5429 1dee F901      		movw r30,r18
 5430 1df0 E01B      		sub r30,r16
 5431 1df2 F109      		sbc r31,__zero_reg__
 5432 1df4 E050      		subi r30,lo8(-(modeStack))
 5433 1df6 F040      		sbci r31,hi8(-(modeStack))
 5434 1df8 E081      		ld r30,Z
 5435               	.LBE711:
 5436               	.LBE710:
 5437               	.LM899:
 5438 1dfa EE23      		tst r30
 5439 1dfc 01F0      		breq .L282
 5440 1dfe E130      		cpi r30,lo8(1)
 5441 1e00 01F0      		breq .L282
 5442 1e02 E230      		cpi r30,lo8(2)
 5443 1e04 01F0      		breq .L282
 5444 1e06 E330      		cpi r30,lo8(3)
 5445 1e08 01F0      		breq .+2
 5446 1e0a 00C0      		rjmp .L281
 5447               	.L282:
 5448               	.LM900:
 5449 1e0c 80E0      		ldi r24,lo8(0)
 5450 1e0e 0E94 0000 		call _Z8mouseoffh
 5451               	.LVL331:
 5452 1e12 00C0      		rjmp .L334
 5453               	.LVL332:
 5454               	.L326:
 5455               	.LBB712:
 5456               	.LBB713:
 5457               	.LM901:
 5458 1e14 1017      		cp r17,r16
 5459 1e16 00F4      		brsh .+2
 5460 1e18 00C0      		rjmp .L334
 5461               	.LM902:
 5462 1e1a F901      		movw r30,r18
 5463 1e1c E01B      		sub r30,r16
 5464 1e1e F109      		sbc r31,__zero_reg__
 5465 1e20 E050      		subi r30,lo8(-(modeStack))
 5466 1e22 F040      		sbci r31,hi8(-(modeStack))
 5467 1e24 E081      		ld r30,Z
 5468               	.LBE713:
 5469               	.LBE712:
 5470               	.LM903:
 5471 1e26 EE23      		tst r30
 5472 1e28 01F4      		brne .L283
 5473               	.LM904:
 5474 1e2a 84E0      		ldi r24,lo8(4)
 5475 1e2c 0E94 0000 		call _Z8keypressh
 5476               	.LVL333:
 5477               	.LM905:
 5478 1e30 82E0      		ldi r24,lo8(2)
 5479 1e32 0E94 0000 		call _Z10modifieruph
 5480               	.LM906:
 5481 1e36 84E0      		ldi r24,lo8(4)
 5482 1e38 0E94 0000 		call _Z10modifieruph
 5483               	.LM907:
 5484 1e3c 81E0      		ldi r24,lo8(1)
 5485 1e3e 0E94 0000 		call _Z10modifieruph
 5486 1e42 00C0      		rjmp .L334
 5487               	.LVL334:
 5488               	.L283:
 5489               	.LM908:
 5490 1e44 E130      		cpi r30,lo8(1)
 5491 1e46 01F4      		brne .L284
 5492               	.LM909:
 5493 1e48 87E5      		ldi r24,lo8(87)
 5494 1e4a 0E94 0000 		call _Z8keypressh
 5495               	.LVL335:
 5496               	.LM910:
 5497 1e4e 82E0      		ldi r24,lo8(2)
 5498 1e50 0E94 0000 		call _Z10modifieruph
 5499               	.LM911:
 5500 1e54 84E0      		ldi r24,lo8(4)
 5501 1e56 0E94 0000 		call _Z10modifieruph
 5502               	.LM912:
 5503 1e5a 81E0      		ldi r24,lo8(1)
 5504 1e5c 0E94 0000 		call _Z10modifieruph
 5505 1e60 00C0      		rjmp .L334
 5506               	.LVL336:
 5507               	.L284:
 5508               	.LM913:
 5509 1e62 E230      		cpi r30,lo8(2)
 5510 1e64 01F0      		breq .+2
 5511 1e66 00C0      		rjmp .L199
 5512               	.LM914:
 5513 1e68 82E0      		ldi r24,lo8(2)
 5514 1e6a 0E94 0000 		call _Z12modifierdownh
 5515               	.LVL337:
 5516               	.LM915:
 5517 1e6e 84E3      		ldi r24,lo8(52)
 5518 1e70 0E94 0000 		call _Z8keypressh
 5519               	.LM916:
 5520 1e74 82E0      		ldi r24,lo8(2)
 5521 1e76 0E94 0000 		call _Z10modifieruph
 5522               	.LM917:
 5523 1e7a 84E0      		ldi r24,lo8(4)
 5524 1e7c 0E94 0000 		call _Z10modifieruph
 5525               	.LM918:
 5526 1e80 81E0      		ldi r24,lo8(1)
 5527 1e82 0E94 0000 		call _Z10modifieruph
 5528 1e86 00C0      		rjmp .L334
 5529               	.LVL338:
 5530               	.L340:
 5531               	.LM919:
 5532 1e88 47FF      		sbrs r20,7
 5533 1e8a 00C0      		rjmp .L285
 5534               	.LBB714:
 5535               	.LBB715:
 5536               	.LM920:
 5537 1e8c 1017      		cp r17,r16
 5538 1e8e 00F4      		brsh .+2
 5539 1e90 00C0      		rjmp .L334
 5540               	.LM921:
 5541 1e92 F901      		movw r30,r18
 5542 1e94 E01B      		sub r30,r16
 5543 1e96 F109      		sbc r31,__zero_reg__
 5544 1e98 E050      		subi r30,lo8(-(modeStack))
 5545 1e9a F040      		sbci r31,hi8(-(modeStack))
 5546 1e9c E081      		ld r30,Z
 5547               	.LBE715:
 5548               	.LBE714:
 5549               	.LM922:
 5550 1e9e EE23      		tst r30
 5551 1ea0 01F4      		brne .L286
 5552               	.LM923:
 5553 1ea2 85E1      		ldi r24,lo8(21)
 5554 1ea4 0E94 0000 		call _Z8keypressh
 5555               	.LVL339:
 5556               	.LM924:
 5557 1ea8 82E0      		ldi r24,lo8(2)
 5558 1eaa 0E94 0000 		call _Z10modifieruph
 5559               	.LM925:
 5560 1eae 84E0      		ldi r24,lo8(4)
 5561 1eb0 0E94 0000 		call _Z10modifieruph
 5562               	.LM926:
 5563 1eb4 81E0      		ldi r24,lo8(1)
 5564 1eb6 0E94 0000 		call _Z10modifieruph
 5565 1eba 00C0      		rjmp .L334
 5566               	.LVL340:
 5567               	.L286:
 5568               	.LM927:
 5569 1ebc E130      		cpi r30,lo8(1)
 5570 1ebe 01F4      		brne .L287
 5571               	.LM928:
 5572 1ec0 8EE1      		ldi r24,lo8(30)
 5573 1ec2 0E94 0000 		call _Z8keypressh
 5574               	.LVL341:
 5575               	.LM929:
 5576 1ec6 82E0      		ldi r24,lo8(2)
 5577 1ec8 0E94 0000 		call _Z10modifieruph
 5578               	.LM930:
 5579 1ecc 84E0      		ldi r24,lo8(4)
 5580 1ece 0E94 0000 		call _Z10modifieruph
 5581               	.LM931:
 5582 1ed2 81E0      		ldi r24,lo8(1)
 5583 1ed4 0E94 0000 		call _Z10modifieruph
 5584 1ed8 00C0      		rjmp .L334
 5585               	.LVL342:
 5586               	.L287:
 5587               	.LM932:
 5588 1eda E230      		cpi r30,lo8(2)
 5589 1edc 01F4      		brne .L288
 5590               	.LM933:
 5591 1ede 87E3      		ldi r24,lo8(55)
 5592 1ee0 0E94 0000 		call _Z8keypressh
 5593               	.LVL343:
 5594               	.LM934:
 5595 1ee4 82E0      		ldi r24,lo8(2)
 5596 1ee6 0E94 0000 		call _Z10modifieruph
 5597               	.LM935:
 5598 1eea 84E0      		ldi r24,lo8(4)
 5599 1eec 0E94 0000 		call _Z10modifieruph
 5600               	.LM936:
 5601 1ef0 81E0      		ldi r24,lo8(1)
 5602 1ef2 0E94 0000 		call _Z10modifieruph
 5603 1ef6 00C0      		rjmp .L334
 5604               	.LVL344:
 5605               	.L288:
 5606               	.LM937:
 5607 1ef8 E330      		cpi r30,lo8(3)
 5608 1efa 01F0      		breq .+2
 5609 1efc 00C0      		rjmp .L199
 5610               	.LM938:
 5611 1efe 8AE3      		ldi r24,lo8(58)
 5612 1f00 0E94 0000 		call _Z8keypressh
 5613               	.LVL345:
 5614               	.LM939:
 5615 1f04 82E0      		ldi r24,lo8(2)
 5616 1f06 0E94 0000 		call _Z10modifieruph
 5617               	.LM940:
 5618 1f0a 84E0      		ldi r24,lo8(4)
 5619 1f0c 0E94 0000 		call _Z10modifieruph
 5620               	.LM941:
 5621 1f10 81E0      		ldi r24,lo8(1)
 5622 1f12 0E94 0000 		call _Z10modifieruph
 5623 1f16 00C0      		rjmp .L334
 5624               	.LVL346:
 5625               	.L285:
 5626               	.LM942:
 5627 1f18 4114      		cp r4,__zero_reg__
 5628 1f1a 5104      		cpc r5,__zero_reg__
 5629 1f1c 6104      		cpc r6,__zero_reg__
 5630 1f1e 7104      		cpc r7,__zero_reg__
 5631 1f20 01F4      		brne .+2
 5632 1f22 00C0      		rjmp .L289
 5633               	.LBB716:
 5634               	.LBB717:
 5635               	.LM943:
 5636 1f24 1017      		cp r17,r16
 5637 1f26 00F4      		brsh .+2
 5638 1f28 00C0      		rjmp .L334
 5639               	.LM944:
 5640 1f2a F901      		movw r30,r18
 5641 1f2c E01B      		sub r30,r16
 5642 1f2e F109      		sbc r31,__zero_reg__
 5643 1f30 E050      		subi r30,lo8(-(modeStack))
 5644 1f32 F040      		sbci r31,hi8(-(modeStack))
 5645 1f34 E081      		ld r30,Z
 5646               	.LBE717:
 5647               	.LBE716:
 5648               	.LM945:
 5649 1f36 EE23      		tst r30
 5650 1f38 01F4      		brne .L290
 5651               	.LM946:
 5652 1f3a 81E1      		ldi r24,lo8(17)
 5653 1f3c 0E94 0000 		call _Z8keypressh
 5654               	.LVL347:
 5655               	.LM947:
 5656 1f40 82E0      		ldi r24,lo8(2)
 5657 1f42 0E94 0000 		call _Z10modifieruph
 5658               	.LM948:
 5659 1f46 84E0      		ldi r24,lo8(4)
 5660 1f48 0E94 0000 		call _Z10modifieruph
 5661               	.LM949:
 5662 1f4c 81E0      		ldi r24,lo8(1)
 5663 1f4e 0E94 0000 		call _Z10modifieruph
 5664 1f52 00C0      		rjmp .L334
 5665               	.LVL348:
 5666               	.L290:
 5667               	.LM950:
 5668 1f54 E130      		cpi r30,lo8(1)
 5669 1f56 01F4      		brne .L291
 5670               	.LM951:
 5671 1f58 8FE1      		ldi r24,lo8(31)
 5672 1f5a 0E94 0000 		call _Z8keypressh
 5673               	.LVL349:
 5674               	.LM952:
 5675 1f5e 82E0      		ldi r24,lo8(2)
 5676 1f60 0E94 0000 		call _Z10modifieruph
 5677               	.LM953:
 5678 1f64 84E0      		ldi r24,lo8(4)
 5679 1f66 0E94 0000 		call _Z10modifieruph
 5680               	.LM954:
 5681 1f6a 81E0      		ldi r24,lo8(1)
 5682 1f6c 0E94 0000 		call _Z10modifieruph
 5683 1f70 00C0      		rjmp .L334
 5684               	.LVL350:
 5685               	.L291:
 5686               	.LM955:
 5687 1f72 E230      		cpi r30,lo8(2)
 5688 1f74 01F4      		brne .L292
 5689               	.LM956:
 5690 1f76 86E3      		ldi r24,lo8(54)
 5691 1f78 0E94 0000 		call _Z8keypressh
 5692               	.LVL351:
 5693               	.LM957:
 5694 1f7c 82E0      		ldi r24,lo8(2)
 5695 1f7e 0E94 0000 		call _Z10modifieruph
 5696               	.LM958:
 5697 1f82 84E0      		ldi r24,lo8(4)
 5698 1f84 0E94 0000 		call _Z10modifieruph
 5699               	.LM959:
 5700 1f88 81E0      		ldi r24,lo8(1)
 5701 1f8a 0E94 0000 		call _Z10modifieruph
 5702 1f8e 00C0      		rjmp .L334
 5703               	.LVL352:
 5704               	.L292:
 5705               	.LM960:
 5706 1f90 E330      		cpi r30,lo8(3)
 5707 1f92 01F0      		breq .+2
 5708 1f94 00C0      		rjmp .L199
 5709               	.LM961:
 5710 1f96 8BE3      		ldi r24,lo8(59)
 5711 1f98 0E94 0000 		call _Z8keypressh
 5712               	.LVL353:
 5713               	.LM962:
 5714 1f9c 82E0      		ldi r24,lo8(2)
 5715 1f9e 0E94 0000 		call _Z10modifieruph
 5716               	.LM963:
 5717 1fa2 84E0      		ldi r24,lo8(4)
 5718 1fa4 0E94 0000 		call _Z10modifieruph
 5719               	.LM964:
 5720 1fa8 81E0      		ldi r24,lo8(1)
 5721 1faa 0E94 0000 		call _Z10modifieruph
 5722 1fae 00C0      		rjmp .L334
 5723               	.LVL354:
 5724               	.L289:
 5725               	.LM965:
 5726 1fb0 6D96      		adiw r28,89-60
 5727 1fb2 8CAD      		ldd r24,Y+60
 5728 1fb4 9DAD      		ldd r25,Y+61
 5729 1fb6 AEAD      		ldd r26,Y+62
 5730 1fb8 BFAD      		ldd r27,Y+63
 5731 1fba 6D97      		sbiw r28,89-60
 5732 1fbc 0097      		sbiw r24,0
 5733 1fbe A105      		cpc r26,__zero_reg__
 5734 1fc0 B105      		cpc r27,__zero_reg__
 5735 1fc2 01F4      		brne .+2
 5736 1fc4 00C0      		rjmp .L293
 5737               	.LBB718:
 5738               	.LBB719:
 5739               	.LM966:
 5740 1fc6 1017      		cp r17,r16
 5741 1fc8 00F4      		brsh .+2
 5742 1fca 00C0      		rjmp .L334
 5743               	.LM967:
 5744 1fcc F901      		movw r30,r18
 5745 1fce E01B      		sub r30,r16
 5746 1fd0 F109      		sbc r31,__zero_reg__
 5747 1fd2 E050      		subi r30,lo8(-(modeStack))
 5748 1fd4 F040      		sbci r31,hi8(-(modeStack))
 5749 1fd6 E081      		ld r30,Z
 5750               	.LBE719:
 5751               	.LBE718:
 5752               	.LM968:
 5753 1fd8 EE23      		tst r30
 5754 1fda 01F4      		brne .L294
 5755               	.LM969:
 5756 1fdc 89E0      		ldi r24,lo8(9)
 5757 1fde 0E94 0000 		call _Z8keypressh
 5758               	.LVL355:
 5759               	.LM970:
 5760 1fe2 82E0      		ldi r24,lo8(2)
 5761 1fe4 0E94 0000 		call _Z10modifieruph
 5762               	.LM971:
 5763 1fe8 84E0      		ldi r24,lo8(4)
 5764 1fea 0E94 0000 		call _Z10modifieruph
 5765               	.LM972:
 5766 1fee 81E0      		ldi r24,lo8(1)
 5767 1ff0 0E94 0000 		call _Z10modifieruph
 5768 1ff4 00C0      		rjmp .L334
 5769               	.LVL356:
 5770               	.L294:
 5771               	.LM973:
 5772 1ff6 E130      		cpi r30,lo8(1)
 5773 1ff8 01F4      		brne .L295
 5774               	.LM974:
 5775 1ffa 80E2      		ldi r24,lo8(32)
 5776 1ffc 0E94 0000 		call _Z8keypressh
 5777               	.LVL357:
 5778               	.LM975:
 5779 2000 82E0      		ldi r24,lo8(2)
 5780 2002 0E94 0000 		call _Z10modifieruph
 5781               	.LM976:
 5782 2006 84E0      		ldi r24,lo8(4)
 5783 2008 0E94 0000 		call _Z10modifieruph
 5784               	.LM977:
 5785 200c 81E0      		ldi r24,lo8(1)
 5786 200e 0E94 0000 		call _Z10modifieruph
 5787 2012 00C0      		rjmp .L334
 5788               	.LVL358:
 5789               	.L295:
 5790               	.LM978:
 5791 2014 E230      		cpi r30,lo8(2)
 5792 2016 01F4      		brne .L296
 5793               	.LM979:
 5794 2018 82E0      		ldi r24,lo8(2)
 5795 201a 0E94 0000 		call _Z12modifierdownh
 5796               	.LVL359:
 5797               	.LM980:
 5798 201e 8FE1      		ldi r24,lo8(31)
 5799 2020 0E94 0000 		call _Z8keypressh
 5800               	.LM981:
 5801 2024 82E0      		ldi r24,lo8(2)
 5802 2026 0E94 0000 		call _Z10modifieruph
 5803               	.LM982:
 5804 202a 84E0      		ldi r24,lo8(4)
 5805 202c 0E94 0000 		call _Z10modifieruph
 5806               	.LM983:
 5807 2030 81E0      		ldi r24,lo8(1)
 5808 2032 0E94 0000 		call _Z10modifieruph
 5809 2036 00C0      		rjmp .L334
 5810               	.LVL360:
 5811               	.L296:
 5812               	.LM984:
 5813 2038 E330      		cpi r30,lo8(3)
 5814 203a 01F0      		breq .+2
 5815 203c 00C0      		rjmp .L199
 5816               	.LM985:
 5817 203e 8CE3      		ldi r24,lo8(60)
 5818 2040 0E94 0000 		call _Z8keypressh
 5819               	.LVL361:
 5820               	.LM986:
 5821 2044 82E0      		ldi r24,lo8(2)
 5822 2046 0E94 0000 		call _Z10modifieruph
 5823               	.LM987:
 5824 204a 84E0      		ldi r24,lo8(4)
 5825 204c 0E94 0000 		call _Z10modifieruph
 5826               	.LM988:
 5827 2050 81E0      		ldi r24,lo8(1)
 5828 2052 0E94 0000 		call _Z10modifieruph
 5829 2056 00C0      		rjmp .L334
 5830               	.LVL362:
 5831               	.L293:
 5832               	.LM989:
 5833 2058 54FF      		sbrs r21,4
 5834 205a 00C0      		rjmp .L297
 5835               	.LBB720:
 5836               	.LBB721:
 5837               	.LM990:
 5838 205c 1017      		cp r17,r16
 5839 205e 00F4      		brsh .+2
 5840 2060 00C0      		rjmp .L334
 5841               	.LM991:
 5842 2062 F901      		movw r30,r18
 5843 2064 E01B      		sub r30,r16
 5844 2066 F109      		sbc r31,__zero_reg__
 5845 2068 E050      		subi r30,lo8(-(modeStack))
 5846 206a F040      		sbci r31,hi8(-(modeStack))
 5847 206c E081      		ld r30,Z
 5848               	.LBE721:
 5849               	.LBE720:
 5850               	.LM992:
 5851 206e EE23      		tst r30
 5852 2070 01F4      		brne .L298
 5853               	.LM993:
 5854 2072 88E0      		ldi r24,lo8(8)
 5855 2074 0E94 0000 		call _Z8keypressh
 5856               	.LVL363:
 5857               	.LM994:
 5858 2078 82E0      		ldi r24,lo8(2)
 5859 207a 0E94 0000 		call _Z10modifieruph
 5860               	.LM995:
 5861 207e 84E0      		ldi r24,lo8(4)
 5862 2080 0E94 0000 		call _Z10modifieruph
 5863               	.LM996:
 5864 2084 81E0      		ldi r24,lo8(1)
 5865 2086 0E94 0000 		call _Z10modifieruph
 5866 208a 00C0      		rjmp .L334
 5867               	.LVL364:
 5868               	.L298:
 5869               	.LM997:
 5870 208c E130      		cpi r30,lo8(1)
 5871 208e 01F4      		brne .L299
 5872               	.LM998:
 5873 2090 86E5      		ldi r24,lo8(86)
 5874 2092 0E94 0000 		call _Z8keypressh
 5875               	.LVL365:
 5876               	.LM999:
 5877 2096 82E0      		ldi r24,lo8(2)
 5878 2098 0E94 0000 		call _Z10modifieruph
 5879               	.LM1000:
 5880 209c 84E0      		ldi r24,lo8(4)
 5881 209e 0E94 0000 		call _Z10modifieruph
 5882               	.LM1001:
 5883 20a2 81E0      		ldi r24,lo8(1)
 5884 20a4 0E94 0000 		call _Z10modifieruph
 5885 20a8 00C0      		rjmp .L334
 5886               	.LVL366:
 5887               	.L299:
 5888               	.LM1002:
 5889 20aa E230      		cpi r30,lo8(2)
 5890 20ac 01F4      		brne .L300
 5891               	.LM1003:
 5892 20ae 84E3      		ldi r24,lo8(52)
 5893 20b0 0E94 0000 		call _Z8keypressh
 5894               	.LVL367:
 5895               	.LM1004:
 5896 20b4 82E0      		ldi r24,lo8(2)
 5897 20b6 0E94 0000 		call _Z10modifieruph
 5898               	.LM1005:
 5899 20ba 84E0      		ldi r24,lo8(4)
 5900 20bc 0E94 0000 		call _Z10modifieruph
 5901               	.LM1006:
 5902 20c0 81E0      		ldi r24,lo8(1)
 5903 20c2 0E94 0000 		call _Z10modifieruph
 5904 20c6 00C0      		rjmp .L334
 5905               	.LVL368:
 5906               	.L300:
 5907               	.LM1007:
 5908 20c8 E330      		cpi r30,lo8(3)
 5909 20ca 01F0      		breq .+2
 5910 20cc 00C0      		rjmp .L199
 5911               	.LM1008:
 5912 20ce 88E0      		ldi r24,lo8(8)
 5913 20d0 0E94 0000 		call _Z13modifierpressh
 5914               	.LVL369:
 5915 20d4 00C0      		rjmp .L334
 5916               	.LVL370:
 5917               	.L297:
 5918               	.LM1009:
 5919 20d6 56FF      		sbrs r21,6
 5920 20d8 00C0      		rjmp .L301
 5921               	.LBB722:
 5922               	.LBB723:
 5923               	.LM1010:
 5924 20da 1017      		cp r17,r16
 5925 20dc 00F4      		brsh .+2
 5926 20de 00C0      		rjmp .L334
 5927               	.LM1011:
 5928 20e0 F901      		movw r30,r18
 5929 20e2 E01B      		sub r30,r16
 5930 20e4 F109      		sbc r31,__zero_reg__
 5931 20e6 E050      		subi r30,lo8(-(modeStack))
 5932 20e8 F040      		sbci r31,hi8(-(modeStack))
 5933 20ea E081      		ld r30,Z
 5934               	.LBE723:
 5935               	.LBE722:
 5936               	.LM1012:
 5937 20ec EE23      		tst r30
 5938 20ee 01F4      		brne .L302
 5939               	.LM1013:
 5940 20f0 8CE0      		ldi r24,lo8(12)
 5941 20f2 0E94 0000 		call _Z8keypressh
 5942               	.LVL371:
 5943               	.LM1014:
 5944 20f6 82E0      		ldi r24,lo8(2)
 5945 20f8 0E94 0000 		call _Z10modifieruph
 5946               	.LM1015:
 5947 20fc 84E0      		ldi r24,lo8(4)
 5948 20fe 0E94 0000 		call _Z10modifieruph
 5949               	.LM1016:
 5950 2102 81E0      		ldi r24,lo8(1)
 5951 2104 0E94 0000 		call _Z10modifieruph
 5952 2108 00C0      		rjmp .L334
 5953               	.LVL372:
 5954               	.L302:
 5955               	.LM1017:
 5956 210a E230      		cpi r30,lo8(2)
 5957 210c 01F4      		brne .L303
 5958               	.LM1018:
 5959 210e 82E0      		ldi r24,lo8(2)
 5960 2110 0E94 0000 		call _Z12modifierdownh
 5961               	.LVL373:
 5962               	.LM1019:
 5963 2114 84E2      		ldi r24,lo8(36)
 5964 2116 0E94 0000 		call _Z8keypressh
 5965               	.LM1020:
 5966 211a 82E0      		ldi r24,lo8(2)
 5967 211c 0E94 0000 		call _Z10modifieruph
 5968               	.LM1021:
 5969 2120 84E0      		ldi r24,lo8(4)
 5970 2122 0E94 0000 		call _Z10modifieruph
 5971               	.LM1022:
 5972 2126 81E0      		ldi r24,lo8(1)
 5973 2128 0E94 0000 		call _Z10modifieruph
 5974 212c 00C0      		rjmp .L334
 5975               	.LVL374:
 5976               	.L303:
 5977               	.LM1023:
 5978 212e E330      		cpi r30,lo8(3)
 5979 2130 01F0      		breq .+2
 5980 2132 00C0      		rjmp .L199
 5981               	.LM1024:
 5982 2134 85E6      		ldi r24,lo8(101)
 5983 2136 0E94 0000 		call _Z8keypressh
 5984               	.LVL375:
 5985               	.LM1025:
 5986 213a 82E0      		ldi r24,lo8(2)
 5987 213c 0E94 0000 		call _Z10modifieruph
 5988               	.LM1026:
 5989 2140 84E0      		ldi r24,lo8(4)
 5990 2142 0E94 0000 		call _Z10modifieruph
 5991               	.LM1027:
 5992 2146 81E0      		ldi r24,lo8(1)
 5993 2148 0E94 0000 		call _Z10modifieruph
 5994 214c 00C0      		rjmp .L334
 5995               	.LVL376:
 5996               	.L301:
 5997               	.LM1028:
 5998 214e CA01      		movw r24,r20
 5999               	.LVL377:
 6000 2150 8070      		andi r24,lo8(-32768)
 6001 2152 9078      		andi r25,hi8(-32768)
 6002 2154 892B      		or r24,r25
 6003 2156 01F0      		breq .L304
 6004               	.LBB724:
 6005               	.LBB725:
 6006               	.LM1029:
 6007 2158 1017      		cp r17,r16
 6008 215a 00F4      		brsh .+2
 6009 215c 00C0      		rjmp .L334
 6010               	.LM1030:
 6011 215e F901      		movw r30,r18
 6012 2160 E01B      		sub r30,r16
 6013 2162 F109      		sbc r31,__zero_reg__
 6014 2164 E050      		subi r30,lo8(-(modeStack))
 6015 2166 F040      		sbci r31,hi8(-(modeStack))
 6016 2168 E081      		ld r30,Z
 6017               	.LBE725:
 6018               	.LBE724:
 6019               	.LM1031:
 6020 216a EE23      		tst r30
 6021 216c 01F0      		breq .L305
 6022 216e E130      		cpi r30,lo8(1)
 6023 2170 01F0      		breq .L305
 6024 2172 E230      		cpi r30,lo8(2)
 6025 2174 01F4      		brne .L306
 6026               	.L305:
 6027               	.LM1032:
 6028 2176 83E0      		ldi r24,lo8(3)
 6029 2178 0E94 0000 		call _Z7setmodeh
 6030               	.LVL378:
 6031 217c 00C0      		rjmp .L334
 6032               	.LVL379:
 6033               	.L306:
 6034               	.LM1033:
 6035 217e E330      		cpi r30,lo8(3)
 6036 2180 01F0      		breq .+2
 6037 2182 00C0      		rjmp .L199
 6038               	.LM1034:
 6039 2184 80E0      		ldi r24,lo8(0)
 6040 2186 0E94 0000 		call _Z7setmodeh
 6041               	.LVL380:
 6042 218a 00C0      		rjmp .L334
 6043               	.LVL381:
 6044               	.L304:
 6045               	.LM1035:
 6046 218c 60FF      		sbrs r22,0
 6047 218e 00C0      		rjmp .L307
 6048               	.LVL382:
 6049               	.LBB726:
 6050               	.LBB727:
 6051               	.LM1036:
 6052 2190 1017      		cp r17,r16
 6053 2192 00F4      		brsh .+2
 6054 2194 00C0      		rjmp .L334
 6055               	.LM1037:
 6056 2196 F901      		movw r30,r18
 6057 2198 E01B      		sub r30,r16
 6058 219a F109      		sbc r31,__zero_reg__
 6059 219c E050      		subi r30,lo8(-(modeStack))
 6060 219e F040      		sbci r31,hi8(-(modeStack))
 6061 21a0 E081      		ld r30,Z
 6062               	.LBE727:
 6063               	.LBE726:
 6064               	.LM1038:
 6065 21a2 EE23      		tst r30
 6066 21a4 01F0      		breq .L308
 6067 21a6 E130      		cpi r30,lo8(1)
 6068 21a8 01F0      		breq .L308
 6069 21aa E330      		cpi r30,lo8(3)
 6070 21ac 01F4      		brne .L309
 6071               	.L308:
 6072               	.LM1039:
 6073 21ae 82E0      		ldi r24,lo8(2)
 6074 21b0 0E94 0000 		call _Z7setmodeh
 6075               	.LVL383:
 6076 21b4 00C0      		rjmp .L334
 6077               	.LVL384:
 6078               	.L309:
 6079               	.LM1040:
 6080 21b6 E230      		cpi r30,lo8(2)
 6081 21b8 01F0      		breq .+2
 6082 21ba 00C0      		rjmp .L199
 6083               	.LM1041:
 6084 21bc 80E0      		ldi r24,lo8(0)
 6085 21be 0E94 0000 		call _Z7setmodeh
 6086               	.LVL385:
 6087 21c2 00C0      		rjmp .L334
 6088               	.LVL386:
 6089               	.L307:
 6090               	.LM1042:
 6091 21c4 61FF      		sbrs r22,1
 6092 21c6 00C0      		rjmp .L310
 6093               	.LBB728:
 6094               	.LBB729:
 6095               	.LM1043:
 6096 21c8 1017      		cp r17,r16
 6097 21ca 00F4      		brsh .+2
 6098 21cc 00C0      		rjmp .L334
 6099               	.LM1044:
 6100 21ce F901      		movw r30,r18
 6101 21d0 E01B      		sub r30,r16
 6102 21d2 F109      		sbc r31,__zero_reg__
 6103 21d4 E050      		subi r30,lo8(-(modeStack))
 6104 21d6 F040      		sbci r31,hi8(-(modeStack))
 6105 21d8 E081      		ld r30,Z
 6106               	.LBE729:
 6107               	.LBE728:
 6108               	.LM1045:
 6109 21da EE23      		tst r30
 6110 21dc 01F0      		breq .L311
 6111 21de E230      		cpi r30,lo8(2)
 6112 21e0 01F0      		breq .L311
 6113 21e2 E330      		cpi r30,lo8(3)
 6114 21e4 01F4      		brne .L312
 6115               	.L311:
 6116               	.LM1046:
 6117 21e6 81E0      		ldi r24,lo8(1)
 6118 21e8 0E94 0000 		call _Z7setmodeh
 6119               	.LVL387:
 6120 21ec 00C0      		rjmp .L334
 6121               	.LVL388:
 6122               	.L312:
 6123               	.LM1047:
 6124 21ee E130      		cpi r30,lo8(1)
 6125 21f0 01F0      		breq .+2
 6126 21f2 00C0      		rjmp .L199
 6127               	.LM1048:
 6128 21f4 80E0      		ldi r24,lo8(0)
 6129 21f6 0E94 0000 		call _Z7setmodeh
 6130               	.LVL389:
 6131 21fa 00C0      		rjmp .L334
 6132               	.LVL390:
 6133               	.L310:
 6134               	.LM1049:
 6135 21fc 62FF      		sbrs r22,2
 6136 21fe 00C0      		rjmp .L313
 6137               	.LBB730:
 6138               	.LBB731:
 6139               	.LM1050:
 6140 2200 1017      		cp r17,r16
 6141 2202 00F4      		brsh .+2
 6142 2204 00C0      		rjmp .L313
 6143               	.LM1051:
 6144 2206 F901      		movw r30,r18
 6145 2208 E01B      		sub r30,r16
 6146 220a F109      		sbc r31,__zero_reg__
 6147 220c E050      		subi r30,lo8(-(modeStack))
 6148 220e F040      		sbci r31,hi8(-(modeStack))
 6149 2210 E081      		ld r30,Z
 6150               	.LBE731:
 6151               	.LBE730:
 6152               	.LM1052:
 6153 2212 EE23      		tst r30
 6154 2214 01F4      		brne .+2
 6155 2216 00C0      		rjmp .L334
 6156 2218 E130      		cpi r30,lo8(1)
 6157 221a 01F4      		brne .+2
 6158 221c 00C0      		rjmp .L334
 6159 221e E230      		cpi r30,lo8(2)
 6160 2220 01F4      		brne .+2
 6161 2222 00C0      		rjmp .L334
 6162 2224 E330      		cpi r30,lo8(3)
 6163 2226 01F4      		brne .+2
 6164 2228 00C0      		rjmp .L334
 6165 222a 00C0      		rjmp .L313
 6166               	.L328:
 6167               	.LBB732:
 6168               	.LBB733:
 6169               	.LM1053:
 6170 222c 1017      		cp r17,r16
 6171 222e 00F4      		brsh .+2
 6172 2230 00C0      		rjmp .L314
 6173               	.LM1054:
 6174 2232 F901      		movw r30,r18
 6175 2234 E01B      		sub r30,r16
 6176 2236 F109      		sbc r31,__zero_reg__
 6177 2238 E050      		subi r30,lo8(-(modeStack))
 6178 223a F040      		sbci r31,hi8(-(modeStack))
 6179 223c E081      		ld r30,Z
 6180               	.LBE733:
 6181               	.LBE732:
 6182               	.LM1055:
 6183 223e EE23      		tst r30
 6184 2240 01F4      		brne .+2
 6185 2242 00C0      		rjmp .L334
 6186 2244 E130      		cpi r30,lo8(1)
 6187 2246 01F4      		brne .+2
 6188 2248 00C0      		rjmp .L334
 6189 224a E230      		cpi r30,lo8(2)
 6190 224c 01F4      		brne .+2
 6191 224e 00C0      		rjmp .L334
 6192 2250 E330      		cpi r30,lo8(3)
 6193 2252 01F4      		brne .+2
 6194 2254 00C0      		rjmp .L334
 6195 2256 00C0      		rjmp .L314
 6196               	.L329:
 6197               	.LBB734:
 6198               	.LBB735:
 6199               	.LM1056:
 6200 2258 1017      		cp r17,r16
 6201 225a 00F4      		brsh .+2
 6202 225c 00C0      		rjmp .L315
 6203               	.LM1057:
 6204 225e F901      		movw r30,r18
 6205 2260 E01B      		sub r30,r16
 6206 2262 F109      		sbc r31,__zero_reg__
 6207 2264 E050      		subi r30,lo8(-(modeStack))
 6208 2266 F040      		sbci r31,hi8(-(modeStack))
 6209 2268 E081      		ld r30,Z
 6210               	.LBE735:
 6211               	.LBE734:
 6212               	.LM1058:
 6213 226a EE23      		tst r30
 6214 226c 01F4      		brne .+2
 6215 226e 00C0      		rjmp .L334
 6216 2270 E130      		cpi r30,lo8(1)
 6217 2272 01F4      		brne .+2
 6218 2274 00C0      		rjmp .L334
 6219 2276 E230      		cpi r30,lo8(2)
 6220 2278 01F4      		brne .+2
 6221 227a 00C0      		rjmp .L334
 6222 227c E330      		cpi r30,lo8(3)
 6223 227e 01F4      		brne .+2
 6224 2280 00C0      		rjmp .L334
 6225 2282 00C0      		rjmp .L315
 6226               	.L330:
 6227               	.LBB736:
 6228               	.LBB737:
 6229               	.LM1059:
 6230 2284 1017      		cp r17,r16
 6231 2286 00F4      		brsh .+2
 6232 2288 00C0      		rjmp .L316
 6233               	.LM1060:
 6234 228a F901      		movw r30,r18
 6235 228c E01B      		sub r30,r16
 6236 228e F109      		sbc r31,__zero_reg__
 6237 2290 E050      		subi r30,lo8(-(modeStack))
 6238 2292 F040      		sbci r31,hi8(-(modeStack))
 6239 2294 E081      		ld r30,Z
 6240               	.LBE737:
 6241               	.LBE736:
 6242               	.LM1061:
 6243 2296 EE23      		tst r30
 6244 2298 01F0      		breq .L317
 6245 229a E130      		cpi r30,lo8(1)
 6246 229c 01F0      		breq .L317
 6247 229e E230      		cpi r30,lo8(2)
 6248 22a0 01F0      		breq .L317
 6249 22a2 E330      		cpi r30,lo8(3)
 6250 22a4 01F0      		breq .+2
 6251 22a6 00C0      		rjmp .L316
 6252               	.L317:
 6253               	.LM1062:
 6254 22a8 84E0      		ldi r24,lo8(4)
 6255 22aa 0E94 0000 		call _Z7mouseuph
 6256               	.LVL391:
 6257 22ae 00C0      		rjmp .L334
 6258               	.LVL392:
 6259               	.L331:
 6260               	.LBB738:
 6261               	.LBB739:
 6262               	.LM1063:
 6263 22b0 1017      		cp r17,r16
 6264 22b2 00F4      		brsh .+2
 6265 22b4 00C0      		rjmp .L318
 6266               	.LM1064:
 6267 22b6 F901      		movw r30,r18
 6268 22b8 E01B      		sub r30,r16
 6269 22ba F109      		sbc r31,__zero_reg__
 6270 22bc E050      		subi r30,lo8(-(modeStack))
 6271 22be F040      		sbci r31,hi8(-(modeStack))
 6272 22c0 E081      		ld r30,Z
 6273               	.LBE739:
 6274               	.LBE738:
 6275               	.LM1065:
 6276 22c2 EE23      		tst r30
 6277 22c4 01F0      		breq .L319
 6278 22c6 E130      		cpi r30,lo8(1)
 6279 22c8 01F0      		breq .L319
 6280 22ca E230      		cpi r30,lo8(2)
 6281 22cc 01F0      		breq .L319
 6282 22ce E330      		cpi r30,lo8(3)
 6283 22d0 01F0      		breq .+2
 6284 22d2 00C0      		rjmp .L318
 6285               	.L319:
 6286               	.LM1066:
 6287 22d4 82E0      		ldi r24,lo8(2)
 6288 22d6 0E94 0000 		call _Z7mouseuph
 6289               	.LVL393:
 6290 22da 00C0      		rjmp .L334
 6291               	.LVL394:
 6292               	.L341:
 6293               	.LBB740:
 6294               	.LBB741:
 6295               	.LM1067:
 6296 22dc 1017      		cp r17,r16
 6297 22de 00F4      		brsh .+2
 6298 22e0 00C0      		rjmp .L334
 6299               	.LM1068:
 6300 22e2 F901      		movw r30,r18
 6301 22e4 E01B      		sub r30,r16
 6302 22e6 F109      		sbc r31,__zero_reg__
 6303 22e8 E050      		subi r30,lo8(-(modeStack))
 6304 22ea F040      		sbci r31,hi8(-(modeStack))
 6305 22ec E081      		ld r30,Z
 6306               	.LBE741:
 6307               	.LBE740:
 6308               	.LM1069:
 6309 22ee EE23      		tst r30
 6310 22f0 01F0      		breq .L320
 6311 22f2 E130      		cpi r30,lo8(1)
 6312 22f4 01F0      		breq .L320
 6313 22f6 E230      		cpi r30,lo8(2)
 6314 22f8 01F0      		breq .L320
 6315 22fa E330      		cpi r30,lo8(3)
 6316 22fc 01F4      		brne .L199
 6317               	.L320:
 6318               	.LM1070:
 6319 22fe 81E0      		ldi r24,lo8(1)
 6320 2300 0E94 0000 		call _Z7mouseuph
 6321               	.LVL395:
 6322 2304 00C0      		rjmp .L334
 6323               	.LVL396:
 6324               	.L332:
 6325               	.LBB742:
 6326               	.LBB743:
 6327               	.LM1071:
 6328 2306 1017      		cp r17,r16
 6329 2308 00F4      		brsh .+2
 6330 230a 00C0      		rjmp .L334
 6331               	.LVL397:
 6332               	.L199:
 6333               	.LBE743:
 6334               	.LBE742:
 6335               	.LM1072:
 6336 230c F901      		movw r30,r18
 6337 230e E01B      		sub r30,r16
 6338 2310 F109      		sbc r31,__zero_reg__
 6339 2312 E050      		subi r30,lo8(-(modeStack))
 6340 2314 F040      		sbci r31,hi8(-(modeStack))
 6341 2316 8081      		ld r24,Z
 6342 2318 8430      		cpi r24,lo8(4)
 6343 231a 01F0      		breq .+2
 6344 231c 00C0      		rjmp .L334
 6345 231e 0F5F      		subi r16,lo8(-(1))
 6346               	.LBB744:
 6347               	.LBB745:
 6348               	.LM1073:
 6349 2320 1017      		cp r17,r16
 6350 2322 00F4      		brsh .+2
 6351 2324 00C0      		rjmp .L334
 6352               	.LBE745:
 6353               	.LBE744:
 6354               	.LM1074:
 6355 2326 F901      		movw r30,r18
 6356 2328 E01B      		sub r30,r16
 6357 232a F109      		sbc r31,__zero_reg__
 6358 232c E050      		subi r30,lo8(-(modeStack))
 6359 232e F040      		sbci r31,hi8(-(modeStack))
 6360 2330 8081      		ld r24,Z
 6361 2332 8823      		tst r24
 6362 2334 01F4      		brne .+4
 6363 2336 0C94 0000 		jmp .L321
 6364 233a 00C0      		rjmp .L334
 6365               	.LVL398:
 6366               	.L204:
 6367               	.LBB746:
 6368               	.LBB663:
 6369               	.LM1075:
 6370 233c 1017      		cp r17,r16
 6371 233e 00F0      		brlo .+4
 6372 2340 0C94 0000 		jmp .L206
 6373 2344 00C0      		rjmp .L334
 6374               	.LVL399:
 6375               	.L254:
 6376               	.LBE663:
 6377               	.LBE746:
 6378               	.LM1076:
 6379 2346 8DA9      		ldd r24,Y+53
 6380 2348 9EA9      		ldd r25,Y+54
 6381 234a AFA9      		ldd r26,Y+55
 6382 234c B8AD      		ldd r27,Y+56
 6383 234e 0097      		sbiw r24,0
 6384 2350 A105      		cpc r26,__zero_reg__
 6385 2352 B105      		cpc r27,__zero_reg__
 6386 2354 01F0      		breq .+2
 6387 2356 00C0      		rjmp .L322
 6388               	.L255:
 6389               	.LM1077:
 6390 2358 89AD      		ldd r24,Y+57
 6391 235a 9AAD      		ldd r25,Y+58
 6392 235c ABAD      		ldd r26,Y+59
 6393 235e BCAD      		ldd r27,Y+60
 6394 2360 0097      		sbiw r24,0
 6395 2362 A105      		cpc r26,__zero_reg__
 6396 2364 B105      		cpc r27,__zero_reg__
 6397 2366 01F0      		breq .+2
 6398 2368 00C0      		rjmp .L323
 6399 236a 00C0      		rjmp .L339
 6400               	.L280:
 6401               	.LM1078:
 6402 236c 6996      		adiw r28,85-60
 6403 236e 8CAD      		ldd r24,Y+60
 6404 2370 9DAD      		ldd r25,Y+61
 6405 2372 AEAD      		ldd r26,Y+62
 6406 2374 BFAD      		ldd r27,Y+63
 6407 2376 6997      		sbiw r28,85-60
 6408 2378 0097      		sbiw r24,0
 6409 237a A105      		cpc r26,__zero_reg__
 6410 237c B105      		cpc r27,__zero_reg__
 6411 237e 01F0      		breq .+2
 6412 2380 00C0      		rjmp .L325
 6413               	.L281:
 6414               	.LM1079:
 6415 2382 8114      		cp r8,__zero_reg__
 6416 2384 9104      		cpc r9,__zero_reg__
 6417 2386 A104      		cpc r10,__zero_reg__
 6418 2388 B104      		cpc r11,__zero_reg__
 6419 238a 01F0      		breq .+2
 6420 238c 00C0      		rjmp .L326
 6421 238e 00C0      		rjmp .L340
 6422               	.L313:
 6423               	.LM1080:
 6424 2390 63FD      		sbrc r22,3
 6425 2392 00C0      		rjmp .L328
 6426               	.L314:
 6427               	.LM1081:
 6428 2394 64FD      		sbrc r22,4
 6429 2396 00C0      		rjmp .L329
 6430               	.L315:
 6431               	.LM1082:
 6432 2398 70FD      		sbrc r23,0
 6433 239a 00C0      		rjmp .L330
 6434               	.L316:
 6435               	.LM1083:
 6436 239c 71FD      		sbrc r23,1
 6437 239e 00C0      		rjmp .L331
 6438               	.L318:
 6439               	.LM1084:
 6440 23a0 72FF      		sbrs r23,2
 6441 23a2 00C0      		rjmp .L332
 6442 23a4 00C0      		rjmp .L341
 6443               	.LVL400:
 6444               	.L334:
 6445               	/* epilogue start */
 6446               	.LM1085:
 6447 23a6 C45A      		subi r28,lo8(-(92))
 6448 23a8 DF4F      		sbci r29,hi8(-(92))
 6449 23aa 0FB6      		in __tmp_reg__,__SREG__
 6450 23ac F894      		cli
 6451 23ae DEBF      		out __SP_H__,r29
 6452 23b0 0FBE      		out __SREG__,__tmp_reg__
 6453 23b2 CDBF      		out __SP_L__,r28
 6454 23b4 CF91      		pop r28
 6455 23b6 DF91      		pop r29
 6456 23b8 1F91      		pop r17
 6457 23ba 0F91      		pop r16
 6458               	.LVL401:
 6459 23bc FF90      		pop r15
 6460 23be EF90      		pop r14
 6461 23c0 DF90      		pop r13
 6462 23c2 CF90      		pop r12
 6463 23c4 BF90      		pop r11
 6464 23c6 AF90      		pop r10
 6465 23c8 9F90      		pop r9
 6466 23ca 8F90      		pop r8
 6467 23cc 7F90      		pop r7
 6468 23ce 6F90      		pop r6
 6469 23d0 5F90      		pop r5
 6470 23d2 4F90      		pop r4
 6471 23d4 0895      		ret
 6472               	.LFE173:
 6474               		.data
 6475               	.LC20:
 6476 016d 746F 7563 		.string	"touchset mousedown "
 6476      6873 6574 
 6476      206D 6F75 
 6476      7365 646F 
 6476      776E 2000 
 6477               		.text
 6478               	.global	_Z9mousedownh
 6480               	_Z9mousedownh:
 6481               	.LFB155:
 6482               	.LM1086:
 6483               	.LVL402:
 6484 23d6 1F93      		push r17
 6485               	/* prologue: function */
 6486               	/* frame size = 0 */
 6487 23d8 182F      		mov r17,r24
 6488               	.LM1087:
 6489 23da 80E0      		ldi r24,lo8(Serial)
 6490 23dc 90E0      		ldi r25,hi8(Serial)
 6491               	.LVL403:
 6492 23de 60E0      		ldi r22,lo8(.LC20)
 6493 23e0 70E0      		ldi r23,hi8(.LC20)
 6494 23e2 0E94 0000 		call _ZN16USBVirtualSerial5printEPKc
 6495               	.LM1088:
 6496 23e6 80E0      		ldi r24,lo8(Serial)
 6497 23e8 90E0      		ldi r25,hi8(Serial)
 6498 23ea 612F      		mov r22,r17
 6499 23ec 0E94 0000 		call _ZN16USBVirtualSerial7printlnEh
 6500               	.LM1089:
 6501 23f0 8091 0000 		lds r24,mouseDown
 6502 23f4 812B      		or r24,r17
 6503 23f6 8093 0000 		sts mouseDown,r24
 6504               	.LM1090:
 6505 23fa 282F      		mov r18,r24
 6506 23fc 30E0      		ldi r19,lo8(0)
 6507 23fe 60E0      		ldi r22,lo8(0)
 6508 2400 80FD      		sbrc r24,0
 6509 2402 61E0      		ldi r22,lo8(1)
 6510               	.L343:
 6511 2404 3695      		lsr r19
 6512 2406 2795      		ror r18
 6513 2408 422F      		mov r20,r18
 6514 240a 4170      		andi r20,lo8(1)
 6515 240c 3695      		lsr r19
 6516 240e 2795      		ror r18
 6517 2410 2170      		andi r18,lo8(1)
 6518 2412 80E0      		ldi r24,lo8(Mouse)
 6519 2414 90E0      		ldi r25,hi8(Mouse)
 6520 2416 0E94 0000 		call _ZN8USBMouse11set_buttonsEhhh
 6521               	/* epilogue start */
 6522               	.LM1091:
 6523 241a 1F91      		pop r17
 6524               	.LVL404:
 6525 241c 0895      		ret
 6526               	.LFE155:
 6528               	.global	_Z19check_sensors_touchmmh
 6530               	_Z19check_sensors_touchmmh:
 6531               	.LFB172:
 6532               	.LM1092:
 6533               	.LVL405:
 6534 241e 4F92      		push r4
 6535 2420 5F92      		push r5
 6536 2422 6F92      		push r6
 6537 2424 7F92      		push r7
 6538 2426 8F92      		push r8
 6539 2428 9F92      		push r9
 6540 242a AF92      		push r10
 6541 242c BF92      		push r11
 6542 242e CF92      		push r12
 6543 2430 DF92      		push r13
 6544 2432 EF92      		push r14
 6545 2434 FF92      		push r15
 6546 2436 0F93      		push r16
 6547               	.LVL406:
 6548 2438 DF93      		push r29
 6549 243a CF93      		push r28
 6550 243c CDB7      		in r28,__SP_L__
 6551 243e DEB7      		in r29,__SP_H__
 6552 2440 2897      		sbiw r28,8
 6553 2442 0FB6      		in __tmp_reg__,__SREG__
 6554 2444 F894      		cli
 6555 2446 DEBF      		out __SP_H__,r29
 6556 2448 0FBE      		out __SREG__,__tmp_reg__
 6557 244a CDBF      		out __SP_L__,r28
 6558               	/* prologue: function */
 6559               	/* frame size = 8 */
 6560 244c 6B01      		movw r12,r22
 6561 244e 7C01      		movw r14,r24
 6562 2450 2D83      		std Y+5,r18
 6563 2452 3E83      		std Y+6,r19
 6564 2454 4F83      		std Y+7,r20
 6565 2456 5887      		std Y+8,r21
 6566               	.LBB747:
 6567               	.LBB748:
 6568               	.LM1093:
 6569 2458 9091 0000 		lds r25,modeStackPos
 6570               	.LM1094:
 6571 245c A92F      		mov r26,r25
 6572 245e B0E0      		ldi r27,lo8(0)
 6573               	.LBE748:
 6574               	.LBE747:
 6575               	.LM1095:
 6576 2460 812C      		mov r8,__zero_reg__
 6577 2462 912C      		mov r9,__zero_reg__
 6578 2464 60E2      		ldi r22,hlo8(2097152)
 6579 2466 A62E      		mov r10,r22
 6580 2468 B12C      		mov r11,__zero_reg__
 6581               	.LVL407:
 6582 246a C820      		and r12,r8
 6583 246c D920      		and r13,r9
 6584 246e EA20      		and r14,r10
 6585 2470 FB20      		and r15,r11
 6586               	.LM1096:
 6587 2472 2072      		andi r18,lo8(32)
 6588 2474 3070      		andi r19,hi8(32)
 6589 2476 4070      		andi r20,hlo8(32)
 6590 2478 5070      		andi r21,hhi8(32)
 6591 247a 2983      		std Y+1,r18
 6592 247c 3A83      		std Y+2,r19
 6593 247e 4B83      		std Y+3,r20
 6594 2480 5C83      		std Y+4,r21
 6595               	.LM1097:
 6596 2482 412C      		mov r4,__zero_reg__
 6597 2484 512C      		mov r5,__zero_reg__
 6598 2486 612C      		mov r6,__zero_reg__
 6599 2488 21E0      		ldi r18,hhi8(16777216)
 6600 248a 722E      		mov r7,r18
 6601               	.LVL408:
 6602 248c 2D81      		ldd r18,Y+5
 6603 248e 3E81      		ldd r19,Y+6
 6604 2490 4F81      		ldd r20,Y+7
 6605 2492 5885      		ldd r21,Y+8
 6606               	.LVL409:
 6607 2494 4222      		and r4,r18
 6608 2496 5322      		and r5,r19
 6609 2498 6422      		and r6,r20
 6610 249a 7522      		and r7,r21
 6611               	.LM1098:
 6612 249c 812C      		mov r8,__zero_reg__
 6613 249e 912C      		mov r9,__zero_reg__
 6614 24a0 A12C      		mov r10,__zero_reg__
 6615 24a2 82E0      		ldi r24,hhi8(33554432)
 6616 24a4 B82E      		mov r11,r24
 6617 24a6 8222      		and r8,r18
 6618 24a8 9322      		and r9,r19
 6619 24aa A422      		and r10,r20
 6620 24ac B522      		and r11,r21
 6621               	.LM1099:
 6622 24ae 2070      		andi r18,lo8(67108864)
 6623 24b0 3070      		andi r19,hi8(67108864)
 6624 24b2 4070      		andi r20,hlo8(67108864)
 6625 24b4 5470      		andi r21,hhi8(67108864)
 6626 24b6 2D83      		std Y+5,r18
 6627 24b8 3E83      		std Y+6,r19
 6628 24ba 4F83      		std Y+7,r20
 6629 24bc 5887      		std Y+8,r21
 6630               	.LVL410:
 6631               	.L357:
 6632               	.LM1100:
 6633 24be C114      		cp r12,__zero_reg__
 6634 24c0 D104      		cpc r13,__zero_reg__
 6635 24c2 E104      		cpc r14,__zero_reg__
 6636 24c4 F104      		cpc r15,__zero_reg__
 6637 24c6 01F4      		brne .+2
 6638 24c8 00C0      		rjmp .L346
 6639               	.LBB750:
 6640               	.LBB749:
 6641               	.LM1101:
 6642 24ca 9017      		cp r25,r16
 6643 24cc 00F4      		brsh .+2
 6644 24ce 00C0      		rjmp .L346
 6645               	.LM1102:
 6646 24d0 FD01      		movw r30,r26
 6647 24d2 E01B      		sub r30,r16
 6648 24d4 F109      		sbc r31,__zero_reg__
 6649 24d6 E050      		subi r30,lo8(-(modeStack))
 6650 24d8 F040      		sbci r31,hi8(-(modeStack))
 6651 24da E081      		ld r30,Z
 6652               	.LBE749:
 6653               	.LBE750:
 6654               	.LM1103:
 6655 24dc EE23      		tst r30
 6656 24de 01F0      		breq .L347
 6657 24e0 E130      		cpi r30,lo8(1)
 6658 24e2 01F0      		breq .L347
 6659 24e4 E230      		cpi r30,lo8(2)
 6660 24e6 01F0      		breq .L347
 6661 24e8 E330      		cpi r30,lo8(3)
 6662 24ea 01F0      		breq .+2
 6663 24ec 00C0      		rjmp .L346
 6664               	.L347:
 6665               	.LM1104:
 6666 24ee 81E0      		ldi r24,lo8(1)
 6667 24f0 00C0      		rjmp .L364
 6668               	.L358:
 6669               	.LBB751:
 6670               	.LBB752:
 6671               	.LM1105:
 6672 24f2 9017      		cp r25,r16
 6673 24f4 00F4      		brsh .+2
 6674 24f6 00C0      		rjmp .L349
 6675               	.LM1106:
 6676 24f8 FD01      		movw r30,r26
 6677 24fa E01B      		sub r30,r16
 6678 24fc F109      		sbc r31,__zero_reg__
 6679 24fe E050      		subi r30,lo8(-(modeStack))
 6680 2500 F040      		sbci r31,hi8(-(modeStack))
 6681 2502 E081      		ld r30,Z
 6682               	.LBE752:
 6683               	.LBE751:
 6684               	.LM1107:
 6685 2504 EE23      		tst r30
 6686 2506 01F0      		breq .L350
 6687 2508 E130      		cpi r30,lo8(1)
 6688 250a 01F0      		breq .L350
 6689 250c E230      		cpi r30,lo8(2)
 6690 250e 01F0      		breq .L350
 6691 2510 E330      		cpi r30,lo8(3)
 6692 2512 01F0      		breq .+2
 6693 2514 00C0      		rjmp .L349
 6694               	.L350:
 6695               	.LM1108:
 6696 2516 80E0      		ldi r24,lo8(0)
 6697               	.L364:
 6698 2518 0E94 0000 		call _Z7mouseonh
 6699 251c 00C0      		rjmp .L362
 6700               	.L359:
 6701               	.LBB753:
 6702               	.LBB754:
 6703               	.LM1109:
 6704 251e 9017      		cp r25,r16
 6705 2520 00F4      		brsh .+2
 6706 2522 00C0      		rjmp .L351
 6707               	.LM1110:
 6708 2524 FD01      		movw r30,r26
 6709 2526 E01B      		sub r30,r16
 6710 2528 F109      		sbc r31,__zero_reg__
 6711 252a E050      		subi r30,lo8(-(modeStack))
 6712 252c F040      		sbci r31,hi8(-(modeStack))
 6713 252e E081      		ld r30,Z
 6714               	.LBE754:
 6715               	.LBE753:
 6716               	.LM1111:
 6717 2530 EE23      		tst r30
 6718 2532 01F0      		breq .L352
 6719 2534 E130      		cpi r30,lo8(1)
 6720 2536 01F0      		breq .L352
 6721 2538 E230      		cpi r30,lo8(2)
 6722 253a 01F0      		breq .L352
 6723 253c E330      		cpi r30,lo8(3)
 6724 253e 01F0      		breq .+2
 6725 2540 00C0      		rjmp .L351
 6726               	.L352:
 6727               	.LM1112:
 6728 2542 84E0      		ldi r24,lo8(4)
 6729 2544 00C0      		rjmp .L365
 6730               	.L360:
 6731               	.LBB755:
 6732               	.LBB756:
 6733               	.LM1113:
 6734 2546 9017      		cp r25,r16
 6735 2548 00F4      		brsh .+2
 6736 254a 00C0      		rjmp .L353
 6737               	.LM1114:
 6738 254c FD01      		movw r30,r26
 6739 254e E01B      		sub r30,r16
 6740 2550 F109      		sbc r31,__zero_reg__
 6741 2552 E050      		subi r30,lo8(-(modeStack))
 6742 2554 F040      		sbci r31,hi8(-(modeStack))
 6743 2556 E081      		ld r30,Z
 6744               	.LBE756:
 6745               	.LBE755:
 6746               	.LM1115:
 6747 2558 EE23      		tst r30
 6748 255a 01F0      		breq .L354
 6749 255c E130      		cpi r30,lo8(1)
 6750 255e 01F0      		breq .L354
 6751 2560 E230      		cpi r30,lo8(2)
 6752 2562 01F0      		breq .L354
 6753 2564 E330      		cpi r30,lo8(3)
 6754 2566 01F0      		breq .+2
 6755 2568 00C0      		rjmp .L353
 6756               	.L354:
 6757               	.LM1116:
 6758 256a 82E0      		ldi r24,lo8(2)
 6759 256c 00C0      		rjmp .L365
 6760               	.L361:
 6761               	.LBB757:
 6762               	.LBB758:
 6763               	.LM1117:
 6764 256e 9017      		cp r25,r16
 6765 2570 00F4      		brsh .+2
 6766 2572 00C0      		rjmp .L362
 6767               	.LM1118:
 6768 2574 FD01      		movw r30,r26
 6769 2576 E01B      		sub r30,r16
 6770 2578 F109      		sbc r31,__zero_reg__
 6771 257a E050      		subi r30,lo8(-(modeStack))
 6772 257c F040      		sbci r31,hi8(-(modeStack))
 6773 257e E081      		ld r30,Z
 6774               	.LBE758:
 6775               	.LBE757:
 6776               	.LM1119:
 6777 2580 EE23      		tst r30
 6778 2582 01F0      		breq .L355
 6779 2584 E130      		cpi r30,lo8(1)
 6780 2586 01F0      		breq .L355
 6781 2588 E230      		cpi r30,lo8(2)
 6782 258a 01F0      		breq .L355
 6783 258c E330      		cpi r30,lo8(3)
 6784 258e 01F4      		brne .L356
 6785               	.L355:
 6786               	.LM1120:
 6787 2590 81E0      		ldi r24,lo8(1)
 6788               	.L365:
 6789 2592 0E94 0000 		call _Z9mousedownh
 6790 2596 00C0      		rjmp .L362
 6791               	.L356:
 6792               	.LM1121:
 6793 2598 FD01      		movw r30,r26
 6794 259a E01B      		sub r30,r16
 6795 259c F109      		sbc r31,__zero_reg__
 6796 259e E050      		subi r30,lo8(-(modeStack))
 6797 25a0 F040      		sbci r31,hi8(-(modeStack))
 6798 25a2 8081      		ld r24,Z
 6799 25a4 8430      		cpi r24,lo8(4)
 6800 25a6 01F4      		brne .L362
 6801 25a8 0F5F      		subi r16,lo8(-(1))
 6802               	.LBB759:
 6803               	.LBB760:
 6804               	.LM1122:
 6805 25aa 9017      		cp r25,r16
 6806 25ac 00F0      		brlo .L362
 6807               	.LBE760:
 6808               	.LBE759:
 6809               	.LM1123:
 6810 25ae FD01      		movw r30,r26
 6811 25b0 E01B      		sub r30,r16
 6812 25b2 F109      		sbc r31,__zero_reg__
 6813 25b4 E050      		subi r30,lo8(-(modeStack))
 6814 25b6 F040      		sbci r31,hi8(-(modeStack))
 6815 25b8 8081      		ld r24,Z
 6816 25ba 8823      		tst r24
 6817 25bc 01F4      		brne .+2
 6818 25be 00C0      		rjmp .L357
 6819 25c0 00C0      		rjmp .L362
 6820               	.L346:
 6821               	.LM1124:
 6822 25c2 2981      		ldd r18,Y+1
 6823 25c4 3A81      		ldd r19,Y+2
 6824 25c6 4B81      		ldd r20,Y+3
 6825 25c8 5C81      		ldd r21,Y+4
 6826 25ca 2115      		cp r18,__zero_reg__
 6827 25cc 3105      		cpc r19,__zero_reg__
 6828 25ce 4105      		cpc r20,__zero_reg__
 6829 25d0 5105      		cpc r21,__zero_reg__
 6830 25d2 01F0      		breq .+2
 6831 25d4 00C0      		rjmp .L358
 6832               	.L349:
 6833               	.LM1125:
 6834 25d6 4114      		cp r4,__zero_reg__
 6835 25d8 5104      		cpc r5,__zero_reg__
 6836 25da 6104      		cpc r6,__zero_reg__
 6837 25dc 7104      		cpc r7,__zero_reg__
 6838 25de 01F0      		breq .+2
 6839 25e0 00C0      		rjmp .L359
 6840               	.L351:
 6841               	.LM1126:
 6842 25e2 8114      		cp r8,__zero_reg__
 6843 25e4 9104      		cpc r9,__zero_reg__
 6844 25e6 A104      		cpc r10,__zero_reg__
 6845 25e8 B104      		cpc r11,__zero_reg__
 6846 25ea 01F0      		breq .+2
 6847 25ec 00C0      		rjmp .L360
 6848               	.L353:
 6849               	.LM1127:
 6850 25ee 2D81      		ldd r18,Y+5
 6851 25f0 3E81      		ldd r19,Y+6
 6852 25f2 4F81      		ldd r20,Y+7
 6853 25f4 5885      		ldd r21,Y+8
 6854 25f6 2115      		cp r18,__zero_reg__
 6855 25f8 3105      		cpc r19,__zero_reg__
 6856 25fa 4105      		cpc r20,__zero_reg__
 6857 25fc 5105      		cpc r21,__zero_reg__
 6858 25fe 01F0      		breq .+2
 6859 2600 00C0      		rjmp .L361
 6860               	.LBB761:
 6861               	.LBB762:
 6862               	.LM1128:
 6863 2602 9017      		cp r25,r16
 6864 2604 00F4      		brsh .L356
 6865               	.L362:
 6866               	/* epilogue start */
 6867               	.LBE762:
 6868               	.LBE761:
 6869               	.LM1129:
 6870 2606 2896      		adiw r28,8
 6871 2608 0FB6      		in __tmp_reg__,__SREG__
 6872 260a F894      		cli
 6873 260c DEBF      		out __SP_H__,r29
 6874 260e 0FBE      		out __SREG__,__tmp_reg__
 6875 2610 CDBF      		out __SP_L__,r28
 6876 2612 CF91      		pop r28
 6877 2614 DF91      		pop r29
 6878 2616 0F91      		pop r16
 6879               	.LVL411:
 6880 2618 FF90      		pop r15
 6881 261a EF90      		pop r14
 6882 261c DF90      		pop r13
 6883 261e CF90      		pop r12
 6884 2620 BF90      		pop r11
 6885 2622 AF90      		pop r10
 6886 2624 9F90      		pop r9
 6887 2626 8F90      		pop r8
 6888 2628 7F90      		pop r7
 6889 262a 6F90      		pop r6
 6890 262c 5F90      		pop r5
 6891 262e 4F90      		pop r4
 6892 2630 0895      		ret
 6893               	.LFE172:
 6895               		.data
 6896               	.LC21:
 6897 0181 746F 7563 		.string	"touch "
 6897      6820 00
 6898               	.LC22:
 6899 0188 0A00      		.string	"\n"
 6900               		.text
 6901               	.global	_Z12update_touchv
 6903               	_Z12update_touchv:
 6904               	.LFB175:
 6905               	.LM1130:
 6906 2632 6F92      		push r6
 6907 2634 7F92      		push r7
 6908 2636 8F92      		push r8
 6909 2638 9F92      		push r9
 6910 263a AF92      		push r10
 6911 263c BF92      		push r11
 6912 263e CF92      		push r12
 6913 2640 DF92      		push r13
 6914 2642 EF92      		push r14
 6915 2644 FF92      		push r15
 6916 2646 0F93      		push r16
 6917 2648 1F93      		push r17
 6918               	/* prologue: function */
 6919               	/* frame size = 0 */
 6920               	.LBB763:
 6921               	.LM1131:
 6922 264a 1092 0000 		sts detect1,__zero_reg__
 6923 264e 1092 0000 		sts (detect1)+1,__zero_reg__
 6924 2652 1092 0000 		sts (detect1)+2,__zero_reg__
 6925 2656 1092 0000 		sts (detect1)+3,__zero_reg__
 6926               	.LM1132:
 6927 265a 1092 0000 		sts detect2,__zero_reg__
 6928 265e 1092 0000 		sts (detect2)+1,__zero_reg__
 6929 2662 1092 0000 		sts (detect2)+2,__zero_reg__
 6930 2666 1092 0000 		sts (detect2)+3,__zero_reg__
 6931               	.LM1133:
 6932 266a 1092 0000 		sts removing,__zero_reg__
 6933               	.LM1134:
 6934 266e 1092 0000 		sts i,__zero_reg__
 6935 2672 1092 0000 		sts (i)+1,__zero_reg__
 6936 2676 1092 0000 		sts (i)+2,__zero_reg__
 6937 267a 1092 0000 		sts (i)+3,__zero_reg__
 6938               	.LM1135:
 6939 267e E1E0      		ldi r30,lo8(1)
 6940 2680 CE2E      		mov r12,r30
 6941 2682 D12C      		mov r13,__zero_reg__
 6942 2684 E12C      		mov r14,__zero_reg__
 6943 2686 F12C      		mov r15,__zero_reg__
 6944 2688 00C0      		rjmp .L367
 6945               	.LVL412:
 6946               	.L370:
 6947               	.LM1136:
 6948 268a FC01      		movw r30,r24
 6949 268c EE0F      		lsl r30
 6950 268e FF1F      		rol r31
 6951 2690 E050      		subi r30,lo8(-(combinations))
 6952 2692 F040      		sbci r31,hi8(-(combinations))
 6953 2694 1081      		ld r17,Z
 6954               	.LM1137:
 6955 2696 0181      		ldd r16,Z+1
 6956               	.LM1138:
 6957 2698 812F      		mov r24,r17
 6958 269a 61E0      		ldi r22,lo8(1)
 6959 269c 0E94 0000 		call pinMode
 6960               	.LM1139:
 6961 26a0 812F      		mov r24,r17
 6962 26a2 60E0      		ldi r22,lo8(0)
 6963 26a4 0E94 0000 		call digitalWrite
 6964               	.LM1140:
 6965 26a8 8091 0000 		lds r24,i
 6966 26ac 9091 0000 		lds r25,(i)+1
 6967 26b0 A091 0000 		lds r26,(i)+2
 6968 26b4 B091 0000 		lds r27,(i)+3
 6969 26b8 8097      		sbiw r24,32
 6970 26ba A105      		cpc r26,__zero_reg__
 6971 26bc B105      		cpc r27,__zero_reg__
 6972 26be 00F4      		brsh .L368
 6973               	.LM1141:
 6974 26c0 802F      		mov r24,r16
 6975 26c2 0E94 0000 		call digitalRead
 6976 26c6 892B      		or r24,r25
 6977 26c8 01F0      		breq .+2
 6978 26ca 00C0      		rjmp .L369
 6979 26cc A701      		movw r20,r14
 6980 26ce 9601      		movw r18,r12
 6981 26d0 0090 0000 		lds r0,i
 6982 26d4 00C0      		rjmp 2f
 6983 26d6 220F      	1:	lsl r18
 6984 26d8 331F      		rol r19
 6985 26da 441F      		rol r20
 6986 26dc 551F      		rol r21
 6987 26de 0A94      	2:	dec r0
 6988 26e0 02F4      		brpl 1b
 6989 26e2 8091 0000 		lds r24,detect1
 6990 26e6 9091 0000 		lds r25,(detect1)+1
 6991 26ea A091 0000 		lds r26,(detect1)+2
 6992 26ee B091 0000 		lds r27,(detect1)+3
 6993 26f2 822B      		or r24,r18
 6994 26f4 932B      		or r25,r19
 6995 26f6 A42B      		or r26,r20
 6996 26f8 B52B      		or r27,r21
 6997 26fa 8093 0000 		sts detect1,r24
 6998 26fe 9093 0000 		sts (detect1)+1,r25
 6999 2702 A093 0000 		sts (detect1)+2,r26
 7000 2706 B093 0000 		sts (detect1)+3,r27
 7001 270a 00C0      		rjmp .L369
 7002               	.L368:
 7003               	.LM1142:
 7004 270c 802F      		mov r24,r16
 7005 270e 0E94 0000 		call digitalRead
 7006 2712 892B      		or r24,r25
 7007 2714 01F4      		brne .L369
 7008 2716 2091 0000 		lds r18,i
 7009 271a 3091 0000 		lds r19,(i)+1
 7010 271e 2052      		subi r18,lo8(-(-32))
 7011 2720 3040      		sbci r19,hi8(-(-32))
 7012 2722 D701      		movw r26,r14
 7013 2724 C601      		movw r24,r12
 7014 2726 00C0      		rjmp 2f
 7015 2728 880F      	1:	lsl r24
 7016 272a 991F      		rol r25
 7017 272c AA1F      		rol r26
 7018 272e BB1F      		rol r27
 7019 2730 2A95      	2:	dec r18
 7020 2732 02F4      		brpl 1b
 7021 2734 9C01      		movw r18,r24
 7022 2736 AD01      		movw r20,r26
 7023 2738 8091 0000 		lds r24,detect2
 7024 273c 9091 0000 		lds r25,(detect2)+1
 7025 2740 A091 0000 		lds r26,(detect2)+2
 7026 2744 B091 0000 		lds r27,(detect2)+3
 7027 2748 822B      		or r24,r18
 7028 274a 932B      		or r25,r19
 7029 274c A42B      		or r26,r20
 7030 274e B52B      		or r27,r21
 7031 2750 8093 0000 		sts detect2,r24
 7032 2754 9093 0000 		sts (detect2)+1,r25
 7033 2758 A093 0000 		sts (detect2)+2,r26
 7034 275c B093 0000 		sts (detect2)+3,r27
 7035               	.L369:
 7036               	.LM1143:
 7037 2760 812F      		mov r24,r17
 7038 2762 60E0      		ldi r22,lo8(0)
 7039 2764 0E94 0000 		call pinMode
 7040               	.LM1144:
 7041 2768 812F      		mov r24,r17
 7042 276a 61E0      		ldi r22,lo8(1)
 7043 276c 0E94 0000 		call digitalWrite
 7044               	.LM1145:
 7045 2770 8091 0000 		lds r24,i
 7046 2774 9091 0000 		lds r25,(i)+1
 7047 2778 A091 0000 		lds r26,(i)+2
 7048 277c B091 0000 		lds r27,(i)+3
 7049 2780 0196      		adiw r24,1
 7050 2782 A11D      		adc r26,__zero_reg__
 7051 2784 B11D      		adc r27,__zero_reg__
 7052 2786 8093 0000 		sts i,r24
 7053 278a 9093 0000 		sts (i)+1,r25
 7054 278e A093 0000 		sts (i)+2,r26
 7055 2792 B093 0000 		sts (i)+3,r27
 7056               	.L367:
 7057 2796 8091 0000 		lds r24,i
 7058 279a 9091 0000 		lds r25,(i)+1
 7059 279e A091 0000 		lds r26,(i)+2
 7060 27a2 B091 0000 		lds r27,(i)+3
 7061 27a6 8C33      		cpi r24,lo8(60)
 7062 27a8 9105      		cpc r25,__zero_reg__
 7063 27aa A105      		cpc r26,__zero_reg__
 7064 27ac B105      		cpc r27,__zero_reg__
 7065 27ae 00F4      		brsh .+2
 7066 27b0 00C0      		rjmp .L370
 7067               	.LM1146:
 7068 27b2 E090 0000 		lds r14,verify1
 7069 27b6 F090 0000 		lds r15,(verify1)+1
 7070 27ba 0091 0000 		lds r16,(verify1)+2
 7071 27be 1091 0000 		lds r17,(verify1)+3
 7072 27c2 8091 0000 		lds r24,detect1
 7073 27c6 9091 0000 		lds r25,(detect1)+1
 7074 27ca A091 0000 		lds r26,(detect1)+2
 7075 27ce B091 0000 		lds r27,(detect1)+3
 7076 27d2 E816      		cp r14,r24
 7077 27d4 F906      		cpc r15,r25
 7078 27d6 0A07      		cpc r16,r26
 7079 27d8 1B07      		cpc r17,r27
 7080 27da 01F4      		brne .L371
 7081 27dc 2091 0000 		lds r18,verify2
 7082 27e0 3091 0000 		lds r19,(verify2)+1
 7083 27e4 4091 0000 		lds r20,(verify2)+2
 7084 27e8 5091 0000 		lds r21,(verify2)+3
 7085 27ec 8091 0000 		lds r24,detect2
 7086 27f0 9091 0000 		lds r25,(detect2)+1
 7087 27f4 A091 0000 		lds r26,(detect2)+2
 7088 27f8 B091 0000 		lds r27,(detect2)+3
 7089 27fc 2817      		cp r18,r24
 7090 27fe 3907      		cpc r19,r25
 7091 2800 4A07      		cpc r20,r26
 7092 2802 5B07      		cpc r21,r27
 7093 2804 01F0      		breq .L372
 7094               	.L371:
 7095               	.LM1147:
 7096 2806 0E94 0000 		call millis
 7097 280a 6093 0000 		sts touchTime,r22
 7098 280e 7093 0000 		sts (touchTime)+1,r23
 7099 2812 8093 0000 		sts (touchTime)+2,r24
 7100 2816 9093 0000 		sts (touchTime)+3,r25
 7101 281a 00C0      		rjmp .L373
 7102               	.L372:
 7103               	.LM1148:
 7104 281c 8091 0000 		lds r24,sensors1
 7105 2820 9091 0000 		lds r25,(sensors1)+1
 7106 2824 A091 0000 		lds r26,(sensors1)+2
 7107 2828 B091 0000 		lds r27,(sensors1)+3
 7108 282c E816      		cp r14,r24
 7109 282e F906      		cpc r15,r25
 7110 2830 0A07      		cpc r16,r26
 7111 2832 1B07      		cpc r17,r27
 7112 2834 01F4      		brne .L374
 7113 2836 8091 0000 		lds r24,sensors2
 7114 283a 9091 0000 		lds r25,(sensors2)+1
 7115 283e A091 0000 		lds r26,(sensors2)+2
 7116 2842 B091 0000 		lds r27,(sensors2)+3
 7117 2846 2817      		cp r18,r24
 7118 2848 3907      		cpc r19,r25
 7119 284a 4A07      		cpc r20,r26
 7120 284c 5B07      		cpc r21,r27
 7121 284e 01F4      		brne .+2
 7122 2850 00C0      		rjmp .L373
 7123               	.L374:
 7124 2852 0E94 0000 		call millis
 7125 2856 2091 0000 		lds r18,touchTime
 7126 285a 3091 0000 		lds r19,(touchTime)+1
 7127 285e 4091 0000 		lds r20,(touchTime)+2
 7128 2862 5091 0000 		lds r21,(touchTime)+3
 7129 2866 621B      		sub r22,r18
 7130 2868 730B      		sbc r23,r19
 7131 286a 840B      		sbc r24,r20
 7132 286c 950B      		sbc r25,r21
 7133 286e 2091 0000 		lds r18,opt_touch_detect_threshold
 7134 2872 3091 0000 		lds r19,(opt_touch_detect_threshold)+1
 7135 2876 40E0      		ldi r20,lo8(0)
 7136 2878 50E0      		ldi r21,hi8(0)
 7137 287a 6217      		cp r22,r18
 7138 287c 7307      		cpc r23,r19
 7139 287e 8407      		cpc r24,r20
 7140 2880 9507      		cpc r25,r21
 7141 2882 00F4      		brsh .+2
 7142 2884 00C0      		rjmp .L373
 7143               	.LM1149:
 7144 2886 80E0      		ldi r24,lo8(Serial)
 7145 2888 90E0      		ldi r25,hi8(Serial)
 7146 288a 60E0      		ldi r22,lo8(.LC21)
 7147 288c 70E0      		ldi r23,hi8(.LC21)
 7148 288e 0E94 0000 		call _ZN16USBVirtualSerial5printEPKc
 7149               	.LM1150:
 7150 2892 1092 0000 		sts i,__zero_reg__
 7151 2896 1092 0000 		sts (i)+1,__zero_reg__
 7152 289a 1092 0000 		sts (i)+2,__zero_reg__
 7153 289e 1092 0000 		sts (i)+3,__zero_reg__
 7154 28a2 00C0      		rjmp .L375
 7155               	.L378:
 7156               	.LM1151:
 7157 28a4 8032      		cpi r24,lo8(32)
 7158 28a6 9105      		cpc r25,__zero_reg__
 7159 28a8 A105      		cpc r26,__zero_reg__
 7160 28aa B105      		cpc r27,__zero_reg__
 7161 28ac 00F4      		brsh .L376
 7162 28ae 4091 0000 		lds r20,detect1
 7163 28b2 5091 0000 		lds r21,(detect1)+1
 7164 28b6 6091 0000 		lds r22,(detect1)+2
 7165 28ba 7091 0000 		lds r23,(detect1)+3
 7166 28be 00C0      		rjmp .L384
 7167               	.L376:
 7168               	.LM1152:
 7169 28c0 8097      		sbiw r24,32
 7170 28c2 4091 0000 		lds r20,detect2
 7171 28c6 5091 0000 		lds r21,(detect2)+1
 7172 28ca 6091 0000 		lds r22,(detect2)+2
 7173 28ce 7091 0000 		lds r23,(detect2)+3
 7174               	.L384:
 7175 28d2 00C0      		rjmp 2f
 7176 28d4 7695      	1:	lsr r23
 7177 28d6 6795      		ror r22
 7178 28d8 5795      		ror r21
 7179 28da 4795      		ror r20
 7180 28dc 8A95      	2:	dec r24
 7181 28de 02F4      		brpl 1b
 7182 28e0 4170      		andi r20,lo8(1)
 7183 28e2 5070      		andi r21,hi8(1)
 7184 28e4 6070      		andi r22,hlo8(1)
 7185 28e6 7070      		andi r23,hhi8(1)
 7186 28e8 80E0      		ldi r24,lo8(Serial)
 7187 28ea 90E0      		ldi r25,hi8(Serial)
 7188 28ec 0E94 0000 		call _ZN16USBVirtualSerial5printEm
 7189               	.LM1153:
 7190 28f0 8091 0000 		lds r24,i
 7191 28f4 9091 0000 		lds r25,(i)+1
 7192 28f8 A091 0000 		lds r26,(i)+2
 7193 28fc B091 0000 		lds r27,(i)+3
 7194 2900 0196      		adiw r24,1
 7195 2902 A11D      		adc r26,__zero_reg__
 7196 2904 B11D      		adc r27,__zero_reg__
 7197 2906 8093 0000 		sts i,r24
 7198 290a 9093 0000 		sts (i)+1,r25
 7199 290e A093 0000 		sts (i)+2,r26
 7200 2912 B093 0000 		sts (i)+3,r27
 7201               	.L375:
 7202 2916 8091 0000 		lds r24,i
 7203 291a 9091 0000 		lds r25,(i)+1
 7204 291e A091 0000 		lds r26,(i)+2
 7205 2922 B091 0000 		lds r27,(i)+3
 7206 2926 8C33      		cpi r24,lo8(60)
 7207 2928 9105      		cpc r25,__zero_reg__
 7208 292a A105      		cpc r26,__zero_reg__
 7209 292c B105      		cpc r27,__zero_reg__
 7210 292e 00F4      		brsh .+2
 7211 2930 00C0      		rjmp .L378
 7212               	.LM1154:
 7213 2932 80E0      		ldi r24,lo8(Serial)
 7214 2934 90E0      		ldi r25,hi8(Serial)
 7215 2936 60E0      		ldi r22,lo8(.LC22)
 7216 2938 70E0      		ldi r23,hi8(.LC22)
 7217 293a 0E94 0000 		call _ZN16USBVirtualSerial5printEPKc
 7218               	.LM1155:
 7219 293e E090 0000 		lds r14,verify1
 7220 2942 F090 0000 		lds r15,(verify1)+1
 7221 2946 0091 0000 		lds r16,(verify1)+2
 7222 294a 1091 0000 		lds r17,(verify1)+3
 7223 294e A090 0000 		lds r10,sensors1
 7224 2952 B090 0000 		lds r11,(sensors1)+1
 7225 2956 C090 0000 		lds r12,(sensors1)+2
 7226 295a D090 0000 		lds r13,(sensors1)+3
 7227 295e AE14      		cp r10,r14
 7228 2960 BF04      		cpc r11,r15
 7229 2962 C006      		cpc r12,r16
 7230 2964 D106      		cpc r13,r17
 7231 2966 00F0      		brlo .L379
 7232 2968 6090 0000 		lds r6,verify2
 7233 296c 7090 0000 		lds r7,(verify2)+1
 7234 2970 8090 0000 		lds r8,(verify2)+2
 7235 2974 9090 0000 		lds r9,(verify2)+3
 7236 2978 2091 0000 		lds r18,sensors2
 7237 297c 3091 0000 		lds r19,(sensors2)+1
 7238 2980 4091 0000 		lds r20,(sensors2)+2
 7239 2984 5091 0000 		lds r21,(sensors2)+3
 7240 2988 2615      		cp r18,r6
 7241 298a 3705      		cpc r19,r7
 7242 298c 4805      		cpc r20,r8
 7243 298e 5905      		cpc r21,r9
 7244 2990 00F4      		brsh .L380
 7245               	.L379:
 7246               	.LM1156:
 7247 2992 81E0      		ldi r24,lo8(1)
 7248 2994 8093 0000 		sts adding,r24
 7249               	.LM1157:
 7250 2998 2091 0000 		lds r18,verify2
 7251 299c 3091 0000 		lds r19,(verify2)+1
 7252 29a0 4091 0000 		lds r20,(verify2)+2
 7253 29a4 5091 0000 		lds r21,(verify2)+3
 7254 29a8 C801      		movw r24,r16
 7255 29aa B701      		movw r22,r14
 7256 29ac 01E0      		ldi r16,lo8(1)
 7257               	.LVL413:
 7258 29ae 0E94 0000 		call _Z19check_sensors_touchmmh
 7259 29b2 00C0      		rjmp .L381
 7260               	.LVL414:
 7261               	.L380:
 7262               	.LM1158:
 7263 29b4 8091 0000 		lds r24,adding
 7264 29b8 8823      		tst r24
 7265 29ba 01F0      		breq .L381
 7266 29bc EA14      		cp r14,r10
 7267 29be FB04      		cpc r15,r11
 7268 29c0 0C05      		cpc r16,r12
 7269 29c2 1D05      		cpc r17,r13
 7270 29c4 00F0      		brlo .L382
 7271 29c6 6216      		cp r6,r18
 7272 29c8 7306      		cpc r7,r19
 7273 29ca 8406      		cpc r8,r20
 7274 29cc 9506      		cpc r9,r21
 7275 29ce 00F4      		brsh .L381
 7276               	.L382:
 7277               	.LM1159:
 7278 29d0 1092 0000 		sts adding,__zero_reg__
 7279               	.LM1160:
 7280 29d4 81E0      		ldi r24,lo8(1)
 7281 29d6 8093 0000 		sts removing,r24
 7282               	.LM1161:
 7283 29da C601      		movw r24,r12
 7284 29dc B501      		movw r22,r10
 7285 29de 01E0      		ldi r16,lo8(1)
 7286               	.LVL415:
 7287 29e0 0E94 0000 		call _Z21check_sensors_releasemmh
 7288               	.LVL416:
 7289               	.L381:
 7290               	.LM1162:
 7291 29e4 8091 0000 		lds r24,verify1
 7292 29e8 9091 0000 		lds r25,(verify1)+1
 7293 29ec A091 0000 		lds r26,(verify1)+2
 7294 29f0 B091 0000 		lds r27,(verify1)+3
 7295 29f4 8093 0000 		sts sensors1,r24
 7296 29f8 9093 0000 		sts (sensors1)+1,r25
 7297 29fc A093 0000 		sts (sensors1)+2,r26
 7298 2a00 B093 0000 		sts (sensors1)+3,r27
 7299               	.LM1163:
 7300 2a04 8091 0000 		lds r24,verify2
 7301 2a08 9091 0000 		lds r25,(verify2)+1
 7302 2a0c A091 0000 		lds r26,(verify2)+2
 7303 2a10 B091 0000 		lds r27,(verify2)+3
 7304 2a14 8093 0000 		sts sensors2,r24
 7305 2a18 9093 0000 		sts (sensors2)+1,r25
 7306 2a1c A093 0000 		sts (sensors2)+2,r26
 7307 2a20 B093 0000 		sts (sensors2)+3,r27
 7308               	.L373:
 7309               	.LM1164:
 7310 2a24 8091 0000 		lds r24,detect1
 7311 2a28 9091 0000 		lds r25,(detect1)+1
 7312 2a2c A091 0000 		lds r26,(detect1)+2
 7313 2a30 B091 0000 		lds r27,(detect1)+3
 7314 2a34 8093 0000 		sts verify1,r24
 7315 2a38 9093 0000 		sts (verify1)+1,r25
 7316 2a3c A093 0000 		sts (verify1)+2,r26
 7317 2a40 B093 0000 		sts (verify1)+3,r27
 7318               	.LM1165:
 7319 2a44 8091 0000 		lds r24,detect2
 7320 2a48 9091 0000 		lds r25,(detect2)+1
 7321 2a4c A091 0000 		lds r26,(detect2)+2
 7322 2a50 B091 0000 		lds r27,(detect2)+3
 7323 2a54 8093 0000 		sts verify2,r24
 7324 2a58 9093 0000 		sts (verify2)+1,r25
 7325 2a5c A093 0000 		sts (verify2)+2,r26
 7326 2a60 B093 0000 		sts (verify2)+3,r27
 7327               	/* epilogue start */
 7328               	.LBE763:
 7329               	.LM1166:
 7330 2a64 1F91      		pop r17
 7331               	.LVL417:
 7332 2a66 0F91      		pop r16
 7333               	.LVL418:
 7334 2a68 FF90      		pop r15
 7335 2a6a EF90      		pop r14
 7336 2a6c DF90      		pop r13
 7337 2a6e CF90      		pop r12
 7338 2a70 BF90      		pop r11
 7339 2a72 AF90      		pop r10
 7340 2a74 9F90      		pop r9
 7341 2a76 8F90      		pop r8
 7342 2a78 7F90      		pop r7
 7343 2a7a 6F90      		pop r6
 7344 2a7c 0895      		ret
 7345               	.LFE175:
 7347               		.data
 7348               	.LC23:
 7349 018a 746F 7563 		.string	"touchset mouseclick "
 7349      6873 6574 
 7349      206D 6F75 
 7349      7365 636C 
 7349      6963 6B20 
 7350               		.text
 7351               	.global	_Z10mouseclickh
 7353               	_Z10mouseclickh:
 7354               	.LFB157:
 7355               	.LM1167:
 7356               	.LVL419:
 7357 2a7e FF92      		push r15
 7358 2a80 0F93      		push r16
 7359 2a82 1F93      		push r17
 7360               	/* prologue: function */
 7361               	/* frame size = 0 */
 7362 2a84 F82E      		mov r15,r24
 7363               	.LM1168:
 7364 2a86 00E0      		ldi r16,lo8(Serial)
 7365 2a88 10E0      		ldi r17,hi8(Serial)
 7366 2a8a C801      		movw r24,r16
 7367               	.LVL420:
 7368 2a8c 60E0      		ldi r22,lo8(.LC23)
 7369 2a8e 70E0      		ldi r23,hi8(.LC23)
 7370 2a90 0E94 0000 		call _ZN16USBVirtualSerial5printEPKc
 7371               	.LM1169:
 7372 2a94 C801      		movw r24,r16
 7373 2a96 6F2D      		mov r22,r15
 7374 2a98 0E94 0000 		call _ZN16USBVirtualSerial7printlnEh
 7375               	.LM1170:
 7376 2a9c 8F2D      		mov r24,r15
 7377 2a9e 0E94 0000 		call _Z9mousedownh
 7378               	.LM1171:
 7379 2aa2 65E0      		ldi r22,lo8(5)
 7380 2aa4 70E0      		ldi r23,hi8(5)
 7381 2aa6 80E0      		ldi r24,hlo8(5)
 7382 2aa8 90E0      		ldi r25,hhi8(5)
 7383 2aaa 0E94 0000 		call delay
 7384               	.LM1172:
 7385 2aae 8F2D      		mov r24,r15
 7386 2ab0 0E94 0000 		call _Z7mouseuph
 7387               	/* epilogue start */
 7388               	.LM1173:
 7389 2ab4 1F91      		pop r17
 7390 2ab6 0F91      		pop r16
 7391 2ab8 FF90      		pop r15
 7392               	.LVL421:
 7393 2aba 0895      		ret
 7394               	.LFE157:
 7396               		.data
 7397               	.LC24:
 7398 019f 6D6F 7573 		.string	"mouse "
 7398      6520 00
 7399               		.text
 7400               	.global	_Z12update_mousev
 7402               	_Z12update_mousev:
 7403               	.LFB145:
 7404               	.LM1174:
 7405 2abc 6F92      		push r6
 7406 2abe 7F92      		push r7
 7407 2ac0 8F92      		push r8
 7408 2ac2 9F92      		push r9
 7409 2ac4 AF92      		push r10
 7410 2ac6 BF92      		push r11
 7411 2ac8 CF92      		push r12
 7412 2aca DF92      		push r13
 7413 2acc EF92      		push r14
 7414 2ace FF92      		push r15
 7415 2ad0 0F93      		push r16
 7416 2ad2 1F93      		push r17
 7417 2ad4 CF93      		push r28
 7418 2ad6 DF93      		push r29
 7419               	/* prologue: function */
 7420               	/* frame size = 0 */
 7421               	.LM1175:
 7422 2ad8 6090 0000 		lds r6,opt_mouse_mode
 7423 2adc 82E0      		ldi r24,lo8(2)
 7424 2ade 6816      		cp r6,r24
 7425 2ae0 01F4      		brne .+2
 7426 2ae2 00C0      		rjmp .L390
 7427 2ae4 8615      		cp r24,r6
 7428 2ae6 00F0      		brlo .L393
 7429 2ae8 91E0      		ldi r25,lo8(1)
 7430 2aea 6916      		cp r6,r25
 7431 2aec 01F0      		breq .+2
 7432 2aee 00C0      		rjmp .L388
 7433 2af0 00C0      		rjmp .L422
 7434               	.L393:
 7435 2af2 83E0      		ldi r24,lo8(3)
 7436 2af4 6816      		cp r6,r24
 7437 2af6 01F4      		brne .+2
 7438 2af8 00C0      		rjmp .L391
 7439 2afa 94E0      		ldi r25,lo8(4)
 7440 2afc 6916      		cp r6,r25
 7441 2afe 01F0      		breq .+2
 7442 2b00 00C0      		rjmp .L388
 7443 2b02 00C0      		rjmp .L423
 7444               	.L422:
 7445               	.LM1176:
 7446 2b04 8091 0000 		lds r24,aset
 7447 2b08 C091 0000 		lds r28,ax
 7448 2b0c D091 0000 		lds r29,(ax)+1
 7449 2b10 8090 0000 		lds r8,ay
 7450 2b14 9090 0000 		lds r9,(ay)+1
 7451 2b18 8823      		tst r24
 7452 2b1a 01F4      		brne .+2
 7453 2b1c 00C0      		rjmp .L394
 7454               	.LM1177:
 7455 2b1e 6091 0000 		lds r22,mx
 7456 2b22 7091 0000 		lds r23,(mx)+1
 7457 2b26 7093 0000 		sts (mx0)+1,r23
 7458 2b2a 6093 0000 		sts mx0,r22
 7459               	.LM1178:
 7460 2b2e E090 0000 		lds r14,my
 7461 2b32 F090 0000 		lds r15,(my)+1
 7462 2b36 F092 0000 		sts (my0)+1,r15
 7463 2b3a E092 0000 		sts my0,r14
 7464               	.LM1179:
 7465 2b3e 80E0      		ldi r24,lo8(0)
 7466 2b40 90E0      		ldi r25,hi8(0)
 7467 2b42 0E94 0000 		call __floatunsisf
 7468 2b46 5B01      		movw r10,r22
 7469 2b48 6C01      		movw r12,r24
 7470 2b4a 8091 0000 		lds r24,axBase
 7471 2b4e 9091 0000 		lds r25,(axBase)+1
 7472 2b52 C81B      		sub r28,r24
 7473 2b54 D90B      		sbc r29,r25
 7474 2b56 BE01      		movw r22,r28
 7475 2b58 8827      		clr r24
 7476 2b5a 77FD      		sbrc r23,7
 7477 2b5c 8095      		com r24
 7478 2b5e 982F      		mov r25,r24
 7479 2b60 0E94 0000 		call __floatsisf
 7480 2b64 2091 0000 		lds r18,opt_mouse_scale_mode1
 7481 2b68 3091 0000 		lds r19,(opt_mouse_scale_mode1)+1
 7482 2b6c 4091 0000 		lds r20,(opt_mouse_scale_mode1)+2
 7483 2b70 5091 0000 		lds r21,(opt_mouse_scale_mode1)+3
 7484 2b74 0E94 0000 		call __divsf3
 7485 2b78 9B01      		movw r18,r22
 7486 2b7a AC01      		movw r20,r24
 7487 2b7c C601      		movw r24,r12
 7488 2b7e B501      		movw r22,r10
 7489 2b80 0E94 0000 		call __subsf3
 7490 2b84 0E94 0000 		call __fixunssfsi
 7491 2b88 7093 0000 		sts (mx)+1,r23
 7492 2b8c 6093 0000 		sts mx,r22
 7493               	.LM1180:
 7494 2b90 00E0      		ldi r16,lo8(0)
 7495 2b92 10E0      		ldi r17,hi8(0)
 7496 2b94 C801      		movw r24,r16
 7497 2b96 B701      		movw r22,r14
 7498 2b98 0E94 0000 		call __floatunsisf
 7499 2b9c 7B01      		movw r14,r22
 7500 2b9e 8C01      		movw r16,r24
 7501 2ba0 8091 0000 		lds r24,ayBase
 7502 2ba4 9091 0000 		lds r25,(ayBase)+1
 7503 2ba8 881A      		sub r8,r24
 7504 2baa 990A      		sbc r9,r25
 7505 2bac B401      		movw r22,r8
 7506 2bae 8827      		clr r24
 7507 2bb0 77FD      		sbrc r23,7
 7508 2bb2 8095      		com r24
 7509 2bb4 982F      		mov r25,r24
 7510 2bb6 0E94 0000 		call __floatsisf
 7511 2bba 2091 0000 		lds r18,opt_mouse_scale_mode1+4
 7512 2bbe 3091 0000 		lds r19,(opt_mouse_scale_mode1+4)+1
 7513 2bc2 4091 0000 		lds r20,(opt_mouse_scale_mode1+4)+2
 7514 2bc6 5091 0000 		lds r21,(opt_mouse_scale_mode1+4)+3
 7515 2bca 0E94 0000 		call __divsf3
 7516 2bce 9B01      		movw r18,r22
 7517 2bd0 AC01      		movw r20,r24
 7518 2bd2 C801      		movw r24,r16
 7519 2bd4 B701      		movw r22,r14
 7520 2bd6 0E94 0000 		call __subsf3
 7521 2bda 0E94 0000 		call __fixunssfsi
 7522 2bde 7093 0000 		sts (my)+1,r23
 7523 2be2 6093 0000 		sts my,r22
 7524               	.LM1181:
 7525 2be6 6092 0000 		sts moveMouse,r6
 7526 2bea 00C0      		rjmp .L388
 7527               	.L394:
 7528               	.LM1182:
 7529 2bec D093 0000 		sts (axBase)+1,r29
 7530 2bf0 C093 0000 		sts axBase,r28
 7531               	.LM1183:
 7532 2bf4 9092 0000 		sts (ayBase)+1,r9
 7533 2bf8 8092 0000 		sts ayBase,r8
 7534               	.LM1184:
 7535 2bfc 8091 0000 		lds r24,az
 7536 2c00 9091 0000 		lds r25,(az)+1
 7537 2c04 9093 0000 		sts (azBase)+1,r25
 7538 2c08 8093 0000 		sts azBase,r24
 7539               	.LM1185:
 7540 2c0c 6092 0000 		sts aset,r6
 7541 2c10 00C0      		rjmp .L388
 7542               	.L390:
 7543               	.LM1186:
 7544 2c12 C091 0000 		lds r28,mx
 7545 2c16 D091 0000 		lds r29,(mx)+1
 7546 2c1a D093 0000 		sts (mx0)+1,r29
 7547 2c1e C093 0000 		sts mx0,r28
 7548               	.LM1187:
 7549 2c22 8090 0000 		lds r8,my
 7550 2c26 9090 0000 		lds r9,(my)+1
 7551 2c2a 9092 0000 		sts (my0)+1,r9
 7552 2c2e 8092 0000 		sts my0,r8
 7553               	.LM1188:
 7554 2c32 2091 0000 		lds r18,gx
 7555 2c36 3091 0000 		lds r19,(gx)+1
 7556 2c3a 37FF      		sbrs r19,7
 7557 2c3c 00C0      		rjmp .L395
 7558 2c3e 6627      		clr r22
 7559 2c40 7727      		clr r23
 7560 2c42 621B      		sub r22,r18
 7561 2c44 730B      		sbc r23,r19
 7562 2c46 8827      		clr r24
 7563 2c48 77FD      		sbrc r23,7
 7564 2c4a 8095      		com r24
 7565 2c4c 982F      		mov r25,r24
 7566 2c4e 0E94 0000 		call __floatsisf
 7567 2c52 0E94 0000 		call sqrt
 7568 2c56 7B01      		movw r14,r22
 7569 2c58 8C01      		movw r16,r24
 7570 2c5a 17FB      		bst r17,7
 7571 2c5c 1095      		com r17
 7572 2c5e 17F9      		bld r17,7
 7573 2c60 1095      		com r17
 7574 2c62 00C0      		rjmp .L396
 7575               	.L395:
 7576 2c64 B901      		movw r22,r18
 7577 2c66 8827      		clr r24
 7578 2c68 77FD      		sbrc r23,7
 7579 2c6a 8095      		com r24
 7580 2c6c 982F      		mov r25,r24
 7581 2c6e 0E94 0000 		call __floatsisf
 7582 2c72 0E94 0000 		call sqrt
 7583 2c76 7B01      		movw r14,r22
 7584 2c78 8C01      		movw r16,r24
 7585               	.L396:
 7586 2c7a BE01      		movw r22,r28
 7587 2c7c 80E0      		ldi r24,lo8(0)
 7588 2c7e 90E0      		ldi r25,hi8(0)
 7589 2c80 0E94 0000 		call __floatunsisf
 7590 2c84 A801      		movw r20,r16
 7591 2c86 9701      		movw r18,r14
 7592 2c88 0E94 0000 		call __addsf3
 7593 2c8c 0E94 0000 		call __fixunssfsi
 7594 2c90 7093 0000 		sts (mx)+1,r23
 7595 2c94 6093 0000 		sts mx,r22
 7596               	.LM1189:
 7597 2c98 2091 0000 		lds r18,gy
 7598 2c9c 3091 0000 		lds r19,(gy)+1
 7599 2ca0 37FF      		sbrs r19,7
 7600 2ca2 00C0      		rjmp .L397
 7601 2ca4 6627      		clr r22
 7602 2ca6 7727      		clr r23
 7603 2ca8 621B      		sub r22,r18
 7604 2caa 730B      		sbc r23,r19
 7605 2cac 8827      		clr r24
 7606 2cae 77FD      		sbrc r23,7
 7607 2cb0 8095      		com r24
 7608 2cb2 982F      		mov r25,r24
 7609 2cb4 0E94 0000 		call __floatsisf
 7610 2cb8 0E94 0000 		call sqrt
 7611 2cbc 7B01      		movw r14,r22
 7612 2cbe 8C01      		movw r16,r24
 7613 2cc0 17FB      		bst r17,7
 7614 2cc2 1095      		com r17
 7615 2cc4 17F9      		bld r17,7
 7616 2cc6 1095      		com r17
 7617 2cc8 00C0      		rjmp .L398
 7618               	.L397:
 7619 2cca B901      		movw r22,r18
 7620 2ccc 8827      		clr r24
 7621 2cce 77FD      		sbrc r23,7
 7622 2cd0 8095      		com r24
 7623 2cd2 982F      		mov r25,r24
 7624 2cd4 0E94 0000 		call __floatsisf
 7625 2cd8 0E94 0000 		call sqrt
 7626 2cdc 7B01      		movw r14,r22
 7627 2cde 8C01      		movw r16,r24
 7628               	.L398:
 7629 2ce0 B401      		movw r22,r8
 7630 2ce2 80E0      		ldi r24,lo8(0)
 7631 2ce4 90E0      		ldi r25,hi8(0)
 7632 2ce6 0E94 0000 		call __floatunsisf
 7633 2cea A801      		movw r20,r16
 7634 2cec 9701      		movw r18,r14
 7635 2cee 0E94 0000 		call __addsf3
 7636 2cf2 00C0      		rjmp .L421
 7637               	.L391:
 7638               	.LM1190:
 7639 2cf4 8091 0000 		lds r24,aset
 7640 2cf8 C091 0000 		lds r28,x
 7641 2cfc D091 0000 		lds r29,(x)+1
 7642 2d00 8090 0000 		lds r8,z
 7643 2d04 9090 0000 		lds r9,(z)+1
 7644 2d08 8823      		tst r24
 7645 2d0a 01F4      		brne .+2
 7646 2d0c 00C0      		rjmp .L399
 7647               	.LM1191:
 7648 2d0e 6091 0000 		lds r22,mx
 7649 2d12 7091 0000 		lds r23,(mx)+1
 7650 2d16 7093 0000 		sts (mx0)+1,r23
 7651 2d1a 6093 0000 		sts mx0,r22
 7652               	.LM1192:
 7653 2d1e E090 0000 		lds r14,my
 7654 2d22 F090 0000 		lds r15,(my)+1
 7655 2d26 F092 0000 		sts (my0)+1,r15
 7656 2d2a E092 0000 		sts my0,r14
 7657               	.LM1193:
 7658 2d2e 80E0      		ldi r24,lo8(0)
 7659 2d30 90E0      		ldi r25,hi8(0)
 7660 2d32 0E94 0000 		call __floatunsisf
 7661 2d36 5B01      		movw r10,r22
 7662 2d38 6C01      		movw r12,r24
 7663 2d3a 8091 0000 		lds r24,xBase
 7664 2d3e 9091 0000 		lds r25,(xBase)+1
 7665 2d42 C81B      		sub r28,r24
 7666 2d44 D90B      		sbc r29,r25
 7667 2d46 BE01      		movw r22,r28
 7668 2d48 8827      		clr r24
 7669 2d4a 77FD      		sbrc r23,7
 7670 2d4c 8095      		com r24
 7671 2d4e 982F      		mov r25,r24
 7672 2d50 0E94 0000 		call __floatsisf
 7673 2d54 2091 0000 		lds r18,opt_mouse_scale_mode3
 7674 2d58 3091 0000 		lds r19,(opt_mouse_scale_mode3)+1
 7675 2d5c 4091 0000 		lds r20,(opt_mouse_scale_mode3)+2
 7676 2d60 5091 0000 		lds r21,(opt_mouse_scale_mode3)+3
 7677 2d64 0E94 0000 		call __divsf3
 7678 2d68 9B01      		movw r18,r22
 7679 2d6a AC01      		movw r20,r24
 7680 2d6c C601      		movw r24,r12
 7681 2d6e B501      		movw r22,r10
 7682 2d70 0E94 0000 		call __subsf3
 7683 2d74 0E94 0000 		call __fixunssfsi
 7684 2d78 7093 0000 		sts (mx)+1,r23
 7685 2d7c 6093 0000 		sts mx,r22
 7686               	.LM1194:
 7687 2d80 00E0      		ldi r16,lo8(0)
 7688 2d82 10E0      		ldi r17,hi8(0)
 7689 2d84 C801      		movw r24,r16
 7690 2d86 B701      		movw r22,r14
 7691 2d88 0E94 0000 		call __floatunsisf
 7692 2d8c 7B01      		movw r14,r22
 7693 2d8e 8C01      		movw r16,r24
 7694 2d90 80E0      		ldi r24,lo8(-256)
 7695 2d92 9FEF      		ldi r25,hi8(-256)
 7696 2d94 880E      		add r8,r24
 7697 2d96 991E      		adc r9,r25
 7698 2d98 8091 0000 		lds r24,zBase
 7699 2d9c 9091 0000 		lds r25,(zBase)+1
 7700 2da0 881A      		sub r8,r24
 7701 2da2 990A      		sbc r9,r25
 7702 2da4 B401      		movw r22,r8
 7703 2da6 8827      		clr r24
 7704 2da8 77FD      		sbrc r23,7
 7705 2daa 8095      		com r24
 7706 2dac 982F      		mov r25,r24
 7707 2dae 0E94 0000 		call __floatsisf
 7708 2db2 2091 0000 		lds r18,opt_mouse_scale_mode3+4
 7709 2db6 3091 0000 		lds r19,(opt_mouse_scale_mode3+4)+1
 7710 2dba 4091 0000 		lds r20,(opt_mouse_scale_mode3+4)+2
 7711 2dbe 5091 0000 		lds r21,(opt_mouse_scale_mode3+4)+3
 7712 2dc2 0E94 0000 		call __divsf3
 7713 2dc6 9B01      		movw r18,r22
 7714 2dc8 AC01      		movw r20,r24
 7715 2dca C801      		movw r24,r16
 7716 2dcc B701      		movw r22,r14
 7717 2dce 0E94 0000 		call __subsf3
 7718               	.L421:
 7719 2dd2 0E94 0000 		call __fixunssfsi
 7720 2dd6 7093 0000 		sts (my)+1,r23
 7721 2dda 6093 0000 		sts my,r22
 7722 2dde 00C0      		rjmp .L419
 7723               	.L399:
 7724               	.LM1195:
 7725 2de0 D093 0000 		sts (xBase)+1,r29
 7726 2de4 C093 0000 		sts xBase,r28
 7727               	.LM1196:
 7728 2de8 8091 0000 		lds r24,y
 7729 2dec 9091 0000 		lds r25,(y)+1
 7730 2df0 9093 0000 		sts (yBase)+1,r25
 7731 2df4 8093 0000 		sts yBase,r24
 7732               	.LM1197:
 7733 2df8 80E0      		ldi r24,lo8(-256)
 7734 2dfa 9FEF      		ldi r25,hi8(-256)
 7735 2dfc 880E      		add r8,r24
 7736 2dfe 991E      		adc r9,r25
 7737 2e00 9092 0000 		sts (zBase)+1,r9
 7738 2e04 8092 0000 		sts zBase,r8
 7739               	.LM1198:
 7740 2e08 81E0      		ldi r24,lo8(1)
 7741 2e0a 8093 0000 		sts aset,r24
 7742 2e0e 00C0      		rjmp .L388
 7743               	.L423:
 7744               	.LM1199:
 7745 2e10 6091 0000 		lds r22,mx
 7746 2e14 7091 0000 		lds r23,(mx)+1
 7747 2e18 7093 0000 		sts (mx0)+1,r23
 7748 2e1c 6093 0000 		sts mx0,r22
 7749               	.LM1200:
 7750 2e20 E090 0000 		lds r14,my
 7751 2e24 F090 0000 		lds r15,(my)+1
 7752 2e28 F092 0000 		sts (my0)+1,r15
 7753 2e2c E092 0000 		sts my0,r14
 7754               	.LM1201:
 7755 2e30 A090 0000 		lds r10,mz
 7756 2e34 B090 0000 		lds r11,(mz)+1
 7757 2e38 B092 0000 		sts (mz0)+1,r11
 7758 2e3c A092 0000 		sts mz0,r10
 7759               	.LM1202:
 7760 2e40 80E0      		ldi r24,lo8(0)
 7761 2e42 90E0      		ldi r25,hi8(0)
 7762 2e44 0E94 0000 		call __floatunsisf
 7763 2e48 3B01      		movw r6,r22
 7764 2e4a 4C01      		movw r8,r24
 7765 2e4c 6091 0000 		lds r22,xv
 7766 2e50 7091 0000 		lds r23,(xv)+1
 7767 2e54 8827      		clr r24
 7768 2e56 77FD      		sbrc r23,7
 7769 2e58 8095      		com r24
 7770 2e5a 982F      		mov r25,r24
 7771 2e5c 0E94 0000 		call __floatsisf
 7772 2e60 2091 0000 		lds r18,opt_mouse_scale_mode4
 7773 2e64 3091 0000 		lds r19,(opt_mouse_scale_mode4)+1
 7774 2e68 4091 0000 		lds r20,(opt_mouse_scale_mode4)+2
 7775 2e6c 5091 0000 		lds r21,(opt_mouse_scale_mode4)+3
 7776 2e70 0E94 0000 		call __divsf3
 7777 2e74 9B01      		movw r18,r22
 7778 2e76 AC01      		movw r20,r24
 7779 2e78 C401      		movw r24,r8
 7780 2e7a B301      		movw r22,r6
 7781 2e7c 0E94 0000 		call __subsf3
 7782 2e80 0E94 0000 		call __fixunssfsi
 7783 2e84 7093 0000 		sts (mx)+1,r23
 7784 2e88 6093 0000 		sts mx,r22
 7785               	.LM1203:
 7786 2e8c 00E0      		ldi r16,lo8(0)
 7787 2e8e 10E0      		ldi r17,hi8(0)
 7788 2e90 C801      		movw r24,r16
 7789 2e92 B701      		movw r22,r14
 7790 2e94 0E94 0000 		call __floatunsisf
 7791 2e98 7B01      		movw r14,r22
 7792 2e9a 8C01      		movw r16,r24
 7793 2e9c 6091 0000 		lds r22,zv
 7794 2ea0 7091 0000 		lds r23,(zv)+1
 7795 2ea4 8827      		clr r24
 7796 2ea6 77FD      		sbrc r23,7
 7797 2ea8 8095      		com r24
 7798 2eaa 982F      		mov r25,r24
 7799 2eac 0E94 0000 		call __floatsisf
 7800 2eb0 2091 0000 		lds r18,opt_mouse_scale_mode4+4
 7801 2eb4 3091 0000 		lds r19,(opt_mouse_scale_mode4+4)+1
 7802 2eb8 4091 0000 		lds r20,(opt_mouse_scale_mode4+4)+2
 7803 2ebc 5091 0000 		lds r21,(opt_mouse_scale_mode4+4)+3
 7804 2ec0 0E94 0000 		call __divsf3
 7805 2ec4 9B01      		movw r18,r22
 7806 2ec6 AC01      		movw r20,r24
 7807 2ec8 C801      		movw r24,r16
 7808 2eca B701      		movw r22,r14
 7809 2ecc 0E94 0000 		call __subsf3
 7810 2ed0 0E94 0000 		call __fixunssfsi
 7811 2ed4 7093 0000 		sts (my)+1,r23
 7812 2ed8 6093 0000 		sts my,r22
 7813               	.LM1204:
 7814 2edc CC24      		clr r12
 7815 2ede DD24      		clr r13
 7816 2ee0 C601      		movw r24,r12
 7817 2ee2 B501      		movw r22,r10
 7818 2ee4 0E94 0000 		call __floatunsisf
 7819 2ee8 7B01      		movw r14,r22
 7820 2eea 8C01      		movw r16,r24
 7821 2eec 6091 0000 		lds r22,yv
 7822 2ef0 7091 0000 		lds r23,(yv)+1
 7823 2ef4 8827      		clr r24
 7824 2ef6 77FD      		sbrc r23,7
 7825 2ef8 8095      		com r24
 7826 2efa 982F      		mov r25,r24
 7827 2efc 0E94 0000 		call __floatsisf
 7828 2f00 2091 0000 		lds r18,opt_mouse_scale_mode4+8
 7829 2f04 3091 0000 		lds r19,(opt_mouse_scale_mode4+8)+1
 7830 2f08 4091 0000 		lds r20,(opt_mouse_scale_mode4+8)+2
 7831 2f0c 5091 0000 		lds r21,(opt_mouse_scale_mode4+8)+3
 7832 2f10 0E94 0000 		call __divsf3
 7833 2f14 9B01      		movw r18,r22
 7834 2f16 AC01      		movw r20,r24
 7835 2f18 C801      		movw r24,r16
 7836 2f1a B701      		movw r22,r14
 7837 2f1c 0E94 0000 		call __subsf3
 7838 2f20 0E94 0000 		call __fixunssfsi
 7839 2f24 7093 0000 		sts (mz)+1,r23
 7840 2f28 6093 0000 		sts mz,r22
 7841               	.L419:
 7842               	.LM1205:
 7843 2f2c 81E0      		ldi r24,lo8(1)
 7844 2f2e 8093 0000 		sts moveMouse,r24
 7845               	.L388:
 7846               	.LM1206:
 7847 2f32 6090 0000 		lds r6,opt_scroll_mode
 7848 2f36 92E0      		ldi r25,lo8(2)
 7849 2f38 6916      		cp r6,r25
 7850 2f3a 01F4      		brne .+2
 7851 2f3c 00C0      		rjmp .L402
 7852 2f3e 83E0      		ldi r24,lo8(3)
 7853 2f40 6816      		cp r6,r24
 7854 2f42 01F4      		brne .+2
 7855 2f44 00C0      		rjmp .L403
 7856 2f46 91E0      		ldi r25,lo8(1)
 7857 2f48 6916      		cp r6,r25
 7858 2f4a 01F0      		breq .+2
 7859 2f4c 00C0      		rjmp .L400
 7860               	.LM1207:
 7861 2f4e 8091 0000 		lds r24,aset
 7862 2f52 C091 0000 		lds r28,ax
 7863 2f56 D091 0000 		lds r29,(ax)+1
 7864 2f5a 8090 0000 		lds r8,ay
 7865 2f5e 9090 0000 		lds r9,(ay)+1
 7866 2f62 8823      		tst r24
 7867 2f64 01F4      		brne .+2
 7868 2f66 00C0      		rjmp .L404
 7869               	.LM1208:
 7870 2f68 6091 0000 		lds r22,mx
 7871 2f6c 7091 0000 		lds r23,(mx)+1
 7872 2f70 7093 0000 		sts (mx0)+1,r23
 7873 2f74 6093 0000 		sts mx0,r22
 7874               	.LM1209:
 7875 2f78 E090 0000 		lds r14,my
 7876 2f7c F090 0000 		lds r15,(my)+1
 7877 2f80 F092 0000 		sts (my0)+1,r15
 7878 2f84 E092 0000 		sts my0,r14
 7879               	.LM1210:
 7880 2f88 80E0      		ldi r24,lo8(0)
 7881 2f8a 90E0      		ldi r25,hi8(0)
 7882 2f8c 0E94 0000 		call __floatunsisf
 7883 2f90 5B01      		movw r10,r22
 7884 2f92 6C01      		movw r12,r24
 7885 2f94 8091 0000 		lds r24,axBase
 7886 2f98 9091 0000 		lds r25,(axBase)+1
 7887 2f9c C81B      		sub r28,r24
 7888 2f9e D90B      		sbc r29,r25
 7889 2fa0 BE01      		movw r22,r28
 7890 2fa2 8827      		clr r24
 7891 2fa4 77FD      		sbrc r23,7
 7892 2fa6 8095      		com r24
 7893 2fa8 982F      		mov r25,r24
 7894 2faa 0E94 0000 		call __floatsisf
 7895 2fae 2091 0000 		lds r18,opt_mouse_scale_mode1
 7896 2fb2 3091 0000 		lds r19,(opt_mouse_scale_mode1)+1
 7897 2fb6 4091 0000 		lds r20,(opt_mouse_scale_mode1)+2
 7898 2fba 5091 0000 		lds r21,(opt_mouse_scale_mode1)+3
 7899 2fbe 0E94 0000 		call __divsf3
 7900 2fc2 9B01      		movw r18,r22
 7901 2fc4 AC01      		movw r20,r24
 7902 2fc6 C601      		movw r24,r12
 7903 2fc8 B501      		movw r22,r10
 7904 2fca 0E94 0000 		call __subsf3
 7905 2fce 0E94 0000 		call __fixunssfsi
 7906 2fd2 7093 0000 		sts (mx)+1,r23
 7907 2fd6 6093 0000 		sts mx,r22
 7908               	.LM1211:
 7909 2fda 00E0      		ldi r16,lo8(0)
 7910 2fdc 10E0      		ldi r17,hi8(0)
 7911 2fde C801      		movw r24,r16
 7912 2fe0 B701      		movw r22,r14
 7913 2fe2 0E94 0000 		call __floatunsisf
 7914 2fe6 7B01      		movw r14,r22
 7915 2fe8 8C01      		movw r16,r24
 7916 2fea 8091 0000 		lds r24,ayBase
 7917 2fee 9091 0000 		lds r25,(ayBase)+1
 7918 2ff2 881A      		sub r8,r24
 7919 2ff4 990A      		sbc r9,r25
 7920 2ff6 B401      		movw r22,r8
 7921 2ff8 8827      		clr r24
 7922 2ffa 77FD      		sbrc r23,7
 7923 2ffc 8095      		com r24
 7924 2ffe 982F      		mov r25,r24
 7925 3000 0E94 0000 		call __floatsisf
 7926 3004 2091 0000 		lds r18,opt_mouse_scale_mode1+4
 7927 3008 3091 0000 		lds r19,(opt_mouse_scale_mode1+4)+1
 7928 300c 4091 0000 		lds r20,(opt_mouse_scale_mode1+4)+2
 7929 3010 5091 0000 		lds r21,(opt_mouse_scale_mode1+4)+3
 7930 3014 0E94 0000 		call __divsf3
 7931 3018 9B01      		movw r18,r22
 7932 301a AC01      		movw r20,r24
 7933 301c C801      		movw r24,r16
 7934 301e B701      		movw r22,r14
 7935 3020 0E94 0000 		call __subsf3
 7936 3024 0E94 0000 		call __fixunssfsi
 7937 3028 7093 0000 		sts (my)+1,r23
 7938 302c 6093 0000 		sts my,r22
 7939               	.LM1212:
 7940 3030 6092 0000 		sts scrollMouse,r6
 7941 3034 00C0      		rjmp .L400
 7942               	.L404:
 7943               	.LM1213:
 7944 3036 D093 0000 		sts (axBase)+1,r29
 7945 303a C093 0000 		sts axBase,r28
 7946               	.LM1214:
 7947 303e 9092 0000 		sts (ayBase)+1,r9
 7948 3042 8092 0000 		sts ayBase,r8
 7949               	.LM1215:
 7950 3046 8091 0000 		lds r24,az
 7951 304a 9091 0000 		lds r25,(az)+1
 7952 304e 9093 0000 		sts (azBase)+1,r25
 7953 3052 8093 0000 		sts azBase,r24
 7954               	.LM1216:
 7955 3056 6092 0000 		sts aset,r6
 7956 305a 00C0      		rjmp .L400
 7957               	.L402:
 7958               	.LM1217:
 7959 305c C091 0000 		lds r28,sy
 7960 3060 D091 0000 		lds r29,(sy)+1
 7961 3064 D093 0000 		sts (sy0)+1,r29
 7962 3068 C093 0000 		sts sy0,r28
 7963               	.LM1218:
 7964 306c 8091 0000 		lds r24,gx
 7965 3070 9091 0000 		lds r25,(gx)+1
 7966 3074 97FF      		sbrs r25,7
 7967 3076 00C0      		rjmp .L405
 7968 3078 62EE      		ldi r22,lo8(-30)
 7969 307a 7FEF      		ldi r23,hi8(-30)
 7970 307c 0E94 0000 		call __divmodhi4
 7971 3080 8827      		clr r24
 7972 3082 77FD      		sbrc r23,7
 7973 3084 8095      		com r24
 7974 3086 982F      		mov r25,r24
 7975 3088 0E94 0000 		call __floatsisf
 7976 308c 0E94 0000 		call sqrt
 7977 3090 7B01      		movw r14,r22
 7978 3092 8C01      		movw r16,r24
 7979 3094 17FB      		bst r17,7
 7980 3096 1095      		com r17
 7981 3098 17F9      		bld r17,7
 7982 309a 1095      		com r17
 7983 309c 00C0      		rjmp .L406
 7984               	.L405:
 7985 309e 6EE1      		ldi r22,lo8(30)
 7986 30a0 70E0      		ldi r23,hi8(30)
 7987 30a2 0E94 0000 		call __divmodhi4
 7988 30a6 8827      		clr r24
 7989 30a8 77FD      		sbrc r23,7
 7990 30aa 8095      		com r24
 7991 30ac 982F      		mov r25,r24
 7992 30ae 0E94 0000 		call __floatsisf
 7993 30b2 0E94 0000 		call sqrt
 7994 30b6 7B01      		movw r14,r22
 7995 30b8 8C01      		movw r16,r24
 7996               	.L406:
 7997 30ba BE01      		movw r22,r28
 7998 30bc 80E0      		ldi r24,lo8(0)
 7999 30be 90E0      		ldi r25,hi8(0)
 8000 30c0 0E94 0000 		call __floatunsisf
 8001 30c4 A801      		movw r20,r16
 8002 30c6 9701      		movw r18,r14
 8003 30c8 0E94 0000 		call __subsf3
 8004 30cc 0E94 0000 		call __fixunssfsi
 8005 30d0 7093 0000 		sts (sy)+1,r23
 8006 30d4 6093 0000 		sts sy,r22
 8007 30d8 00C0      		rjmp .L420
 8008               	.L403:
 8009               	.LM1219:
 8010 30da 8091 0000 		lds r24,aset
 8011 30de C091 0000 		lds r28,x
 8012 30e2 D091 0000 		lds r29,(x)+1
 8013 30e6 8090 0000 		lds r8,z
 8014 30ea 9090 0000 		lds r9,(z)+1
 8015 30ee 8823      		tst r24
 8016 30f0 01F4      		brne .+2
 8017 30f2 00C0      		rjmp .L407
 8018               	.LM1220:
 8019 30f4 6091 0000 		lds r22,mx
 8020 30f8 7091 0000 		lds r23,(mx)+1
 8021 30fc 7093 0000 		sts (mx0)+1,r23
 8022 3100 6093 0000 		sts mx0,r22
 8023               	.LM1221:
 8024 3104 E090 0000 		lds r14,my
 8025 3108 F090 0000 		lds r15,(my)+1
 8026 310c F092 0000 		sts (my0)+1,r15
 8027 3110 E092 0000 		sts my0,r14
 8028               	.LM1222:
 8029 3114 80E0      		ldi r24,lo8(0)
 8030 3116 90E0      		ldi r25,hi8(0)
 8031 3118 0E94 0000 		call __floatunsisf
 8032 311c 5B01      		movw r10,r22
 8033 311e 6C01      		movw r12,r24
 8034 3120 8091 0000 		lds r24,xBase
 8035 3124 9091 0000 		lds r25,(xBase)+1
 8036 3128 C81B      		sub r28,r24
 8037 312a D90B      		sbc r29,r25
 8038 312c BE01      		movw r22,r28
 8039 312e 8827      		clr r24
 8040 3130 77FD      		sbrc r23,7
 8041 3132 8095      		com r24
 8042 3134 982F      		mov r25,r24
 8043 3136 0E94 0000 		call __floatsisf
 8044 313a 2091 0000 		lds r18,opt_mouse_scale_mode3
 8045 313e 3091 0000 		lds r19,(opt_mouse_scale_mode3)+1
 8046 3142 4091 0000 		lds r20,(opt_mouse_scale_mode3)+2
 8047 3146 5091 0000 		lds r21,(opt_mouse_scale_mode3)+3
 8048 314a 0E94 0000 		call __divsf3
 8049 314e 9B01      		movw r18,r22
 8050 3150 AC01      		movw r20,r24
 8051 3152 C601      		movw r24,r12
 8052 3154 B501      		movw r22,r10
 8053 3156 0E94 0000 		call __subsf3
 8054 315a 0E94 0000 		call __fixunssfsi
 8055 315e 7093 0000 		sts (mx)+1,r23
 8056 3162 6093 0000 		sts mx,r22
 8057               	.LM1223:
 8058 3166 00E0      		ldi r16,lo8(0)
 8059 3168 10E0      		ldi r17,hi8(0)
 8060 316a C801      		movw r24,r16
 8061 316c B701      		movw r22,r14
 8062 316e 0E94 0000 		call __floatunsisf
 8063 3172 7B01      		movw r14,r22
 8064 3174 8C01      		movw r16,r24
 8065 3176 80E0      		ldi r24,lo8(-256)
 8066 3178 9FEF      		ldi r25,hi8(-256)
 8067 317a 880E      		add r8,r24
 8068 317c 991E      		adc r9,r25
 8069 317e 8091 0000 		lds r24,zBase
 8070 3182 9091 0000 		lds r25,(zBase)+1
 8071 3186 881A      		sub r8,r24
 8072 3188 990A      		sbc r9,r25
 8073 318a B401      		movw r22,r8
 8074 318c 8827      		clr r24
 8075 318e 77FD      		sbrc r23,7
 8076 3190 8095      		com r24
 8077 3192 982F      		mov r25,r24
 8078 3194 0E94 0000 		call __floatsisf
 8079 3198 2091 0000 		lds r18,opt_mouse_scale_mode3+4
 8080 319c 3091 0000 		lds r19,(opt_mouse_scale_mode3+4)+1
 8081 31a0 4091 0000 		lds r20,(opt_mouse_scale_mode3+4)+2
 8082 31a4 5091 0000 		lds r21,(opt_mouse_scale_mode3+4)+3
 8083 31a8 0E94 0000 		call __divsf3
 8084 31ac 9B01      		movw r18,r22
 8085 31ae AC01      		movw r20,r24
 8086 31b0 C801      		movw r24,r16
 8087 31b2 B701      		movw r22,r14
 8088 31b4 0E94 0000 		call __subsf3
 8089 31b8 0E94 0000 		call __fixunssfsi
 8090 31bc 7093 0000 		sts (my)+1,r23
 8091 31c0 6093 0000 		sts my,r22
 8092               	.L420:
 8093               	.LM1224:
 8094 31c4 81E0      		ldi r24,lo8(1)
 8095 31c6 8093 0000 		sts scrollMouse,r24
 8096 31ca 00C0      		rjmp .L400
 8097               	.L407:
 8098               	.LM1225:
 8099 31cc D093 0000 		sts (xBase)+1,r29
 8100 31d0 C093 0000 		sts xBase,r28
 8101               	.LM1226:
 8102 31d4 8091 0000 		lds r24,y
 8103 31d8 9091 0000 		lds r25,(y)+1
 8104 31dc 9093 0000 		sts (yBase)+1,r25
 8105 31e0 8093 0000 		sts yBase,r24
 8106               	.LM1227:
 8107 31e4 80E0      		ldi r24,lo8(-256)
 8108 31e6 9FEF      		ldi r25,hi8(-256)
 8109 31e8 880E      		add r8,r24
 8110 31ea 991E      		adc r9,r25
 8111 31ec 9092 0000 		sts (zBase)+1,r9
 8112 31f0 8092 0000 		sts zBase,r8
 8113               	.LM1228:
 8114 31f4 81E0      		ldi r24,lo8(1)
 8115 31f6 8093 0000 		sts aset,r24
 8116               	.L400:
 8117               	.LM1229:
 8118 31fa 2091 0000 		lds r18,mx
 8119 31fe 3091 0000 		lds r19,(mx)+1
 8120 3202 8091 0000 		lds r24,mx0
 8121 3206 9091 0000 		lds r25,(mx0)+1
 8122 320a 281B      		sub r18,r24
 8123 320c 390B      		sbc r19,r25
 8124 320e 3093 0000 		sts (mdx)+1,r19
 8125 3212 2093 0000 		sts mdx,r18
 8126               	.LM1230:
 8127 3216 4091 0000 		lds r20,my
 8128 321a 5091 0000 		lds r21,(my)+1
 8129 321e 8091 0000 		lds r24,my0
 8130 3222 9091 0000 		lds r25,(my0)+1
 8131 3226 481B      		sub r20,r24
 8132 3228 590B      		sbc r21,r25
 8133 322a 5093 0000 		sts (mdy)+1,r21
 8134 322e 4093 0000 		sts mdy,r20
 8135               	.LM1231:
 8136 3232 6091 0000 		lds r22,mz
 8137 3236 7091 0000 		lds r23,(mz)+1
 8138 323a 8091 0000 		lds r24,mz0
 8139 323e 9091 0000 		lds r25,(mz0)+1
 8140 3242 681B      		sub r22,r24
 8141 3244 790B      		sbc r23,r25
 8142 3246 7093 0000 		sts (mdz)+1,r23
 8143 324a 6093 0000 		sts mdz,r22
 8144               	.LM1232:
 8145 324e 8091 0000 		lds r24,opt_mouse_invert_x
 8146 3252 8130      		cpi r24,lo8(1)
 8147 3254 01F4      		brne .L408
 8148 3256 8827      		clr r24
 8149 3258 9927      		clr r25
 8150 325a 821B      		sub r24,r18
 8151 325c 930B      		sbc r25,r19
 8152 325e 9093 0000 		sts (mdx)+1,r25
 8153 3262 8093 0000 		sts mdx,r24
 8154               	.L408:
 8155               	.LM1233:
 8156 3266 8091 0000 		lds r24,opt_mouse_invert_y
 8157 326a 8130      		cpi r24,lo8(1)
 8158 326c 01F4      		brne .L409
 8159 326e 8827      		clr r24
 8160 3270 9927      		clr r25
 8161 3272 841B      		sub r24,r20
 8162 3274 950B      		sbc r25,r21
 8163 3276 9093 0000 		sts (mdy)+1,r25
 8164 327a 8093 0000 		sts mdy,r24
 8165               	.L409:
 8166               	.LM1234:
 8167 327e 8091 0000 		lds r24,opt_mouse_invert_z
 8168 3282 8130      		cpi r24,lo8(1)
 8169 3284 01F4      		brne .L410
 8170 3286 8827      		clr r24
 8171 3288 9927      		clr r25
 8172 328a 861B      		sub r24,r22
 8173 328c 970B      		sbc r25,r23
 8174 328e 9093 0000 		sts (mdz)+1,r25
 8175 3292 8093 0000 		sts mdz,r24
 8176               	.L410:
 8177               	.LM1235:
 8178 3296 8091 0000 		lds r24,moveMouse
 8179 329a 8823      		tst r24
 8180 329c 01F4      		brne .+2
 8181 329e 00C0      		rjmp .L411
 8182 32a0 8091 0000 		lds r24,opt_mouse_mode
 8183 32a4 8823      		tst r24
 8184 32a6 01F4      		brne .+2
 8185 32a8 00C0      		rjmp .L411
 8186 32aa 6091 0000 		lds r22,mdx
 8187 32ae 7091 0000 		lds r23,(mdx)+1
 8188 32b2 6115      		cp r22,__zero_reg__
 8189 32b4 7105      		cpc r23,__zero_reg__
 8190 32b6 01F4      		brne .L412
 8191 32b8 8091 0000 		lds r24,mdy
 8192 32bc 9091 0000 		lds r25,(mdy)+1
 8193 32c0 892B      		or r24,r25
 8194 32c2 01F4      		brne .L412
 8195 32c4 8091 0000 		lds r24,mdz
 8196 32c8 9091 0000 		lds r25,(mdz)+1
 8197 32cc 892B      		or r24,r25
 8198 32ce 01F4      		brne .+2
 8199 32d0 00C0      		rjmp .L411
 8200               	.L412:
 8201               	.LM1236:
 8202 32d2 2091 0000 		lds r18,mdz
 8203 32d6 3091 0000 		lds r19,(mdz)+1
 8204 32da 2115      		cp r18,__zero_reg__
 8205 32dc 3105      		cpc r19,__zero_reg__
 8206 32de 01F0      		breq .L413
 8207 32e0 80E0      		ldi r24,lo8(Mouse)
 8208 32e2 90E0      		ldi r25,hi8(Mouse)
 8209 32e4 4091 0000 		lds r20,mdy
 8210 32e8 0E94 0000 		call _ZN8USBMouse4moveEhhh
 8211 32ec 00C0      		rjmp .L414
 8212               	.L413:
 8213               	.LM1237:
 8214 32ee 80E0      		ldi r24,lo8(Mouse)
 8215 32f0 90E0      		ldi r25,hi8(Mouse)
 8216 32f2 4091 0000 		lds r20,mdy
 8217 32f6 0E94 0000 		call _ZN8USBMouse4moveEhh
 8218               	.L414:
 8219               	.LM1238:
 8220 32fa 2091 0000 		lds r18,mdz
 8221 32fe 3091 0000 		lds r19,(mdz)+1
 8222 3302 2115      		cp r18,__zero_reg__
 8223 3304 3105      		cpc r19,__zero_reg__
 8224 3306 01F0      		breq .L415
 8225 3308 80E0      		ldi r24,lo8(bluetooth)
 8226 330a 90E0      		ldi r25,hi8(bluetooth)
 8227 330c 6091 0000 		lds r22,mdx
 8228 3310 4091 0000 		lds r20,mdy
 8229 3314 0E94 0000 		call _ZN5iWRAP4moveEhhh
 8230 3318 00C0      		rjmp .L416
 8231               	.L415:
 8232               	.LM1239:
 8233 331a 80E0      		ldi r24,lo8(bluetooth)
 8234 331c 90E0      		ldi r25,hi8(bluetooth)
 8235 331e 6091 0000 		lds r22,mdx
 8236 3322 4091 0000 		lds r20,mdy
 8237 3326 0E94 0000 		call _ZN5iWRAP4moveEhh
 8238               	.L416:
 8239               	.LM1240:
 8240 332a 80E0      		ldi r24,lo8(Serial)
 8241 332c 90E0      		ldi r25,hi8(Serial)
 8242 332e 60E0      		ldi r22,lo8(.LC24)
 8243 3330 70E0      		ldi r23,hi8(.LC24)
 8244 3332 0E94 0000 		call _ZN16USBVirtualSerial5printEPKc
 8245               	.LM1241:
 8246 3336 6091 0000 		lds r22,mx
 8247 333a 7091 0000 		lds r23,(mx)+1
 8248 333e 80E0      		ldi r24,lo8(Serial)
 8249 3340 90E0      		ldi r25,hi8(Serial)
 8250 3342 0E94 0000 		call _ZN16USBVirtualSerial5printEj
 8251 3346 80E0      		ldi r24,lo8(Serial)
 8252 3348 90E0      		ldi r25,hi8(Serial)
 8253 334a 60E0      		ldi r22,lo8(.LC1)
 8254 334c 70E0      		ldi r23,hi8(.LC1)
 8255 334e 0E94 0000 		call _ZN16USBVirtualSerial5printEPKc
 8256               	.LM1242:
 8257 3352 6091 0000 		lds r22,my
 8258 3356 7091 0000 		lds r23,(my)+1
 8259 335a 80E0      		ldi r24,lo8(Serial)
 8260 335c 90E0      		ldi r25,hi8(Serial)
 8261 335e 0E94 0000 		call _ZN16USBVirtualSerial5printEj
 8262 3362 80E0      		ldi r24,lo8(Serial)
 8263 3364 90E0      		ldi r25,hi8(Serial)
 8264 3366 60E0      		ldi r22,lo8(.LC1)
 8265 3368 70E0      		ldi r23,hi8(.LC1)
 8266 336a 0E94 0000 		call _ZN16USBVirtualSerial5printEPKc
 8267               	.LM1243:
 8268 336e 6091 0000 		lds r22,mdx
 8269 3372 7091 0000 		lds r23,(mdx)+1
 8270 3376 80E0      		ldi r24,lo8(Serial)
 8271 3378 90E0      		ldi r25,hi8(Serial)
 8272 337a 0E94 0000 		call _ZN16USBVirtualSerial5printEj
 8273 337e 80E0      		ldi r24,lo8(Serial)
 8274 3380 90E0      		ldi r25,hi8(Serial)
 8275 3382 60E0      		ldi r22,lo8(.LC1)
 8276 3384 70E0      		ldi r23,hi8(.LC1)
 8277 3386 0E94 0000 		call _ZN16USBVirtualSerial5printEPKc
 8278               	.LM1244:
 8279 338a 6091 0000 		lds r22,mdy
 8280 338e 7091 0000 		lds r23,(mdy)+1
 8281 3392 80E0      		ldi r24,lo8(Serial)
 8282 3394 90E0      		ldi r25,hi8(Serial)
 8283 3396 0E94 0000 		call _ZN16USBVirtualSerial5printEj
 8284 339a 80E0      		ldi r24,lo8(Serial)
 8285 339c 90E0      		ldi r25,hi8(Serial)
 8286 339e 60E0      		ldi r22,lo8(.LC1)
 8287 33a0 70E0      		ldi r23,hi8(.LC1)
 8288 33a2 0E94 0000 		call _ZN16USBVirtualSerial5printEPKc
 8289               	.LM1245:
 8290 33a6 6091 0000 		lds r22,mdz
 8291 33aa 7091 0000 		lds r23,(mdz)+1
 8292 33ae 80E0      		ldi r24,lo8(Serial)
 8293 33b0 90E0      		ldi r25,hi8(Serial)
 8294 33b2 0E94 0000 		call _ZN16USBVirtualSerial5printEj
 8295 33b6 80E0      		ldi r24,lo8(Serial)
 8296 33b8 90E0      		ldi r25,hi8(Serial)
 8297 33ba 60E0      		ldi r22,lo8(.LC1)
 8298 33bc 70E0      		ldi r23,hi8(.LC1)
 8299 33be 0E94 0000 		call _ZN16USBVirtualSerial5printEPKc
 8300               	.LM1246:
 8301 33c2 6091 0000 		lds r22,mdz
 8302 33c6 7091 0000 		lds r23,(mdz)+1
 8303 33ca 80E0      		ldi r24,lo8(Serial)
 8304 33cc 90E0      		ldi r25,hi8(Serial)
 8305 33ce 0E94 0000 		call _ZN16USBVirtualSerial7printlnEj
 8306               	.L411:
 8307               	.LM1247:
 8308 33d2 8091 0000 		lds r24,scrollMouse
 8309 33d6 8823      		tst r24
 8310 33d8 01F0      		breq .L418
 8311 33da 8091 0000 		lds r24,opt_scroll_mode
 8312 33de 8823      		tst r24
 8313 33e0 01F0      		breq .L418
 8314 33e2 6091 0000 		lds r22,sdy
 8315 33e6 7091 0000 		lds r23,(sdy)+1
 8316 33ea 6115      		cp r22,__zero_reg__
 8317 33ec 7105      		cpc r23,__zero_reg__
 8318 33ee 01F0      		breq .L418
 8319               	.LM1248:
 8320 33f0 80E0      		ldi r24,lo8(Mouse)
 8321 33f2 90E0      		ldi r25,hi8(Mouse)
 8322 33f4 0E94 0000 		call _ZN8USBMouse6scrollEh
 8323               	.LM1249:
 8324 33f8 80E0      		ldi r24,lo8(bluetooth)
 8325 33fa 90E0      		ldi r25,hi8(bluetooth)
 8326 33fc 6091 0000 		lds r22,sdy
 8327 3400 0E94 0000 		call _ZN5iWRAP6scrollEh
 8328               	.L418:
 8329               	/* epilogue start */
 8330               	.LM1250:
 8331 3404 DF91      		pop r29
 8332 3406 CF91      		pop r28
 8333 3408 1F91      		pop r17
 8334 340a 0F91      		pop r16
 8335 340c FF90      		pop r15
 8336 340e EF90      		pop r14
 8337 3410 DF90      		pop r13
 8338 3412 CF90      		pop r12
 8339 3414 BF90      		pop r11
 8340 3416 AF90      		pop r10
 8341 3418 9F90      		pop r9
 8342 341a 8F90      		pop r8
 8343 341c 7F90      		pop r7
 8344 341e 6F90      		pop r6
 8345 3420 0895      		ret
 8346               	.LFE145:
 8348               	.global	_Z20setup_feedback_piezov
 8350               	_Z20setup_feedback_piezov:
 8351               	.LFB138:
 8352               	.LM1251:
 8353               	/* prologue: function */
 8354               	/* frame size = 0 */
 8355               	.LM1252:
 8356 3422 8AE2      		ldi r24,lo8(42)
 8357 3424 60EE      		ldi r22,lo8(1760)
 8358 3426 76E0      		ldi r23,hi8(1760)
 8359 3428 24E1      		ldi r18,lo8(20)
 8360 342a 30E0      		ldi r19,hi8(20)
 8361 342c 40E0      		ldi r20,hlo8(20)
 8362 342e 50E0      		ldi r21,hhi8(20)
 8363 3430 0E94 0000 		call _Z4tonehjm
 8364               	.LM1253:
 8365 3434 64E6      		ldi r22,lo8(100)
 8366 3436 70E0      		ldi r23,hi8(100)
 8367 3438 80E0      		ldi r24,hlo8(100)
 8368 343a 90E0      		ldi r25,hhi8(100)
 8369 343c 0E94 0000 		call delay
 8370               	.LM1254:
 8371 3440 8AE2      		ldi r24,lo8(42)
 8372 3442 60EE      		ldi r22,lo8(1760)
 8373 3444 76E0      		ldi r23,hi8(1760)
 8374 3446 24E1      		ldi r18,lo8(20)
 8375 3448 30E0      		ldi r19,hi8(20)
 8376 344a 40E0      		ldi r20,hlo8(20)
 8377 344c 50E0      		ldi r21,hhi8(20)
 8378 344e 0E94 0000 		call _Z4tonehjm
 8379               	.LM1255:
 8380 3452 64E6      		ldi r22,lo8(100)
 8381 3454 70E0      		ldi r23,hi8(100)
 8382 3456 80E0      		ldi r24,hlo8(100)
 8383 3458 90E0      		ldi r25,hhi8(100)
 8384 345a 0E94 0000 		call delay
 8385               	/* epilogue start */
 8386               	.LM1256:
 8387 345e 0895      		ret
 8388               	.LFE138:
 8390               		.data
 8391               	.LC25:
 8392 01a6 6361 6C69 		.string	"calibrategyro "
 8392      6272 6174 
 8392      6567 7972 
 8392      6F20 00
 8393               	.LC26:
 8394 01b5 6779 726F 		.string	"gyro "
 8394      2000 
 8395               		.text
 8396               	.global	_Z23update_motion_gyroscopev
 8398               	_Z23update_motion_gyroscopev:
 8399               	.LFB136:
 8400               	.LM1257:
 8401 3460 2F92      		push r2
 8402 3462 3F92      		push r3
 8403 3464 4F92      		push r4
 8404 3466 5F92      		push r5
 8405 3468 6F92      		push r6
 8406 346a 7F92      		push r7
 8407 346c 8F92      		push r8
 8408 346e 9F92      		push r9
 8409 3470 AF92      		push r10
 8410 3472 BF92      		push r11
 8411 3474 CF92      		push r12
 8412 3476 DF92      		push r13
 8413 3478 EF92      		push r14
 8414 347a FF92      		push r15
 8415 347c 0F93      		push r16
 8416 347e 1F93      		push r17
 8417 3480 DF93      		push r29
 8418 3482 CF93      		push r28
 8419 3484 CDB7      		in r28,__SP_L__
 8420 3486 DEB7      		in r29,__SP_H__
 8421 3488 2C97      		sbiw r28,12
 8422 348a 0FB6      		in __tmp_reg__,__SREG__
 8423 348c F894      		cli
 8424 348e DEBF      		out __SP_H__,r29
 8425 3490 0FBE      		out __SREG__,__tmp_reg__
 8426 3492 CDBF      		out __SP_L__,r28
 8427               	/* prologue: function */
 8428               	/* frame size = 12 */
 8429               	.LM1258:
 8430 3494 8091 0000 		lds r24,gx0
 8431 3498 9091 0000 		lds r25,(gx0)+1
 8432 349c 9093 0000 		sts (gx00)+1,r25
 8433 34a0 8093 0000 		sts gx00,r24
 8434               	.LM1259:
 8435 34a4 8091 0000 		lds r24,gy0
 8436 34a8 9091 0000 		lds r25,(gy0)+1
 8437 34ac 9093 0000 		sts (gy00)+1,r25
 8438 34b0 8093 0000 		sts gy00,r24
 8439               	.LM1260:
 8440 34b4 8091 0000 		lds r24,gz0
 8441 34b8 9091 0000 		lds r25,(gz0)+1
 8442 34bc 9093 0000 		sts (gz00)+1,r25
 8443 34c0 8093 0000 		sts gz00,r24
 8444               	.LM1261:
 8445 34c4 8091 0000 		lds r24,gx
 8446 34c8 9091 0000 		lds r25,(gx)+1
 8447 34cc 9093 0000 		sts (gx0)+1,r25
 8448 34d0 8093 0000 		sts gx0,r24
 8449               	.LM1262:
 8450 34d4 8091 0000 		lds r24,gy
 8451 34d8 9091 0000 		lds r25,(gy)+1
 8452 34dc 9093 0000 		sts (gy0)+1,r25
 8453 34e0 8093 0000 		sts gy0,r24
 8454               	.LM1263:
 8455 34e4 8091 0000 		lds r24,gz
 8456 34e8 9091 0000 		lds r25,(gz)+1
 8457 34ec 9093 0000 		sts (gz0)+1,r25
 8458 34f0 8093 0000 		sts gz0,r24
 8459               	.LM1264:
 8460 34f4 8091 0000 		lds r24,opt_gyro_rot90
 8461 34f8 8823      		tst r24
 8462 34fa 01F4      		brne .L427
 8463               	.LM1265:
 8464 34fc 80E0      		ldi r24,lo8(gyroscope)
 8465 34fe 90E0      		ldi r25,hi8(gyroscope)
 8466 3500 60E0      		ldi r22,lo8(gxRaw)
 8467 3502 70E0      		ldi r23,hi8(gxRaw)
 8468 3504 40E0      		ldi r20,lo8(gyRaw)
 8469 3506 50E0      		ldi r21,hi8(gyRaw)
 8470 3508 20E0      		ldi r18,lo8(gzRaw)
 8471 350a 30E0      		ldi r19,hi8(gzRaw)
 8472 350c 0E94 0000 		call _ZN7ITG320011readGyroRawEPiS0_S0_
 8473 3510 00C0      		rjmp .L428
 8474               	.L427:
 8475               	.LM1266:
 8476 3512 8130      		cpi r24,lo8(1)
 8477 3514 01F4      		brne .L429
 8478               	.LM1267:
 8479 3516 80E0      		ldi r24,lo8(gyroscope)
 8480 3518 90E0      		ldi r25,hi8(gyroscope)
 8481 351a 60E0      		ldi r22,lo8(gxRaw)
 8482 351c 70E0      		ldi r23,hi8(gxRaw)
 8483 351e 40E0      		ldi r20,lo8(gzRaw)
 8484 3520 50E0      		ldi r21,hi8(gzRaw)
 8485 3522 20E0      		ldi r18,lo8(gyRaw)
 8486 3524 30E0      		ldi r19,hi8(gyRaw)
 8487 3526 00C0      		rjmp .L448
 8488               	.L429:
 8489               	.LM1268:
 8490 3528 8230      		cpi r24,lo8(2)
 8491 352a 01F4      		brne .+2
 8492 352c 00C0      		rjmp .L451
 8493               	.L430:
 8494               	.LM1269:
 8495 352e 8430      		cpi r24,lo8(4)
 8496 3530 01F4      		brne .L431
 8497               	.LM1270:
 8498 3532 80E0      		ldi r24,lo8(gyroscope)
 8499 3534 90E0      		ldi r25,hi8(gyroscope)
 8500 3536 60E0      		ldi r22,lo8(gyRaw)
 8501 3538 70E0      		ldi r23,hi8(gyRaw)
 8502 353a 40E0      		ldi r20,lo8(gxRaw)
 8503 353c 50E0      		ldi r21,hi8(gxRaw)
 8504 353e 20E0      		ldi r18,lo8(gzRaw)
 8505 3540 30E0      		ldi r19,hi8(gzRaw)
 8506 3542 0E94 0000 		call _ZN7ITG320011readGyroRawEPiS0_S0_
 8507               	.LM1271:
 8508 3546 8091 0000 		lds r24,gyRaw
 8509 354a 9091 0000 		lds r25,(gyRaw)+1
 8510 354e 9095      		com r25
 8511 3550 8195      		neg r24
 8512 3552 9F4F      		sbci r25,lo8(-1)
 8513 3554 9093 0000 		sts (gyRaw)+1,r25
 8514 3558 8093 0000 		sts gyRaw,r24
 8515 355c 00C0      		rjmp .L428
 8516               	.L431:
 8517               	.LM1272:
 8518 355e 8330      		cpi r24,lo8(3)
 8519 3560 01F4      		brne .L432
 8520               	.LM1273:
 8521 3562 80E0      		ldi r24,lo8(gyroscope)
 8522 3564 90E0      		ldi r25,hi8(gyroscope)
 8523 3566 60E0      		ldi r22,lo8(gzRaw)
 8524 3568 70E0      		ldi r23,hi8(gzRaw)
 8525 356a 40E0      		ldi r20,lo8(gxRaw)
 8526 356c 50E0      		ldi r21,hi8(gxRaw)
 8527 356e 20E0      		ldi r18,lo8(gyRaw)
 8528 3570 30E0      		ldi r19,hi8(gyRaw)
 8529 3572 0E94 0000 		call _ZN7ITG320011readGyroRawEPiS0_S0_
 8530               	.LM1274:
 8531 3576 8091 0000 		lds r24,gxRaw
 8532 357a 9091 0000 		lds r25,(gxRaw)+1
 8533 357e 9095      		com r25
 8534 3580 8195      		neg r24
 8535 3582 9F4F      		sbci r25,lo8(-1)
 8536 3584 9093 0000 		sts (gxRaw)+1,r25
 8537 3588 8093 0000 		sts gxRaw,r24
 8538 358c 00C0      		rjmp .L449
 8539               	.L432:
 8540               	.LM1275:
 8541 358e 8530      		cpi r24,lo8(5)
 8542 3590 01F4      		brne .L433
 8543               	.LM1276:
 8544 3592 80E0      		ldi r24,lo8(gyroscope)
 8545 3594 90E0      		ldi r25,hi8(gyroscope)
 8546 3596 60E0      		ldi r22,lo8(gyRaw)
 8547 3598 70E0      		ldi r23,hi8(gyRaw)
 8548 359a 40E0      		ldi r20,lo8(gzRaw)
 8549 359c 50E0      		ldi r21,hi8(gzRaw)
 8550 359e 20E0      		ldi r18,lo8(gxRaw)
 8551 35a0 30E0      		ldi r19,hi8(gxRaw)
 8552 35a2 00C0      		rjmp .L450
 8553               	.L433:
 8554               	.LM1277:
 8555 35a4 8630      		cpi r24,lo8(6)
 8556 35a6 01F4      		brne .L434
 8557               	.LM1278:
 8558 35a8 80E0      		ldi r24,lo8(gyroscope)
 8559 35aa 90E0      		ldi r25,hi8(gyroscope)
 8560 35ac 60E0      		ldi r22,lo8(gzRaw)
 8561 35ae 70E0      		ldi r23,hi8(gzRaw)
 8562 35b0 40E0      		ldi r20,lo8(gxRaw)
 8563 35b2 50E0      		ldi r21,hi8(gxRaw)
 8564 35b4 20E0      		ldi r18,lo8(gyRaw)
 8565 35b6 30E0      		ldi r19,hi8(gyRaw)
 8566               	.L450:
 8567 35b8 0E94 0000 		call _ZN7ITG320011readGyroRawEPiS0_S0_
 8568               	.LM1279:
 8569 35bc 8091 0000 		lds r24,gyRaw
 8570 35c0 9091 0000 		lds r25,(gyRaw)+1
 8571 35c4 9095      		com r25
 8572 35c6 8195      		neg r24
 8573 35c8 9F4F      		sbci r25,lo8(-1)
 8574 35ca 9093 0000 		sts (gyRaw)+1,r25
 8575 35ce 8093 0000 		sts gyRaw,r24
 8576 35d2 00C0      		rjmp .L449
 8577               	.L434:
 8578               	.LM1280:
 8579 35d4 8730      		cpi r24,lo8(7)
 8580 35d6 01F4      		brne .L428
 8581               	.L451:
 8582               	.LM1281:
 8583 35d8 80E0      		ldi r24,lo8(gyroscope)
 8584 35da 90E0      		ldi r25,hi8(gyroscope)
 8585 35dc 60E0      		ldi r22,lo8(gzRaw)
 8586 35de 70E0      		ldi r23,hi8(gzRaw)
 8587 35e0 40E0      		ldi r20,lo8(gyRaw)
 8588 35e2 50E0      		ldi r21,hi8(gyRaw)
 8589 35e4 20E0      		ldi r18,lo8(gxRaw)
 8590 35e6 30E0      		ldi r19,hi8(gxRaw)
 8591               	.L448:
 8592 35e8 0E94 0000 		call _ZN7ITG320011readGyroRawEPiS0_S0_
 8593               	.L449:
 8594               	.LM1282:
 8595 35ec 8091 0000 		lds r24,gzRaw
 8596 35f0 9091 0000 		lds r25,(gzRaw)+1
 8597 35f4 9095      		com r25
 8598 35f6 8195      		neg r24
 8599 35f8 9F4F      		sbci r25,lo8(-1)
 8600 35fa 9093 0000 		sts (gzRaw)+1,r25
 8601 35fe 8093 0000 		sts gzRaw,r24
 8602               	.L428:
 8603               	.LM1283:
 8604 3602 8091 0000 		lds r24,gyroMicros
 8605 3606 9091 0000 		lds r25,(gyroMicros)+1
 8606 360a A091 0000 		lds r26,(gyroMicros)+2
 8607 360e B091 0000 		lds r27,(gyroMicros)+3
 8608 3612 0097      		sbiw r24,0
 8609 3614 A105      		cpc r26,__zero_reg__
 8610 3616 B105      		cpc r27,__zero_reg__
 8611 3618 01F4      		brne .L435
 8612 361a 21E0      		ldi r18,lo8(1)
 8613 361c 30E0      		ldi r19,hi8(1)
 8614 361e 40E0      		ldi r20,hlo8(1)
 8615 3620 50E0      		ldi r21,hhi8(1)
 8616 3622 00C0      		rjmp .L436
 8617               	.L435:
 8618 3624 0E94 0000 		call micros
 8619 3628 9B01      		movw r18,r22
 8620 362a AC01      		movw r20,r24
 8621 362c 8091 0000 		lds r24,gyroMicros
 8622 3630 9091 0000 		lds r25,(gyroMicros)+1
 8623 3634 A091 0000 		lds r26,(gyroMicros)+2
 8624 3638 B091 0000 		lds r27,(gyroMicros)+3
 8625 363c 281B      		sub r18,r24
 8626 363e 390B      		sbc r19,r25
 8627 3640 4A0B      		sbc r20,r26
 8628 3642 5B0B      		sbc r21,r27
 8629               	.L436:
 8630 3644 2093 0000 		sts gyroDiff,r18
 8631 3648 3093 0000 		sts (gyroDiff)+1,r19
 8632 364c 4093 0000 		sts (gyroDiff)+2,r20
 8633 3650 5093 0000 		sts (gyroDiff)+3,r21
 8634               	.LM1284:
 8635 3654 0E94 0000 		call micros
 8636 3658 6093 0000 		sts gyroMicros,r22
 8637 365c 7093 0000 		sts (gyroMicros)+1,r23
 8638 3660 8093 0000 		sts (gyroMicros)+2,r24
 8639 3664 9093 0000 		sts (gyroMicros)+3,r25
 8640               	.LM1285:
 8641 3668 6091 0000 		lds r22,gxRaw
 8642 366c 7091 0000 		lds r23,(gxRaw)+1
 8643 3670 2091 0000 		lds r18,opt_gyro_offset
 8644 3674 3091 0000 		lds r19,(opt_gyro_offset)+1
 8645 3678 620F      		add r22,r18
 8646 367a 731F      		adc r23,r19
 8647               	.LM1286:
 8648 367c E090 0000 		lds r14,gyRaw
 8649 3680 F090 0000 		lds r15,(gyRaw)+1
 8650 3684 2091 0000 		lds r18,opt_gyro_offset+2
 8651 3688 3091 0000 		lds r19,(opt_gyro_offset+2)+1
 8652 368c E20E      		add r14,r18
 8653 368e F31E      		adc r15,r19
 8654               	.LM1287:
 8655 3690 A090 0000 		lds r10,gzRaw
 8656 3694 B090 0000 		lds r11,(gzRaw)+1
 8657 3698 2091 0000 		lds r18,opt_gyro_offset+4
 8658 369c 3091 0000 		lds r19,(opt_gyro_offset+4)+1
 8659 36a0 A20E      		add r10,r18
 8660 36a2 B31E      		adc r11,r19
 8661               	.LM1288:
 8662 36a4 8827      		clr r24
 8663 36a6 77FD      		sbrc r23,7
 8664 36a8 8095      		com r24
 8665 36aa 982F      		mov r25,r24
 8666 36ac 0E94 0000 		call __floatsisf
 8667 36b0 2091 0000 		lds r18,opt_gyro_calibrate
 8668 36b4 3091 0000 		lds r19,(opt_gyro_calibrate)+1
 8669 36b8 4091 0000 		lds r20,(opt_gyro_calibrate)+2
 8670 36bc 5091 0000 		lds r21,(opt_gyro_calibrate)+3
 8671 36c0 0E94 0000 		call __mulsf3
 8672 36c4 20E0      		ldi r18,lo8(0x41700000)
 8673 36c6 30E0      		ldi r19,hi8(0x41700000)
 8674 36c8 40E7      		ldi r20,hlo8(0x41700000)
 8675 36ca 51E4      		ldi r21,hhi8(0x41700000)
 8676 36cc 0E94 0000 		call __divsf3
 8677 36d0 0E94 0000 		call __fixsfsi
 8678 36d4 3B01      		movw r6,r22
 8679 36d6 7093 0000 		sts (gxRaw)+1,r23
 8680 36da 6093 0000 		sts gxRaw,r22
 8681               	.LM1289:
 8682 36de 0027      		clr r16
 8683 36e0 F7FC      		sbrc r15,7
 8684 36e2 0095      		com r16
 8685 36e4 102F      		mov r17,r16
 8686 36e6 C801      		movw r24,r16
 8687 36e8 B701      		movw r22,r14
 8688 36ea 0E94 0000 		call __floatsisf
 8689 36ee 2091 0000 		lds r18,opt_gyro_calibrate+4
 8690 36f2 3091 0000 		lds r19,(opt_gyro_calibrate+4)+1
 8691 36f6 4091 0000 		lds r20,(opt_gyro_calibrate+4)+2
 8692 36fa 5091 0000 		lds r21,(opt_gyro_calibrate+4)+3
 8693 36fe 0E94 0000 		call __mulsf3
 8694 3702 20E0      		ldi r18,lo8(0x41700000)
 8695 3704 30E0      		ldi r19,hi8(0x41700000)
 8696 3706 40E7      		ldi r20,hlo8(0x41700000)
 8697 3708 51E4      		ldi r21,hhi8(0x41700000)
 8698 370a 0E94 0000 		call __divsf3
 8699 370e 0E94 0000 		call __fixsfsi
 8700 3712 1B01      		movw r2,r22
 8701 3714 7093 0000 		sts (gyRaw)+1,r23
 8702 3718 6093 0000 		sts gyRaw,r22
 8703               	.LM1290:
 8704 371c CC24      		clr r12
 8705 371e B7FC      		sbrc r11,7
 8706 3720 C094      		com r12
 8707 3722 DC2C      		mov r13,r12
 8708 3724 C601      		movw r24,r12
 8709 3726 B501      		movw r22,r10
 8710 3728 0E94 0000 		call __floatsisf
 8711 372c 2091 0000 		lds r18,opt_gyro_calibrate+8
 8712 3730 3091 0000 		lds r19,(opt_gyro_calibrate+8)+1
 8713 3734 4091 0000 		lds r20,(opt_gyro_calibrate+8)+2
 8714 3738 5091 0000 		lds r21,(opt_gyro_calibrate+8)+3
 8715 373c 0E94 0000 		call __mulsf3
 8716 3740 20E0      		ldi r18,lo8(0x41700000)
 8717 3742 30E0      		ldi r19,hi8(0x41700000)
 8718 3744 40E7      		ldi r20,hlo8(0x41700000)
 8719 3746 51E4      		ldi r21,hhi8(0x41700000)
 8720 3748 0E94 0000 		call __divsf3
 8721 374c 0E94 0000 		call __fixsfsi
 8722 3750 6B01      		movw r12,r22
 8723 3752 7093 0000 		sts (gzRaw)+1,r23
 8724 3756 6093 0000 		sts gzRaw,r22
 8725               	.LM1291:
 8726 375a 0091 0000 		lds r16,gx0
 8727 375e 1091 0000 		lds r17,(gx0)+1
 8728 3762 8091 0000 		lds r24,opt_gyro_kalman_constant
 8729 3766 9091 0000 		lds r25,(opt_gyro_kalman_constant)+1
 8730 376a A091 0000 		lds r26,(opt_gyro_kalman_constant)+2
 8731 376e B091 0000 		lds r27,(opt_gyro_kalman_constant)+3
 8732 3772 8983      		std Y+1,r24
 8733 3774 9A83      		std Y+2,r25
 8734 3776 AB83      		std Y+3,r26
 8735 3778 BC83      		std Y+4,r27
 8736 377a B801      		movw r22,r16
 8737 377c 8827      		clr r24
 8738 377e 77FD      		sbrc r23,7
 8739 3780 8095      		com r24
 8740 3782 982F      		mov r25,r24
 8741 3784 0E94 0000 		call __floatsisf
 8742 3788 6F83      		std Y+7,r22
 8743 378a 7887      		std Y+8,r23
 8744 378c 8987      		std Y+9,r24
 8745 378e 9A87      		std Y+10,r25
 8746 3790 601A      		sub r6,r16
 8747 3792 710A      		sbc r7,r17
 8748 3794 8824      		clr r8
 8749 3796 77FC      		sbrc r7,7
 8750 3798 8094      		com r8
 8751 379a 982C      		mov r9,r8
 8752 379c C401      		movw r24,r8
 8753 379e B301      		movw r22,r6
 8754 37a0 0E94 0000 		call __floatsisf
 8755 37a4 9B01      		movw r18,r22
 8756 37a6 AC01      		movw r20,r24
 8757 37a8 6981      		ldd r22,Y+1
 8758 37aa 7A81      		ldd r23,Y+2
 8759 37ac 8B81      		ldd r24,Y+3
 8760 37ae 9C81      		ldd r25,Y+4
 8761 37b0 0E94 0000 		call __mulsf3
 8762 37b4 9B01      		movw r18,r22
 8763 37b6 AC01      		movw r20,r24
 8764 37b8 6F81      		ldd r22,Y+7
 8765 37ba 7885      		ldd r23,Y+8
 8766 37bc 8985      		ldd r24,Y+9
 8767 37be 9A85      		ldd r25,Y+10
 8768 37c0 0E94 0000 		call __addsf3
 8769 37c4 0E94 0000 		call __fixsfsi
 8770 37c8 7E83      		std Y+6,r23
 8771 37ca 6D83      		std Y+5,r22
 8772 37cc 7093 0000 		sts (gx)+1,r23
 8773 37d0 6093 0000 		sts gx,r22
 8774               	.LM1292:
 8775 37d4 0091 0000 		lds r16,gy0
 8776 37d8 1091 0000 		lds r17,(gy0)+1
 8777 37dc B801      		movw r22,r16
 8778 37de 8827      		clr r24
 8779 37e0 77FD      		sbrc r23,7
 8780 37e2 8095      		com r24
 8781 37e4 982F      		mov r25,r24
 8782 37e6 0E94 0000 		call __floatsisf
 8783 37ea 4B01      		movw r8,r22
 8784 37ec 5C01      		movw r10,r24
 8785 37ee 201A      		sub r2,r16
 8786 37f0 310A      		sbc r3,r17
 8787 37f2 4424      		clr r4
 8788 37f4 37FC      		sbrc r3,7
 8789 37f6 4094      		com r4
 8790 37f8 542C      		mov r5,r4
 8791 37fa C201      		movw r24,r4
 8792 37fc B101      		movw r22,r2
 8793 37fe 0E94 0000 		call __floatsisf
 8794 3802 9B01      		movw r18,r22
 8795 3804 AC01      		movw r20,r24
 8796 3806 6981      		ldd r22,Y+1
 8797 3808 7A81      		ldd r23,Y+2
 8798 380a 8B81      		ldd r24,Y+3
 8799 380c 9C81      		ldd r25,Y+4
 8800 380e 0E94 0000 		call __mulsf3
 8801 3812 9B01      		movw r18,r22
 8802 3814 AC01      		movw r20,r24
 8803 3816 C501      		movw r24,r10
 8804 3818 B401      		movw r22,r8
 8805 381a 0E94 0000 		call __addsf3
 8806 381e 0E94 0000 		call __fixsfsi
 8807 3822 2B01      		movw r4,r22
 8808 3824 7093 0000 		sts (gy)+1,r23
 8809 3828 6093 0000 		sts gy,r22
 8810               	.LM1293:
 8811 382c 0091 0000 		lds r16,gz0
 8812 3830 1091 0000 		lds r17,(gz0)+1
 8813 3834 B801      		movw r22,r16
 8814 3836 8827      		clr r24
 8815 3838 77FD      		sbrc r23,7
 8816 383a 8095      		com r24
 8817 383c 982F      		mov r25,r24
 8818 383e 0E94 0000 		call __floatsisf
 8819 3842 4B01      		movw r8,r22
 8820 3844 5C01      		movw r10,r24
 8821 3846 C01A      		sub r12,r16
 8822 3848 D10A      		sbc r13,r17
 8823 384a EE24      		clr r14
 8824 384c D7FC      		sbrc r13,7
 8825 384e E094      		com r14
 8826 3850 FE2C      		mov r15,r14
 8827 3852 C701      		movw r24,r14
 8828 3854 B601      		movw r22,r12
 8829 3856 0E94 0000 		call __floatsisf
 8830 385a 9B01      		movw r18,r22
 8831 385c AC01      		movw r20,r24
 8832 385e 6981      		ldd r22,Y+1
 8833 3860 7A81      		ldd r23,Y+2
 8834 3862 8B81      		ldd r24,Y+3
 8835 3864 9C81      		ldd r25,Y+4
 8836 3866 0E94 0000 		call __mulsf3
 8837 386a 9B01      		movw r18,r22
 8838 386c AC01      		movw r20,r24
 8839 386e C501      		movw r24,r10
 8840 3870 B401      		movw r22,r8
 8841 3872 0E94 0000 		call __addsf3
 8842 3876 0E94 0000 		call __fixsfsi
 8843 387a 7C87      		std Y+12,r23
 8844 387c 6B87      		std Y+11,r22
 8845 387e 7093 0000 		sts (gz)+1,r23
 8846 3882 6093 0000 		sts gz,r22
 8847               	.LM1294:
 8848 3886 2090 0000 		lds r2,opt_gyro_smooth_average
 8849 388a 2220      		tst r2
 8850 388c 01F4      		brne .+2
 8851 388e 00C0      		rjmp .L437
 8852               	.LM1295:
 8853 3890 81E0      		ldi r24,lo8(1)
 8854 3892 90E0      		ldi r25,hi8(1)
 8855 3894 A0E0      		ldi r26,hlo8(1)
 8856 3896 B0E0      		ldi r27,hhi8(1)
 8857 3898 8093 0000 		sts i,r24
 8858 389c 9093 0000 		sts (i)+1,r25
 8859 38a0 A093 0000 		sts (i)+2,r26
 8860 38a4 B093 0000 		sts (i)+3,r27
 8861               	.LM1296:
 8862 38a8 3090 0000 		lds r3,gyroTick
 8863 38ac E32C      		mov r14,r3
 8864 38ae FF24      		clr r15
 8865 38b0 00E0      		ldi r16,lo8(0)
 8866 38b2 10E0      		ldi r17,hi8(0)
 8867 38b4 0894      		sec
 8868 38b6 E11C      		adc r14,__zero_reg__
 8869 38b8 F11C      		adc r15,__zero_reg__
 8870 38ba 011D      		adc r16,__zero_reg__
 8871 38bc 111D      		adc r17,__zero_reg__
 8872 38be 21E0      		ldi r18,lo8(1)
 8873 38c0 A22E      		mov r10,r18
 8874 38c2 B12C      		mov r11,__zero_reg__
 8875 38c4 C12C      		mov r12,__zero_reg__
 8876 38c6 D12C      		mov r13,__zero_reg__
 8877               	.LM1297:
 8878 38c8 622C      		mov r6,r2
 8879 38ca 7724      		clr r7
 8880 38cc 8824      		clr r8
 8881 38ce 9924      		clr r9
 8882 38d0 00C0      		rjmp .L438
 8883               	.L439:
 8884 38d2 C801      		movw r24,r16
 8885 38d4 B701      		movw r22,r14
 8886 38d6 A401      		movw r20,r8
 8887 38d8 9301      		movw r18,r6
 8888 38da 0E94 0000 		call __udivmodsi4
 8889               	.LM1298:
 8890 38de FB01      		movw r30,r22
 8891 38e0 EE0F      		lsl r30
 8892 38e2 FF1F      		rol r31
 8893 38e4 E050      		subi r30,lo8(-(gxHist))
 8894 38e6 F040      		sbci r31,hi8(-(gxHist))
 8895 38e8 8081      		ld r24,Z
 8896 38ea 9181      		ldd r25,Z+1
 8897 38ec AD81      		ldd r26,Y+5
 8898 38ee BE81      		ldd r27,Y+6
 8899 38f0 A80F      		add r26,r24
 8900 38f2 B91F      		adc r27,r25
 8901 38f4 BE83      		std Y+6,r27
 8902 38f6 AD83      		std Y+5,r26
 8903               	.LM1299:
 8904 38f8 FB01      		movw r30,r22
 8905 38fa EE0F      		lsl r30
 8906 38fc FF1F      		rol r31
 8907 38fe E050      		subi r30,lo8(-(gyHist))
 8908 3900 F040      		sbci r31,hi8(-(gyHist))
 8909 3902 8081      		ld r24,Z
 8910 3904 9181      		ldd r25,Z+1
 8911 3906 480E      		add r4,r24
 8912 3908 591E      		adc r5,r25
 8913               	.LM1300:
 8914 390a FB01      		movw r30,r22
 8915 390c EE0F      		lsl r30
 8916 390e FF1F      		rol r31
 8917 3910 E050      		subi r30,lo8(-(gzHist))
 8918 3912 F040      		sbci r31,hi8(-(gzHist))
 8919 3914 8081      		ld r24,Z
 8920 3916 9181      		ldd r25,Z+1
 8921 3918 EB85      		ldd r30,Y+11
 8922 391a FC85      		ldd r31,Y+12
 8923 391c E80F      		add r30,r24
 8924 391e F91F      		adc r31,r25
 8925 3920 FC87      		std Y+12,r31
 8926 3922 EB87      		std Y+11,r30
 8927 3924 0894      		sec
 8928 3926 A11C      		adc r10,__zero_reg__
 8929 3928 B11C      		adc r11,__zero_reg__
 8930 392a C11C      		adc r12,__zero_reg__
 8931 392c D11C      		adc r13,__zero_reg__
 8932 392e 0894      		sec
 8933 3930 E11C      		adc r14,__zero_reg__
 8934 3932 F11C      		adc r15,__zero_reg__
 8935 3934 011D      		adc r16,__zero_reg__
 8936 3936 111D      		adc r17,__zero_reg__
 8937               	.L438:
 8938               	.LM1301:
 8939 3938 A614      		cp r10,r6
 8940 393a B704      		cpc r11,r7
 8941 393c C804      		cpc r12,r8
 8942 393e D904      		cpc r13,r9
 8943 3940 00F0      		brlo .L439
 8944 3942 A092 0000 		sts i,r10
 8945 3946 B092 0000 		sts (i)+1,r11
 8946 394a C092 0000 		sts (i)+2,r12
 8947 394e D092 0000 		sts (i)+3,r13
 8948               	.LM1302:
 8949 3952 8D81      		ldd r24,Y+5
 8950 3954 9E81      		ldd r25,Y+6
 8951 3956 622D      		mov r22,r2
 8952 3958 70E0      		ldi r23,lo8(0)
 8953 395a 0E94 0000 		call __divmodhi4
 8954 395e 062F      		mov r16,r22
 8955 3960 F72E      		mov r15,r23
 8956 3962 6093 0000 		sts gx,r22
 8957 3966 7093 0000 		sts gx+1,r23
 8958               	.LM1303:
 8959 396a C201      		movw r24,r4
 8960 396c 622D      		mov r22,r2
 8961 396e 70E0      		ldi r23,lo8(0)
 8962 3970 0E94 0000 		call __divmodhi4
 8963 3974 462F      		mov r20,r22
 8964 3976 172F      		mov r17,r23
 8965 3978 6093 0000 		sts gy,r22
 8966 397c 7093 0000 		sts gy+1,r23
 8967               	.LM1304:
 8968 3980 8B85      		ldd r24,Y+11
 8969 3982 9C85      		ldd r25,Y+12
 8970 3984 622D      		mov r22,r2
 8971 3986 70E0      		ldi r23,lo8(0)
 8972 3988 0E94 0000 		call __divmodhi4
 8973 398c 9B01      		movw r18,r22
 8974 398e 6093 0000 		sts gz,r22
 8975 3992 3093 0000 		sts gz+1,r19
 8976               	.LM1305:
 8977 3996 832D      		mov r24,r3
 8978 3998 90E0      		ldi r25,lo8(0)
 8979 399a 622D      		mov r22,r2
 8980 399c 70E0      		ldi r23,lo8(0)
 8981 399e 0E94 0000 		call __udivmodhi4
 8982 39a2 FC01      		movw r30,r24
 8983 39a4 EE0F      		lsl r30
 8984 39a6 FF1F      		rol r31
 8985 39a8 DF01      		movw r26,r30
 8986 39aa A050      		subi r26,lo8(-(gxHist))
 8987 39ac B040      		sbci r27,hi8(-(gxHist))
 8988 39ae 0C93      		st X,r16
 8989 39b0 1196      		adiw r26,1
 8990 39b2 FC92      		st X,r15
 8991               	.LM1306:
 8992 39b4 DF01      		movw r26,r30
 8993 39b6 A050      		subi r26,lo8(-(gyHist))
 8994 39b8 B040      		sbci r27,hi8(-(gyHist))
 8995 39ba 4C93      		st X,r20
 8996 39bc 1196      		adiw r26,1
 8997 39be 1C93      		st X,r17
 8998               	.LM1307:
 8999 39c0 E050      		subi r30,lo8(-(gzHist))
 9000 39c2 F040      		sbci r31,hi8(-(gzHist))
 9001 39c4 2083      		st Z,r18
 9002 39c6 3183      		std Z+1,r19
 9003               	.L437:
 9004               	.LM1308:
 9005 39c8 8091 0000 		lds r24,opt_enable_calibration
 9006 39cc 8823      		tst r24
 9007 39ce 01F4      		brne .+2
 9008 39d0 00C0      		rjmp .L440
 9009               	.LM1309:
 9010 39d2 E091 0000 		lds r30,gx
 9011 39d6 F091 0000 		lds r31,(gx)+1
 9012 39da 2091 0000 		lds r18,gxMin
 9013 39de 3091 0000 		lds r19,(gxMin)+1
 9014 39e2 CF01      		movw r24,r30
 9015 39e4 4E2F      		mov r20,r30
 9016 39e6 892F      		mov r24,r25
 9017 39e8 2E17      		cp r18,r30
 9018 39ea 3F07      		cpc r19,r31
 9019 39ec 04F4      		brge .L441
 9020 39ee C901      		movw r24,r18
 9021 39f0 422F      		mov r20,r18
 9022 39f2 892F      		mov r24,r25
 9023               	.L441:
 9024 39f4 4093 0000 		sts gxMin,r20
 9025 39f8 8093 0000 		sts gxMin+1,r24
 9026               	.LM1310:
 9027 39fc 6091 0000 		lds r22,gy
 9028 3a00 7091 0000 		lds r23,(gy)+1
 9029 3a04 2091 0000 		lds r18,gyMin
 9030 3a08 3091 0000 		lds r19,(gyMin)+1
 9031 3a0c CB01      		movw r24,r22
 9032 3a0e 462F      		mov r20,r22
 9033 3a10 892F      		mov r24,r25
 9034 3a12 2617      		cp r18,r22
 9035 3a14 3707      		cpc r19,r23
 9036 3a16 04F4      		brge .L442
 9037 3a18 C901      		movw r24,r18
 9038 3a1a 422F      		mov r20,r18
 9039 3a1c 892F      		mov r24,r25
 9040               	.L442:
 9041 3a1e 4093 0000 		sts gyMin,r20
 9042 3a22 8093 0000 		sts gyMin+1,r24
 9043               	.LM1311:
 9044 3a26 4091 0000 		lds r20,gz
 9045 3a2a 5091 0000 		lds r21,(gz)+1
 9046 3a2e 2091 0000 		lds r18,gzMin
 9047 3a32 3091 0000 		lds r19,(gzMin)+1
 9048 3a36 CA01      		movw r24,r20
 9049 3a38 A42F      		mov r26,r20
 9050 3a3a 892F      		mov r24,r25
 9051 3a3c 2417      		cp r18,r20
 9052 3a3e 3507      		cpc r19,r21
 9053 3a40 04F4      		brge .L443
 9054 3a42 C901      		movw r24,r18
 9055 3a44 A22F      		mov r26,r18
 9056 3a46 892F      		mov r24,r25
 9057               	.L443:
 9058 3a48 A093 0000 		sts gzMin,r26
 9059 3a4c 8093 0000 		sts gzMin+1,r24
 9060               	.LM1312:
 9061 3a50 8091 0000 		lds r24,gxMax
 9062 3a54 9091 0000 		lds r25,(gxMax)+1
 9063 3a58 8E17      		cp r24,r30
 9064 3a5a 9F07      		cpc r25,r31
 9065 3a5c 04F4      		brge .L444
 9066 3a5e CF01      		movw r24,r30
 9067               	.L444:
 9068 3a60 9093 0000 		sts (gxMax)+1,r25
 9069 3a64 8093 0000 		sts gxMax,r24
 9070               	.LM1313:
 9071 3a68 8091 0000 		lds r24,gyMax
 9072 3a6c 9091 0000 		lds r25,(gyMax)+1
 9073 3a70 8617      		cp r24,r22
 9074 3a72 9707      		cpc r25,r23
 9075 3a74 04F4      		brge .L445
 9076 3a76 CB01      		movw r24,r22
 9077               	.L445:
 9078 3a78 9093 0000 		sts (gyMax)+1,r25
 9079 3a7c 8093 0000 		sts gyMax,r24
 9080               	.LM1314:
 9081 3a80 8091 0000 		lds r24,gzMax
 9082 3a84 9091 0000 		lds r25,(gzMax)+1
 9083 3a88 8417      		cp r24,r20
 9084 3a8a 9507      		cpc r25,r21
 9085 3a8c 04F4      		brge .L446
 9086 3a8e CA01      		movw r24,r20
 9087               	.L446:
 9088 3a90 9093 0000 		sts (gzMax)+1,r25
 9089 3a94 8093 0000 		sts gzMax,r24
 9090               	.LM1315:
 9091 3a98 80E0      		ldi r24,lo8(Serial)
 9092 3a9a 90E0      		ldi r25,hi8(Serial)
 9093 3a9c 60E0      		ldi r22,lo8(.LC25)
 9094 3a9e 70E0      		ldi r23,hi8(.LC25)
 9095 3aa0 0E94 0000 		call _ZN16USBVirtualSerial5printEPKc
 9096               	.LM1316:
 9097 3aa4 6091 0000 		lds r22,gxMin
 9098 3aa8 7091 0000 		lds r23,(gxMin)+1
 9099 3aac 80E0      		ldi r24,lo8(Serial)
 9100 3aae 90E0      		ldi r25,hi8(Serial)
 9101 3ab0 0E94 0000 		call _ZN16USBVirtualSerial5printEi
 9102 3ab4 80E0      		ldi r24,lo8(Serial)
 9103 3ab6 90E0      		ldi r25,hi8(Serial)
 9104 3ab8 60E0      		ldi r22,lo8(.LC1)
 9105 3aba 70E0      		ldi r23,hi8(.LC1)
 9106 3abc 0E94 0000 		call _ZN16USBVirtualSerial5printEPKc
 9107               	.LM1317:
 9108 3ac0 6091 0000 		lds r22,gyMin
 9109 3ac4 7091 0000 		lds r23,(gyMin)+1
 9110 3ac8 80E0      		ldi r24,lo8(Serial)
 9111 3aca 90E0      		ldi r25,hi8(Serial)
 9112 3acc 0E94 0000 		call _ZN16USBVirtualSerial5printEi
 9113 3ad0 80E0      		ldi r24,lo8(Serial)
 9114 3ad2 90E0      		ldi r25,hi8(Serial)
 9115 3ad4 60E0      		ldi r22,lo8(.LC1)
 9116 3ad6 70E0      		ldi r23,hi8(.LC1)
 9117 3ad8 0E94 0000 		call _ZN16USBVirtualSerial5printEPKc
 9118               	.LM1318:
 9119 3adc 6091 0000 		lds r22,gzMin
 9120 3ae0 7091 0000 		lds r23,(gzMin)+1
 9121 3ae4 80E0      		ldi r24,lo8(Serial)
 9122 3ae6 90E0      		ldi r25,hi8(Serial)
 9123 3ae8 0E94 0000 		call _ZN16USBVirtualSerial5printEi
 9124 3aec 80E0      		ldi r24,lo8(Serial)
 9125 3aee 90E0      		ldi r25,hi8(Serial)
 9126 3af0 60E0      		ldi r22,lo8(.LC1)
 9127 3af2 70E0      		ldi r23,hi8(.LC1)
 9128 3af4 0E94 0000 		call _ZN16USBVirtualSerial5printEPKc
 9129               	.LM1319:
 9130 3af8 6091 0000 		lds r22,gxMax
 9131 3afc 7091 0000 		lds r23,(gxMax)+1
 9132 3b00 80E0      		ldi r24,lo8(Serial)
 9133 3b02 90E0      		ldi r25,hi8(Serial)
 9134 3b04 0E94 0000 		call _ZN16USBVirtualSerial5printEi
 9135 3b08 80E0      		ldi r24,lo8(Serial)
 9136 3b0a 90E0      		ldi r25,hi8(Serial)
 9137 3b0c 60E0      		ldi r22,lo8(.LC1)
 9138 3b0e 70E0      		ldi r23,hi8(.LC1)
 9139 3b10 0E94 0000 		call _ZN16USBVirtualSerial5printEPKc
 9140               	.LM1320:
 9141 3b14 6091 0000 		lds r22,gyMax
 9142 3b18 7091 0000 		lds r23,(gyMax)+1
 9143 3b1c 80E0      		ldi r24,lo8(Serial)
 9144 3b1e 90E0      		ldi r25,hi8(Serial)
 9145 3b20 0E94 0000 		call _ZN16USBVirtualSerial5printEi
 9146 3b24 80E0      		ldi r24,lo8(Serial)
 9147 3b26 90E0      		ldi r25,hi8(Serial)
 9148 3b28 60E0      		ldi r22,lo8(.LC1)
 9149 3b2a 70E0      		ldi r23,hi8(.LC1)
 9150 3b2c 0E94 0000 		call _ZN16USBVirtualSerial5printEPKc
 9151               	.LM1321:
 9152 3b30 6091 0000 		lds r22,gzMax
 9153 3b34 7091 0000 		lds r23,(gzMax)+1
 9154 3b38 80E0      		ldi r24,lo8(Serial)
 9155 3b3a 90E0      		ldi r25,hi8(Serial)
 9156 3b3c 0E94 0000 		call _ZN16USBVirtualSerial5printEi
 9157               	.L440:
 9158               	.LM1322:
 9159 3b40 80E0      		ldi r24,lo8(Serial)
 9160 3b42 90E0      		ldi r25,hi8(Serial)
 9161 3b44 60E0      		ldi r22,lo8(.LC26)
 9162 3b46 70E0      		ldi r23,hi8(.LC26)
 9163 3b48 0E94 0000 		call _ZN16USBVirtualSerial5printEPKc
 9164               	.LM1323:
 9165 3b4c 6091 0000 		lds r22,gxRaw
 9166 3b50 7091 0000 		lds r23,(gxRaw)+1
 9167 3b54 80E0      		ldi r24,lo8(Serial)
 9168 3b56 90E0      		ldi r25,hi8(Serial)
 9169 3b58 0E94 0000 		call _ZN16USBVirtualSerial5printEi
 9170 3b5c 80E0      		ldi r24,lo8(Serial)
 9171 3b5e 90E0      		ldi r25,hi8(Serial)
 9172 3b60 60E0      		ldi r22,lo8(.LC1)
 9173 3b62 70E0      		ldi r23,hi8(.LC1)
 9174 3b64 0E94 0000 		call _ZN16USBVirtualSerial5printEPKc
 9175               	.LM1324:
 9176 3b68 6091 0000 		lds r22,gyRaw
 9177 3b6c 7091 0000 		lds r23,(gyRaw)+1
 9178 3b70 80E0      		ldi r24,lo8(Serial)
 9179 3b72 90E0      		ldi r25,hi8(Serial)
 9180 3b74 0E94 0000 		call _ZN16USBVirtualSerial5printEi
 9181 3b78 80E0      		ldi r24,lo8(Serial)
 9182 3b7a 90E0      		ldi r25,hi8(Serial)
 9183 3b7c 60E0      		ldi r22,lo8(.LC1)
 9184 3b7e 70E0      		ldi r23,hi8(.LC1)
 9185 3b80 0E94 0000 		call _ZN16USBVirtualSerial5printEPKc
 9186               	.LM1325:
 9187 3b84 6091 0000 		lds r22,gzRaw
 9188 3b88 7091 0000 		lds r23,(gzRaw)+1
 9189 3b8c 80E0      		ldi r24,lo8(Serial)
 9190 3b8e 90E0      		ldi r25,hi8(Serial)
 9191 3b90 0E94 0000 		call _ZN16USBVirtualSerial5printEi
 9192 3b94 80E0      		ldi r24,lo8(Serial)
 9193 3b96 90E0      		ldi r25,hi8(Serial)
 9194 3b98 60E0      		ldi r22,lo8(.LC1)
 9195 3b9a 70E0      		ldi r23,hi8(.LC1)
 9196 3b9c 0E94 0000 		call _ZN16USBVirtualSerial5printEPKc
 9197               	.LM1326:
 9198 3ba0 6091 0000 		lds r22,gx
 9199 3ba4 7091 0000 		lds r23,(gx)+1
 9200 3ba8 80E0      		ldi r24,lo8(Serial)
 9201 3baa 90E0      		ldi r25,hi8(Serial)
 9202 3bac 0E94 0000 		call _ZN16USBVirtualSerial5printEi
 9203 3bb0 80E0      		ldi r24,lo8(Serial)
 9204 3bb2 90E0      		ldi r25,hi8(Serial)
 9205 3bb4 60E0      		ldi r22,lo8(.LC1)
 9206 3bb6 70E0      		ldi r23,hi8(.LC1)
 9207 3bb8 0E94 0000 		call _ZN16USBVirtualSerial5printEPKc
 9208               	.LM1327:
 9209 3bbc 6091 0000 		lds r22,gy
 9210 3bc0 7091 0000 		lds r23,(gy)+1
 9211 3bc4 80E0      		ldi r24,lo8(Serial)
 9212 3bc6 90E0      		ldi r25,hi8(Serial)
 9213 3bc8 0E94 0000 		call _ZN16USBVirtualSerial5printEi
 9214 3bcc 80E0      		ldi r24,lo8(Serial)
 9215 3bce 90E0      		ldi r25,hi8(Serial)
 9216 3bd0 60E0      		ldi r22,lo8(.LC1)
 9217 3bd2 70E0      		ldi r23,hi8(.LC1)
 9218 3bd4 0E94 0000 		call _ZN16USBVirtualSerial5printEPKc
 9219               	.LM1328:
 9220 3bd8 6091 0000 		lds r22,gz
 9221 3bdc 7091 0000 		lds r23,(gz)+1
 9222 3be0 80E0      		ldi r24,lo8(Serial)
 9223 3be2 90E0      		ldi r25,hi8(Serial)
 9224 3be4 0E94 0000 		call _ZN16USBVirtualSerial5printEi
 9225               	.LM1329:
 9226 3be8 8091 0000 		lds r24,gyroTick
 9227 3bec 8F5F      		subi r24,lo8(-(1))
 9228 3bee 8093 0000 		sts gyroTick,r24
 9229               	/* epilogue start */
 9230               	.LM1330:
 9231 3bf2 2C96      		adiw r28,12
 9232 3bf4 0FB6      		in __tmp_reg__,__SREG__
 9233 3bf6 F894      		cli
 9234 3bf8 DEBF      		out __SP_H__,r29
 9235 3bfa 0FBE      		out __SREG__,__tmp_reg__
 9236 3bfc CDBF      		out __SP_L__,r28
 9237 3bfe CF91      		pop r28
 9238 3c00 DF91      		pop r29
 9239 3c02 1F91      		pop r17
 9240 3c04 0F91      		pop r16
 9241 3c06 FF90      		pop r15
 9242 3c08 EF90      		pop r14
 9243 3c0a DF90      		pop r13
 9244 3c0c CF90      		pop r12
 9245 3c0e BF90      		pop r11
 9246 3c10 AF90      		pop r10
 9247 3c12 9F90      		pop r9
 9248 3c14 8F90      		pop r8
 9249 3c16 7F90      		pop r7
 9250 3c18 6F90      		pop r6
 9251 3c1a 5F90      		pop r5
 9252 3c1c 4F90      		pop r4
 9253 3c1e 3F90      		pop r3
 9254 3c20 2F90      		pop r2
 9255 3c22 0895      		ret
 9256               	.LFE136:
 9258               	.global	_Z22setup_motion_gyroscopev
 9260               	_Z22setup_motion_gyroscopev:
 9261               	.LFB135:
 9262               	.LM1331:
 9263               	/* prologue: function */
 9264               	/* frame size = 0 */
 9265               	.LM1332:
 9266 3c24 80E0      		ldi r24,lo8(gyroscope)
 9267 3c26 90E0      		ldi r25,hi8(gyroscope)
 9268 3c28 68E6      		ldi r22,lo8(104)
 9269 3c2a 0E94 0000 		call _ZN7ITG32004initEh
 9270               	.LM1333:
 9271 3c2e 1092 0000 		sts (gz)+1,__zero_reg__
 9272 3c32 1092 0000 		sts gz,__zero_reg__
 9273 3c36 1092 0000 		sts (gy)+1,__zero_reg__
 9274 3c3a 1092 0000 		sts gy,__zero_reg__
 9275 3c3e 1092 0000 		sts (gx)+1,__zero_reg__
 9276 3c42 1092 0000 		sts gx,__zero_reg__
 9277               	.LM1334:
 9278 3c46 1092 0000 		sts gyroMicros,__zero_reg__
 9279 3c4a 1092 0000 		sts (gyroMicros)+1,__zero_reg__
 9280 3c4e 1092 0000 		sts (gyroMicros)+2,__zero_reg__
 9281 3c52 1092 0000 		sts (gyroMicros)+3,__zero_reg__
 9282               	.LM1335:
 9283 3c56 1092 0000 		sts gyroTick,__zero_reg__
 9284               	.LM1336:
 9285 3c5a 1092 0000 		sts gyroCalibrated,__zero_reg__
 9286               	.LM1337:
 9287 3c5e 1092 0000 		sts (gzMin)+1,__zero_reg__
 9288 3c62 1092 0000 		sts gzMin,__zero_reg__
 9289 3c66 1092 0000 		sts (gyMin)+1,__zero_reg__
 9290 3c6a 1092 0000 		sts gyMin,__zero_reg__
 9291 3c6e 1092 0000 		sts (gxMin)+1,__zero_reg__
 9292 3c72 1092 0000 		sts gxMin,__zero_reg__
 9293               	.LM1338:
 9294 3c76 1092 0000 		sts (gzMax)+1,__zero_reg__
 9295 3c7a 1092 0000 		sts gzMax,__zero_reg__
 9296 3c7e 1092 0000 		sts (gyMax)+1,__zero_reg__
 9297 3c82 1092 0000 		sts gyMax,__zero_reg__
 9298 3c86 1092 0000 		sts (gxMax)+1,__zero_reg__
 9299 3c8a 1092 0000 		sts gxMax,__zero_reg__
 9300               	/* epilogue start */
 9301               	.LM1339:
 9302 3c8e 0895      		ret
 9303               	.LFE135:
 9305               		.data
 9306               	.LC27:
 9307 01bb 6361 6C69 		.string	"calibrateaccel "
 9307      6272 6174 
 9307      6561 6363 
 9307      656C 2000 
 9308               	.LC28:
 9309 01cb 6163 6365 		.string	"accel "
 9309      6C20 00
 9310               		.text
 9311               	.global	_Z27update_motion_accelerometerv
 9313               	_Z27update_motion_accelerometerv:
 9314               	.LFB134:
 9315               	.LM1340:
 9316 3c90 2F92      		push r2
 9317 3c92 3F92      		push r3
 9318 3c94 4F92      		push r4
 9319 3c96 5F92      		push r5
 9320 3c98 6F92      		push r6
 9321 3c9a 7F92      		push r7
 9322 3c9c 8F92      		push r8
 9323 3c9e 9F92      		push r9
 9324 3ca0 AF92      		push r10
 9325 3ca2 BF92      		push r11
 9326 3ca4 CF92      		push r12
 9327 3ca6 DF92      		push r13
 9328 3ca8 EF92      		push r14
 9329 3caa FF92      		push r15
 9330 3cac 0F93      		push r16
 9331 3cae 1F93      		push r17
 9332 3cb0 DF93      		push r29
 9333 3cb2 CF93      		push r28
 9334 3cb4 CDB7      		in r28,__SP_L__
 9335 3cb6 DEB7      		in r29,__SP_H__
 9336 3cb8 6097      		sbiw r28,16
 9337 3cba 0FB6      		in __tmp_reg__,__SREG__
 9338 3cbc F894      		cli
 9339 3cbe DEBF      		out __SP_H__,r29
 9340 3cc0 0FBE      		out __SREG__,__tmp_reg__
 9341 3cc2 CDBF      		out __SP_L__,r28
 9342               	/* prologue: function */
 9343               	/* frame size = 16 */
 9344               	.LBB764:
 9345               	.LM1341:
 9346 3cc4 8091 0000 		lds r24,x0
 9347 3cc8 9091 0000 		lds r25,(x0)+1
 9348 3ccc 9093 0000 		sts (x00)+1,r25
 9349 3cd0 8093 0000 		sts x00,r24
 9350               	.LM1342:
 9351 3cd4 8091 0000 		lds r24,y0
 9352 3cd8 9091 0000 		lds r25,(y0)+1
 9353 3cdc 9093 0000 		sts (y00)+1,r25
 9354 3ce0 8093 0000 		sts y00,r24
 9355               	.LM1343:
 9356 3ce4 8091 0000 		lds r24,z0
 9357 3ce8 9091 0000 		lds r25,(z0)+1
 9358 3cec 9093 0000 		sts (z00)+1,r25
 9359 3cf0 8093 0000 		sts z00,r24
 9360               	.LM1344:
 9361 3cf4 8091 0000 		lds r24,x
 9362 3cf8 9091 0000 		lds r25,(x)+1
 9363 3cfc 9093 0000 		sts (x0)+1,r25
 9364 3d00 8093 0000 		sts x0,r24
 9365               	.LM1345:
 9366 3d04 8091 0000 		lds r24,y
 9367 3d08 9091 0000 		lds r25,(y)+1
 9368 3d0c 9093 0000 		sts (y0)+1,r25
 9369 3d10 8093 0000 		sts y0,r24
 9370               	.LM1346:
 9371 3d14 8091 0000 		lds r24,z
 9372 3d18 9091 0000 		lds r25,(z)+1
 9373 3d1c 9093 0000 		sts (z0)+1,r25
 9374 3d20 8093 0000 		sts z0,r24
 9375               	.LM1347:
 9376 3d24 8091 0000 		lds r24,opt_accel_rot90
 9377 3d28 8823      		tst r24
 9378 3d2a 01F4      		brne .L455
 9379               	.LM1348:
 9380 3d2c 80E0      		ldi r24,lo8(accelerometer)
 9381 3d2e 90E0      		ldi r25,hi8(accelerometer)
 9382 3d30 60E0      		ldi r22,lo8(xRaw)
 9383 3d32 70E0      		ldi r23,hi8(xRaw)
 9384 3d34 40E0      		ldi r20,lo8(yRaw)
 9385 3d36 50E0      		ldi r21,hi8(yRaw)
 9386 3d38 20E0      		ldi r18,lo8(zRaw)
 9387 3d3a 30E0      		ldi r19,hi8(zRaw)
 9388 3d3c 0E94 0000 		call _ZN7ADXL3459readAccelEPiS0_S0_
 9389 3d40 00C0      		rjmp .L456
 9390               	.L455:
 9391               	.LM1349:
 9392 3d42 8130      		cpi r24,lo8(1)
 9393 3d44 01F4      		brne .L457
 9394               	.LM1350:
 9395 3d46 80E0      		ldi r24,lo8(accelerometer)
 9396 3d48 90E0      		ldi r25,hi8(accelerometer)
 9397 3d4a 60E0      		ldi r22,lo8(xRaw)
 9398 3d4c 70E0      		ldi r23,hi8(xRaw)
 9399 3d4e 40E0      		ldi r20,lo8(zRaw)
 9400 3d50 50E0      		ldi r21,hi8(zRaw)
 9401 3d52 20E0      		ldi r18,lo8(yRaw)
 9402 3d54 30E0      		ldi r19,hi8(yRaw)
 9403 3d56 00C0      		rjmp .L480
 9404               	.L457:
 9405               	.LM1351:
 9406 3d58 8230      		cpi r24,lo8(2)
 9407 3d5a 01F4      		brne .+2
 9408 3d5c 00C0      		rjmp .L483
 9409               	.L458:
 9410               	.LM1352:
 9411 3d5e 8430      		cpi r24,lo8(4)
 9412 3d60 01F4      		brne .L459
 9413               	.LM1353:
 9414 3d62 80E0      		ldi r24,lo8(accelerometer)
 9415 3d64 90E0      		ldi r25,hi8(accelerometer)
 9416 3d66 60E0      		ldi r22,lo8(yRaw)
 9417 3d68 70E0      		ldi r23,hi8(yRaw)
 9418 3d6a 40E0      		ldi r20,lo8(xRaw)
 9419 3d6c 50E0      		ldi r21,hi8(xRaw)
 9420 3d6e 20E0      		ldi r18,lo8(zRaw)
 9421 3d70 30E0      		ldi r19,hi8(zRaw)
 9422 3d72 0E94 0000 		call _ZN7ADXL3459readAccelEPiS0_S0_
 9423               	.LM1354:
 9424 3d76 8091 0000 		lds r24,yRaw
 9425 3d7a 9091 0000 		lds r25,(yRaw)+1
 9426 3d7e 9095      		com r25
 9427 3d80 8195      		neg r24
 9428 3d82 9F4F      		sbci r25,lo8(-1)
 9429 3d84 9093 0000 		sts (yRaw)+1,r25
 9430 3d88 8093 0000 		sts yRaw,r24
 9431 3d8c 00C0      		rjmp .L456
 9432               	.L459:
 9433               	.LM1355:
 9434 3d8e 8330      		cpi r24,lo8(3)
 9435 3d90 01F4      		brne .L460
 9436               	.LM1356:
 9437 3d92 80E0      		ldi r24,lo8(accelerometer)
 9438 3d94 90E0      		ldi r25,hi8(accelerometer)
 9439 3d96 60E0      		ldi r22,lo8(zRaw)
 9440 3d98 70E0      		ldi r23,hi8(zRaw)
 9441 3d9a 40E0      		ldi r20,lo8(xRaw)
 9442 3d9c 50E0      		ldi r21,hi8(xRaw)
 9443 3d9e 20E0      		ldi r18,lo8(yRaw)
 9444 3da0 30E0      		ldi r19,hi8(yRaw)
 9445 3da2 0E94 0000 		call _ZN7ADXL3459readAccelEPiS0_S0_
 9446               	.LM1357:
 9447 3da6 8091 0000 		lds r24,xRaw
 9448 3daa 9091 0000 		lds r25,(xRaw)+1
 9449 3dae 9095      		com r25
 9450 3db0 8195      		neg r24
 9451 3db2 9F4F      		sbci r25,lo8(-1)
 9452 3db4 9093 0000 		sts (xRaw)+1,r25
 9453 3db8 8093 0000 		sts xRaw,r24
 9454 3dbc 00C0      		rjmp .L481
 9455               	.L460:
 9456               	.LM1358:
 9457 3dbe 8530      		cpi r24,lo8(5)
 9458 3dc0 01F4      		brne .L461
 9459               	.LM1359:
 9460 3dc2 80E0      		ldi r24,lo8(accelerometer)
 9461 3dc4 90E0      		ldi r25,hi8(accelerometer)
 9462 3dc6 60E0      		ldi r22,lo8(yRaw)
 9463 3dc8 70E0      		ldi r23,hi8(yRaw)
 9464 3dca 40E0      		ldi r20,lo8(zRaw)
 9465 3dcc 50E0      		ldi r21,hi8(zRaw)
 9466 3dce 20E0      		ldi r18,lo8(xRaw)
 9467 3dd0 30E0      		ldi r19,hi8(xRaw)
 9468 3dd2 00C0      		rjmp .L482
 9469               	.L461:
 9470               	.LM1360:
 9471 3dd4 8630      		cpi r24,lo8(6)
 9472 3dd6 01F4      		brne .L462
 9473               	.LM1361:
 9474 3dd8 80E0      		ldi r24,lo8(accelerometer)
 9475 3dda 90E0      		ldi r25,hi8(accelerometer)
 9476 3ddc 60E0      		ldi r22,lo8(zRaw)
 9477 3dde 70E0      		ldi r23,hi8(zRaw)
 9478 3de0 40E0      		ldi r20,lo8(xRaw)
 9479 3de2 50E0      		ldi r21,hi8(xRaw)
 9480 3de4 20E0      		ldi r18,lo8(yRaw)
 9481 3de6 30E0      		ldi r19,hi8(yRaw)
 9482               	.L482:
 9483 3de8 0E94 0000 		call _ZN7ADXL3459readAccelEPiS0_S0_
 9484               	.LM1362:
 9485 3dec 8091 0000 		lds r24,yRaw
 9486 3df0 9091 0000 		lds r25,(yRaw)+1
 9487 3df4 9095      		com r25
 9488 3df6 8195      		neg r24
 9489 3df8 9F4F      		sbci r25,lo8(-1)
 9490 3dfa 9093 0000 		sts (yRaw)+1,r25
 9491 3dfe 8093 0000 		sts yRaw,r24
 9492 3e02 00C0      		rjmp .L481
 9493               	.L462:
 9494               	.LM1363:
 9495 3e04 8730      		cpi r24,lo8(7)
 9496 3e06 01F4      		brne .L456
 9497               	.L483:
 9498               	.LM1364:
 9499 3e08 80E0      		ldi r24,lo8(accelerometer)
 9500 3e0a 90E0      		ldi r25,hi8(accelerometer)
 9501 3e0c 60E0      		ldi r22,lo8(zRaw)
 9502 3e0e 70E0      		ldi r23,hi8(zRaw)
 9503 3e10 40E0      		ldi r20,lo8(yRaw)
 9504 3e12 50E0      		ldi r21,hi8(yRaw)
 9505 3e14 20E0      		ldi r18,lo8(xRaw)
 9506 3e16 30E0      		ldi r19,hi8(xRaw)
 9507               	.L480:
 9508 3e18 0E94 0000 		call _ZN7ADXL3459readAccelEPiS0_S0_
 9509               	.L481:
 9510               	.LM1365:
 9511 3e1c 8091 0000 		lds r24,zRaw
 9512 3e20 9091 0000 		lds r25,(zRaw)+1
 9513 3e24 9095      		com r25
 9514 3e26 8195      		neg r24
 9515 3e28 9F4F      		sbci r25,lo8(-1)
 9516 3e2a 9093 0000 		sts (zRaw)+1,r25
 9517 3e2e 8093 0000 		sts zRaw,r24
 9518               	.L456:
 9519               	.LM1366:
 9520 3e32 8091 0000 		lds r24,accelMicros
 9521 3e36 9091 0000 		lds r25,(accelMicros)+1
 9522 3e3a A091 0000 		lds r26,(accelMicros)+2
 9523 3e3e B091 0000 		lds r27,(accelMicros)+3
 9524 3e42 0097      		sbiw r24,0
 9525 3e44 A105      		cpc r26,__zero_reg__
 9526 3e46 B105      		cpc r27,__zero_reg__
 9527 3e48 01F4      		brne .L463
 9528 3e4a 21E0      		ldi r18,lo8(1)
 9529 3e4c 30E0      		ldi r19,hi8(1)
 9530 3e4e 40E0      		ldi r20,hlo8(1)
 9531 3e50 50E0      		ldi r21,hhi8(1)
 9532 3e52 00C0      		rjmp .L464
 9533               	.L463:
 9534 3e54 0E94 0000 		call micros
 9535 3e58 9B01      		movw r18,r22
 9536 3e5a AC01      		movw r20,r24
 9537 3e5c 8091 0000 		lds r24,accelMicros
 9538 3e60 9091 0000 		lds r25,(accelMicros)+1
 9539 3e64 A091 0000 		lds r26,(accelMicros)+2
 9540 3e68 B091 0000 		lds r27,(accelMicros)+3
 9541 3e6c 281B      		sub r18,r24
 9542 3e6e 390B      		sbc r19,r25
 9543 3e70 4A0B      		sbc r20,r26
 9544 3e72 5B0B      		sbc r21,r27
 9545               	.L464:
 9546 3e74 2093 0000 		sts accelDiff,r18
 9547 3e78 3093 0000 		sts (accelDiff)+1,r19
 9548 3e7c 4093 0000 		sts (accelDiff)+2,r20
 9549 3e80 5093 0000 		sts (accelDiff)+3,r21
 9550               	.LM1367:
 9551 3e84 0E94 0000 		call micros
 9552 3e88 6093 0000 		sts accelMicros,r22
 9553 3e8c 7093 0000 		sts (accelMicros)+1,r23
 9554 3e90 8093 0000 		sts (accelMicros)+2,r24
 9555 3e94 9093 0000 		sts (accelMicros)+3,r25
 9556               	.LM1368:
 9557 3e98 6091 0000 		lds r22,xRaw
 9558 3e9c 7091 0000 		lds r23,(xRaw)+1
 9559 3ea0 2091 0000 		lds r18,opt_accel_offset
 9560 3ea4 3091 0000 		lds r19,(opt_accel_offset)+1
 9561 3ea8 620F      		add r22,r18
 9562 3eaa 731F      		adc r23,r19
 9563               	.LM1369:
 9564 3eac E090 0000 		lds r14,yRaw
 9565 3eb0 F090 0000 		lds r15,(yRaw)+1
 9566 3eb4 2091 0000 		lds r18,opt_accel_offset+2
 9567 3eb8 3091 0000 		lds r19,(opt_accel_offset+2)+1
 9568 3ebc E20E      		add r14,r18
 9569 3ebe F31E      		adc r15,r19
 9570               	.LM1370:
 9571 3ec0 A090 0000 		lds r10,zRaw
 9572 3ec4 B090 0000 		lds r11,(zRaw)+1
 9573 3ec8 2091 0000 		lds r18,opt_accel_offset+4
 9574 3ecc 3091 0000 		lds r19,(opt_accel_offset+4)+1
 9575 3ed0 A20E      		add r10,r18
 9576 3ed2 B31E      		adc r11,r19
 9577               	.LM1371:
 9578 3ed4 8827      		clr r24
 9579 3ed6 77FD      		sbrc r23,7
 9580 3ed8 8095      		com r24
 9581 3eda 982F      		mov r25,r24
 9582 3edc 0E94 0000 		call __floatsisf
 9583 3ee0 2091 0000 		lds r18,opt_accel_calibrate
 9584 3ee4 3091 0000 		lds r19,(opt_accel_calibrate)+1
 9585 3ee8 4091 0000 		lds r20,(opt_accel_calibrate)+2
 9586 3eec 5091 0000 		lds r21,(opt_accel_calibrate)+3
 9587 3ef0 0E94 0000 		call __mulsf3
 9588 3ef4 0E94 0000 		call __fixsfsi
 9589 3ef8 3B01      		movw r6,r22
 9590 3efa 4C01      		movw r8,r24
 9591 3efc 7093 0000 		sts (xRaw)+1,r23
 9592 3f00 6093 0000 		sts xRaw,r22
 9593               	.LM1372:
 9594 3f04 0027      		clr r16
 9595 3f06 F7FC      		sbrc r15,7
 9596 3f08 0095      		com r16
 9597 3f0a 102F      		mov r17,r16
 9598 3f0c C801      		movw r24,r16
 9599 3f0e B701      		movw r22,r14
 9600 3f10 0E94 0000 		call __floatsisf
 9601 3f14 2091 0000 		lds r18,opt_accel_calibrate+4
 9602 3f18 3091 0000 		lds r19,(opt_accel_calibrate+4)+1
 9603 3f1c 4091 0000 		lds r20,(opt_accel_calibrate+4)+2
 9604 3f20 5091 0000 		lds r21,(opt_accel_calibrate+4)+3
 9605 3f24 0E94 0000 		call __mulsf3
 9606 3f28 0E94 0000 		call __fixsfsi
 9607 3f2c 1B01      		movw r2,r22
 9608 3f2e 2C01      		movw r4,r24
 9609 3f30 7093 0000 		sts (yRaw)+1,r23
 9610 3f34 6093 0000 		sts yRaw,r22
 9611               	.LM1373:
 9612 3f38 CC24      		clr r12
 9613 3f3a B7FC      		sbrc r11,7
 9614 3f3c C094      		com r12
 9615 3f3e DC2C      		mov r13,r12
 9616 3f40 C601      		movw r24,r12
 9617 3f42 B501      		movw r22,r10
 9618 3f44 0E94 0000 		call __floatsisf
 9619 3f48 2091 0000 		lds r18,opt_accel_calibrate+8
 9620 3f4c 3091 0000 		lds r19,(opt_accel_calibrate+8)+1
 9621 3f50 4091 0000 		lds r20,(opt_accel_calibrate+8)+2
 9622 3f54 5091 0000 		lds r21,(opt_accel_calibrate+8)+3
 9623 3f58 0E94 0000 		call __mulsf3
 9624 3f5c 0E94 0000 		call __fixsfsi
 9625 3f60 6B83      		std Y+3,r22
 9626 3f62 7C83      		std Y+4,r23
 9627 3f64 8D83      		std Y+5,r24
 9628 3f66 9E83      		std Y+6,r25
 9629 3f68 2B81      		ldd r18,Y+3
 9630 3f6a 3C81      		ldd r19,Y+4
 9631 3f6c 3093 0000 		sts (zRaw)+1,r19
 9632 3f70 2093 0000 		sts zRaw,r18
 9633               	.LM1374:
 9634 3f74 0091 0000 		lds r16,x0
 9635 3f78 1091 0000 		lds r17,(x0)+1
 9636 3f7c B801      		movw r22,r16
 9637 3f7e 8827      		clr r24
 9638 3f80 77FD      		sbrc r23,7
 9639 3f82 8095      		com r24
 9640 3f84 982F      		mov r25,r24
 9641 3f86 0E94 0000 		call __floatsisf
 9642 3f8a 6B01      		movw r12,r22
 9643 3f8c 7C01      		movw r14,r24
 9644 3f8e 601A      		sub r6,r16
 9645 3f90 710A      		sbc r7,r17
 9646 3f92 B301      		movw r22,r6
 9647 3f94 8827      		clr r24
 9648 3f96 77FD      		sbrc r23,7
 9649 3f98 8095      		com r24
 9650 3f9a 982F      		mov r25,r24
 9651 3f9c 0E94 0000 		call __floatsisf
 9652 3fa0 2091 0000 		lds r18,opt_accel_kalman_constant
 9653 3fa4 3091 0000 		lds r19,(opt_accel_kalman_constant)+1
 9654 3fa8 4091 0000 		lds r20,(opt_accel_kalman_constant)+2
 9655 3fac 5091 0000 		lds r21,(opt_accel_kalman_constant)+3
 9656 3fb0 0E94 0000 		call __mulsf3
 9657 3fb4 9B01      		movw r18,r22
 9658 3fb6 AC01      		movw r20,r24
 9659 3fb8 C701      		movw r24,r14
 9660 3fba B601      		movw r22,r12
 9661 3fbc 0E94 0000 		call __addsf3
 9662 3fc0 0E94 0000 		call __fixsfsi
 9663 3fc4 7093 0000 		sts (x)+1,r23
 9664 3fc8 6093 0000 		sts x,r22
 9665               	.LM1375:
 9666 3fcc 0091 0000 		lds r16,y0
 9667 3fd0 1091 0000 		lds r17,(y0)+1
 9668 3fd4 8090 0000 		lds r8,opt_accel_kalman_constant
 9669 3fd8 9090 0000 		lds r9,(opt_accel_kalman_constant)+1
 9670 3fdc A090 0000 		lds r10,(opt_accel_kalman_constant)+2
 9671 3fe0 B090 0000 		lds r11,(opt_accel_kalman_constant)+3
 9672 3fe4 B801      		movw r22,r16
 9673 3fe6 8827      		clr r24
 9674 3fe8 77FD      		sbrc r23,7
 9675 3fea 8095      		com r24
 9676 3fec 982F      		mov r25,r24
 9677 3fee 0E94 0000 		call __floatsisf
 9678 3ff2 6B01      		movw r12,r22
 9679 3ff4 7C01      		movw r14,r24
 9680 3ff6 201A      		sub r2,r16
 9681 3ff8 310A      		sbc r3,r17
 9682 3ffa B101      		movw r22,r2
 9683 3ffc 8827      		clr r24
 9684 3ffe 77FD      		sbrc r23,7
 9685 4000 8095      		com r24
 9686 4002 982F      		mov r25,r24
 9687 4004 0E94 0000 		call __floatsisf
 9688 4008 9B01      		movw r18,r22
 9689 400a AC01      		movw r20,r24
 9690 400c C501      		movw r24,r10
 9691 400e B401      		movw r22,r8
 9692 4010 0E94 0000 		call __mulsf3
 9693 4014 9B01      		movw r18,r22
 9694 4016 AC01      		movw r20,r24
 9695 4018 C701      		movw r24,r14
 9696 401a B601      		movw r22,r12
 9697 401c 0E94 0000 		call __addsf3
 9698 4020 0E94 0000 		call __fixsfsi
 9699 4024 7A83      		std Y+2,r23
 9700 4026 6983      		std Y+1,r22
 9701 4028 7093 0000 		sts (y)+1,r23
 9702 402c 6093 0000 		sts y,r22
 9703               	.LM1376:
 9704 4030 0091 0000 		lds r16,z0
 9705 4034 1091 0000 		lds r17,(z0)+1
 9706 4038 B801      		movw r22,r16
 9707 403a 8827      		clr r24
 9708 403c 77FD      		sbrc r23,7
 9709 403e 8095      		com r24
 9710 4040 982F      		mov r25,r24
 9711 4042 0E94 0000 		call __floatsisf
 9712 4046 6B01      		movw r12,r22
 9713 4048 7C01      		movw r14,r24
 9714 404a 2B81      		ldd r18,Y+3
 9715 404c 3C81      		ldd r19,Y+4
 9716 404e 201B      		sub r18,r16
 9717 4050 310B      		sbc r19,r17
 9718 4052 B901      		movw r22,r18
 9719 4054 8827      		clr r24
 9720 4056 77FD      		sbrc r23,7
 9721 4058 8095      		com r24
 9722 405a 982F      		mov r25,r24
 9723 405c 0E94 0000 		call __floatsisf
 9724 4060 9B01      		movw r18,r22
 9725 4062 AC01      		movw r20,r24
 9726 4064 C501      		movw r24,r10
 9727 4066 B401      		movw r22,r8
 9728 4068 0E94 0000 		call __mulsf3
 9729 406c 9B01      		movw r18,r22
 9730 406e AC01      		movw r20,r24
 9731 4070 C701      		movw r24,r14
 9732 4072 B601      		movw r22,r12
 9733 4074 0E94 0000 		call __addsf3
 9734 4078 0E94 0000 		call __fixsfsi
 9735 407c 2B01      		movw r4,r22
 9736 407e 7093 0000 		sts (z)+1,r23
 9737 4082 6093 0000 		sts z,r22
 9738               	.LM1377:
 9739 4086 2090 0000 		lds r2,opt_accel_smooth_average
 9740 408a 2220      		tst r2
 9741 408c 01F4      		brne .+2
 9742 408e 00C0      		rjmp .L465
 9743               	.LM1378:
 9744 4090 81E0      		ldi r24,lo8(1)
 9745 4092 90E0      		ldi r25,hi8(1)
 9746 4094 A0E0      		ldi r26,hlo8(1)
 9747 4096 B0E0      		ldi r27,hhi8(1)
 9748 4098 8093 0000 		sts i,r24
 9749 409c 9093 0000 		sts (i)+1,r25
 9750 40a0 A093 0000 		sts (i)+2,r26
 9751 40a4 B093 0000 		sts (i)+3,r27
 9752 40a8 11E0      		ldi r17,lo8(1)
 9753 40aa A12E      		mov r10,r17
 9754 40ac B12C      		mov r11,__zero_reg__
 9755 40ae C12C      		mov r12,__zero_reg__
 9756 40b0 D12C      		mov r13,__zero_reg__
 9757 40b2 622C      		mov r6,r2
 9758 40b4 7724      		clr r7
 9759 40b6 8824      		clr r8
 9760 40b8 9924      		clr r9
 9761 40ba 00C0      		rjmp .L466
 9762               	.L467:
 9763               	.LM1379:
 9764 40bc D601      		movw r26,r12
 9765 40be C501      		movw r24,r10
 9766 40c0 8E0D      		add r24,r14
 9767 40c2 911D      		adc r25,__zero_reg__
 9768 40c4 A11D      		adc r26,__zero_reg__
 9769 40c6 B11D      		adc r27,__zero_reg__
 9770 40c8 7C01      		movw r14,r24
 9771 40ca 8D01      		movw r16,r26
 9772 40cc BC01      		movw r22,r24
 9773 40ce CD01      		movw r24,r26
 9774 40d0 A401      		movw r20,r8
 9775 40d2 9301      		movw r18,r6
 9776 40d4 0E94 0000 		call __udivmodsi4
 9777 40d8 DC01      		movw r26,r24
 9778 40da CB01      		movw r24,r22
 9779 40dc 880F      		lsl r24
 9780 40de 991F      		rol r25
 9781 40e0 8050      		subi r24,lo8(-(xHist))
 9782 40e2 9040      		sbci r25,hi8(-(xHist))
 9783 40e4 DC01      		movw r26,r24
 9784 40e6 8D91      		ld r24,X+
 9785 40e8 9C91      		ld r25,X
 9786 40ea EF85      		ldd r30,Y+15
 9787 40ec F889      		ldd r31,Y+16
 9788 40ee E80F      		add r30,r24
 9789 40f0 F91F      		adc r31,r25
 9790 40f2 F093 0000 		sts (x)+1,r31
 9791 40f6 E093 0000 		sts x,r30
 9792               	.LM1380:
 9793 40fa C801      		movw r24,r16
 9794 40fc B701      		movw r22,r14
 9795 40fe A401      		movw r20,r8
 9796 4100 9301      		movw r18,r6
 9797 4102 0E94 0000 		call __udivmodsi4
 9798 4106 FB01      		movw r30,r22
 9799 4108 EE0F      		lsl r30
 9800 410a FF1F      		rol r31
 9801 410c E050      		subi r30,lo8(-(yHist))
 9802 410e F040      		sbci r31,hi8(-(yHist))
 9803 4110 8081      		ld r24,Z
 9804 4112 9181      		ldd r25,Z+1
 9805 4114 2981      		ldd r18,Y+1
 9806 4116 3A81      		ldd r19,Y+2
 9807 4118 280F      		add r18,r24
 9808 411a 391F      		adc r19,r25
 9809 411c 3A83      		std Y+2,r19
 9810 411e 2983      		std Y+1,r18
 9811               	.LM1381:
 9812 4120 FB01      		movw r30,r22
 9813 4122 EE0F      		lsl r30
 9814 4124 FF1F      		rol r31
 9815 4126 E050      		subi r30,lo8(-(zHist))
 9816 4128 F040      		sbci r31,hi8(-(zHist))
 9817 412a 8081      		ld r24,Z
 9818 412c 9181      		ldd r25,Z+1
 9819 412e 480E      		add r4,r24
 9820 4130 591E      		adc r5,r25
 9821 4132 0894      		sec
 9822 4134 A11C      		adc r10,__zero_reg__
 9823 4136 B11C      		adc r11,__zero_reg__
 9824 4138 C11C      		adc r12,__zero_reg__
 9825 413a D11C      		adc r13,__zero_reg__
 9826               	.L466:
 9827 413c 8091 0000 		lds r24,x
 9828 4140 9091 0000 		lds r25,(x)+1
 9829 4144 988B      		std Y+16,r25
 9830 4146 8F87      		std Y+15,r24
 9831 4148 E090 0000 		lds r14,accelTick
 9832               	.LM1382:
 9833 414c A614      		cp r10,r6
 9834 414e B704      		cpc r11,r7
 9835 4150 C804      		cpc r12,r8
 9836 4152 D904      		cpc r13,r9
 9837 4154 00F4      		brsh .+2
 9838 4156 00C0      		rjmp .L467
 9839 4158 A092 0000 		sts i,r10
 9840 415c B092 0000 		sts (i)+1,r11
 9841 4160 C092 0000 		sts (i)+2,r12
 9842 4164 D092 0000 		sts (i)+3,r13
 9843               	.LM1383:
 9844 4168 622D      		mov r22,r2
 9845 416a 70E0      		ldi r23,lo8(0)
 9846 416c 0E94 0000 		call __divmodhi4
 9847 4170 9B01      		movw r18,r22
 9848 4172 6093 0000 		sts x,r22
 9849 4176 3093 0000 		sts x+1,r19
 9850               	.LM1384:
 9851 417a 8981      		ldd r24,Y+1
 9852 417c 9A81      		ldd r25,Y+2
 9853 417e 622D      		mov r22,r2
 9854 4180 70E0      		ldi r23,lo8(0)
 9855 4182 0E94 0000 		call __divmodhi4
 9856 4186 462F      		mov r20,r22
 9857 4188 172F      		mov r17,r23
 9858 418a 6093 0000 		sts y,r22
 9859 418e 7093 0000 		sts y+1,r23
 9860               	.LM1385:
 9861 4192 C201      		movw r24,r4
 9862 4194 622D      		mov r22,r2
 9863 4196 70E0      		ldi r23,lo8(0)
 9864 4198 0E94 0000 		call __divmodhi4
 9865 419c 062F      		mov r16,r22
 9866 419e F72E      		mov r15,r23
 9867 41a0 6093 0000 		sts z,r22
 9868 41a4 7093 0000 		sts z+1,r23
 9869               	.LM1386:
 9870 41a8 8E2D      		mov r24,r14
 9871 41aa 90E0      		ldi r25,lo8(0)
 9872 41ac 622D      		mov r22,r2
 9873 41ae 70E0      		ldi r23,lo8(0)
 9874 41b0 0E94 0000 		call __udivmodhi4
 9875 41b4 FC01      		movw r30,r24
 9876 41b6 EE0F      		lsl r30
 9877 41b8 FF1F      		rol r31
 9878 41ba E050      		subi r30,lo8(-(xHist))
 9879 41bc F040      		sbci r31,hi8(-(xHist))
 9880 41be 2083      		st Z,r18
 9881 41c0 3183      		std Z+1,r19
 9882               	.LM1387:
 9883 41c2 8E2D      		mov r24,r14
 9884 41c4 90E0      		ldi r25,lo8(0)
 9885 41c6 622D      		mov r22,r2
 9886 41c8 70E0      		ldi r23,lo8(0)
 9887 41ca 0E94 0000 		call __udivmodhi4
 9888 41ce FC01      		movw r30,r24
 9889 41d0 EE0F      		lsl r30
 9890 41d2 FF1F      		rol r31
 9891 41d4 E050      		subi r30,lo8(-(yHist))
 9892 41d6 F040      		sbci r31,hi8(-(yHist))
 9893 41d8 4083      		st Z,r20
 9894 41da 1183      		std Z+1,r17
 9895               	.LM1388:
 9896 41dc 8E2D      		mov r24,r14
 9897 41de 90E0      		ldi r25,lo8(0)
 9898 41e0 622D      		mov r22,r2
 9899 41e2 70E0      		ldi r23,lo8(0)
 9900 41e4 0E94 0000 		call __udivmodhi4
 9901 41e8 FC01      		movw r30,r24
 9902 41ea EE0F      		lsl r30
 9903 41ec FF1F      		rol r31
 9904 41ee E050      		subi r30,lo8(-(zHist))
 9905 41f0 F040      		sbci r31,hi8(-(zHist))
 9906 41f2 0083      		st Z,r16
 9907 41f4 F182      		std Z+1,r15
 9908               	.L465:
 9909               	.LM1389:
 9910 41f6 4091 0000 		lds r20,x0
 9911 41fa 5091 0000 		lds r21,(x0)+1
 9912 41fe A091 0000 		lds r26,x
 9913 4202 B091 0000 		lds r27,(x)+1
 9914 4206 8091 0000 		lds r24,xv
 9915 420a 9091 0000 		lds r25,(xv)+1
 9916 420e 8A0F      		add r24,r26
 9917 4210 9B1F      		adc r25,r27
 9918 4212 2091 0000 		lds r18,x00
 9919 4216 3091 0000 		lds r19,(x00)+1
 9920 421a 820F      		add r24,r18
 9921 421c 931F      		adc r25,r19
 9922 421e 841B      		sub r24,r20
 9923 4220 950B      		sbc r25,r21
 9924 4222 841B      		sub r24,r20
 9925 4224 950B      		sbc r25,r21
 9926 4226 9093 0000 		sts (xv)+1,r25
 9927 422a 8093 0000 		sts xv,r24
 9928               	.LM1390:
 9929 422e E091 0000 		lds r30,y
 9930 4232 F091 0000 		lds r31,(y)+1
 9931 4236 4091 0000 		lds r20,y0
 9932 423a 5091 0000 		lds r21,(y0)+1
 9933 423e 8091 0000 		lds r24,yv
 9934 4242 9091 0000 		lds r25,(yv)+1
 9935 4246 8E0F      		add r24,r30
 9936 4248 9F1F      		adc r25,r31
 9937 424a 2091 0000 		lds r18,y00
 9938 424e 3091 0000 		lds r19,(y00)+1
 9939 4252 820F      		add r24,r18
 9940 4254 931F      		adc r25,r19
 9941 4256 841B      		sub r24,r20
 9942 4258 950B      		sbc r25,r21
 9943 425a 841B      		sub r24,r20
 9944 425c 950B      		sbc r25,r21
 9945 425e 9093 0000 		sts (yv)+1,r25
 9946 4262 8093 0000 		sts yv,r24
 9947               	.LM1391:
 9948 4266 6091 0000 		lds r22,z
 9949 426a 7091 0000 		lds r23,(z)+1
 9950 426e 4091 0000 		lds r20,z0
 9951 4272 5091 0000 		lds r21,(z0)+1
 9952 4276 8091 0000 		lds r24,zv
 9953 427a 9091 0000 		lds r25,(zv)+1
 9954 427e 860F      		add r24,r22
 9955 4280 971F      		adc r25,r23
 9956 4282 2091 0000 		lds r18,z00
 9957 4286 3091 0000 		lds r19,(z00)+1
 9958 428a 820F      		add r24,r18
 9959 428c 931F      		adc r25,r19
 9960 428e 841B      		sub r24,r20
 9961 4290 950B      		sbc r25,r21
 9962 4292 841B      		sub r24,r20
 9963 4294 950B      		sbc r25,r21
 9964 4296 9093 0000 		sts (zv)+1,r25
 9965 429a 8093 0000 		sts zv,r24
 9966               	.LM1392:
 9967 429e 8091 0000 		lds r24,opt_enable_calibration
 9968 42a2 8823      		tst r24
 9969 42a4 01F4      		brne .+2
 9970 42a6 00C0      		rjmp .L468
 9971               	.LM1393:
 9972 42a8 2091 0000 		lds r18,xMin
 9973 42ac 3091 0000 		lds r19,(xMin)+1
 9974 42b0 CD01      		movw r24,r26
 9975 42b2 2A17      		cp r18,r26
 9976 42b4 3B07      		cpc r19,r27
 9977 42b6 04F4      		brge .L469
 9978 42b8 C901      		movw r24,r18
 9979               	.L469:
 9980 42ba 9093 0000 		sts (xMin)+1,r25
 9981 42be 8093 0000 		sts xMin,r24
 9982               	.LM1394:
 9983 42c2 8091 0000 		lds r24,yMin
 9984 42c6 9091 0000 		lds r25,(yMin)+1
 9985 42ca E817      		cp r30,r24
 9986 42cc F907      		cpc r31,r25
 9987 42ce 04F4      		brge .L470
 9988 42d0 CF01      		movw r24,r30
 9989               	.L470:
 9990 42d2 9093 0000 		sts (yMin)+1,r25
 9991 42d6 8093 0000 		sts yMin,r24
 9992               	.LM1395:
 9993 42da 8091 0000 		lds r24,zMin
 9994 42de 9091 0000 		lds r25,(zMin)+1
 9995 42e2 6817      		cp r22,r24
 9996 42e4 7907      		cpc r23,r25
 9997 42e6 04F4      		brge .L471
 9998 42e8 CB01      		movw r24,r22
 9999               	.L471:
 10000 42ea 9093 0000 		sts (zMin)+1,r25
 10001 42ee 8093 0000 		sts zMin,r24
 10002               	.LM1396:
 10003 42f2 2091 0000 		lds r18,xMax
 10004 42f6 3091 0000 		lds r19,(xMax)+1
 10005 42fa 8091 0000 		lds r24,x
 10006 42fe 9091 0000 		lds r25,(x)+1
 10007 4302 8217      		cp r24,r18
 10008 4304 9307      		cpc r25,r19
 10009 4306 04F4      		brge .L472
 10010 4308 C901      		movw r24,r18
 10011               	.L472:
 10012 430a 9093 0000 		sts (xMax)+1,r25
 10013 430e 8093 0000 		sts xMax,r24
 10014               	.LM1397:
 10015 4312 8091 0000 		lds r24,yMax
 10016 4316 9091 0000 		lds r25,(yMax)+1
 10017 431a 8E17      		cp r24,r30
 10018 431c 9F07      		cpc r25,r31
 10019 431e 04F4      		brge .L473
 10020 4320 CF01      		movw r24,r30
 10021               	.L473:
 10022 4322 9093 0000 		sts (yMax)+1,r25
 10023 4326 8093 0000 		sts yMax,r24
 10024               	.LM1398:
 10025 432a 8091 0000 		lds r24,zMax
 10026 432e 9091 0000 		lds r25,(zMax)+1
 10027 4332 8617      		cp r24,r22
 10028 4334 9707      		cpc r25,r23
 10029 4336 04F4      		brge .L474
 10030 4338 CB01      		movw r24,r22
 10031               	.L474:
 10032 433a 9093 0000 		sts (zMax)+1,r25
 10033 433e 8093 0000 		sts zMax,r24
 10034               	.LM1399:
 10035 4342 80E0      		ldi r24,lo8(Serial)
 10036 4344 90E0      		ldi r25,hi8(Serial)
 10037 4346 60E0      		ldi r22,lo8(.LC27)
 10038 4348 70E0      		ldi r23,hi8(.LC27)
 10039 434a 0E94 0000 		call _ZN16USBVirtualSerial5printEPKc
 10040               	.LM1400:
 10041 434e 6091 0000 		lds r22,xMin
 10042 4352 7091 0000 		lds r23,(xMin)+1
 10043 4356 80E0      		ldi r24,lo8(Serial)
 10044 4358 90E0      		ldi r25,hi8(Serial)
 10045 435a 0E94 0000 		call _ZN16USBVirtualSerial5printEi
 10046 435e 80E0      		ldi r24,lo8(Serial)
 10047 4360 90E0      		ldi r25,hi8(Serial)
 10048 4362 60E0      		ldi r22,lo8(.LC1)
 10049 4364 70E0      		ldi r23,hi8(.LC1)
 10050 4366 0E94 0000 		call _ZN16USBVirtualSerial5printEPKc
 10051               	.LM1401:
 10052 436a 6091 0000 		lds r22,yMin
 10053 436e 7091 0000 		lds r23,(yMin)+1
 10054 4372 80E0      		ldi r24,lo8(Serial)
 10055 4374 90E0      		ldi r25,hi8(Serial)
 10056 4376 0E94 0000 		call _ZN16USBVirtualSerial5printEi
 10057 437a 80E0      		ldi r24,lo8(Serial)
 10058 437c 90E0      		ldi r25,hi8(Serial)
 10059 437e 60E0      		ldi r22,lo8(.LC1)
 10060 4380 70E0      		ldi r23,hi8(.LC1)
 10061 4382 0E94 0000 		call _ZN16USBVirtualSerial5printEPKc
 10062               	.LM1402:
 10063 4386 6091 0000 		lds r22,zMin
 10064 438a 7091 0000 		lds r23,(zMin)+1
 10065 438e 80E0      		ldi r24,lo8(Serial)
 10066 4390 90E0      		ldi r25,hi8(Serial)
 10067 4392 0E94 0000 		call _ZN16USBVirtualSerial5printEi
 10068 4396 80E0      		ldi r24,lo8(Serial)
 10069 4398 90E0      		ldi r25,hi8(Serial)
 10070 439a 60E0      		ldi r22,lo8(.LC1)
 10071 439c 70E0      		ldi r23,hi8(.LC1)
 10072 439e 0E94 0000 		call _ZN16USBVirtualSerial5printEPKc
 10073               	.LM1403:
 10074 43a2 6091 0000 		lds r22,xMax
 10075 43a6 7091 0000 		lds r23,(xMax)+1
 10076 43aa 80E0      		ldi r24,lo8(Serial)
 10077 43ac 90E0      		ldi r25,hi8(Serial)
 10078 43ae 0E94 0000 		call _ZN16USBVirtualSerial5printEi
 10079 43b2 80E0      		ldi r24,lo8(Serial)
 10080 43b4 90E0      		ldi r25,hi8(Serial)
 10081 43b6 60E0      		ldi r22,lo8(.LC1)
 10082 43b8 70E0      		ldi r23,hi8(.LC1)
 10083 43ba 0E94 0000 		call _ZN16USBVirtualSerial5printEPKc
 10084               	.LM1404:
 10085 43be 6091 0000 		lds r22,yMax
 10086 43c2 7091 0000 		lds r23,(yMax)+1
 10087 43c6 80E0      		ldi r24,lo8(Serial)
 10088 43c8 90E0      		ldi r25,hi8(Serial)
 10089 43ca 0E94 0000 		call _ZN16USBVirtualSerial5printEi
 10090 43ce 80E0      		ldi r24,lo8(Serial)
 10091 43d0 90E0      		ldi r25,hi8(Serial)
 10092 43d2 60E0      		ldi r22,lo8(.LC1)
 10093 43d4 70E0      		ldi r23,hi8(.LC1)
 10094 43d6 0E94 0000 		call _ZN16USBVirtualSerial5printEPKc
 10095               	.LM1405:
 10096 43da 6091 0000 		lds r22,zMax
 10097 43de 7091 0000 		lds r23,(zMax)+1
 10098 43e2 80E0      		ldi r24,lo8(Serial)
 10099 43e4 90E0      		ldi r25,hi8(Serial)
 10100 43e6 0E94 0000 		call _ZN16USBVirtualSerial7printlnEi
 10101               	.L468:
 10102               	.LM1406:
 10103 43ea 8091 0000 		lds r24,ax0
 10104 43ee 9091 0000 		lds r25,(ax0)+1
 10105 43f2 9093 0000 		sts (ax00)+1,r25
 10106 43f6 8093 0000 		sts ax00,r24
 10107               	.LM1407:
 10108 43fa 8091 0000 		lds r24,ay0
 10109 43fe 9091 0000 		lds r25,(ay0)+1
 10110 4402 9093 0000 		sts (ay00)+1,r25
 10111 4406 8093 0000 		sts ay00,r24
 10112               	.LM1408:
 10113 440a 8091 0000 		lds r24,az0
 10114 440e 9091 0000 		lds r25,(az0)+1
 10115 4412 9093 0000 		sts (az00)+1,r25
 10116 4416 8093 0000 		sts az00,r24
 10117               	.LM1409:
 10118 441a 8091 0000 		lds r24,ax
 10119 441e 9091 0000 		lds r25,(ax)+1
 10120 4422 9093 0000 		sts (ax0)+1,r25
 10121 4426 8093 0000 		sts ax0,r24
 10122               	.LM1410:
 10123 442a 8091 0000 		lds r24,ay
 10124 442e 9091 0000 		lds r25,(ay)+1
 10125 4432 9093 0000 		sts (ay0)+1,r25
 10126 4436 8093 0000 		sts ay0,r24
 10127               	.LM1411:
 10128 443a 8091 0000 		lds r24,az
 10129 443e 9091 0000 		lds r25,(az)+1
 10130 4442 9093 0000 		sts (az0)+1,r25
 10131 4446 8093 0000 		sts az0,r24
 10132               	.LM1412:
 10133 444a 6091 0000 		lds r22,x
 10134 444e 7091 0000 		lds r23,(x)+1
 10135 4452 8827      		clr r24
 10136 4454 77FD      		sbrc r23,7
 10137 4456 8095      		com r24
 10138 4458 982F      		mov r25,r24
 10139 445a 0E94 0000 		call __floatsisf
 10140 445e 20E0      		ldi r18,lo8(0x3b800000)
 10141 4460 30E0      		ldi r19,hi8(0x3b800000)
 10142 4462 40E8      		ldi r20,hlo8(0x3b800000)
 10143 4464 5BE3      		ldi r21,hhi8(0x3b800000)
 10144 4466 0E94 0000 		call __mulsf3
 10145 446a 7B01      		movw r14,r22
 10146 446c 8C01      		movw r16,r24
 10147 446e 6091 0000 		lds r22,y
 10148 4472 7091 0000 		lds r23,(y)+1
 10149 4476 8827      		clr r24
 10150 4478 77FD      		sbrc r23,7
 10151 447a 8095      		com r24
 10152 447c 982F      		mov r25,r24
 10153 447e 0E94 0000 		call __floatsisf
 10154 4482 20E0      		ldi r18,lo8(0x3b800000)
 10155 4484 30E0      		ldi r19,hi8(0x3b800000)
 10156 4486 40E8      		ldi r20,hlo8(0x3b800000)
 10157 4488 5BE3      		ldi r21,hhi8(0x3b800000)
 10158 448a 0E94 0000 		call __mulsf3
 10159 448e 5B01      		movw r10,r22
 10160 4490 6C01      		movw r12,r24
 10161 4492 6091 0000 		lds r22,z
 10162 4496 7091 0000 		lds r23,(z)+1
 10163 449a 8827      		clr r24
 10164 449c 77FD      		sbrc r23,7
 10165 449e 8095      		com r24
 10166 44a0 982F      		mov r25,r24
 10167 44a2 0E94 0000 		call __floatsisf
 10168 44a6 20E0      		ldi r18,lo8(0x3b800000)
 10169 44a8 30E0      		ldi r19,hi8(0x3b800000)
 10170 44aa 40E8      		ldi r20,hlo8(0x3b800000)
 10171 44ac 5BE3      		ldi r21,hhi8(0x3b800000)
 10172 44ae 0E94 0000 		call __mulsf3
 10173 44b2 1B01      		movw r2,r22
 10174 44b4 2C01      		movw r4,r24
 10175               	.LM1413:
 10176 44b6 C601      		movw r24,r12
 10177 44b8 B501      		movw r22,r10
 10178 44ba A601      		movw r20,r12
 10179 44bc 9501      		movw r18,r10
 10180 44be 0E94 0000 		call __mulsf3
 10181 44c2 6F83      		std Y+7,r22
 10182 44c4 7887      		std Y+8,r23
 10183 44c6 8987      		std Y+9,r24
 10184 44c8 9A87      		std Y+10,r25
 10185 44ca C201      		movw r24,r4
 10186 44cc B101      		movw r22,r2
 10187 44ce A201      		movw r20,r4
 10188 44d0 9101      		movw r18,r2
 10189 44d2 0E94 0000 		call __mulsf3
 10190 44d6 6B87      		std Y+11,r22
 10191 44d8 7C87      		std Y+12,r23
 10192 44da 8D87      		std Y+13,r24
 10193 44dc 9E87      		std Y+14,r25
 10194 44de 6F81      		ldd r22,Y+7
 10195 44e0 7885      		ldd r23,Y+8
 10196 44e2 8985      		ldd r24,Y+9
 10197 44e4 9A85      		ldd r25,Y+10
 10198 44e6 2B85      		ldd r18,Y+11
 10199 44e8 3C85      		ldd r19,Y+12
 10200 44ea 4D85      		ldd r20,Y+13
 10201 44ec 5E85      		ldd r21,Y+14
 10202 44ee 0E94 0000 		call __addsf3
 10203 44f2 0E94 0000 		call sqrt
 10204 44f6 9B01      		movw r18,r22
 10205 44f8 AC01      		movw r20,r24
 10206 44fa C801      		movw r24,r16
 10207 44fc B701      		movw r22,r14
 10208 44fe 0E94 0000 		call __divsf3
 10209 4502 0E94 0000 		call atan
 10210 4506 21EE      		ldi r18,lo8(0x42652ee1)
 10211 4508 3EE2      		ldi r19,hi8(0x42652ee1)
 10212 450a 45E6      		ldi r20,hlo8(0x42652ee1)
 10213 450c 52E4      		ldi r21,hhi8(0x42652ee1)
 10214 450e 0E94 0000 		call __mulsf3
 10215 4512 0E94 0000 		call __fixsfsi
 10216 4516 3B01      		movw r6,r22
 10217 4518 4C01      		movw r8,r24
 10218 451a 7093 0000 		sts (ax)+1,r23
 10219 451e 6093 0000 		sts ax,r22
 10220               	.LM1414:
 10221 4522 C801      		movw r24,r16
 10222 4524 B701      		movw r22,r14
 10223 4526 A801      		movw r20,r16
 10224 4528 9701      		movw r18,r14
 10225 452a 0E94 0000 		call __mulsf3
 10226 452e 7B01      		movw r14,r22
 10227 4530 8C01      		movw r16,r24
 10228 4532 2B85      		ldd r18,Y+11
 10229 4534 3C85      		ldd r19,Y+12
 10230 4536 4D85      		ldd r20,Y+13
 10231 4538 5E85      		ldd r21,Y+14
 10232 453a 0E94 0000 		call __addsf3
 10233 453e 0E94 0000 		call sqrt
 10234 4542 9B01      		movw r18,r22
 10235 4544 AC01      		movw r20,r24
 10236 4546 C601      		movw r24,r12
 10237 4548 B501      		movw r22,r10
 10238 454a 0E94 0000 		call __divsf3
 10239 454e 0E94 0000 		call atan
 10240 4552 21EE      		ldi r18,lo8(0x42652ee1)
 10241 4554 3EE2      		ldi r19,hi8(0x42652ee1)
 10242 4556 45E6      		ldi r20,hlo8(0x42652ee1)
 10243 4558 52E4      		ldi r21,hhi8(0x42652ee1)
 10244 455a 0E94 0000 		call __mulsf3
 10245 455e 0E94 0000 		call __fixsfsi
 10246 4562 7093 0000 		sts (ay)+1,r23
 10247 4566 6093 0000 		sts ay,r22
 10248               	.LM1415:
 10249 456a C801      		movw r24,r16
 10250 456c B701      		movw r22,r14
 10251 456e 2F81      		ldd r18,Y+7
 10252 4570 3885      		ldd r19,Y+8
 10253 4572 4985      		ldd r20,Y+9
 10254 4574 5A85      		ldd r21,Y+10
 10255 4576 0E94 0000 		call __addsf3
 10256 457a 0E94 0000 		call sqrt
 10257 457e 9B01      		movw r18,r22
 10258 4580 AC01      		movw r20,r24
 10259 4582 C201      		movw r24,r4
 10260 4584 B101      		movw r22,r2
 10261 4586 0E94 0000 		call __divsf3
 10262 458a 0E94 0000 		call atan
 10263 458e 21EE      		ldi r18,lo8(0x42652ee1)
 10264 4590 3EE2      		ldi r19,hi8(0x42652ee1)
 10265 4592 45E6      		ldi r20,hlo8(0x42652ee1)
 10266 4594 52E4      		ldi r21,hhi8(0x42652ee1)
 10267 4596 0E94 0000 		call __mulsf3
 10268 459a 0E94 0000 		call __fixsfsi
 10269 459e AB01      		movw r20,r22
 10270 45a0 7093 0000 		sts (az)+1,r23
 10271 45a4 6093 0000 		sts az,r22
 10272               	.LM1416:
 10273 45a8 2091 0000 		lds r18,ay
 10274 45ac 3091 0000 		lds r19,ay+1
 10275               	.LM1417:
 10276 45b0 C301      		movw r24,r6
 10277 45b2 77FE      		sbrs r7,7
 10278 45b4 00C0      		rjmp .L476
 10279 45b6 9095      		com r25
 10280 45b8 8195      		neg r24
 10281 45ba 9F4F      		sbci r25,lo8(-1)
 10282               	.L476:
 10283 45bc 8B35      		cpi r24,91
 10284 45be 9105      		cpc r25,__zero_reg__
 10285 45c0 04F4      		brge .L475
 10286 45c2 37FF      		sbrs r19,7
 10287 45c4 00C0      		rjmp .L478
 10288 45c6 3095      		com r19
 10289 45c8 2195      		neg r18
 10290 45ca 3F4F      		sbci r19,lo8(-1)
 10291               	.L478:
 10292 45cc 2B35      		cpi r18,91
 10293 45ce 3105      		cpc r19,__zero_reg__
 10294 45d0 04F0      		brlt .L477
 10295               	.L475:
 10296 45d2 4C54      		subi r20,lo8(-(180))
 10297 45d4 5F4F      		sbci r21,hi8(-(180))
 10298 45d6 5093 0000 		sts (az)+1,r21
 10299 45da 4093 0000 		sts az,r20
 10300               	.L477:
 10301               	.LM1418:
 10302 45de 80E0      		ldi r24,lo8(Serial)
 10303 45e0 90E0      		ldi r25,hi8(Serial)
 10304 45e2 60E0      		ldi r22,lo8(.LC28)
 10305 45e4 70E0      		ldi r23,hi8(.LC28)
 10306 45e6 0E94 0000 		call _ZN16USBVirtualSerial5printEPKc
 10307               	.LM1419:
 10308 45ea 6091 0000 		lds r22,xRaw
 10309 45ee 7091 0000 		lds r23,(xRaw)+1
 10310 45f2 80E0      		ldi r24,lo8(Serial)
 10311 45f4 90E0      		ldi r25,hi8(Serial)
 10312 45f6 0E94 0000 		call _ZN16USBVirtualSerial5printEi
 10313 45fa 80E0      		ldi r24,lo8(Serial)
 10314 45fc 90E0      		ldi r25,hi8(Serial)
 10315 45fe 60E0      		ldi r22,lo8(.LC1)
 10316 4600 70E0      		ldi r23,hi8(.LC1)
 10317 4602 0E94 0000 		call _ZN16USBVirtualSerial5printEPKc
 10318               	.LM1420:
 10319 4606 6091 0000 		lds r22,yRaw
 10320 460a 7091 0000 		lds r23,(yRaw)+1
 10321 460e 80E0      		ldi r24,lo8(Serial)
 10322 4610 90E0      		ldi r25,hi8(Serial)
 10323 4612 0E94 0000 		call _ZN16USBVirtualSerial5printEi
 10324 4616 80E0      		ldi r24,lo8(Serial)
 10325 4618 90E0      		ldi r25,hi8(Serial)
 10326 461a 60E0      		ldi r22,lo8(.LC1)
 10327 461c 70E0      		ldi r23,hi8(.LC1)
 10328 461e 0E94 0000 		call _ZN16USBVirtualSerial5printEPKc
 10329               	.LM1421:
 10330 4622 6091 0000 		lds r22,zRaw
 10331 4626 7091 0000 		lds r23,(zRaw)+1
 10332 462a 80E0      		ldi r24,lo8(Serial)
 10333 462c 90E0      		ldi r25,hi8(Serial)
 10334 462e 0E94 0000 		call _ZN16USBVirtualSerial5printEi
 10335 4632 80E0      		ldi r24,lo8(Serial)
 10336 4634 90E0      		ldi r25,hi8(Serial)
 10337 4636 60E0      		ldi r22,lo8(.LC1)
 10338 4638 70E0      		ldi r23,hi8(.LC1)
 10339 463a 0E94 0000 		call _ZN16USBVirtualSerial5printEPKc
 10340               	.LM1422:
 10341 463e 6091 0000 		lds r22,x
 10342 4642 7091 0000 		lds r23,(x)+1
 10343 4646 80E0      		ldi r24,lo8(Serial)
 10344 4648 90E0      		ldi r25,hi8(Serial)
 10345 464a 0E94 0000 		call _ZN16USBVirtualSerial5printEi
 10346 464e 80E0      		ldi r24,lo8(Serial)
 10347 4650 90E0      		ldi r25,hi8(Serial)
 10348 4652 60E0      		ldi r22,lo8(.LC1)
 10349 4654 70E0      		ldi r23,hi8(.LC1)
 10350 4656 0E94 0000 		call _ZN16USBVirtualSerial5printEPKc
 10351               	.LM1423:
 10352 465a 6091 0000 		lds r22,y
 10353 465e 7091 0000 		lds r23,(y)+1
 10354 4662 80E0      		ldi r24,lo8(Serial)
 10355 4664 90E0      		ldi r25,hi8(Serial)
 10356 4666 0E94 0000 		call _ZN16USBVirtualSerial5printEi
 10357 466a 80E0      		ldi r24,lo8(Serial)
 10358 466c 90E0      		ldi r25,hi8(Serial)
 10359 466e 60E0      		ldi r22,lo8(.LC1)
 10360 4670 70E0      		ldi r23,hi8(.LC1)
 10361 4672 0E94 0000 		call _ZN16USBVirtualSerial5printEPKc
 10362               	.LM1424:
 10363 4676 6091 0000 		lds r22,z
 10364 467a 7091 0000 		lds r23,(z)+1
 10365 467e 80E0      		ldi r24,lo8(Serial)
 10366 4680 90E0      		ldi r25,hi8(Serial)
 10367 4682 0E94 0000 		call _ZN16USBVirtualSerial5printEi
 10368 4686 80E0      		ldi r24,lo8(Serial)
 10369 4688 90E0      		ldi r25,hi8(Serial)
 10370 468a 60E0      		ldi r22,lo8(.LC1)
 10371 468c 70E0      		ldi r23,hi8(.LC1)
 10372 468e 0E94 0000 		call _ZN16USBVirtualSerial5printEPKc
 10373               	.LM1425:
 10374 4692 6091 0000 		lds r22,xv
 10375 4696 7091 0000 		lds r23,(xv)+1
 10376 469a 80E0      		ldi r24,lo8(Serial)
 10377 469c 90E0      		ldi r25,hi8(Serial)
 10378 469e 0E94 0000 		call _ZN16USBVirtualSerial5printEi
 10379 46a2 80E0      		ldi r24,lo8(Serial)
 10380 46a4 90E0      		ldi r25,hi8(Serial)
 10381 46a6 60E0      		ldi r22,lo8(.LC1)
 10382 46a8 70E0      		ldi r23,hi8(.LC1)
 10383 46aa 0E94 0000 		call _ZN16USBVirtualSerial5printEPKc
 10384               	.LM1426:
 10385 46ae 6091 0000 		lds r22,yv
 10386 46b2 7091 0000 		lds r23,(yv)+1
 10387 46b6 80E0      		ldi r24,lo8(Serial)
 10388 46b8 90E0      		ldi r25,hi8(Serial)
 10389 46ba 0E94 0000 		call _ZN16USBVirtualSerial5printEi
 10390 46be 80E0      		ldi r24,lo8(Serial)
 10391 46c0 90E0      		ldi r25,hi8(Serial)
 10392 46c2 60E0      		ldi r22,lo8(.LC1)
 10393 46c4 70E0      		ldi r23,hi8(.LC1)
 10394 46c6 0E94 0000 		call _ZN16USBVirtualSerial5printEPKc
 10395               	.LM1427:
 10396 46ca 6091 0000 		lds r22,zv
 10397 46ce 7091 0000 		lds r23,(zv)+1
 10398 46d2 80E0      		ldi r24,lo8(Serial)
 10399 46d4 90E0      		ldi r25,hi8(Serial)
 10400 46d6 0E94 0000 		call _ZN16USBVirtualSerial5printEi
 10401 46da 80E0      		ldi r24,lo8(Serial)
 10402 46dc 90E0      		ldi r25,hi8(Serial)
 10403 46de 60E0      		ldi r22,lo8(.LC1)
 10404 46e0 70E0      		ldi r23,hi8(.LC1)
 10405 46e2 0E94 0000 		call _ZN16USBVirtualSerial5printEPKc
 10406               	.LM1428:
 10407 46e6 6091 0000 		lds r22,ax
 10408 46ea 7091 0000 		lds r23,(ax)+1
 10409 46ee 80E0      		ldi r24,lo8(Serial)
 10410 46f0 90E0      		ldi r25,hi8(Serial)
 10411 46f2 0E94 0000 		call _ZN16USBVirtualSerial5printEi
 10412 46f6 80E0      		ldi r24,lo8(Serial)
 10413 46f8 90E0      		ldi r25,hi8(Serial)
 10414 46fa 60E0      		ldi r22,lo8(.LC1)
 10415 46fc 70E0      		ldi r23,hi8(.LC1)
 10416 46fe 0E94 0000 		call _ZN16USBVirtualSerial5printEPKc
 10417               	.LM1429:
 10418 4702 6091 0000 		lds r22,ay
 10419 4706 7091 0000 		lds r23,(ay)+1
 10420 470a 80E0      		ldi r24,lo8(Serial)
 10421 470c 90E0      		ldi r25,hi8(Serial)
 10422 470e 0E94 0000 		call _ZN16USBVirtualSerial5printEi
 10423 4712 80E0      		ldi r24,lo8(Serial)
 10424 4714 90E0      		ldi r25,hi8(Serial)
 10425 4716 60E0      		ldi r22,lo8(.LC1)
 10426 4718 70E0      		ldi r23,hi8(.LC1)
 10427 471a 0E94 0000 		call _ZN16USBVirtualSerial5printEPKc
 10428               	.LM1430:
 10429 471e 6091 0000 		lds r22,az
 10430 4722 7091 0000 		lds r23,(az)+1
 10431 4726 80E0      		ldi r24,lo8(Serial)
 10432 4728 90E0      		ldi r25,hi8(Serial)
 10433 472a 0E94 0000 		call _ZN16USBVirtualSerial7printlnEi
 10434               	.LM1431:
 10435 472e 8091 0000 		lds r24,accelTick
 10436 4732 8F5F      		subi r24,lo8(-(1))
 10437 4734 8093 0000 		sts accelTick,r24
 10438               	/* epilogue start */
 10439               	.LBE764:
 10440               	.LM1432:
 10441 4738 6096      		adiw r28,16
 10442 473a 0FB6      		in __tmp_reg__,__SREG__
 10443 473c F894      		cli
 10444 473e DEBF      		out __SP_H__,r29
 10445 4740 0FBE      		out __SREG__,__tmp_reg__
 10446 4742 CDBF      		out __SP_L__,r28
 10447 4744 CF91      		pop r28
 10448 4746 DF91      		pop r29
 10449 4748 1F91      		pop r17
 10450 474a 0F91      		pop r16
 10451 474c FF90      		pop r15
 10452 474e EF90      		pop r14
 10453 4750 DF90      		pop r13
 10454 4752 CF90      		pop r12
 10455 4754 BF90      		pop r11
 10456 4756 AF90      		pop r10
 10457 4758 9F90      		pop r9
 10458 475a 8F90      		pop r8
 10459 475c 7F90      		pop r7
 10460 475e 6F90      		pop r6
 10461 4760 5F90      		pop r5
 10462 4762 4F90      		pop r4
 10463 4764 3F90      		pop r3
 10464 4766 2F90      		pop r2
 10465 4768 0895      		ret
 10466               	.LFE134:
 10468               		.data
 10469               	.LC29:
 10470 01d2 6265 6E63 		.string	"benchmark 1000 "
 10470      686D 6172 
 10470      6B20 3130 
 10470      3030 2000 
 10471               		.text
 10472               	.global	loop
 10474               	loop:
 10475               	.LFB178:
 10476               	.LM1433:
 10477               	/* prologue: function */
 10478               	/* frame size = 0 */
 10479               	.LM1434:
 10480 476a 8091 0000 		lds r24,activeAccelerometer
 10481 476e 8823      		tst r24
 10482 4770 01F0      		breq .L485
 10483 4772 0E94 0000 		call _Z27update_motion_accelerometerv
 10484               	.L485:
 10485               	.LM1435:
 10486 4776 8091 0000 		lds r24,activeGyroscope
 10487 477a 8823      		tst r24
 10488 477c 01F0      		breq .L486
 10489 477e 0E94 0000 		call _Z23update_motion_gyroscopev
 10490               	.L486:
 10491               	.LM1436:
 10492 4782 8091 0000 		lds r24,activeTouch
 10493 4786 8823      		tst r24
 10494 4788 01F0      		breq .L487
 10495 478a 0E94 0000 		call _Z12update_touchv
 10496               	.L487:
 10497               	.LM1437:
 10498 478e 8091 0000 		lds r24,activeMouse
 10499 4792 8823      		tst r24
 10500 4794 01F0      		breq .L488
 10501 4796 0E94 0000 		call _Z12update_mousev
 10502               	.L488:
 10503               	.LM1438:
 10504 479a 8091 0000 		lds r24,counter
 10505 479e 9091 0000 		lds r25,(counter)+1
 10506 47a2 0196      		adiw r24,1
 10507 47a4 9093 0000 		sts (counter)+1,r25
 10508 47a8 8093 0000 		sts counter,r24
 10509               	.LM1439:
 10510 47ac 885E      		subi r24,lo8(1000)
 10511 47ae 9340      		sbci r25,hi8(1000)
 10512 47b0 01F0      		breq .+2
 10513 47b2 00C0      		rjmp .L489
 10514               	.LM1440:
 10515 47b4 1092 0000 		sts (counter)+1,__zero_reg__
 10516 47b8 1092 0000 		sts counter,__zero_reg__
 10517               	.LM1441:
 10518 47bc 8091 0000 		lds r24,ticks
 10519 47c0 9091 0000 		lds r25,(ticks)+1
 10520 47c4 A091 0000 		lds r26,(ticks)+2
 10521 47c8 B091 0000 		lds r27,(ticks)+3
 10522 47cc 0196      		adiw r24,1
 10523 47ce A11D      		adc r26,__zero_reg__
 10524 47d0 B11D      		adc r27,__zero_reg__
 10525 47d2 8093 0000 		sts ticks,r24
 10526 47d6 9093 0000 		sts (ticks)+1,r25
 10527 47da A093 0000 		sts (ticks)+2,r26
 10528 47de B093 0000 		sts (ticks)+3,r27
 10529               	.LM1442:
 10530 47e2 80E0      		ldi r24,lo8(Serial)
 10531 47e4 90E0      		ldi r25,hi8(Serial)
 10532 47e6 60E0      		ldi r22,lo8(.LC29)
 10533 47e8 70E0      		ldi r23,hi8(.LC29)
 10534 47ea 0E94 0000 		call _ZN16USBVirtualSerial5printEPKc
 10535               	.LM1443:
 10536 47ee 0E94 0000 		call millis
 10537 47f2 AB01      		movw r20,r22
 10538 47f4 BC01      		movw r22,r24
 10539 47f6 8091 0000 		lds r24,t
 10540 47fa 9091 0000 		lds r25,(t)+1
 10541 47fe A091 0000 		lds r26,(t)+2
 10542 4802 B091 0000 		lds r27,(t)+3
 10543 4806 481B      		sub r20,r24
 10544 4808 590B      		sbc r21,r25
 10545 480a 6A0B      		sbc r22,r26
 10546 480c 7B0B      		sbc r23,r27
 10547 480e 80E0      		ldi r24,lo8(Serial)
 10548 4810 90E0      		ldi r25,hi8(Serial)
 10549 4812 0E94 0000 		call _ZN16USBVirtualSerial5printEm
 10550               	.LM1444:
 10551 4816 80E0      		ldi r24,lo8(Serial)
 10552 4818 90E0      		ldi r25,hi8(Serial)
 10553 481a 60E0      		ldi r22,lo8(.LC1)
 10554 481c 70E0      		ldi r23,hi8(.LC1)
 10555 481e 0E94 0000 		call _ZN16USBVirtualSerial5printEPKc
 10556               	.LM1445:
 10557 4822 4091 0000 		lds r20,ticks
 10558 4826 5091 0000 		lds r21,(ticks)+1
 10559 482a 6091 0000 		lds r22,(ticks)+2
 10560 482e 7091 0000 		lds r23,(ticks)+3
 10561 4832 80E0      		ldi r24,lo8(Serial)
 10562 4834 90E0      		ldi r25,hi8(Serial)
 10563 4836 0E94 0000 		call _ZN16USBVirtualSerial7printlnEm
 10564               	.L489:
 10565               	.LM1446:
 10566 483a 0E94 0000 		call millis
 10567 483e 6093 0000 		sts t,r22
 10568 4842 7093 0000 		sts (t)+1,r23
 10569 4846 8093 0000 		sts (t)+2,r24
 10570 484a 9093 0000 		sts (t)+3,r25
 10571               	/* epilogue start */
 10572               	.LM1447:
 10573 484e 0895      		ret
 10574               	.LFE178:
 10576               	.global	_Z26setup_motion_accelerometerv
 10578               	_Z26setup_motion_accelerometerv:
 10579               	.LFB133:
 10580               	.LM1448:
 10581 4850 0F93      		push r16
 10582 4852 1F93      		push r17
 10583               	/* prologue: function */
 10584               	/* frame size = 0 */
 10585               	.LM1449:
 10586 4854 00E0      		ldi r16,lo8(accelerometer)
 10587 4856 10E0      		ldi r17,hi8(accelerometer)
 10588 4858 C801      		movw r24,r16
 10589 485a 0E94 0000 		call _ZN7ADXL3457powerOnEv
 10590               	.LM1450:
 10591 485e C801      		movw r24,r16
 10592 4860 40E0      		ldi r20,lo8(0x42c80000)
 10593 4862 50E0      		ldi r21,hi8(0x42c80000)
 10594 4864 68EC      		ldi r22,hlo8(0x42c80000)
 10595 4866 72E4      		ldi r23,hhi8(0x42c80000)
 10596 4868 0E94 0000 		call _ZN7ADXL3457setRateEf
 10597               	.LM1451:
 10598 486c 1092 0000 		sts (z)+1,__zero_reg__
 10599 4870 1092 0000 		sts z,__zero_reg__
 10600 4874 1092 0000 		sts (y)+1,__zero_reg__
 10601 4878 1092 0000 		sts y,__zero_reg__
 10602 487c 1092 0000 		sts (x)+1,__zero_reg__
 10603 4880 1092 0000 		sts x,__zero_reg__
 10604               	.LM1452:
 10605 4884 1092 0000 		sts cz,__zero_reg__
 10606 4888 1092 0000 		sts (cz)+1,__zero_reg__
 10607 488c 1092 0000 		sts (cz)+2,__zero_reg__
 10608 4890 1092 0000 		sts (cz)+3,__zero_reg__
 10609 4894 1092 0000 		sts cy,__zero_reg__
 10610 4898 1092 0000 		sts (cy)+1,__zero_reg__
 10611 489c 1092 0000 		sts (cy)+2,__zero_reg__
 10612 48a0 1092 0000 		sts (cy)+3,__zero_reg__
 10613 48a4 1092 0000 		sts cx,__zero_reg__
 10614 48a8 1092 0000 		sts (cx)+1,__zero_reg__
 10615 48ac 1092 0000 		sts (cx)+2,__zero_reg__
 10616 48b0 1092 0000 		sts (cx)+3,__zero_reg__
 10617               	.LM1453:
 10618 48b4 1092 0000 		sts (az)+1,__zero_reg__
 10619 48b8 1092 0000 		sts az,__zero_reg__
 10620 48bc 1092 0000 		sts (ay)+1,__zero_reg__
 10621 48c0 1092 0000 		sts ay,__zero_reg__
 10622 48c4 1092 0000 		sts (ax)+1,__zero_reg__
 10623 48c8 1092 0000 		sts ax,__zero_reg__
 10624               	.LM1454:
 10625 48cc 1092 0000 		sts accelMicros,__zero_reg__
 10626 48d0 1092 0000 		sts (accelMicros)+1,__zero_reg__
 10627 48d4 1092 0000 		sts (accelMicros)+2,__zero_reg__
 10628 48d8 1092 0000 		sts (accelMicros)+3,__zero_reg__
 10629               	.LM1455:
 10630 48dc 1092 0000 		sts accelTick,__zero_reg__
 10631               	.LM1456:
 10632 48e0 1092 0000 		sts accelCalibrated,__zero_reg__
 10633               	.LM1457:
 10634 48e4 1092 0000 		sts (zMin)+1,__zero_reg__
 10635 48e8 1092 0000 		sts zMin,__zero_reg__
 10636 48ec 1092 0000 		sts (yMin)+1,__zero_reg__
 10637 48f0 1092 0000 		sts yMin,__zero_reg__
 10638 48f4 1092 0000 		sts (xMin)+1,__zero_reg__
 10639 48f8 1092 0000 		sts xMin,__zero_reg__
 10640               	.LM1458:
 10641 48fc 1092 0000 		sts (zMax)+1,__zero_reg__
 10642 4900 1092 0000 		sts zMax,__zero_reg__
 10643 4904 1092 0000 		sts (yMax)+1,__zero_reg__
 10644 4908 1092 0000 		sts yMax,__zero_reg__
 10645 490c 1092 0000 		sts (xMax)+1,__zero_reg__
 10646 4910 1092 0000 		sts xMax,__zero_reg__
 10647               	/* epilogue start */
 10648               	.LM1459:
 10649 4914 1F91      		pop r17
 10650 4916 0F91      		pop r16
 10651 4918 0895      		ret
 10652               	.LFE133:
 10654               	.global	_Z23update_bluetooth_serialv
 10656               	_Z23update_bluetooth_serialv:
 10657               	.LFB132:
 10658               	.LM1460:
 10659               	/* prologue: function */
 10660               	/* frame size = 0 */
 10661 491a 00C0      		rjmp .L494
 10662               	.L495:
 10663               	.LBB765:
 10664               	.LM1461:
 10665 491c 80E0      		ldi r24,lo8(Uart)
 10666 491e 90E0      		ldi r25,hi8(Uart)
 10667 4920 0E94 0000 		call _ZN14HardwareSerial4readEv
 10668 4924 682F      		mov r22,r24
 10669 4926 80E0      		ldi r24,lo8(bluetooth)
 10670 4928 90E0      		ldi r25,hi8(bluetooth)
 10671 492a 0E94 0000 		call _ZN5iWRAP5parseEh
 10672               	.L494:
 10673               	.LM1462:
 10674 492e 80E0      		ldi r24,lo8(Uart)
 10675 4930 90E0      		ldi r25,hi8(Uart)
 10676 4932 0E94 0000 		call _ZN14HardwareSerial9availableEv
 10677 4936 8823      		tst r24
 10678 4938 01F4      		brne .L495
 10679 493a 00C0      		rjmp .L499
 10680               	.L497:
 10681               	.LBB766:
 10682               	.LM1463:
 10683 493c 80E0      		ldi r24,lo8(Serial)
 10684 493e 90E0      		ldi r25,hi8(Serial)
 10685 4940 0E94 0000 		call _ZN16USBVirtualSerial4readEv
 10686 4944 682F      		mov r22,r24
 10687               	.LVL422:
 10688               	.LM1464:
 10689 4946 80E0      		ldi r24,lo8(Uart)
 10690 4948 90E0      		ldi r25,hi8(Uart)
 10691 494a 40E0      		ldi r20,lo8(0)
 10692 494c 50E0      		ldi r21,hi8(0)
 10693 494e 0E94 0000 		call _ZN14HardwareSerial5printEhi
 10694               	.LVL423:
 10695               	.L499:
 10696               	.LBE766:
 10697               	.LM1465:
 10698 4952 80E0      		ldi r24,lo8(Serial)
 10699 4954 90E0      		ldi r25,hi8(Serial)
 10700 4956 0E94 0000 		call _ZN16USBVirtualSerial9availableEv
 10701 495a 8823      		tst r24
 10702 495c 01F4      		brne .L497
 10703               	/* epilogue start */
 10704               	.LBE765:
 10705               	.LM1466:
 10706 495e 0895      		ret
 10707               	.LFE132:
 10709               	.global	_Z19setup_hostif_bt_hidv
 10711               	_Z19setup_hostif_bt_hidv:
 10712               	.LFB130:
 10713               	.LM1467:
 10714               	/* prologue: function */
 10715               	/* frame size = 0 */
 10716               	.LM1468:
 10717 4960 80E0      		ldi r24,lo8(Uart)
 10718 4962 90E0      		ldi r25,hi8(Uart)
 10719 4964 40E0      		ldi r20,lo8(38400)
 10720 4966 56E9      		ldi r21,hi8(38400)
 10721 4968 60E0      		ldi r22,hlo8(38400)
 10722 496a 70E0      		ldi r23,hhi8(38400)
 10723 496c 0E94 0000 		call _ZN14HardwareSerial5beginEm
 10724               	/* epilogue start */
 10725               	.LM1469:
 10726 4970 0895      		ret
 10727               	.LFE130:
 10729               		.data
 10730               	.LC30:
 10731 01e2 696E 666F 		.string	"info Keyglove device activated"
 10731      204B 6579 
 10731      676C 6F76 
 10731      6520 6465 
 10731      7669 6365 
 10732               		.text
 10733               	.global	_Z14keyglove_setupv
 10735               	_Z14keyglove_setupv:
 10736               	.LFB176:
 10737               	.LM1470:
 10738 4972 0F93      		push r16
 10739 4974 1F93      		push r17
 10740               	/* prologue: function */
 10741               	/* frame size = 0 */
 10742               	.LM1471:
 10743 4976 00E0      		ldi r16,lo8(Serial)
 10744 4978 10E0      		ldi r17,hi8(Serial)
 10745 497a C801      		movw r24,r16
 10746 497c 40E0      		ldi r20,lo8(38400)
 10747 497e 56E9      		ldi r21,hi8(38400)
 10748 4980 60E0      		ldi r22,hlo8(38400)
 10749 4982 70E0      		ldi r23,hhi8(38400)
 10750 4984 0E94 0000 		call _ZN16USBVirtualSerial5beginEm
 10751               	.LM1472:
 10752 4988 C801      		movw r24,r16
 10753 498a 60E0      		ldi r22,lo8(.LC30)
 10754 498c 70E0      		ldi r23,hi8(.LC30)
 10755 498e 0E94 0000 		call _ZN16USBVirtualSerial7printlnEPKc
 10756               	.LM1473:
 10757 4992 0E94 0000 		call _Z19setup_hostif_bt_hidv
 10758               	.LM1474:
 10759 4996 0E94 0000 		call _Z26setup_motion_accelerometerv
 10760               	.LM1475:
 10761 499a 0E94 0000 		call _Z22setup_motion_gyroscopev
 10762               	.LM1476:
 10763 499e 0E94 0000 		call _Z20setup_feedback_blinkv
 10764               	.LM1477:
 10765 49a2 0E94 0000 		call _Z20setup_feedback_piezov
 10766               	.LM1478:
 10767 49a6 0E94 0000 		call _Z22setup_feedback_vibratev
 10768               	.LM1479:
 10769 49aa 0E94 0000 		call _Z18setup_feedback_rgbv
 10770               	.LM1480:
 10771 49ae 0E94 0000 		call _Z11setup_touchv
 10772               	.LM1481:
 10773 49b2 0E94 0000 		call _Z11setup_mousev
 10774               	/* epilogue start */
 10775               	.LM1482:
 10776 49b6 1F91      		pop r17
 10777 49b8 0F91      		pop r16
 10778 49ba 0895      		ret
 10779               	.LFE176:
 10781               	.global	setup
 10783               	setup:
 10784               	.LFB177:
 10785               	.LM1483:
 10786               	/* prologue: function */
 10787               	/* frame size = 0 */
 10788               	.LM1484:
 10789 49bc 0E94 0000 		call _Z14keyglove_setupv
 10790               	.LM1485:
 10791 49c0 0E94 0000 		call millis
 10792 49c4 6093 0000 		sts t,r22
 10793 49c8 7093 0000 		sts (t)+1,r23
 10794 49cc 8093 0000 		sts (t)+2,r24
 10795 49d0 9093 0000 		sts (t)+3,r25
 10796               	/* epilogue start */
 10797               	.LM1486:
 10798 49d4 0895      		ret
 10799               	.LFE177:
 10801               	.global	main
 10803               	main:
 10804               	.LFB179:
 10805               	.LM1487:
 10806               	/* prologue: function */
 10807               	/* frame size = 0 */
 10808               	.LBB767:
 10809               	.LBB768:
 10810               	.LBB769:
 10811               	.LM1488:
 10812 49d6 E0E0      		ldi r30,lo8(HostRXSerial_Buffer)
 10813 49d8 F0E0      		ldi r31,hi8(HostRXSerial_Buffer)
 10814               	.LVL424:
 10815               	.LBB770:
 10816               	.LBB771:
 10817               	.LM1489:
 10818               	.LM1490:
 10819 49da 2FB7      		in r18,__SREG__
 10820               	.LVL425:
 10821               	.LBE771:
 10822               	.LBE770:
 10823               	.LBB772:
 10824               	.LBB773:
 10825               	.LM1491:
 10826               	.LM1492:
 10827               	/* #APP */
 10828               	 ;  370 "./LUFA/Drivers/USB/../../Common/Common.h" 1
 10829 49dc F894      		cli
 10830               	 ;  0 "" 2
 10831               	.LM1493:
 10832               	/* #NOAPP */
 10833               	.LBE773:
 10834               	.LBE772:
 10835               	.LM1494:
 10836 49de 80E0      		ldi r24,lo8(HostRXSerial_Buffer_Data)
 10837 49e0 90E0      		ldi r25,hi8(HostRXSerial_Buffer_Data)
 10838 49e2 9183      		std Z+1,r25
 10839 49e4 8083      		st Z,r24
 10840               	.LM1495:
 10841 49e6 9383      		std Z+3,r25
 10842 49e8 8283      		std Z+2,r24
 10843               	.LM1496:
 10844 49ea 9583      		std Z+5,r25
 10845 49ec 8483      		std Z+4,r24
 10846               	.LM1497:
 10847 49ee 80E0      		ldi r24,lo8(HostRXSerial_Buffer_Data+256)
 10848 49f0 90E0      		ldi r25,hi8(HostRXSerial_Buffer_Data+256)
 10849 49f2 9783      		std Z+7,r25
 10850 49f4 8683      		std Z+6,r24
 10851               	.LM1498:
 10852 49f6 1086      		std Z+8,__zero_reg__
 10853               	.LM1499:
 10854 49f8 1286      		std Z+10,__zero_reg__
 10855 49fa 1186      		std Z+9,__zero_reg__
 10856               	.LBB774:
 10857               	.LBB775:
 10858               	.LM1500:
 10859               	.LM1501:
 10860 49fc 2FBF      		out __SREG__,r18
 10861               	.LM1502:
 10862               	.LBE775:
 10863               	.LBE774:
 10864               	.LBE769:
 10865               	.LBE768:
 10866               	.LBE767:
 10867               	.LBB776:
 10868               	.LBB777:
 10869               	.LBB778:
 10870               	.LM1503:
 10871 49fe E0E0      		ldi r30,lo8(HostTXSerial_Buffer)
 10872 4a00 F0E0      		ldi r31,hi8(HostTXSerial_Buffer)
 10873               	.LVL426:
 10874               	.LBB779:
 10875               	.LBB780:
 10876               	.LM1504:
 10877               	.LM1505:
 10878 4a02 2FB7      		in r18,__SREG__
 10879               	.LVL427:
 10880               	.LBE780:
 10881               	.LBE779:
 10882               	.LBB781:
 10883               	.LBB782:
 10884               	.LM1506:
 10885               	.LM1507:
 10886               	/* #APP */
 10887               	 ;  370 "./LUFA/Drivers/USB/../../Common/Common.h" 1
 10888 4a04 F894      		cli
 10889               	 ;  0 "" 2
 10890               	.LM1508:
 10891               	/* #NOAPP */
 10892               	.LBE782:
 10893               	.LBE781:
 10894               	.LM1509:
 10895 4a06 80E0      		ldi r24,lo8(HostTXSerial_Buffer_Data)
 10896 4a08 90E0      		ldi r25,hi8(HostTXSerial_Buffer_Data)
 10897 4a0a 9183      		std Z+1,r25
 10898 4a0c 8083      		st Z,r24
 10899               	.LM1510:
 10900 4a0e 9383      		std Z+3,r25
 10901 4a10 8283      		std Z+2,r24
 10902               	.LM1511:
 10903 4a12 9583      		std Z+5,r25
 10904 4a14 8483      		std Z+4,r24
 10905               	.LM1512:
 10906 4a16 80E0      		ldi r24,lo8(HostTXSerial_Buffer_Data+256)
 10907 4a18 90E0      		ldi r25,hi8(HostTXSerial_Buffer_Data+256)
 10908 4a1a 9783      		std Z+7,r25
 10909 4a1c 8683      		std Z+6,r24
 10910               	.LM1513:
 10911 4a1e 1086      		std Z+8,__zero_reg__
 10912               	.LM1514:
 10913 4a20 1286      		std Z+10,__zero_reg__
 10914 4a22 1186      		std Z+9,__zero_reg__
 10915               	.LBB783:
 10916               	.LBB784:
 10917               	.LM1515:
 10918               	.LM1516:
 10919 4a24 2FBF      		out __SREG__,r18
 10920               	.LM1517:
 10921               	.LBE784:
 10922               	.LBE783:
 10923               	.LBE778:
 10924               	.LBE777:
 10925               	.LBE776:
 10926               	.LM1518:
 10927 4a26 0E94 0000 		call SetupHardware
 10928               	.LVL428:
 10929               	.LM1519:
 10930 4a2a 0E94 0000 		call init
 10931               	.LM1520:
 10932 4a2e 0E94 0000 		call setup
 10933               	.L511:
 10934               	.LM1521:
 10935 4a32 0E94 0000 		call loop
 10936               	.LM1522:
 10937 4a36 8091 0000 		lds r24,CDCTaskRun
 10938 4a3a 8823      		tst r24
 10939 4a3c 01F4      		brne .L507
 10940 4a3e 0E94 0000 		call CDC_Task
 10941 4a42 00C0      		rjmp .L508
 10942               	.L507:
 10943 4a44 1092 0000 		sts CDCTaskRun,__zero_reg__
 10944               	.L508:
 10945               	.LM1523:
 10946 4a48 8091 0000 		lds r24,HIDTaskRun
 10947 4a4c 8823      		tst r24
 10948 4a4e 01F4      		brne .L509
 10949 4a50 0E94 0000 		call HID_Task
 10950 4a54 00C0      		rjmp .L510
 10951               	.L509:
 10952 4a56 1092 0000 		sts HIDTaskRun,__zero_reg__
 10953               	.L510:
 10954               	.LM1524:
 10955 4a5a 0E94 0000 		call USB_USBTask
 10956 4a5e 00C0      		rjmp .L511
 10957               	.LFE179:
 10959               	.global	HIDReportInData
 10960               	.global	HIDReportInData
 10961               		.section .bss
 10964               	HIDReportInData:
 10965 0000 0000 0000 		.skip 9,0
 10965      0000 0000 
 10965      00
 10966               	.global	HIDReportOutData
 10967               	.global	HIDReportOutData
 10970               	HIDReportOutData:
 10971 0009 0000 0000 		.skip 9,0
 10971      0000 0000 
 10971      00
 10972               	.global	LineEncodingData
 10973               		.data
 10976               	LineEncodingData:
 10977 0201 00        		.byte	0
 10978 0202 00        		.byte	0
 10979 0203 00        		.byte	0
 10980 0204 00        		.byte	0
 10981 0205 00        		.byte	0
 10982 0206 00        		.byte	0
 10983 0207 08        		.byte	8
 10984               	.global	HostRXSerial_Buffer
 10985               	.global	HostRXSerial_Buffer
 10986               		.section .bss
 10989               	HostRXSerial_Buffer:
 10990 0012 0000 0000 		.skip 11,0
 10990      0000 0000 
 10990      0000 00
 10991               	.global	HostRXSerial_Buffer_Data
 10992               	.global	HostRXSerial_Buffer_Data
 10995               	HostRXSerial_Buffer_Data:
 10996 001d 0000 0000 		.skip 256,0
 10996      0000 0000 
 10996      0000 0000 
 10996      0000 0000 
 10996      0000 0000 
 10997               	.global	HostTXSerial_Buffer
 10998               	.global	HostTXSerial_Buffer
 11001               	HostTXSerial_Buffer:
 11002 011d 0000 0000 		.skip 11,0
 11002      0000 0000 
 11002      0000 00
 11003               	.global	HostTXSerial_Buffer_Data
 11004               	.global	HostTXSerial_Buffer_Data
 11007               	HostTXSerial_Buffer_Data:
 11008 0128 0000 0000 		.skip 256,0
 11008      0000 0000 
 11008      0000 0000 
 11008      0000 0000 
 11008      0000 0000 
 11009               	.global	CDCTaskRun
 11010               	.global	CDCTaskRun
 11013               	CDCTaskRun:
 11014 0228 00        		.skip 1,0
 11015               	.global	HIDTaskRun
 11016               	.global	HIDTaskRun
 11019               	HIDTaskRun:
 11020 0229 00        		.skip 1,0
 11021               	.global	ide_workaround
 11022               	.global	ide_workaround
 11025               	ide_workaround:
 11026 022a 00        		.skip 1,0
 11027               	.global	counter
 11028               	.global	counter
 11031               	counter:
 11032 022b 0000      		.skip 2,0
 11033               	.global	ticks
 11034               	.global	ticks
 11037               	ticks:
 11038 022d 0000 0000 		.skip 4,0
 11039               	.global	t
 11040               	.global	t
 11043               	t:
 11044 0231 0000 0000 		.skip 4,0
 11045               	.global	i
 11046               	.global	i
 11049               	i:
 11050 0235 0000 0000 		.skip 4,0
 11051               	.global	j
 11052               	.global	j
 11055               	j:
 11056 0239 0000 0000 		.skip 4,0
 11057               	.global	activeAccelerometer
 11058               	.global	activeAccelerometer
 11061               	activeAccelerometer:
 11062 023d 00        		.skip 1,0
 11063               	.global	activeGyroscope
 11064               	.global	activeGyroscope
 11067               	activeGyroscope:
 11068 023e 00        		.skip 1,0
 11069               	.global	activeMagnetometer
 11070               	.global	activeMagnetometer
 11073               	activeMagnetometer:
 11074 023f 00        		.skip 1,0
 11075               	.global	activeGestures
 11076               	.global	activeGestures
 11079               	activeGestures:
 11080 0240 00        		.skip 1,0
 11081               	.global	activeTouch
 11082               	.global	activeTouch
 11085               	activeTouch:
 11086 0241 00        		.skip 1,0
 11087               	.global	activeKeyboard
 11088               	.global	activeKeyboard
 11091               	activeKeyboard:
 11092 0242 00        		.skip 1,0
 11093               	.global	activeMouse
 11094               	.global	activeMouse
 11097               	activeMouse:
 11098 0243 00        		.skip 1,0
 11099               	.global	activeJoystick
 11100               	.global	activeJoystick
 11103               	activeJoystick:
 11104 0244 00        		.skip 1,0
 11105               	.global	activeSerial
 11106               	.global	activeSerial
 11109               	activeSerial:
 11110 0245 00        		.skip 1,0
 11111               	.global	opt_touch_detect_threshold
 11112               		.data
 11115               	opt_touch_detect_threshold:
 11116 0208 1400      		.word	20
 11117               	.global	opt_motion_sampling_div
 11120               	opt_motion_sampling_div:
 11121 020a 0C        		.byte	12
 11122               	.global	opt_enable_calibration
 11123               	.global	opt_enable_calibration
 11124               		.section .bss
 11127               	opt_enable_calibration:
 11128 0246 00        		.skip 1,0
 11129               	.global	pins
 11130               		.data
 11133               	pins:
 11134 020b 04        		.byte	4
 11135 020c 05        		.byte	5
 11136 020d 07        		.byte	7
 11137 020e 08        		.byte	8
 11138 020f 09        		.byte	9
 11139 0210 0A        		.byte	10
 11140 0211 0B        		.byte	11
 11141 0212 0C        		.byte	12
 11142 0213 0D        		.byte	13
 11143 0214 0E        		.byte	14
 11144 0215 0F        		.byte	15
 11145 0216 10        		.byte	16
 11146 0217 11        		.byte	17
 11147 0218 12        		.byte	18
 11148 0219 13        		.byte	19
 11149 021a 14        		.byte	20
 11150 021b 15        		.byte	21
 11151 021c 16        		.byte	22
 11152 021d 17        		.byte	23
 11153 021e 18        		.byte	24
 11154 021f 19        		.byte	25
 11155 0220 1A        		.byte	26
 11156 0221 1B        		.byte	27
 11157 0222 1C        		.byte	28
 11158 0223 1D        		.byte	29
 11159 0224 1E        		.byte	30
 11160 0225 1F        		.byte	31
 11161 0226 20        		.byte	32
 11162 0227 21        		.byte	33
 11163 0228 22        		.byte	34
 11164 0229 23        		.byte	35
 11165 022a 26        		.byte	38
 11166 022b 27        		.byte	39
 11167 022c 28        		.byte	40
 11168               	.global	combinations
 11171               	combinations:
 11172 022d 1E        		.byte	30
 11173 022e 27        		.byte	39
 11174 022f 1D        		.byte	29
 11175 0230 27        		.byte	39
 11176 0231 0E        		.byte	14
 11177 0232 28        		.byte	40
 11178 0233 0E        		.byte	14
 11179 0234 1D        		.byte	29
 11180 0235 0F        		.byte	15
 11181 0236 1D        		.byte	29
 11182 0237 10        		.byte	16
 11183 0238 1D        		.byte	29
 11184 0239 0C        		.byte	12
 11185 023a 1D        		.byte	29
 11186 023b 1A        		.byte	26
 11187 023c 1D        		.byte	29
 11188 023d 1B        		.byte	27
 11189 023e 1D        		.byte	29
 11190 023f 1C        		.byte	28
 11191 0240 1D        		.byte	29
 11192 0241 1E        		.byte	30
 11193 0242 26        		.byte	38
 11194 0243 1D        		.byte	29
 11195 0244 26        		.byte	38
 11196 0245 0B        		.byte	11
 11197 0246 28        		.byte	40
 11198 0247 0B        		.byte	11
 11199 0248 1D        		.byte	29
 11200 0249 0D        		.byte	13
 11201 024a 1D        		.byte	29
 11202 024b 17        		.byte	23
 11203 024c 1D        		.byte	29
 11204 024d 18        		.byte	24
 11205 024e 1D        		.byte	29
 11206 024f 19        		.byte	25
 11207 0250 1D        		.byte	29
 11208 0251 0B        		.byte	11
 11209 0252 27        		.byte	39
 11210 0253 1E        		.byte	30
 11211 0254 23        		.byte	35
 11212 0255 1D        		.byte	29
 11213 0256 23        		.byte	35
 11214 0257 08        		.byte	8
 11215 0258 28        		.byte	40
 11216 0259 08        		.byte	8
 11217 025a 1D        		.byte	29
 11218 025b 09        		.byte	9
 11219 025c 1D        		.byte	29
 11220 025d 0A        		.byte	10
 11221 025e 1D        		.byte	29
 11222 025f 14        		.byte	20
 11223 0260 1E        		.byte	30
 11224 0261 14        		.byte	20
 11225 0262 1D        		.byte	29
 11226 0263 15        		.byte	21
 11227 0264 1E        		.byte	30
 11228 0265 15        		.byte	21
 11229 0266 1D        		.byte	29
 11230 0267 16        		.byte	22
 11231 0268 1E        		.byte	30
 11232 0269 16        		.byte	22
 11233 026a 1D        		.byte	29
 11234 026b 08        		.byte	8
 11235 026c 22        		.byte	34
 11236 026d 08        		.byte	8
 11237 026e 26        		.byte	38
 11238 026f 08        		.byte	8
 11239 0270 27        		.byte	39
 11240 0271 08        		.byte	8
 11241 0272 11        		.byte	17
 11242 0273 1E        		.byte	30
 11243 0274 22        		.byte	34
 11244 0275 1D        		.byte	29
 11245 0276 22        		.byte	34
 11246 0277 04        		.byte	4
 11247 0278 28        		.byte	40
 11248 0279 11        		.byte	17
 11249 027a 1D        		.byte	29
 11250 027b 04        		.byte	4
 11251 027c 1D        		.byte	29
 11252 027d 05        		.byte	5
 11253 027e 1D        		.byte	29
 11254 027f 07        		.byte	7
 11255 0280 1D        		.byte	29
 11256 0281 11        		.byte	17
 11257 0282 1E        		.byte	30
 11258 0283 12        		.byte	18
 11259 0284 1E        		.byte	30
 11260 0285 12        		.byte	18
 11261 0286 1D        		.byte	29
 11262 0287 13        		.byte	19
 11263 0288 1E        		.byte	30
 11264 0289 13        		.byte	19
 11265 028a 1D        		.byte	29
 11266 028b 04        		.byte	4
 11267 028c 21        		.byte	33
 11268 028d 04        		.byte	4
 11269 028e 20        		.byte	32
 11270 028f 04        		.byte	4
 11271 0290 1F        		.byte	31
 11272 0291 08        		.byte	8
 11273 0292 21        		.byte	33
 11274 0293 08        		.byte	8
 11275 0294 20        		.byte	32
 11276 0295 08        		.byte	8
 11277 0296 1F        		.byte	31
 11278 0297 0B        		.byte	11
 11279 0298 21        		.byte	33
 11280 0299 0B        		.byte	11
 11281 029a 20        		.byte	32
 11282 029b 0B        		.byte	11
 11283 029c 1F        		.byte	31
 11284 029d 0E        		.byte	14
 11285 029e 21        		.byte	33
 11286 029f 0E        		.byte	14
 11287 02a0 20        		.byte	32
 11288 02a1 0E        		.byte	14
 11289 02a2 1F        		.byte	31
 11290 02a3 1D        		.byte	29
 11291 02a4 1F        		.byte	31
 11292               	.global	Uart
 11293               	.global	Uart
 11294               		.section .bss
 11297               	Uart:
 11298 0247 00        		.skip 1,0
 11299               	.global	bluetooth
 11300               	.global	bluetooth
 11303               	bluetooth:
 11304 0248 0000 0000 		.skip 10,0
 11304      0000 0000 
 11304      0000 
 11305               	.global	accelerometer
 11306               	.global	accelerometer
 11309               	accelerometer:
 11310 0252 0000 0000 		.skip 6,0
 11310      0000 
 11311               	.global	opt_accel_offset
 11312               		.data
 11315               	opt_accel_offset:
 11316 02a5 0700      		.word	7
 11317 02a7 F0FF      		.word	-16
 11318 02a9 0100      		.word	1
 11319               	.global	opt_accel_calibrate
 11322               	opt_accel_calibrate:
 11323 02ab 00        		.byte	0
 11324 02ac 00        		.byte	0
 11325 02ad 80        		.byte	-128
 11326 02ae 3F        		.byte	63
 11327 02af 00        		.byte	0
 11328 02b0 00        		.byte	0
 11329 02b1 80        		.byte	-128
 11330 02b2 3F        		.byte	63
 11331 02b3 00        		.byte	0
 11332 02b4 00        		.byte	0
 11333 02b5 80        		.byte	-128
 11334 02b6 3F        		.byte	63
 11335               	.global	opt_accel_kalman_constant
 11338               	opt_accel_kalman_constant:
 11339 02b7 9A        		.byte	-102
 11340 02b8 99        		.byte	-103
 11341 02b9 19        		.byte	25
 11342 02ba 3F        		.byte	63
 11343               	.global	opt_accel_smooth_average
 11346               	opt_accel_smooth_average:
 11347 02bb 04        		.byte	4
 11348               	.global	opt_accel_rot90
 11349               	.global	opt_accel_rot90
 11350               		.section .bss
 11353               	opt_accel_rot90:
 11354 0258 00        		.skip 1,0
 11355               	.global	accelMicros
 11356               	.global	accelMicros
 11359               	accelMicros:
 11360 0259 0000 0000 		.skip 4,0
 11361               	.global	accelDiff
 11362               	.global	accelDiff
 11365               	accelDiff:
 11366 025d 0000 0000 		.skip 4,0
 11367               	.global	accelTick
 11368               	.global	accelTick
 11371               	accelTick:
 11372 0261 00        		.skip 1,0
 11373               	.global	xRaw
 11374               	.global	xRaw
 11377               	xRaw:
 11378 0262 0000      		.skip 2,0
 11379               	.global	yRaw
 11380               	.global	yRaw
 11383               	yRaw:
 11384 0264 0000      		.skip 2,0
 11385               	.global	zRaw
 11386               	.global	zRaw
 11389               	zRaw:
 11390 0266 0000      		.skip 2,0
 11391               	.global	x
 11392               	.global	x
 11395               	x:
 11396 0268 0000      		.skip 2,0
 11397               	.global	y
 11398               	.global	y
 11401               	y:
 11402 026a 0000      		.skip 2,0
 11403               	.global	z
 11404               	.global	z
 11407               	z:
 11408 026c 0000      		.skip 2,0
 11409               	.global	x0
 11410               	.global	x0
 11413               	x0:
 11414 026e 0000      		.skip 2,0
 11415               	.global	y0
 11416               	.global	y0
 11419               	y0:
 11420 0270 0000      		.skip 2,0
 11421               	.global	z0
 11422               	.global	z0
 11425               	z0:
 11426 0272 0000      		.skip 2,0
 11427               	.global	x00
 11428               	.global	x00
 11431               	x00:
 11432 0274 0000      		.skip 2,0
 11433               	.global	y00
 11434               	.global	y00
 11437               	y00:
 11438 0276 0000      		.skip 2,0
 11439               	.global	z00
 11440               	.global	z00
 11443               	z00:
 11444 0278 0000      		.skip 2,0
 11445               	.global	xv
 11446               	.global	xv
 11449               	xv:
 11450 027a 0000      		.skip 2,0
 11451               	.global	yv
 11452               	.global	yv
 11455               	yv:
 11456 027c 0000      		.skip 2,0
 11457               	.global	zv
 11458               	.global	zv
 11461               	zv:
 11462 027e 0000      		.skip 2,0
 11463               	.global	cx
 11464               	.global	cx
 11467               	cx:
 11468 0280 0000 0000 		.skip 4,0
 11469               	.global	cy
 11470               	.global	cy
 11473               	cy:
 11474 0284 0000 0000 		.skip 4,0
 11475               	.global	cz
 11476               	.global	cz
 11479               	cz:
 11480 0288 0000 0000 		.skip 4,0
 11481               	.global	xBase
 11482               	.global	xBase
 11485               	xBase:
 11486 028c 0000      		.skip 2,0
 11487               	.global	yBase
 11488               	.global	yBase
 11491               	yBase:
 11492 028e 0000      		.skip 2,0
 11493               	.global	zBase
 11494               	.global	zBase
 11497               	zBase:
 11498 0290 0000      		.skip 2,0
 11499               	.global	xHist
 11500               	.global	xHist
 11503               	xHist:
 11504 0292 0000 0000 		.skip 40,0
 11504      0000 0000 
 11504      0000 0000 
 11504      0000 0000 
 11504      0000 0000 
 11505               	.global	yHist
 11506               	.global	yHist
 11509               	yHist:
 11510 02ba 0000 0000 		.skip 40,0
 11510      0000 0000 
 11510      0000 0000 
 11510      0000 0000 
 11510      0000 0000 
 11511               	.global	zHist
 11512               	.global	zHist
 11515               	zHist:
 11516 02e2 0000 0000 		.skip 40,0
 11516      0000 0000 
 11516      0000 0000 
 11516      0000 0000 
 11516      0000 0000 
 11517               	.global	xMin
 11518               	.global	xMin
 11521               	xMin:
 11522 030a 0000      		.skip 2,0
 11523               	.global	yMin
 11524               	.global	yMin
 11527               	yMin:
 11528 030c 0000      		.skip 2,0
 11529               	.global	zMin
 11530               	.global	zMin
 11533               	zMin:
 11534 030e 0000      		.skip 2,0
 11535               	.global	xMax
 11536               	.global	xMax
 11539               	xMax:
 11540 0310 0000      		.skip 2,0
 11541               	.global	yMax
 11542               	.global	yMax
 11545               	yMax:
 11546 0312 0000      		.skip 2,0
 11547               	.global	zMax
 11548               	.global	zMax
 11551               	zMax:
 11552 0314 0000      		.skip 2,0
 11553               	.global	ax
 11554               	.global	ax
 11557               	ax:
 11558 0316 0000      		.skip 2,0
 11559               	.global	ay
 11560               	.global	ay
 11563               	ay:
 11564 0318 0000      		.skip 2,0
 11565               	.global	az
 11566               	.global	az
 11569               	az:
 11570 031a 0000      		.skip 2,0
 11571               	.global	ax0
 11572               	.global	ax0
 11575               	ax0:
 11576 031c 0000      		.skip 2,0
 11577               	.global	ay0
 11578               	.global	ay0
 11581               	ay0:
 11582 031e 0000      		.skip 2,0
 11583               	.global	az0
 11584               	.global	az0
 11587               	az0:
 11588 0320 0000      		.skip 2,0
 11589               	.global	ax00
 11590               	.global	ax00
 11593               	ax00:
 11594 0322 0000      		.skip 2,0
 11595               	.global	ay00
 11596               	.global	ay00
 11599               	ay00:
 11600 0324 0000      		.skip 2,0
 11601               	.global	az00
 11602               	.global	az00
 11605               	az00:
 11606 0326 0000      		.skip 2,0
 11607               	.global	axBase
 11608               	.global	axBase
 11611               	axBase:
 11612 0328 0000      		.skip 2,0
 11613               	.global	ayBase
 11614               	.global	ayBase
 11617               	ayBase:
 11618 032a 0000      		.skip 2,0
 11619               	.global	azBase
 11620               	.global	azBase
 11623               	azBase:
 11624 032c 0000      		.skip 2,0
 11625               	.global	aset
 11626               	.global	aset
 11629               	aset:
 11630 032e 00        		.skip 1,0
 11631               	.global	calAccel
 11632               	.global	calAccel
 11635               	calAccel:
 11636 032f 0000      		.skip 2,0
 11637               	.global	accelCalibrated
 11638               	.global	accelCalibrated
 11641               	accelCalibrated:
 11642 0331 00        		.skip 1,0
 11643               	.global	gyroscope
 11644               	.global	gyroscope
 11647               	gyroscope:
 11648 0332 0000 0000 		.skip 25,0
 11648      0000 0000 
 11648      0000 0000 
 11648      0000 0000 
 11648      0000 0000 
 11649               	.global	opt_gyro_offset
 11650               	.global	opt_gyro_offset
 11653               	opt_gyro_offset:
 11654 034b 0000 0000 		.skip 6,0
 11654      0000 
 11655               	.global	opt_gyro_calibrate
 11656               		.data
 11659               	opt_gyro_calibrate:
 11660 02bc 00        		.byte	0
 11661 02bd 00        		.byte	0
 11662 02be 80        		.byte	-128
 11663 02bf 3F        		.byte	63
 11664 02c0 00        		.byte	0
 11665 02c1 00        		.byte	0
 11666 02c2 80        		.byte	-128
 11667 02c3 3F        		.byte	63
 11668 02c4 00        		.byte	0
 11669 02c5 00        		.byte	0
 11670 02c6 80        		.byte	-128
 11671 02c7 3F        		.byte	63
 11672               	.global	opt_gyro_kalman_constant
 11675               	opt_gyro_kalman_constant:
 11676 02c8 9A        		.byte	-102
 11677 02c9 99        		.byte	-103
 11678 02ca 99        		.byte	-103
 11679 02cb 3E        		.byte	62
 11680               	.global	opt_gyro_smooth_average
 11681               	.global	opt_gyro_smooth_average
 11682               		.section .bss
 11685               	opt_gyro_smooth_average:
 11686 0351 00        		.skip 1,0
 11687               	.global	opt_gyro_rot90
 11688               		.data
 11691               	opt_gyro_rot90:
 11692 02cc 04        		.byte	4
 11693               	.global	gyroMicros
 11694               	.global	gyroMicros
 11695               		.section .bss
 11698               	gyroMicros:
 11699 0352 0000 0000 		.skip 4,0
 11700               	.global	gyroDiff
 11701               	.global	gyroDiff
 11704               	gyroDiff:
 11705 0356 0000 0000 		.skip 4,0
 11706               	.global	gyroTick
 11707               	.global	gyroTick
 11710               	gyroTick:
 11711 035a 00        		.skip 1,0
 11712               	.global	gxRaw
 11713               	.global	gxRaw
 11716               	gxRaw:
 11717 035b 0000      		.skip 2,0
 11718               	.global	gyRaw
 11719               	.global	gyRaw
 11722               	gyRaw:
 11723 035d 0000      		.skip 2,0
 11724               	.global	gzRaw
 11725               	.global	gzRaw
 11728               	gzRaw:
 11729 035f 0000      		.skip 2,0
 11730               	.global	gx
 11731               	.global	gx
 11734               	gx:
 11735 0361 0000      		.skip 2,0
 11736               	.global	gy
 11737               	.global	gy
 11740               	gy:
 11741 0363 0000      		.skip 2,0
 11742               	.global	gz
 11743               	.global	gz
 11746               	gz:
 11747 0365 0000      		.skip 2,0
 11748               	.global	gx0
 11749               	.global	gx0
 11752               	gx0:
 11753 0367 0000      		.skip 2,0
 11754               	.global	gy0
 11755               	.global	gy0
 11758               	gy0:
 11759 0369 0000      		.skip 2,0
 11760               	.global	gz0
 11761               	.global	gz0
 11764               	gz0:
 11765 036b 0000      		.skip 2,0
 11766               	.global	gx00
 11767               	.global	gx00
 11770               	gx00:
 11771 036d 0000      		.skip 2,0
 11772               	.global	gy00
 11773               	.global	gy00
 11776               	gy00:
 11777 036f 0000      		.skip 2,0
 11778               	.global	gz00
 11779               	.global	gz00
 11782               	gz00:
 11783 0371 0000      		.skip 2,0
 11784               	.global	cgx
 11785               	.global	cgx
 11788               	cgx:
 11789 0373 0000 0000 		.skip 4,0
 11790               	.global	cgy
 11791               	.global	cgy
 11794               	cgy:
 11795 0377 0000 0000 		.skip 4,0
 11796               	.global	cgz
 11797               	.global	cgz
 11800               	cgz:
 11801 037b 0000 0000 		.skip 4,0
 11802               	.global	gxBase
 11803               	.global	gxBase
 11806               	gxBase:
 11807 037f 0000      		.skip 2,0
 11808               	.global	gyBase
 11809               	.global	gyBase
 11812               	gyBase:
 11813 0381 0000      		.skip 2,0
 11814               	.global	gzBase
 11815               	.global	gzBase
 11818               	gzBase:
 11819 0383 0000      		.skip 2,0
 11820               	.global	gxHist
 11821               	.global	gxHist
 11824               	gxHist:
 11825 0385 0000 0000 		.skip 40,0
 11825      0000 0000 
 11825      0000 0000 
 11825      0000 0000 
 11825      0000 0000 
 11826               	.global	gyHist
 11827               	.global	gyHist
 11830               	gyHist:
 11831 03ad 0000 0000 		.skip 40,0
 11831      0000 0000 
 11831      0000 0000 
 11831      0000 0000 
 11831      0000 0000 
 11832               	.global	gzHist
 11833               	.global	gzHist
 11836               	gzHist:
 11837 03d5 0000 0000 		.skip 40,0
 11837      0000 0000 
 11837      0000 0000 
 11837      0000 0000 
 11837      0000 0000 
 11838               	.global	gxMin
 11839               	.global	gxMin
 11842               	gxMin:
 11843 03fd 0000      		.skip 2,0
 11844               	.global	gyMin
 11845               	.global	gyMin
 11848               	gyMin:
 11849 03ff 0000      		.skip 2,0
 11850               	.global	gzMin
 11851               	.global	gzMin
 11854               	gzMin:
 11855 0401 0000      		.skip 2,0
 11856               	.global	gxMax
 11857               	.global	gxMax
 11860               	gxMax:
 11861 0403 0000      		.skip 2,0
 11862               	.global	gyMax
 11863               	.global	gyMax
 11866               	gyMax:
 11867 0405 0000      		.skip 2,0
 11868               	.global	gzMax
 11869               	.global	gzMax
 11872               	gzMax:
 11873 0407 0000      		.skip 2,0
 11874               	.global	gset
 11875               	.global	gset
 11878               	gset:
 11879 0409 00        		.skip 1,0
 11880               	.global	calGyro
 11881               	.global	calGyro
 11884               	calGyro:
 11885 040a 00        		.skip 1,0
 11886               	.global	gyroCalibrated
 11887               	.global	gyroCalibrated
 11890               	gyroCalibrated:
 11891 040b 00        		.skip 1,0
 11892               	.global	blink_led
 11893               	.global	blink_led
 11896               	blink_led:
 11897 040c 00        		.skip 1,0
 11898               	.global	rgbBlinkRed
 11899               	.global	rgbBlinkRed
 11902               	rgbBlinkRed:
 11903 040d 00        		.skip 1,0
 11904               	.global	rgbBlinkGreen
 11905               	.global	rgbBlinkGreen
 11908               	rgbBlinkGreen:
 11909 040e 00        		.skip 1,0
 11910               	.global	rgbBlinkBlue
 11911               	.global	rgbBlinkBlue
 11914               	rgbBlinkBlue:
 11915 040f 00        		.skip 1,0
 11916               	.global	mx
 11917               	.global	mx
 11920               	mx:
 11921 0410 0000      		.skip 2,0
 11922               	.global	my
 11923               	.global	my
 11926               	my:
 11927 0412 0000      		.skip 2,0
 11928               	.global	mz
 11929               	.global	mz
 11932               	mz:
 11933 0414 0000      		.skip 2,0
 11934               	.global	sy
 11935               	.global	sy
 11938               	sy:
 11939 0416 0000      		.skip 2,0
 11940               	.global	mx0
 11941               	.global	mx0
 11944               	mx0:
 11945 0418 0000      		.skip 2,0
 11946               	.global	my0
 11947               	.global	my0
 11950               	my0:
 11951 041a 0000      		.skip 2,0
 11952               	.global	mz0
 11953               	.global	mz0
 11956               	mz0:
 11957 041c 0000      		.skip 2,0
 11958               	.global	sy0
 11959               	.global	sy0
 11962               	sy0:
 11963 041e 0000      		.skip 2,0
 11964               	.global	mdx
 11965               	.global	mdx
 11968               	mdx:
 11969 0420 0000      		.skip 2,0
 11970               	.global	mdy
 11971               	.global	mdy
 11974               	mdy:
 11975 0422 0000      		.skip 2,0
 11976               	.global	mdz
 11977               	.global	mdz
 11980               	mdz:
 11981 0424 0000      		.skip 2,0
 11982               	.global	sdy
 11983               	.global	sdy
 11986               	sdy:
 11987 0426 0000      		.skip 2,0
 11988               	.global	moveMouse
 11989               	.global	moveMouse
 11992               	moveMouse:
 11993 0428 00        		.skip 1,0
 11994               	.global	scrollMouse
 11995               	.global	scrollMouse
 11998               	scrollMouse:
 11999 0429 00        		.skip 1,0
 12000               	.global	opt_mouse_invert_x
 12001               		.data
 12004               	opt_mouse_invert_x:
 12005 02cd 01        		.byte	1
 12006               	.global	opt_mouse_invert_y
 12009               	opt_mouse_invert_y:
 12010 02ce 01        		.byte	1
 12011               	.global	opt_mouse_invert_z
 12012               	.global	opt_mouse_invert_z
 12013               		.section .bss
 12016               	opt_mouse_invert_z:
 12017 042a 00        		.skip 1,0
 12018               	.global	opt_mouse_mode
 12019               	.global	opt_mouse_mode
 12022               	opt_mouse_mode:
 12023 042b 00        		.skip 1,0
 12024               	.global	opt_scroll_mode
 12025               	.global	opt_scroll_mode
 12028               	opt_scroll_mode:
 12029 042c 00        		.skip 1,0
 12030               	.global	opt_mouse_scale_mode1
 12031               		.data
 12034               	opt_mouse_scale_mode1:
 12035 02cf 00        		.byte	0
 12036 02d0 00        		.byte	0
 12037 02d1 80        		.byte	-128
 12038 02d2 3F        		.byte	63
 12039 02d3 00        		.byte	0
 12040 02d4 00        		.byte	0
 12041 02d5 80        		.byte	-128
 12042 02d6 3F        		.byte	63
 12043               	.global	opt_mouse_scale_mode2
 12046               	opt_mouse_scale_mode2:
 12047 02d7 00        		.byte	0
 12048 02d8 00        		.byte	0
 12049 02d9 80        		.byte	-128
 12050 02da 3F        		.byte	63
 12051 02db 00        		.byte	0
 12052 02dc 00        		.byte	0
 12053 02dd 80        		.byte	-128
 12054 02de 3F        		.byte	63
 12055               	.global	opt_mouse_scale_mode3
 12058               	opt_mouse_scale_mode3:
 12059 02df 00        		.byte	0
 12060 02e0 00        		.byte	0
 12061 02e1 80        		.byte	-128
 12062 02e2 3F        		.byte	63
 12063 02e3 00        		.byte	0
 12064 02e4 00        		.byte	0
 12065 02e5 80        		.byte	-128
 12066 02e6 3F        		.byte	63
 12067               	.global	opt_mouse_scale_mode4
 12070               	opt_mouse_scale_mode4:
 12071 02e7 00        		.byte	0
 12072 02e8 00        		.byte	0
 12073 02e9 80        		.byte	-128
 12074 02ea 3F        		.byte	63
 12075 02eb 00        		.byte	0
 12076 02ec 00        		.byte	0
 12077 02ed 80        		.byte	-128
 12078 02ee 3F        		.byte	63
 12079 02ef 00        		.byte	0
 12080 02f0 00        		.byte	0
 12081 02f1 80        		.byte	-128
 12082 02f2 3F        		.byte	63
 12083               	.global	modifiersDown
 12084               	.global	modifiersDown
 12085               		.section .bss
 12088               	modifiersDown:
 12089 042d 00        		.skip 1,0
 12090               	.global	keysDown
 12091               	.global	keysDown
 12094               	keysDown:
 12095 042e 0000 0000 		.skip 6,0
 12095      0000 
 12096               	.global	mouseDown
 12097               	.global	mouseDown
 12100               	mouseDown:
 12101 0434 00        		.skip 1,0
 12102               	.global	modeStack
 12103               	.global	modeStack
 12106               	modeStack:
 12107 0435 0000 0000 		.skip 10,0
 12107      0000 0000 
 12107      0000 
 12108               	.global	modeStackPos
 12109               	.global	modeStackPos
 12112               	modeStackPos:
 12113 043f 00        		.skip 1,0
 12114               	.global	touchTime
 12115               	.global	touchTime
 12118               	touchTime:
 12119 0440 0000 0000 		.skip 4,0
 12120               	.global	adding
 12121               	.global	adding
 12124               	adding:
 12125 0444 00        		.skip 1,0
 12126               	.global	removing
 12127               	.global	removing
 12130               	removing:
 12131 0445 00        		.skip 1,0
 12132               	.global	detect1
 12133               	.global	detect1
 12136               	detect1:
 12137 0446 0000 0000 		.skip 4,0
 12138               	.global	detect2
 12139               	.global	detect2
 12142               	detect2:
 12143 044a 0000 0000 		.skip 4,0
 12144               	.global	verify1
 12145               	.global	verify1
 12148               	verify1:
 12149 044e 0000 0000 		.skip 4,0
 12150               	.global	verify2
 12151               	.global	verify2
 12154               	verify2:
 12155 0452 0000 0000 		.skip 4,0
 12156               	.global	sensors1
 12157               	.global	sensors1
 12160               	sensors1:
 12161 0456 0000 0000 		.skip 4,0
 12162               	.global	sensors2
 12163               	.global	sensors2
 12166               	sensors2:
 12167 045a 0000 0000 		.skip 4,0
 12168               	.global	mode
 12169               	.global	mode
 12172               	mode:
 12173 045e 00        		.skip 1,0
 12702               	.Letext0:
DEFINED SYMBOLS
                            *ABS*:00000000 Keyglove.cpp
C:\Users\JEFFRO~1\AppData\Local\Temp/ccJcpY4U.s:2      *ABS*:0000003f __SREG__
C:\Users\JEFFRO~1\AppData\Local\Temp/ccJcpY4U.s:3      *ABS*:0000003e __SP_H__
C:\Users\JEFFRO~1\AppData\Local\Temp/ccJcpY4U.s:4      *ABS*:0000003d __SP_L__
C:\Users\JEFFRO~1\AppData\Local\Temp/ccJcpY4U.s:5      *ABS*:00000034 __CCP__
C:\Users\JEFFRO~1\AppData\Local\Temp/ccJcpY4U.s:6      *ABS*:00000000 __tmp_reg__
C:\Users\JEFFRO~1\AppData\Local\Temp/ccJcpY4U.s:7      *ABS*:00000001 __zero_reg__
C:\Users\JEFFRO~1\AppData\Local\Temp/ccJcpY4U.s:18     .text:00000000 _Z11setup_boardv
C:\Users\JEFFRO~1\AppData\Local\Temp/ccJcpY4U.s:30     .text:00000002 _Z15setup_touchconnv
C:\Users\JEFFRO~1\AppData\Local\Temp/ccJcpY4U.s:42     .text:00000004 _Z19setup_hostif_serialv
C:\Users\JEFFRO~1\AppData\Local\Temp/ccJcpY4U.s:54     .text:00000006 _Z16setup_hostif_usbv
C:\Users\JEFFRO~1\AppData\Local\Temp/ccJcpY4U.s:66     .text:00000008 _Z19setup_hostif_bt_sppv
C:\Users\JEFFRO~1\AppData\Local\Temp/ccJcpY4U.s:78     .text:0000000a _Z14setup_keyboardv
C:\Users\JEFFRO~1\AppData\Local\Temp/ccJcpY4U.s:90     .text:0000000c _Z15update_keyboardv
C:\Users\JEFFRO~1\AppData\Local\Temp/ccJcpY4U.s:102    .text:0000000e _Z11setup_mousev
C:\Users\JEFFRO~1\AppData\Local\Temp/ccJcpY4U.s:11956  .bss:0000041c mz0
C:\Users\JEFFRO~1\AppData\Local\Temp/ccJcpY4U.s:11950  .bss:0000041a my0
C:\Users\JEFFRO~1\AppData\Local\Temp/ccJcpY4U.s:11944  .bss:00000418 mx0
C:\Users\JEFFRO~1\AppData\Local\Temp/ccJcpY4U.s:11932  .bss:00000414 mz
C:\Users\JEFFRO~1\AppData\Local\Temp/ccJcpY4U.s:11926  .bss:00000412 my
C:\Users\JEFFRO~1\AppData\Local\Temp/ccJcpY4U.s:11920  .bss:00000410 mx
C:\Users\JEFFRO~1\AppData\Local\Temp/ccJcpY4U.s:11962  .bss:0000041e sy0
C:\Users\JEFFRO~1\AppData\Local\Temp/ccJcpY4U.s:11938  .bss:00000416 sy
C:\Users\JEFFRO~1\AppData\Local\Temp/ccJcpY4U.s:132    .text:00000050 _Z14setup_joystickv
C:\Users\JEFFRO~1\AppData\Local\Temp/ccJcpY4U.s:144    .text:00000052 _Z15update_joystickv
C:\Users\JEFFRO~1\AppData\Local\Temp/ccJcpY4U.s:156    .text:00000054 _Z9modeCheckhh
C:\Users\JEFFRO~1\AppData\Local\Temp/ccJcpY4U.s:12112  .bss:0000043f modeStackPos
C:\Users\JEFFRO~1\AppData\Local\Temp/ccJcpY4U.s:12106  .bss:00000435 modeStack
C:\Users\JEFFRO~1\AppData\Local\Temp/ccJcpY4U.s:192    .text:0000007a EVENT_USB_Device_Connect
C:\Users\JEFFRO~1\AppData\Local\Temp/ccJcpY4U.s:213    .text:00000084 EVENT_USB_Device_Disconnect
C:\Users\JEFFRO~1\AppData\Local\Temp/ccJcpY4U.s:234    .text:0000008e ProcessHIDReport
C:\Users\JEFFRO~1\AppData\Local\Temp/ccJcpY4U.s:247    .text:00000090 _Z25Keyboard_ProcessLEDReporth
C:\Users\JEFFRO~1\AppData\Local\Temp/ccJcpY4U.s:289    .text:000000aa _GLOBAL__I_HIDReportInData
C:\Users\JEFFRO~1\AppData\Local\Temp/ccJcpY4U.s:11303  .bss:00000248 bluetooth
C:\Users\JEFFRO~1\AppData\Local\Temp/ccJcpY4U.s:11297  .bss:00000247 Uart
C:\Users\JEFFRO~1\AppData\Local\Temp/ccJcpY4U.s:11309  .bss:00000252 accelerometer
C:\Users\JEFFRO~1\AppData\Local\Temp/ccJcpY4U.s:11647  .bss:00000332 gyroscope
C:\Users\JEFFRO~1\AppData\Local\Temp/ccJcpY4U.s:323    .text:000000c8 HID_Task
C:\Users\JEFFRO~1\AppData\Local\Temp/ccJcpY4U.s:10970  .bss:00000009 HIDReportOutData
C:\Users\JEFFRO~1\AppData\Local\Temp/ccJcpY4U.s:10964  .bss:00000000 HIDReportInData
C:\Users\JEFFRO~1\AppData\Local\Temp/ccJcpY4U.s:426    .text:0000013e CDC_Task
C:\Users\JEFFRO~1\AppData\Local\Temp/ccJcpY4U.s:11001  .bss:0000011d HostTXSerial_Buffer
C:\Users\JEFFRO~1\AppData\Local\Temp/ccJcpY4U.s:10976  .data:00000201 LineEncodingData
C:\Users\JEFFRO~1\AppData\Local\Temp/ccJcpY4U.s:10989  .bss:00000012 HostRXSerial_Buffer
C:\Users\JEFFRO~1\AppData\Local\Temp/ccJcpY4U.s:765    .text:00000264 EVENT_USB_Device_ControlRequest
C:\Users\JEFFRO~1\AppData\Local\Temp/ccJcpY4U.s:922    .text:00000344 EVENT_USB_Device_ConfigurationChanged
C:\Users\JEFFRO~1\AppData\Local\Temp/ccJcpY4U.s:1042   .text:000003fa SetupHardware
C:\Users\JEFFRO~1\AppData\Local\Temp/ccJcpY4U.s:1124   .text:0000045c _Z7set_rgbhhh
C:\Users\JEFFRO~1\AppData\Local\Temp/ccJcpY4U.s:1174   .text:00000490 _Z20setup_feedback_blinkv
C:\Users\JEFFRO~1\AppData\Local\Temp/ccJcpY4U.s:11896  .bss:0000040c blink_led
C:\Users\JEFFRO~1\AppData\Local\Temp/ccJcpY4U.s:1202   .text:000004a6 _Z7vibratehj
C:\Users\JEFFRO~1\AppData\Local\Temp/ccJcpY4U.s:1255   .text:000004e8 _Z7blueledhj
C:\Users\JEFFRO~1\AppData\Local\Temp/ccJcpY4U.s:1308   .text:0000052a _Z8greenledhj
C:\Users\JEFFRO~1\AppData\Local\Temp/ccJcpY4U.s:1361   .text:0000056c _Z6redledhj
C:\Users\JEFFRO~1\AppData\Local\Temp/ccJcpY4U.s:1414   .text:000005ae _Z4beepjhj
C:\Users\JEFFRO~1\AppData\Local\Temp/ccJcpY4U.s:1485   .text:00000610 _Z8mouseoffh
C:\Users\JEFFRO~1\AppData\Local\Temp/ccJcpY4U.s:12022  .bss:0000042b opt_mouse_mode
C:\Users\JEFFRO~1\AppData\Local\Temp/ccJcpY4U.s:12028  .bss:0000042c opt_scroll_mode
C:\Users\JEFFRO~1\AppData\Local\Temp/ccJcpY4U.s:1531   .text:00000640 _Z7mouseonh
C:\Users\JEFFRO~1\AppData\Local\Temp/ccJcpY4U.s:1575   .text:00000674 _Z18setup_feedback_rgbv
C:\Users\JEFFRO~1\AppData\Local\Temp/ccJcpY4U.s:1615   .text:000006ae _Z22setup_feedback_vibratev
C:\Users\JEFFRO~1\AppData\Local\Temp/ccJcpY4U.s:1649   .text:000006d4 _Z10modifieruph
C:\Users\JEFFRO~1\AppData\Local\Temp/ccJcpY4U.s:12088  .bss:0000042d modifiersDown
C:\Users\JEFFRO~1\AppData\Local\Temp/ccJcpY4U.s:1705   .text:0000071e _ZL15deactivate_modeh
C:\Users\JEFFRO~1\AppData\Local\Temp/ccJcpY4U.s:1729   .text:0000072a _Z12modifierdownh
C:\Users\JEFFRO~1\AppData\Local\Temp/ccJcpY4U.s:1778   .text:0000076a _Z13modifierpressh
C:\Users\JEFFRO~1\AppData\Local\Temp/ccJcpY4U.s:1827   .text:000007a8 _Z14togglemodifierh
C:\Users\JEFFRO~1\AppData\Local\Temp/ccJcpY4U.s:1879   .text:000007e8 _ZL13activate_modeh
C:\Users\JEFFRO~1\AppData\Local\Temp/ccJcpY4U.s:2019   .text:000008b4 _Z7popmodev
C:\Users\JEFFRO~1\AppData\Local\Temp/ccJcpY4U.s:2068   .text:000008fe _Z8pushmodeh
C:\Users\JEFFRO~1\AppData\Local\Temp/ccJcpY4U.s:2118   .text:0000093a _Z10togglemodeh
C:\Users\JEFFRO~1\AppData\Local\Temp/ccJcpY4U.s:11049  .bss:00000235 i
C:\Users\JEFFRO~1\AppData\Local\Temp/ccJcpY4U.s:2273   .text:00000a62 _Z7setmodeh
C:\Users\JEFFRO~1\AppData\Local\Temp/ccJcpY4U.s:2325   .text:00000ab0 _Z11setup_touchv
C:\Users\JEFFRO~1\AppData\Local\Temp/ccJcpY4U.s:12142  .bss:0000044a detect2
C:\Users\JEFFRO~1\AppData\Local\Temp/ccJcpY4U.s:12136  .bss:00000446 detect1
C:\Users\JEFFRO~1\AppData\Local\Temp/ccJcpY4U.s:12154  .bss:00000452 verify2
C:\Users\JEFFRO~1\AppData\Local\Temp/ccJcpY4U.s:12148  .bss:0000044e verify1
C:\Users\JEFFRO~1\AppData\Local\Temp/ccJcpY4U.s:12166  .bss:0000045a sensors2
C:\Users\JEFFRO~1\AppData\Local\Temp/ccJcpY4U.s:12160  .bss:00000456 sensors1
C:\Users\JEFFRO~1\AppData\Local\Temp/ccJcpY4U.s:11133  .data:0000020b pins
C:\Users\JEFFRO~1\AppData\Local\Temp/ccJcpY4U.s:12172  .bss:0000045e mode
C:\Users\JEFFRO~1\AppData\Local\Temp/ccJcpY4U.s:2417   .text:00000b90 _Z5keyuph
C:\Users\JEFFRO~1\AppData\Local\Temp/ccJcpY4U.s:12094  .bss:0000042e keysDown
C:\Users\JEFFRO~1\AppData\Local\Temp/ccJcpY4U.s:2592   .text:00000c86 _Z7keydownh
C:\Users\JEFFRO~1\AppData\Local\Temp/ccJcpY4U.s:2767   .text:00000d7c _Z8keypressh
C:\Users\JEFFRO~1\AppData\Local\Temp/ccJcpY4U.s:2816   .text:00000dba _Z7mouseuph
C:\Users\JEFFRO~1\AppData\Local\Temp/ccJcpY4U.s:12100  .bss:00000434 mouseDown
C:\Users\JEFFRO~1\AppData\Local\Temp/ccJcpY4U.s:2884   .text:00000e16 _Z21check_sensors_releasemmh
C:\Users\JEFFRO~1\AppData\Local\Temp/ccJcpY4U.s:6480   .text:000023d6 _Z9mousedownh
C:\Users\JEFFRO~1\AppData\Local\Temp/ccJcpY4U.s:6530   .text:0000241e _Z19check_sensors_touchmmh
C:\Users\JEFFRO~1\AppData\Local\Temp/ccJcpY4U.s:6903   .text:00002632 _Z12update_touchv
C:\Users\JEFFRO~1\AppData\Local\Temp/ccJcpY4U.s:12130  .bss:00000445 removing
C:\Users\JEFFRO~1\AppData\Local\Temp/ccJcpY4U.s:11171  .data:0000022d combinations
C:\Users\JEFFRO~1\AppData\Local\Temp/ccJcpY4U.s:12118  .bss:00000440 touchTime
C:\Users\JEFFRO~1\AppData\Local\Temp/ccJcpY4U.s:11115  .data:00000208 opt_touch_detect_threshold
C:\Users\JEFFRO~1\AppData\Local\Temp/ccJcpY4U.s:12124  .bss:00000444 adding
C:\Users\JEFFRO~1\AppData\Local\Temp/ccJcpY4U.s:7353   .text:00002a7e _Z10mouseclickh
C:\Users\JEFFRO~1\AppData\Local\Temp/ccJcpY4U.s:7402   .text:00002abc _Z12update_mousev
C:\Users\JEFFRO~1\AppData\Local\Temp/ccJcpY4U.s:11629  .bss:0000032e aset
C:\Users\JEFFRO~1\AppData\Local\Temp/ccJcpY4U.s:11557  .bss:00000316 ax
C:\Users\JEFFRO~1\AppData\Local\Temp/ccJcpY4U.s:11563  .bss:00000318 ay
C:\Users\JEFFRO~1\AppData\Local\Temp/ccJcpY4U.s:11611  .bss:00000328 axBase
C:\Users\JEFFRO~1\AppData\Local\Temp/ccJcpY4U.s:12034  .data:000002cf opt_mouse_scale_mode1
C:\Users\JEFFRO~1\AppData\Local\Temp/ccJcpY4U.s:11617  .bss:0000032a ayBase
C:\Users\JEFFRO~1\AppData\Local\Temp/ccJcpY4U.s:11992  .bss:00000428 moveMouse
C:\Users\JEFFRO~1\AppData\Local\Temp/ccJcpY4U.s:11569  .bss:0000031a az
C:\Users\JEFFRO~1\AppData\Local\Temp/ccJcpY4U.s:11623  .bss:0000032c azBase
C:\Users\JEFFRO~1\AppData\Local\Temp/ccJcpY4U.s:11734  .bss:00000361 gx
C:\Users\JEFFRO~1\AppData\Local\Temp/ccJcpY4U.s:11740  .bss:00000363 gy
C:\Users\JEFFRO~1\AppData\Local\Temp/ccJcpY4U.s:11395  .bss:00000268 x
C:\Users\JEFFRO~1\AppData\Local\Temp/ccJcpY4U.s:11407  .bss:0000026c z
C:\Users\JEFFRO~1\AppData\Local\Temp/ccJcpY4U.s:11485  .bss:0000028c xBase
C:\Users\JEFFRO~1\AppData\Local\Temp/ccJcpY4U.s:12058  .data:000002df opt_mouse_scale_mode3
C:\Users\JEFFRO~1\AppData\Local\Temp/ccJcpY4U.s:11497  .bss:00000290 zBase
C:\Users\JEFFRO~1\AppData\Local\Temp/ccJcpY4U.s:11401  .bss:0000026a y
C:\Users\JEFFRO~1\AppData\Local\Temp/ccJcpY4U.s:11491  .bss:0000028e yBase
C:\Users\JEFFRO~1\AppData\Local\Temp/ccJcpY4U.s:11449  .bss:0000027a xv
C:\Users\JEFFRO~1\AppData\Local\Temp/ccJcpY4U.s:12070  .data:000002e7 opt_mouse_scale_mode4
C:\Users\JEFFRO~1\AppData\Local\Temp/ccJcpY4U.s:11461  .bss:0000027e zv
C:\Users\JEFFRO~1\AppData\Local\Temp/ccJcpY4U.s:11455  .bss:0000027c yv
C:\Users\JEFFRO~1\AppData\Local\Temp/ccJcpY4U.s:11998  .bss:00000429 scrollMouse
C:\Users\JEFFRO~1\AppData\Local\Temp/ccJcpY4U.s:11968  .bss:00000420 mdx
C:\Users\JEFFRO~1\AppData\Local\Temp/ccJcpY4U.s:11974  .bss:00000422 mdy
C:\Users\JEFFRO~1\AppData\Local\Temp/ccJcpY4U.s:11980  .bss:00000424 mdz
C:\Users\JEFFRO~1\AppData\Local\Temp/ccJcpY4U.s:12004  .data:000002cd opt_mouse_invert_x
C:\Users\JEFFRO~1\AppData\Local\Temp/ccJcpY4U.s:12009  .data:000002ce opt_mouse_invert_y
C:\Users\JEFFRO~1\AppData\Local\Temp/ccJcpY4U.s:12016  .bss:0000042a opt_mouse_invert_z
C:\Users\JEFFRO~1\AppData\Local\Temp/ccJcpY4U.s:11986  .bss:00000426 sdy
C:\Users\JEFFRO~1\AppData\Local\Temp/ccJcpY4U.s:8350   .text:00003422 _Z20setup_feedback_piezov
C:\Users\JEFFRO~1\AppData\Local\Temp/ccJcpY4U.s:8398   .text:00003460 _Z23update_motion_gyroscopev
C:\Users\JEFFRO~1\AppData\Local\Temp/ccJcpY4U.s:11752  .bss:00000367 gx0
C:\Users\JEFFRO~1\AppData\Local\Temp/ccJcpY4U.s:11770  .bss:0000036d gx00
C:\Users\JEFFRO~1\AppData\Local\Temp/ccJcpY4U.s:11758  .bss:00000369 gy0
C:\Users\JEFFRO~1\AppData\Local\Temp/ccJcpY4U.s:11776  .bss:0000036f gy00
C:\Users\JEFFRO~1\AppData\Local\Temp/ccJcpY4U.s:11764  .bss:0000036b gz0
C:\Users\JEFFRO~1\AppData\Local\Temp/ccJcpY4U.s:11782  .bss:00000371 gz00
C:\Users\JEFFRO~1\AppData\Local\Temp/ccJcpY4U.s:11746  .bss:00000365 gz
C:\Users\JEFFRO~1\AppData\Local\Temp/ccJcpY4U.s:11691  .data:000002cc opt_gyro_rot90
C:\Users\JEFFRO~1\AppData\Local\Temp/ccJcpY4U.s:11716  .bss:0000035b gxRaw
C:\Users\JEFFRO~1\AppData\Local\Temp/ccJcpY4U.s:11722  .bss:0000035d gyRaw
C:\Users\JEFFRO~1\AppData\Local\Temp/ccJcpY4U.s:11728  .bss:0000035f gzRaw
C:\Users\JEFFRO~1\AppData\Local\Temp/ccJcpY4U.s:11698  .bss:00000352 gyroMicros
C:\Users\JEFFRO~1\AppData\Local\Temp/ccJcpY4U.s:11704  .bss:00000356 gyroDiff
C:\Users\JEFFRO~1\AppData\Local\Temp/ccJcpY4U.s:11653  .bss:0000034b opt_gyro_offset
C:\Users\JEFFRO~1\AppData\Local\Temp/ccJcpY4U.s:11659  .data:000002bc opt_gyro_calibrate
C:\Users\JEFFRO~1\AppData\Local\Temp/ccJcpY4U.s:11675  .data:000002c8 opt_gyro_kalman_constant
C:\Users\JEFFRO~1\AppData\Local\Temp/ccJcpY4U.s:11685  .bss:00000351 opt_gyro_smooth_average
C:\Users\JEFFRO~1\AppData\Local\Temp/ccJcpY4U.s:11710  .bss:0000035a gyroTick
C:\Users\JEFFRO~1\AppData\Local\Temp/ccJcpY4U.s:11824  .bss:00000385 gxHist
C:\Users\JEFFRO~1\AppData\Local\Temp/ccJcpY4U.s:11830  .bss:000003ad gyHist
C:\Users\JEFFRO~1\AppData\Local\Temp/ccJcpY4U.s:11836  .bss:000003d5 gzHist
C:\Users\JEFFRO~1\AppData\Local\Temp/ccJcpY4U.s:11127  .bss:00000246 opt_enable_calibration
C:\Users\JEFFRO~1\AppData\Local\Temp/ccJcpY4U.s:11842  .bss:000003fd gxMin
C:\Users\JEFFRO~1\AppData\Local\Temp/ccJcpY4U.s:11848  .bss:000003ff gyMin
C:\Users\JEFFRO~1\AppData\Local\Temp/ccJcpY4U.s:11854  .bss:00000401 gzMin
C:\Users\JEFFRO~1\AppData\Local\Temp/ccJcpY4U.s:11860  .bss:00000403 gxMax
C:\Users\JEFFRO~1\AppData\Local\Temp/ccJcpY4U.s:11866  .bss:00000405 gyMax
C:\Users\JEFFRO~1\AppData\Local\Temp/ccJcpY4U.s:11872  .bss:00000407 gzMax
C:\Users\JEFFRO~1\AppData\Local\Temp/ccJcpY4U.s:9260   .text:00003c24 _Z22setup_motion_gyroscopev
C:\Users\JEFFRO~1\AppData\Local\Temp/ccJcpY4U.s:11890  .bss:0000040b gyroCalibrated
C:\Users\JEFFRO~1\AppData\Local\Temp/ccJcpY4U.s:9313   .text:00003c90 _Z27update_motion_accelerometerv
C:\Users\JEFFRO~1\AppData\Local\Temp/ccJcpY4U.s:11413  .bss:0000026e x0
C:\Users\JEFFRO~1\AppData\Local\Temp/ccJcpY4U.s:11431  .bss:00000274 x00
C:\Users\JEFFRO~1\AppData\Local\Temp/ccJcpY4U.s:11419  .bss:00000270 y0
C:\Users\JEFFRO~1\AppData\Local\Temp/ccJcpY4U.s:11437  .bss:00000276 y00
C:\Users\JEFFRO~1\AppData\Local\Temp/ccJcpY4U.s:11425  .bss:00000272 z0
C:\Users\JEFFRO~1\AppData\Local\Temp/ccJcpY4U.s:11443  .bss:00000278 z00
C:\Users\JEFFRO~1\AppData\Local\Temp/ccJcpY4U.s:11353  .bss:00000258 opt_accel_rot90
C:\Users\JEFFRO~1\AppData\Local\Temp/ccJcpY4U.s:11377  .bss:00000262 xRaw
C:\Users\JEFFRO~1\AppData\Local\Temp/ccJcpY4U.s:11383  .bss:00000264 yRaw
C:\Users\JEFFRO~1\AppData\Local\Temp/ccJcpY4U.s:11389  .bss:00000266 zRaw
C:\Users\JEFFRO~1\AppData\Local\Temp/ccJcpY4U.s:11359  .bss:00000259 accelMicros
C:\Users\JEFFRO~1\AppData\Local\Temp/ccJcpY4U.s:11365  .bss:0000025d accelDiff
C:\Users\JEFFRO~1\AppData\Local\Temp/ccJcpY4U.s:11315  .data:000002a5 opt_accel_offset
C:\Users\JEFFRO~1\AppData\Local\Temp/ccJcpY4U.s:11322  .data:000002ab opt_accel_calibrate
C:\Users\JEFFRO~1\AppData\Local\Temp/ccJcpY4U.s:11338  .data:000002b7 opt_accel_kalman_constant
C:\Users\JEFFRO~1\AppData\Local\Temp/ccJcpY4U.s:11346  .data:000002bb opt_accel_smooth_average
C:\Users\JEFFRO~1\AppData\Local\Temp/ccJcpY4U.s:11503  .bss:00000292 xHist
C:\Users\JEFFRO~1\AppData\Local\Temp/ccJcpY4U.s:11509  .bss:000002ba yHist
C:\Users\JEFFRO~1\AppData\Local\Temp/ccJcpY4U.s:11515  .bss:000002e2 zHist
C:\Users\JEFFRO~1\AppData\Local\Temp/ccJcpY4U.s:11371  .bss:00000261 accelTick
C:\Users\JEFFRO~1\AppData\Local\Temp/ccJcpY4U.s:11521  .bss:0000030a xMin
C:\Users\JEFFRO~1\AppData\Local\Temp/ccJcpY4U.s:11527  .bss:0000030c yMin
C:\Users\JEFFRO~1\AppData\Local\Temp/ccJcpY4U.s:11533  .bss:0000030e zMin
C:\Users\JEFFRO~1\AppData\Local\Temp/ccJcpY4U.s:11539  .bss:00000310 xMax
C:\Users\JEFFRO~1\AppData\Local\Temp/ccJcpY4U.s:11545  .bss:00000312 yMax
C:\Users\JEFFRO~1\AppData\Local\Temp/ccJcpY4U.s:11551  .bss:00000314 zMax
C:\Users\JEFFRO~1\AppData\Local\Temp/ccJcpY4U.s:11575  .bss:0000031c ax0
C:\Users\JEFFRO~1\AppData\Local\Temp/ccJcpY4U.s:11593  .bss:00000322 ax00
C:\Users\JEFFRO~1\AppData\Local\Temp/ccJcpY4U.s:11581  .bss:0000031e ay0
C:\Users\JEFFRO~1\AppData\Local\Temp/ccJcpY4U.s:11599  .bss:00000324 ay00
C:\Users\JEFFRO~1\AppData\Local\Temp/ccJcpY4U.s:11587  .bss:00000320 az0
C:\Users\JEFFRO~1\AppData\Local\Temp/ccJcpY4U.s:11605  .bss:00000326 az00
C:\Users\JEFFRO~1\AppData\Local\Temp/ccJcpY4U.s:10474  .text:0000476a loop
C:\Users\JEFFRO~1\AppData\Local\Temp/ccJcpY4U.s:11061  .bss:0000023d activeAccelerometer
C:\Users\JEFFRO~1\AppData\Local\Temp/ccJcpY4U.s:11067  .bss:0000023e activeGyroscope
C:\Users\JEFFRO~1\AppData\Local\Temp/ccJcpY4U.s:11085  .bss:00000241 activeTouch
C:\Users\JEFFRO~1\AppData\Local\Temp/ccJcpY4U.s:11097  .bss:00000243 activeMouse
C:\Users\JEFFRO~1\AppData\Local\Temp/ccJcpY4U.s:11031  .bss:0000022b counter
C:\Users\JEFFRO~1\AppData\Local\Temp/ccJcpY4U.s:11037  .bss:0000022d ticks
C:\Users\JEFFRO~1\AppData\Local\Temp/ccJcpY4U.s:11043  .bss:00000231 t
C:\Users\JEFFRO~1\AppData\Local\Temp/ccJcpY4U.s:10578  .text:00004850 _Z26setup_motion_accelerometerv
C:\Users\JEFFRO~1\AppData\Local\Temp/ccJcpY4U.s:11479  .bss:00000288 cz
C:\Users\JEFFRO~1\AppData\Local\Temp/ccJcpY4U.s:11473  .bss:00000284 cy
C:\Users\JEFFRO~1\AppData\Local\Temp/ccJcpY4U.s:11467  .bss:00000280 cx
C:\Users\JEFFRO~1\AppData\Local\Temp/ccJcpY4U.s:11641  .bss:00000331 accelCalibrated
C:\Users\JEFFRO~1\AppData\Local\Temp/ccJcpY4U.s:10656  .text:0000491a _Z23update_bluetooth_serialv
C:\Users\JEFFRO~1\AppData\Local\Temp/ccJcpY4U.s:10711  .text:00004960 _Z19setup_hostif_bt_hidv
C:\Users\JEFFRO~1\AppData\Local\Temp/ccJcpY4U.s:10735  .text:00004972 _Z14keyglove_setupv
C:\Users\JEFFRO~1\AppData\Local\Temp/ccJcpY4U.s:10783  .text:000049bc setup
C:\Users\JEFFRO~1\AppData\Local\Temp/ccJcpY4U.s:10803  .text:000049d6 main
C:\Users\JEFFRO~1\AppData\Local\Temp/ccJcpY4U.s:10995  .bss:0000001d HostRXSerial_Buffer_Data
C:\Users\JEFFRO~1\AppData\Local\Temp/ccJcpY4U.s:11007  .bss:00000128 HostTXSerial_Buffer_Data
C:\Users\JEFFRO~1\AppData\Local\Temp/ccJcpY4U.s:11013  .bss:00000228 CDCTaskRun
C:\Users\JEFFRO~1\AppData\Local\Temp/ccJcpY4U.s:11019  .bss:00000229 HIDTaskRun
C:\Users\JEFFRO~1\AppData\Local\Temp/ccJcpY4U.s:11025  .bss:0000022a ide_workaround
C:\Users\JEFFRO~1\AppData\Local\Temp/ccJcpY4U.s:11055  .bss:00000239 j
C:\Users\JEFFRO~1\AppData\Local\Temp/ccJcpY4U.s:11073  .bss:0000023f activeMagnetometer
C:\Users\JEFFRO~1\AppData\Local\Temp/ccJcpY4U.s:11079  .bss:00000240 activeGestures
C:\Users\JEFFRO~1\AppData\Local\Temp/ccJcpY4U.s:11091  .bss:00000242 activeKeyboard
C:\Users\JEFFRO~1\AppData\Local\Temp/ccJcpY4U.s:11103  .bss:00000244 activeJoystick
C:\Users\JEFFRO~1\AppData\Local\Temp/ccJcpY4U.s:11109  .bss:00000245 activeSerial
C:\Users\JEFFRO~1\AppData\Local\Temp/ccJcpY4U.s:11120  .data:0000020a opt_motion_sampling_div
C:\Users\JEFFRO~1\AppData\Local\Temp/ccJcpY4U.s:11635  .bss:0000032f calAccel
C:\Users\JEFFRO~1\AppData\Local\Temp/ccJcpY4U.s:11788  .bss:00000373 cgx
C:\Users\JEFFRO~1\AppData\Local\Temp/ccJcpY4U.s:11794  .bss:00000377 cgy
C:\Users\JEFFRO~1\AppData\Local\Temp/ccJcpY4U.s:11800  .bss:0000037b cgz
C:\Users\JEFFRO~1\AppData\Local\Temp/ccJcpY4U.s:11806  .bss:0000037f gxBase
C:\Users\JEFFRO~1\AppData\Local\Temp/ccJcpY4U.s:11812  .bss:00000381 gyBase
C:\Users\JEFFRO~1\AppData\Local\Temp/ccJcpY4U.s:11818  .bss:00000383 gzBase
C:\Users\JEFFRO~1\AppData\Local\Temp/ccJcpY4U.s:11878  .bss:00000409 gset
C:\Users\JEFFRO~1\AppData\Local\Temp/ccJcpY4U.s:11884  .bss:0000040a calGyro
C:\Users\JEFFRO~1\AppData\Local\Temp/ccJcpY4U.s:11902  .bss:0000040d rgbBlinkRed
C:\Users\JEFFRO~1\AppData\Local\Temp/ccJcpY4U.s:11908  .bss:0000040e rgbBlinkGreen
C:\Users\JEFFRO~1\AppData\Local\Temp/ccJcpY4U.s:11914  .bss:0000040f rgbBlinkBlue
C:\Users\JEFFRO~1\AppData\Local\Temp/ccJcpY4U.s:12046  .data:000002d7 opt_mouse_scale_mode2

UNDEFINED SYMBOLS
_ZN5iWRAPC1EP14HardwareSerial
_ZN7ADXL345C1Ev
_ZN7ITG3200C1Ev
__do_global_ctors
USB_DeviceState
Endpoint_Read_Stream_LE
Endpoint_Write_Stream_LE
Endpoint_WaitUntilReady
USB_ControlRequest
Endpoint_Write_Control_Stream_LE
Endpoint_Read_Control_Stream_LE
Endpoint_ClearStatusStage
Endpoint_ConfigureEndpoint_Prv
USB_Init
digitalWrite
pinMode
Serial
_ZN16USBVirtualSerial5printEPKc
_ZN16USBVirtualSerial5printEh
_ZN16USBVirtualSerial7printlnEj
_ZN16USBVirtualSerial5printEj
_ZN16USBVirtualSerial7printlnEh
delay
Keyboard
_ZN11USBKeyboard12set_modifierEh
_ZN11USBKeyboard8send_nowEv
_ZN16USBVirtualSerial7printlnEPKc
_ZN11USBKeyboard8set_key1Eh
_ZN5iWRAP8set_key1Eh
_ZN11USBKeyboard8set_key2Eh
_ZN5iWRAP8set_key2Eh
_ZN11USBKeyboard8set_key3Eh
_ZN5iWRAP8set_key3Eh
_ZN11USBKeyboard8set_key4Eh
_ZN5iWRAP8set_key4Eh
_ZN11USBKeyboard8set_key5Eh
_ZN5iWRAP8set_key5Eh
_ZN11USBKeyboard8set_key6Eh
_ZN5iWRAP8set_key6Eh
_ZN5iWRAP8send_nowEv
Mouse
_ZN8USBMouse11set_buttonsEhhh
digitalRead
millis
_ZN16USBVirtualSerial5printEm
__floatunsisf
__floatsisf
__divsf3
__subsf3
__fixunssfsi
sqrt
__addsf3
__divmodhi4
_ZN8USBMouse4moveEhhh
_ZN8USBMouse4moveEhh
_ZN5iWRAP4moveEhhh
_ZN5iWRAP4moveEhh
_ZN8USBMouse6scrollEh
_ZN5iWRAP6scrollEh
_Z4tonehjm
_ZN7ITG320011readGyroRawEPiS0_S0_
micros
__mulsf3
__fixsfsi
__udivmodsi4
__udivmodhi4
_ZN16USBVirtualSerial5printEi
_ZN7ITG32004initEh
_ZN7ADXL3459readAccelEPiS0_S0_
_ZN16USBVirtualSerial7printlnEi
atan
_ZN16USBVirtualSerial7printlnEm
_ZN7ADXL3457powerOnEv
_ZN7ADXL3457setRateEf
_ZN14HardwareSerial4readEv
_ZN5iWRAP5parseEh
_ZN14HardwareSerial9availableEv
_ZN16USBVirtualSerial4readEv
_ZN14HardwareSerial5printEhi
_ZN16USBVirtualSerial9availableEv
_ZN14HardwareSerial5beginEm
_ZN16USBVirtualSerial5beginEm
init
USB_USBTask
__do_copy_data
__do_clear_bss
