   1               		.file	"Keyglove.cpp"
   2               	__SREG__ = 0x3f
   3               	__SP_H__ = 0x3e
   4               	__SP_L__ = 0x3d
   5               	__CCP__  = 0x34
   6               	__tmp_reg__ = 0
   7               	__zero_reg__ = 1
  15               	.Ltext0:
  16               	.global	_Z9modeCheckii
  18               	_Z9modeCheckii:
  19               	.LFB127:
  20               	.LM1:
  21               	.LVL0:
  22               	/* prologue: function */
  23               	/* frame size = 0 */
  24 0000 AC01      		movw r20,r24
  25               	.LM2:
  26 0002 E091 0000 		lds r30,modeStackPos
  27 0006 F091 0000 		lds r31,(modeStackPos)+1
  28 000a E617      		cp r30,r22
  29 000c F707      		cpc r31,r23
  30 000e 04F4      		brge .L2
  31               	.LVL1:
  32 0010 20E0      		ldi r18,lo8(0)
  33 0012 00C0      		rjmp .L3
  34               	.L2:
  35               	.LM3:
  36 0014 20E0      		ldi r18,lo8(0)
  37 0016 E61B      		sub r30,r22
  38 0018 F70B      		sbc r31,r23
  39 001a EE0F      		lsl r30
  40 001c FF1F      		rol r31
  41 001e E050      		subi r30,lo8(-(modeStack))
  42 0020 F040      		sbci r31,hi8(-(modeStack))
  43 0022 8081      		ld r24,Z
  44 0024 9181      		ldd r25,Z+1
  45 0026 8417      		cp r24,r20
  46 0028 9507      		cpc r25,r21
  47 002a 01F4      		brne .L3
  48 002c 21E0      		ldi r18,lo8(1)
  49               	.LVL2:
  50               	.L3:
  51               	.LM4:
  52 002e 822F      		mov r24,r18
  53               	/* epilogue start */
  54 0030 0895      		ret
  55               	.LFE127:
  57               	.global	EVENT_USB_Device_Connect
  59               	EVENT_USB_Device_Connect:
  60               	.LFB157:
  61               	.LM5:
  62               	/* prologue: function */
  63               	/* frame size = 0 */
  64               	.LBB532:
  65               	.LBB533:
  66               	.LM6:
  67 0032 81B3      		in r24,49-32
  68 0034 8F71      		andi r24,lo8(31)
  69 0036 806C      		ori r24,lo8(-64)
  70 0038 81BB      		out 49-32,r24
  71               	/* epilogue start */
  72               	.LBE533:
  73               	.LBE532:
  74               	.LM7:
  75 003a 0895      		ret
  76               	.LFE157:
  78               	.global	EVENT_USB_Device_Disconnect
  80               	EVENT_USB_Device_Disconnect:
  81               	.LFB158:
  82               	.LM8:
  83               	/* prologue: function */
  84               	/* frame size = 0 */
  85               	.LBB534:
  86               	.LBB535:
  87               	.LM9:
  88 003c 81B3      		in r24,49-32
  89 003e 8F71      		andi r24,lo8(31)
  90 0040 8066      		ori r24,lo8(96)
  91 0042 81BB      		out 49-32,r24
  92               	/* epilogue start */
  93               	.LBE535:
  94               	.LBE534:
  95               	.LM10:
  96 0044 0895      		ret
  97               	.LFE158:
  99               	.global	ProcessHIDReport
 101               	ProcessHIDReport:
 102               	.LFB163:
 103               	.LM11:
 104               	.LVL3:
 105               	/* prologue: function */
 106               	/* frame size = 0 */
 107               	/* epilogue start */
 108               	.LM12:
 109 0046 0895      		ret
 110               	.LFE163:
 112               	.global	_Z25Keyboard_ProcessLEDReporth
 114               	_Z25Keyboard_ProcessLEDReporth:
 115               	.LFB164:
 116               	.LM13:
 117               	.LVL4:
 118               	/* prologue: function */
 119               	/* frame size = 0 */
 120               	.LBB536:
 121               	.LM14:
 122 0048 282F      		mov r18,r24
 123               	.LM15:
 124 004a 81FD      		sbrc r24,1
 125 004c 00C0      		rjmp .L13
 126               	.LVL5:
 127 004e 90E4      		ldi r25,lo8(64)
 128               	.LVL6:
 129 0050 00C0      		rjmp .L14
 130               	.LVL7:
 131               	.L13:
 132 0052 90EC      		ldi r25,lo8(-64)
 133               	.LVL8:
 134               	.L14:
 135               	.LM16:
 136 0054 22FD      		sbrc r18,2
 137               	.LM17:
 138 0056 9064      		ori r25,lo8(64)
 139               	.L15:
 140               	.LBB537:
 141               	.LBB538:
 142               	.LM18:
 143 0058 81B3      		in r24,49-32
 144 005a 8F71      		andi r24,lo8(31)
 145 005c 982B      		or r25,r24
 146 005e 91BB      		out 49-32,r25
 147               	/* epilogue start */
 148               	.LBE538:
 149               	.LBE537:
 150               	.LBE536:
 151               	.LM19:
 152 0060 0895      		ret
 153               	.LFE164:
 156               	_GLOBAL__I_HIDReportInData:
 157               	.LFB166:
 158               	.LM20:
 159               	/* prologue: function */
 160               	/* frame size = 0 */
 161               	.LBB539:
 162               	.LBB540:
 163               	.LM21:
 164 0062 80E0      		ldi r24,lo8(accel)
 165 0064 90E0      		ldi r25,hi8(accel)
 166 0066 0E94 0000 		call _ZN13AccelerometerC1Ev
 167               	.LM22:
 168 006a 80E0      		ldi r24,lo8(gyro)
 169 006c 90E0      		ldi r25,hi8(gyro)
 170 006e 0E94 0000 		call _ZN7ITG3200C1Ev
 171               	/* epilogue start */
 172               	.LBE540:
 173               	.LBE539:
 174               	.LM23:
 175 0072 0895      		ret
 176               	.LFE166:
 178               		.global __do_global_ctors
 179               		.section .ctors,"a",@progbits
 180 0000 0000      		.word	gs(_GLOBAL__I_HIDReportInData)
 181               		.text
 182               	.global	HID_Task
 184               	HID_Task:
 185               	.LFB162:
 186               	.LM24:
 187 0074 0F93      		push r16
 188 0076 1F93      		push r17
 189               	/* prologue: function */
 190               	/* frame size = 0 */
 191               	.LM25:
 192 0078 8091 0000 		lds r24,USB_DeviceState
 193 007c 8430      		cpi r24,lo8(4)
 194 007e 01F4      		brne .L23
 195               	.LBB541:
 196               	.LBB542:
 197               	.LM26:
 198 0080 85E0      		ldi r24,lo8(5)
 199 0082 8093 E900 		sts 233,r24
 200               	.LBE542:
 201               	.LBE541:
 202               	.LBB543:
 203               	.LBB544:
 204               	.LM27:
 205 0086 8091 E800 		lds r24,232
 206               	.LBE544:
 207               	.LBE543:
 208               	.LM28:
 209 008a 82FF      		sbrs r24,2
 210 008c 00C0      		rjmp .L21
 211               	.LBB545:
 212               	.LBB546:
 213               	.LM29:
 214 008e 8091 E800 		lds r24,232
 215               	.LBE546:
 216               	.LBE545:
 217               	.LM30:
 218 0092 85FF      		sbrs r24,5
 219 0094 00C0      		rjmp .L22
 220               	.LM31:
 221 0096 80E0      		ldi r24,lo8(HIDReportOutData)
 222 0098 90E0      		ldi r25,hi8(HIDReportOutData)
 223 009a 69E0      		ldi r22,lo8(9)
 224 009c 70E0      		ldi r23,hi8(9)
 225 009e 40E0      		ldi r20,lo8(0)
 226 00a0 50E0      		ldi r21,hi8(0)
 227 00a2 0E94 0000 		call Endpoint_Read_Stream_LE
 228               	.L22:
 229               	.LBB547:
 230               	.LBB548:
 231               	.LM32:
 232 00a6 8091 E800 		lds r24,232
 233 00aa 8B77      		andi r24,lo8(123)
 234 00ac 8093 E800 		sts 232,r24
 235               	.L21:
 236               	.LBE548:
 237               	.LBE547:
 238               	.LBB549:
 239               	.LBB550:
 240               	.LM33:
 241 00b0 84E0      		ldi r24,lo8(4)
 242 00b2 8093 E900 		sts 233,r24
 243               	.LBE550:
 244               	.LBE549:
 245               	.LBB551:
 246               	.LBB552:
 247               	.LM34:
 248 00b6 8091 E800 		lds r24,232
 249               	.LBE552:
 250               	.LBE551:
 251               	.LM35:
 252 00ba 80FF      		sbrs r24,0
 253 00bc 00C0      		rjmp .L23
 254               	.LM36:
 255 00be 00E0      		ldi r16,lo8(HIDReportInData)
 256 00c0 10E0      		ldi r17,hi8(HIDReportInData)
 257 00c2 C801      		movw r24,r16
 258 00c4 69E0      		ldi r22,lo8(9)
 259 00c6 70E0      		ldi r23,hi8(9)
 260 00c8 40E0      		ldi r20,lo8(0)
 261 00ca 50E0      		ldi r21,hi8(0)
 262 00cc 0E94 0000 		call Endpoint_Write_Stream_LE
 263               	.LM37:
 264 00d0 89E0      		ldi r24,lo8(9)
 265 00d2 F801      		movw r30,r16
 266 00d4 1192      		st Z+,__zero_reg__
 267 00d6 8A95      	        dec r24
 268 00d8 01F4      		brne .-6
 269               	.LBB553:
 270               	.LBB554:
 271               	.LM38:
 272 00da 8091 E800 		lds r24,232
 273 00de 8E77      		andi r24,lo8(126)
 274 00e0 8093 E800 		sts 232,r24
 275               	.L23:
 276               	/* epilogue start */
 277               	.LBE554:
 278               	.LBE553:
 279               	.LM39:
 280 00e4 1F91      		pop r17
 281 00e6 0F91      		pop r16
 282 00e8 0895      		ret
 283               	.LFE162:
 285               	.global	CDC_Task
 287               	CDC_Task:
 288               	.LFB161:
 289               	.LM40:
 290 00ea CF93      		push r28
 291 00ec DF93      		push r29
 292               	/* prologue: function */
 293               	/* frame size = 0 */
 294               	.LBB555:
 295               	.LM41:
 296 00ee 8091 0000 		lds r24,USB_DeviceState
 297 00f2 8430      		cpi r24,lo8(4)
 298 00f4 01F0      		breq .+2
 299 00f6 00C0      		rjmp .L33
 300               	.LBB556:
 301               	.LBB557:
 302               	.LBB558:
 303               	.LBB559:
 304               	.LBB560:
 305               	.LM42:
 306               	.LM43:
 307 00f8 8FB7      		in r24,__SREG__
 308               	.LVL9:
 309               	.LBE560:
 310               	.LBE559:
 311               	.LBB561:
 312               	.LBB562:
 313               	.LM44:
 314               	.LM45:
 315               	/* #APP */
 316               	 ;  370 "./LUFA/Drivers/USB/../../Common/Common.h" 1
 317 00fa F894      		cli
 318               	 ;  0 "" 2
 319               	.LM46:
 320               	/* #NOAPP */
 321               	.LBE562:
 322               	.LBE561:
 323               	.LM47:
 324 00fc 2091 0000 		lds r18,_ZL19HostTXSerial_Buffer+9
 325 0100 3091 0000 		lds r19,(_ZL19HostTXSerial_Buffer+9)+1
 326               	.LVL10:
 327               	.LBB563:
 328               	.LBB564:
 329               	.LM48:
 330               	.LM49:
 331 0104 8FBF      		out __SREG__,r24
 332               	.LM50:
 333               	.LBE564:
 334               	.LBE563:
 335               	.LBE558:
 336               	.LBE557:
 337               	.LBE556:
 338               	.LM51:
 339 0106 2115      		cp r18,__zero_reg__
 340 0108 3105      		cpc r19,__zero_reg__
 341 010a 01F4      		brne .+2
 342 010c 00C0      		rjmp .L26
 343 010e 8091 0000 		lds r24,_ZL16LineEncodingData
 344 0112 9091 0000 		lds r25,(_ZL16LineEncodingData)+1
 345 0116 A091 0000 		lds r26,(_ZL16LineEncodingData)+2
 346 011a B091 0000 		lds r27,(_ZL16LineEncodingData)+3
 347               	.LVL11:
 348 011e 0097      		sbiw r24,0
 349 0120 A105      		cpc r26,__zero_reg__
 350 0122 B105      		cpc r27,__zero_reg__
 351 0124 01F4      		brne .+2
 352 0126 00C0      		rjmp .L26
 353               	.LBB565:
 354               	.LBB566:
 355               	.LBB567:
 356               	.LM52:
 357 0128 82E0      		ldi r24,lo8(2)
 358 012a 8093 E900 		sts 233,r24
 359 012e A901      		movw r20,r18
 360               	.LBE567:
 361               	.LBE566:
 362               	.LBB568:
 363               	.LBB569:
 364               	.LBB570:
 365               	.LBB571:
 366               	.LM53:
 367 0130 A0E0      		ldi r26,lo8(_ZL19HostTXSerial_Buffer)
 368 0132 B0E0      		ldi r27,hi8(_ZL19HostTXSerial_Buffer)
 369               	.LBE571:
 370               	.LBE570:
 371               	.LBE569:
 372               	.LM54:
 373 0134 B901      		movw r22,r18
 374 0136 6F50      		subi r22,lo8(-(-15))
 375 0138 7040      		sbci r23,hi8(-(-15))
 376               	.LVL12:
 377               	.L29:
 378               	.LBB580:
 379               	.LBB579:
 380               	.LBB578:
 381               	.LM55:
 382 013a ED01      		movw r28,r26
 383               	.LM56:
 384 013c EA81      		ldd r30,Y+2
 385 013e FB81      		ldd r31,Y+3
 386 0140 3191      		ld r19,Z+
 387               	.LM57:
 388 0142 FB83      		std Y+3,r31
 389 0144 EA83      		std Y+2,r30
 390 0146 8E81      		ldd r24,Y+6
 391 0148 9F81      		ldd r25,Y+7
 392 014a E817      		cp r30,r24
 393 014c F907      		cpc r31,r25
 394 014e 01F4      		brne .L27
 395               	.LM58:
 396 0150 8C81      		ldd r24,Y+4
 397 0152 9D81      		ldd r25,Y+5
 398 0154 9B83      		std Y+3,r25
 399 0156 8A83      		std Y+2,r24
 400               	.L27:
 401               	.LBB572:
 402               	.LBB573:
 403               	.LM59:
 404               	.LM60:
 405 0158 2FB7      		in r18,__SREG__
 406               	.LBE573:
 407               	.LBE572:
 408               	.LBB574:
 409               	.LBB575:
 410               	.LM61:
 411               	.LM62:
 412               	/* #APP */
 413               	 ;  370 "./LUFA/Drivers/USB/../../Common/Common.h" 1
 414 015a F894      		cli
 415               	 ;  0 "" 2
 416               	.LM63:
 417               	/* #NOAPP */
 418               	.LBE575:
 419               	.LBE574:
 420               	.LM64:
 421 015c 8985      		ldd r24,Y+9
 422 015e 9A85      		ldd r25,Y+10
 423 0160 0197      		sbiw r24,1
 424 0162 9A87      		std Y+10,r25
 425 0164 8987      		std Y+9,r24
 426               	.LBB576:
 427               	.LBB577:
 428               	.LM65:
 429               	.LM66:
 430 0166 2FBF      		out __SREG__,r18
 431               	.LM67:
 432               	.LBE577:
 433               	.LBE576:
 434               	.LBE578:
 435               	.LBE579:
 436               	.LBE580:
 437               	.LM68:
 438 0168 3093 F100 		sts 241,r19
 439               	.LM69:
 440 016c 4617      		cp r20,r22
 441 016e 5707      		cpc r21,r23
 442 0170 01F0      		breq .L28
 443 0172 4150      		subi r20,lo8(-(-1))
 444 0174 5040      		sbci r21,hi8(-(-1))
 445 0176 01F4      		brne .L29
 446               	.L28:
 447               	.LBE568:
 448               	.LBB581:
 449               	.LBB582:
 450               	.LM70:
 451 0178 2091 F200 		lds r18,242
 452 017c 3091 F300 		lds r19,(242)+1
 453               	.LVL13:
 454               	.LBE582:
 455               	.LBE581:
 456               	.LBB583:
 457               	.LBB584:
 458               	.LM71:
 459 0180 8091 E800 		lds r24,232
 460 0184 8E77      		andi r24,lo8(126)
 461 0186 8093 E800 		sts 232,r24
 462               	.LBE584:
 463               	.LBE583:
 464               	.LM72:
 465 018a 2031      		cpi r18,16
 466 018c 3105      		cpc r19,__zero_reg__
 467 018e 01F4      		brne .L26
 468               	.LM73:
 469 0190 0E94 0000 		call Endpoint_WaitUntilReady
 470               	.LVL14:
 471               	.LBB585:
 472               	.LBB586:
 473               	.LM74:
 474 0194 8091 E800 		lds r24,232
 475 0198 8E77      		andi r24,lo8(126)
 476 019a 8093 E800 		sts 232,r24
 477               	.LVL15:
 478               	.L26:
 479               	.LBE586:
 480               	.LBE585:
 481               	.LBE565:
 482               	.LBB587:
 483               	.LBB588:
 484               	.LM75:
 485 019e 83E0      		ldi r24,lo8(3)
 486               	.LVL16:
 487 01a0 8093 E900 		sts 233,r24
 488               	.LBE588:
 489               	.LBE587:
 490               	.LBB589:
 491               	.LBB590:
 492               	.LM76:
 493 01a4 8091 E800 		lds r24,232
 494               	.LBE590:
 495               	.LBE589:
 496               	.LM77:
 497 01a8 82FF      		sbrs r24,2
 498 01aa 00C0      		rjmp .L33
 499               	.LBB591:
 500               	.LBB592:
 501               	.LM78:
 502 01ac 6091 F200 		lds r22,242
 503 01b0 7091 F300 		lds r23,(242)+1
 504               	.LVL17:
 505 01b4 40E0      		ldi r20,lo8(0)
 506               	.LVL18:
 507               	.LBE592:
 508               	.LBE591:
 509               	.LBB593:
 510               	.LBB594:
 511               	.LBB595:
 512               	.LBB596:
 513               	.LBB597:
 514               	.LM79:
 515 01b6 A0E0      		ldi r26,lo8(_ZL19HostRXSerial_Buffer)
 516 01b8 B0E0      		ldi r27,hi8(_ZL19HostRXSerial_Buffer)
 517 01ba 00C0      		rjmp .L30
 518               	.LVL19:
 519               	.L32:
 520               	.LBE597:
 521               	.LBE596:
 522               	.LBE595:
 523               	.LM80:
 524 01bc 8091 F100 		lds r24,241
 525               	.LVL20:
 526               	.LBB606:
 527               	.LBB605:
 528               	.LBB604:
 529               	.LM81:
 530 01c0 ED01      		movw r28,r26
 531               	.LVL21:
 532               	.LM82:
 533 01c2 E881      		ld r30,Y
 534 01c4 F981      		ldd r31,Y+1
 535 01c6 8083      		st Z,r24
 536               	.LM83:
 537 01c8 8881      		ld r24,Y
 538 01ca 9981      		ldd r25,Y+1
 539               	.LVL22:
 540 01cc 0196      		adiw r24,1
 541 01ce 9983      		std Y+1,r25
 542 01d0 8883      		st Y,r24
 543 01d2 2E81      		ldd r18,Y+6
 544 01d4 3F81      		ldd r19,Y+7
 545               	.LVL23:
 546 01d6 8217      		cp r24,r18
 547 01d8 9307      		cpc r25,r19
 548 01da 01F4      		brne .L31
 549               	.LM84:
 550 01dc 8C81      		ldd r24,Y+4
 551 01de 9D81      		ldd r25,Y+5
 552 01e0 9983      		std Y+1,r25
 553 01e2 8883      		st Y,r24
 554               	.L31:
 555               	.LBB598:
 556               	.LBB599:
 557               	.LM85:
 558               	.LM86:
 559 01e4 2FB7      		in r18,__SREG__
 560               	.LVL24:
 561               	.LBE599:
 562               	.LBE598:
 563               	.LBB600:
 564               	.LBB601:
 565               	.LM87:
 566               	.LM88:
 567               	/* #APP */
 568               	 ;  370 "./LUFA/Drivers/USB/../../Common/Common.h" 1
 569 01e6 F894      		cli
 570               	 ;  0 "" 2
 571               	.LM89:
 572               	/* #NOAPP */
 573               	.LBE601:
 574               	.LBE600:
 575               	.LM90:
 576 01e8 8985      		ldd r24,Y+9
 577 01ea 9A85      		ldd r25,Y+10
 578 01ec 0196      		adiw r24,1
 579 01ee 9A87      		std Y+10,r25
 580 01f0 8987      		std Y+9,r24
 581               	.LBB602:
 582               	.LBB603:
 583               	.LM91:
 584               	.LM92:
 585 01f2 2FBF      		out __SREG__,r18
 586               	.LM93:
 587               	.LBE603:
 588               	.LBE602:
 589               	.LBE604:
 590               	.LBE605:
 591               	.LBE606:
 592               	.LBE594:
 593               	.LM94:
 594 01f4 4F5F      		subi r20,lo8(-(1))
 595               	.LVL25:
 596               	.L30:
 597 01f6 842F      		mov r24,r20
 598 01f8 90E0      		ldi r25,lo8(0)
 599 01fa 8617      		cp r24,r22
 600 01fc 9707      		cpc r25,r23
 601 01fe 00F0      		brlo .L32
 602               	.LVL26:
 603               	.LBE593:
 604               	.LBB607:
 605               	.LBB608:
 606               	.LM95:
 607 0200 8091 E800 		lds r24,232
 608               	.LVL27:
 609 0204 8B77      		andi r24,lo8(123)
 610 0206 8093 E800 		sts 232,r24
 611               	.LVL28:
 612               	.L33:
 613               	/* epilogue start */
 614               	.LBE608:
 615               	.LBE607:
 616               	.LBE555:
 617               	.LM96:
 618 020a DF91      		pop r29
 619 020c CF91      		pop r28
 620               	.LVL29:
 621 020e 0895      		ret
 622               	.LFE161:
 624               	.global	EVENT_USB_Device_ControlRequest
 626               	EVENT_USB_Device_ControlRequest:
 627               	.LFB160:
 628               	.LM97:
 629 0210 0F93      		push r16
 630 0212 1F93      		push r17
 631               	/* prologue: function */
 632               	/* frame size = 0 */
 633               	.LM98:
 634 0214 8091 0000 		lds r24,USB_ControlRequest+1
 635 0218 8032      		cpi r24,lo8(32)
 636 021a 01F4      		brne .+2
 637 021c 00C0      		rjmp .L39
 638 021e 8132      		cpi r24,lo8(33)
 639 0220 00F4      		brsh .L42
 640 0222 8130      		cpi r24,lo8(1)
 641 0224 01F0      		breq .L37
 642 0226 8930      		cpi r24,lo8(9)
 643 0228 01F0      		breq .+2
 644 022a 00C0      		rjmp .L43
 645 022c 00C0      		rjmp .L47
 646               	.L42:
 647 022e 8132      		cpi r24,lo8(33)
 648 0230 01F0      		breq .L40
 649 0232 8232      		cpi r24,lo8(34)
 650 0234 01F0      		breq .+2
 651 0236 00C0      		rjmp .L43
 652 0238 00C0      		rjmp .L48
 653               	.L37:
 654               	.LM99:
 655 023a 8091 0000 		lds r24,USB_ControlRequest
 656 023e 813A      		cpi r24,lo8(-95)
 657 0240 01F0      		breq .+2
 658 0242 00C0      		rjmp .L43
 659               	.LBB609:
 660               	.LBB610:
 661               	.LM100:
 662 0244 8091 E800 		lds r24,232
 663 0248 877F      		andi r24,lo8(-9)
 664 024a 8093 E800 		sts 232,r24
 665               	.LBE610:
 666               	.LBE609:
 667               	.LM101:
 668 024e 00E0      		ldi r16,lo8(HIDReportInData)
 669 0250 10E0      		ldi r17,hi8(HIDReportInData)
 670 0252 C801      		movw r24,r16
 671 0254 69E0      		ldi r22,lo8(9)
 672 0256 70E0      		ldi r23,hi8(9)
 673 0258 0E94 0000 		call Endpoint_Write_Control_Stream_LE
 674               	.LM102:
 675 025c 89E0      		ldi r24,lo8(9)
 676 025e F801      		movw r30,r16
 677 0260 1192      		st Z+,__zero_reg__
 678 0262 8A95      	        dec r24
 679 0264 01F4      		brne .-6
 680 0266 00C0      		rjmp .L45
 681               	.L47:
 682               	.LM103:
 683 0268 8091 0000 		lds r24,USB_ControlRequest
 684 026c 8132      		cpi r24,lo8(33)
 685 026e 01F4      		brne .L43
 686               	.LBB611:
 687               	.LBB612:
 688               	.LM104:
 689 0270 8091 E800 		lds r24,232
 690 0274 877F      		andi r24,lo8(-9)
 691 0276 8093 E800 		sts 232,r24
 692               	.LBE612:
 693               	.LBE611:
 694               	.LM105:
 695 027a 80E0      		ldi r24,lo8(HIDReportOutData)
 696 027c 90E0      		ldi r25,hi8(HIDReportOutData)
 697 027e 69E0      		ldi r22,lo8(9)
 698 0280 70E0      		ldi r23,hi8(9)
 699               	.L46:
 700 0282 0E94 0000 		call Endpoint_Read_Control_Stream_LE
 701               	.LBB613:
 702               	.LBB614:
 703               	.LM106:
 704 0286 8091 E800 		lds r24,232
 705 028a 8E77      		andi r24,lo8(126)
 706               	.L44:
 707 028c 8093 E800 		sts 232,r24
 708 0290 00C0      		rjmp .L43
 709               	.L40:
 710               	.LBE614:
 711               	.LBE613:
 712               	.LM107:
 713 0292 8091 0000 		lds r24,USB_ControlRequest
 714 0296 813A      		cpi r24,lo8(-95)
 715 0298 01F4      		brne .L43
 716               	.LBB615:
 717               	.LBB616:
 718               	.LM108:
 719 029a 8091 E800 		lds r24,232
 720 029e 877F      		andi r24,lo8(-9)
 721 02a0 8093 E800 		sts 232,r24
 722               	.LBE616:
 723               	.LBE615:
 724               	.LM109:
 725 02a4 80E0      		ldi r24,lo8(_ZL16LineEncodingData)
 726 02a6 90E0      		ldi r25,hi8(_ZL16LineEncodingData)
 727 02a8 67E0      		ldi r22,lo8(7)
 728 02aa 70E0      		ldi r23,hi8(7)
 729 02ac 0E94 0000 		call Endpoint_Write_Control_Stream_LE
 730               	.L45:
 731               	.LBB617:
 732               	.LBB618:
 733               	.LM110:
 734 02b0 8091 E800 		lds r24,232
 735 02b4 8B77      		andi r24,lo8(123)
 736 02b6 00C0      		rjmp .L44
 737               	.L39:
 738               	.LBE618:
 739               	.LBE617:
 740               	.LM111:
 741 02b8 8091 0000 		lds r24,USB_ControlRequest
 742 02bc 8132      		cpi r24,lo8(33)
 743 02be 01F4      		brne .L43
 744               	.LBB619:
 745               	.LBB620:
 746               	.LM112:
 747 02c0 8091 E800 		lds r24,232
 748 02c4 877F      		andi r24,lo8(-9)
 749 02c6 8093 E800 		sts 232,r24
 750               	.LBE620:
 751               	.LBE619:
 752               	.LM113:
 753 02ca 80E0      		ldi r24,lo8(_ZL16LineEncodingData)
 754 02cc 90E0      		ldi r25,hi8(_ZL16LineEncodingData)
 755 02ce 67E0      		ldi r22,lo8(7)
 756 02d0 70E0      		ldi r23,hi8(7)
 757 02d2 00C0      		rjmp .L46
 758               	.L48:
 759               	.LM114:
 760 02d4 8091 0000 		lds r24,USB_ControlRequest
 761 02d8 8132      		cpi r24,lo8(33)
 762 02da 01F4      		brne .L43
 763               	.LBB621:
 764               	.LBB622:
 765               	.LM115:
 766 02dc 8091 E800 		lds r24,232
 767 02e0 877F      		andi r24,lo8(-9)
 768 02e2 8093 E800 		sts 232,r24
 769               	.LBE622:
 770               	.LBE621:
 771               	.LM116:
 772 02e6 0E94 0000 		call Endpoint_ClearStatusStage
 773               	.L43:
 774               	/* epilogue start */
 775               	.LM117:
 776 02ea 1F91      		pop r17
 777 02ec 0F91      		pop r16
 778 02ee 0895      		ret
 779               	.LFE160:
 781               	.global	EVENT_USB_Device_ConfigurationChanged
 783               	EVENT_USB_Device_ConfigurationChanged:
 784               	.LFB159:
 785               	.LM118:
 786 02f0 BF92      		push r11
 787 02f2 CF92      		push r12
 788 02f4 DF92      		push r13
 789 02f6 EF92      		push r14
 790 02f8 FF92      		push r15
 791 02fa 0F93      		push r16
 792 02fc 1F93      		push r17
 793               	/* prologue: function */
 794               	/* frame size = 0 */
 795               	.LBB623:
 796               	.LBB624:
 797               	.LM119:
 798 02fe 81E0      		ldi r24,lo8(1)
 799 0300 61EC      		ldi r22,lo8(-63)
 800 0302 42E0      		ldi r20,lo8(2)
 801 0304 0E94 0000 		call Endpoint_ConfigureEndpoint_Prv
 802 0308 082F      		mov r16,r24
 803               	.LBE624:
 804               	.LBB625:
 805 030a 82E0      		ldi r24,lo8(2)
 806 030c 61E8      		ldi r22,lo8(-127)
 807 030e 42E1      		ldi r20,lo8(18)
 808 0310 0E94 0000 		call Endpoint_ConfigureEndpoint_Prv
 809 0314 C82E      		mov r12,r24
 810               	.LBE625:
 811               	.LBB626:
 812 0316 83E0      		ldi r24,lo8(3)
 813 0318 60E8      		ldi r22,lo8(-128)
 814 031a 42E1      		ldi r20,lo8(18)
 815 031c 0E94 0000 		call Endpoint_ConfigureEndpoint_Prv
 816 0320 E82E      		mov r14,r24
 817               	.LBE626:
 818               	.LM120:
 819 0322 1092 0000 		sts _ZL16LineEncodingData,__zero_reg__
 820 0326 1092 0000 		sts (_ZL16LineEncodingData)+1,__zero_reg__
 821 032a 1092 0000 		sts (_ZL16LineEncodingData)+2,__zero_reg__
 822 032e 1092 0000 		sts (_ZL16LineEncodingData)+3,__zero_reg__
 823               	.LBB627:
 824               	.LM121:
 825 0332 84E0      		ldi r24,lo8(4)
 826 0334 61EC      		ldi r22,lo8(-63)
 827 0336 42E1      		ldi r20,lo8(18)
 828 0338 0E94 0000 		call Endpoint_ConfigureEndpoint_Prv
 829 033c B82E      		mov r11,r24
 830               	.LBE627:
 831               	.LBB628:
 832 033e 85E0      		ldi r24,lo8(5)
 833 0340 60EC      		ldi r22,lo8(-64)
 834 0342 42E1      		ldi r20,lo8(18)
 835 0344 0E94 0000 		call Endpoint_ConfigureEndpoint_Prv
 836 0348 682F      		mov r22,r24
 837               	.LBE628:
 838               	.LM122:
 839 034a 10E0      		ldi r17,lo8(0)
 840 034c DD24      		clr r13
 841 034e 0C21      		and r16,r12
 842 0350 1D21      		and r17,r13
 843 0352 0170      		andi r16,lo8(1)
 844 0354 1070      		andi r17,hi8(1)
 845 0356 FF24      		clr r15
 846 0358 0E21      		and r16,r14
 847 035a 1F21      		and r17,r15
 848               	.LM123:
 849 035c 40E0      		ldi r20,lo8(0)
 850 035e 50E0      		ldi r21,hi8(0)
 851 0360 012B      		or r16,r17
 852 0362 01F0      		breq .L50
 853 0364 41E0      		ldi r20,lo8(1)
 854 0366 50E0      		ldi r21,hi8(1)
 855               	.L50:
 856 0368 8B2D      		mov r24,r11
 857 036a 90E0      		ldi r25,lo8(0)
 858 036c 4823      		and r20,r24
 859 036e 5923      		and r21,r25
 860               	.LM124:
 861 0370 20E0      		ldi r18,lo8(0)
 862 0372 30E0      		ldi r19,hi8(0)
 863 0374 452B      		or r20,r21
 864 0376 01F0      		breq .L52
 865 0378 21E0      		ldi r18,lo8(1)
 866 037a 30E0      		ldi r19,hi8(1)
 867               	.L52:
 868 037c 862F      		mov r24,r22
 869 037e 90E0      		ldi r25,lo8(0)
 870 0380 2823      		and r18,r24
 871 0382 3923      		and r19,r25
 872 0384 232B      		or r18,r19
 873 0386 01F4      		brne .L51
 874 0388 90E2      		ldi r25,lo8(32)
 875 038a 00C0      		rjmp .L53
 876               	.L51:
 877 038c 90E4      		ldi r25,lo8(64)
 878               	.L53:
 879               	.LBB629:
 880               	.LBB630:
 881               	.LM125:
 882 038e 81B3      		in r24,49-32
 883 0390 8F71      		andi r24,lo8(31)
 884 0392 982B      		or r25,r24
 885 0394 91BB      		out 49-32,r25
 886               	/* epilogue start */
 887               	.LBE630:
 888               	.LBE629:
 889               	.LBE623:
 890               	.LM126:
 891 0396 1F91      		pop r17
 892 0398 0F91      		pop r16
 893 039a FF90      		pop r15
 894 039c EF90      		pop r14
 895 039e DF90      		pop r13
 896 03a0 CF90      		pop r12
 897 03a2 BF90      		pop r11
 898 03a4 0895      		ret
 899               	.LFE159:
 901               	.global	SetupHardware
 903               	SetupHardware:
 904               	.LFB156:
 905               	.LM127:
 906               	/* prologue: function */
 907               	/* frame size = 0 */
 908               	.LM128:
 909 03a6 84B7      		in r24,84-32
 910 03a8 877F      		andi r24,lo8(-9)
 911 03aa 84BF      		out 84-32,r24
 912               	.LM129:
 913 03ac 88E1      		ldi r24,lo8(24)
 914               	/* #APP */
 915               	 ;  151 "Keyglove.cpp" 1
 916 03ae 0FB6      		in __tmp_reg__, __SREG__
 917 03b0 F894      		cli
 918 03b2 8093 6000 		sts 96, r24
 919 03b6 1092 6000 		sts 96, __zero_reg__
 920 03ba 0FBE      		out __SREG__,__tmp_reg__
 921               		
 922               	 ;  0 "" 2
 923               	.LM130:
 924               	/* #NOAPP */
 925 03bc E1E6      		ldi r30,lo8(97)
 926 03be F0E0      		ldi r31,hi8(97)
 927 03c0 80E8      		ldi r24,lo8(-128)
 928 03c2 8083      		st Z,r24
 929 03c4 82E0      		ldi r24,lo8(2)
 930 03c6 8083      		st Z,r24
 931               	.LBB631:
 932               	.LBB632:
 933               	.LM131:
 934 03c8 569A      		sbi 42-32,6
 935               	.LM132:
 936 03ca 80B3      		in r24,48-32
 937 03cc 806E      		ori r24,lo8(-32)
 938 03ce 80BB      		out 48-32,r24
 939               	.LM133:
 940 03d0 81B3      		in r24,49-32
 941 03d2 8F71      		andi r24,lo8(31)
 942 03d4 81BB      		out 49-32,r24
 943               	.LBE632:
 944               	.LBE631:
 945               	.LM134:
 946 03d6 0E94 0000 		call USB_Init
 947               	/* epilogue start */
 948               	.LM135:
 949 03da 0895      		ret
 950               	.LFE156:
 952               	.global	_Z8tricolorhhh
 954               	_Z8tricolorhhh:
 955               	.LFB126:
 956               	.LM136:
 957               	.LVL30:
 958 03dc 0F93      		push r16
 959 03de 1F93      		push r17
 960               	/* prologue: function */
 961               	/* frame size = 0 */
 962 03e0 982F      		mov r25,r24
 963 03e2 162F      		mov r17,r22
 964 03e4 042F      		mov r16,r20
 965               	.LM137:
 966 03e6 8F3F      		cpi r24,lo8(-1)
 967 03e8 01F0      		breq .L58
 968               	.LVL31:
 969 03ea 8BE2      		ldi r24,lo8(43)
 970               	.LVL32:
 971 03ec 692F      		mov r22,r25
 972 03ee 0E94 0000 		call digitalWrite
 973               	.LVL33:
 974               	.L58:
 975               	.LM138:
 976 03f2 1F3F      		cpi r17,lo8(-1)
 977 03f4 01F0      		breq .L59
 978 03f6 8CE2      		ldi r24,lo8(44)
 979               	.LVL34:
 980 03f8 612F      		mov r22,r17
 981 03fa 0E94 0000 		call digitalWrite
 982               	.LVL35:
 983               	.L59:
 984               	.LM139:
 985 03fe 0F3F      		cpi r16,lo8(-1)
 986 0400 01F0      		breq .L61
 987 0402 8DE2      		ldi r24,lo8(45)
 988               	.LVL36:
 989 0404 602F      		mov r22,r16
 990 0406 0E94 0000 		call digitalWrite
 991               	.LVL37:
 992               	.L61:
 993               	/* epilogue start */
 994               	.LM140:
 995 040a 1F91      		pop r17
 996               	.LVL38:
 997 040c 0F91      		pop r16
 998               	.LVL39:
 999 040e 0895      		ret
 1000               	.LFE126:
 1002               		.data
 1003               	.LC0:
 1004 0000 746F 7563 		.string	"touchset mouseoff "
 1004      6873 6574 
 1004      206D 6F75 
 1004      7365 6F66 
 1004      6620 00
 1005               		.text
 1006               	.global	_Z8mouseoffi
 1008               	_Z8mouseoffi:
 1009               	.LFB133:
 1010               	.LM141:
 1011               	.LVL40:
 1012 0410 CF93      		push r28
 1013 0412 DF93      		push r29
 1014               	/* prologue: function */
 1015               	/* frame size = 0 */
 1016 0414 EC01      		movw r28,r24
 1017               	.LM142:
 1018 0416 80E0      		ldi r24,lo8(Serial)
 1019 0418 90E0      		ldi r25,hi8(Serial)
 1020               	.LVL41:
 1021 041a 60E0      		ldi r22,lo8(.LC0)
 1022 041c 70E0      		ldi r23,hi8(.LC0)
 1023 041e 0E94 0000 		call _ZN16USBVirtualSerial5printEPKc
 1024               	.LM143:
 1025 0422 80E0      		ldi r24,lo8(Serial)
 1026 0424 90E0      		ldi r25,hi8(Serial)
 1027 0426 BE01      		movw r22,r28
 1028 0428 0E94 0000 		call _ZN16USBVirtualSerial7printlnEi
 1029               	.LM144:
 1030 042c 2097      		sbiw r28,0
 1031 042e 01F4      		brne .L63
 1032               	.LM145:
 1033 0430 1092 0000 		sts opt_mouse_mode,__zero_reg__
 1034 0434 00C0      		rjmp .L65
 1035               	.L63:
 1036               	.LM146:
 1037 0436 2197      		sbiw r28,1
 1038 0438 01F4      		brne .L65
 1039               	.LM147:
 1040 043a 1092 0000 		sts opt_scroll_mode,__zero_reg__
 1041               	.L65:
 1042               	/* epilogue start */
 1043               	.LM148:
 1044 043e DF91      		pop r29
 1045 0440 CF91      		pop r28
 1046               	.LVL42:
 1047 0442 0895      		ret
 1048               	.LFE133:
 1050               		.data
 1051               	.LC1:
 1052 0013 746F 7563 		.string	"touchset mouseon "
 1052      6873 6574 
 1052      206D 6F75 
 1052      7365 6F6E 
 1052      2000 
 1053               		.text
 1054               	.global	_Z7mouseoni
 1056               	_Z7mouseoni:
 1057               	.LFB132:
 1058               	.LM149:
 1059               	.LVL43:
 1060 0444 CF93      		push r28
 1061 0446 DF93      		push r29
 1062               	/* prologue: function */
 1063               	/* frame size = 0 */
 1064 0448 EC01      		movw r28,r24
 1065               	.LM150:
 1066 044a 80E0      		ldi r24,lo8(Serial)
 1067 044c 90E0      		ldi r25,hi8(Serial)
 1068               	.LVL44:
 1069 044e 60E0      		ldi r22,lo8(.LC1)
 1070 0450 70E0      		ldi r23,hi8(.LC1)
 1071 0452 0E94 0000 		call _ZN16USBVirtualSerial5printEPKc
 1072               	.LM151:
 1073 0456 80E0      		ldi r24,lo8(Serial)
 1074 0458 90E0      		ldi r25,hi8(Serial)
 1075 045a BE01      		movw r22,r28
 1076 045c 0E94 0000 		call _ZN16USBVirtualSerial7printlnEi
 1077               	.LM152:
 1078 0460 2097      		sbiw r28,0
 1079 0462 01F4      		brne .L67
 1080               	.LM153:
 1081 0464 82E0      		ldi r24,lo8(2)
 1082 0466 8093 0000 		sts opt_mouse_mode,r24
 1083 046a 00C0      		rjmp .L69
 1084               	.L67:
 1085               	.LM154:
 1086 046c 2197      		sbiw r28,1
 1087 046e 01F4      		brne .L69
 1088               	.LM155:
 1089 0470 82E0      		ldi r24,lo8(2)
 1090 0472 8093 0000 		sts opt_scroll_mode,r24
 1091               	.L69:
 1092               	/* epilogue start */
 1093               	.LM156:
 1094 0476 DF91      		pop r29
 1095 0478 CF91      		pop r28
 1096               	.LVL45:
 1097 047a 0895      		ret
 1098               	.LFE132:
 1100               		.data
 1101               	.LC2:
 1102 0025 746F 7563 		.string	"touchset vibrate "
 1102      6873 6574 
 1102      2076 6962 
 1102      7261 7465 
 1102      2000 
 1103               	.LC3:
 1104 0037 2000      		.string	" "
 1105               		.text
 1106               	.global	_Z7vibrateii
 1108               	_Z7vibrateii:
 1109               	.LFB148:
 1110               	.LM157:
 1111               	.LVL46:
 1112 047c CF92      		push r12
 1113 047e DF92      		push r13
 1114 0480 EF92      		push r14
 1115 0482 FF92      		push r15
 1116 0484 0F93      		push r16
 1117 0486 1F93      		push r17
 1118               	/* prologue: function */
 1119               	/* frame size = 0 */
 1120 0488 8C01      		movw r16,r24
 1121 048a 6B01      		movw r12,r22
 1122               	.LM158:
 1123 048c 90E0      		ldi r25,lo8(Serial)
 1124 048e E92E      		mov r14,r25
 1125 0490 90E0      		ldi r25,hi8(Serial)
 1126 0492 F92E      		mov r15,r25
 1127 0494 C701      		movw r24,r14
 1128               	.LVL47:
 1129 0496 60E0      		ldi r22,lo8(.LC2)
 1130 0498 70E0      		ldi r23,hi8(.LC2)
 1131               	.LVL48:
 1132 049a 0E94 0000 		call _ZN16USBVirtualSerial5printEPKc
 1133               	.LM159:
 1134 049e C701      		movw r24,r14
 1135 04a0 B801      		movw r22,r16
 1136 04a2 0E94 0000 		call _ZN16USBVirtualSerial5printEi
 1137               	.LM160:
 1138 04a6 C701      		movw r24,r14
 1139 04a8 60E0      		ldi r22,lo8(.LC3)
 1140 04aa 70E0      		ldi r23,hi8(.LC3)
 1141 04ac 0E94 0000 		call _ZN16USBVirtualSerial5printEPKc
 1142               	.LM161:
 1143 04b0 C701      		movw r24,r14
 1144 04b2 B601      		movw r22,r12
 1145 04b4 0E94 0000 		call _ZN16USBVirtualSerial7printlnEi
 1146               	/* epilogue start */
 1147               	.LM162:
 1148 04b8 1F91      		pop r17
 1149 04ba 0F91      		pop r16
 1150               	.LVL49:
 1151 04bc FF90      		pop r15
 1152 04be EF90      		pop r14
 1153 04c0 DF90      		pop r13
 1154 04c2 CF90      		pop r12
 1155               	.LVL50:
 1156 04c4 0895      		ret
 1157               	.LFE148:
 1159               		.data
 1160               	.LC4:
 1161 0039 746F 7563 		.string	"touchset blueled "
 1161      6873 6574 
 1161      2062 6C75 
 1161      656C 6564 
 1161      2000 
 1162               		.text
 1163               	.global	_Z7blueledii
 1165               	_Z7blueledii:
 1166               	.LFB146:
 1167               	.LM163:
 1168               	.LVL51:
 1169 04c6 0F93      		push r16
 1170 04c8 1F93      		push r17
 1171 04ca CF93      		push r28
 1172 04cc DF93      		push r29
 1173               	/* prologue: function */
 1174               	/* frame size = 0 */
 1175 04ce EC01      		movw r28,r24
 1176 04d0 8B01      		movw r16,r22
 1177               	.LM164:
 1178 04d2 80E0      		ldi r24,lo8(Serial)
 1179 04d4 90E0      		ldi r25,hi8(Serial)
 1180               	.LVL52:
 1181 04d6 60E0      		ldi r22,lo8(.LC4)
 1182 04d8 70E0      		ldi r23,hi8(.LC4)
 1183               	.LVL53:
 1184 04da 0E94 0000 		call _ZN16USBVirtualSerial5printEPKc
 1185               	.LM165:
 1186 04de 80E0      		ldi r24,lo8(Serial)
 1187 04e0 90E0      		ldi r25,hi8(Serial)
 1188 04e2 BE01      		movw r22,r28
 1189 04e4 0E94 0000 		call _ZN16USBVirtualSerial5printEi
 1190               	.LM166:
 1191 04e8 80E0      		ldi r24,lo8(Serial)
 1192 04ea 90E0      		ldi r25,hi8(Serial)
 1193 04ec 60E0      		ldi r22,lo8(.LC3)
 1194 04ee 70E0      		ldi r23,hi8(.LC3)
 1195 04f0 0E94 0000 		call _ZN16USBVirtualSerial5printEPKc
 1196               	.LM167:
 1197 04f4 80E0      		ldi r24,lo8(Serial)
 1198 04f6 90E0      		ldi r25,hi8(Serial)
 1199 04f8 B801      		movw r22,r16
 1200 04fa 0E94 0000 		call _ZN16USBVirtualSerial7printlnEi
 1201               	.LM168:
 1202 04fe C230      		cpi r28,2
 1203 0500 D105      		cpc r29,__zero_reg__
 1204 0502 01F0      		breq .L78
 1205 0504 C330      		cpi r28,3
 1206 0506 D105      		cpc r29,__zero_reg__
 1207 0508 04F4      		brge .L80
 1208 050a 2097      		sbiw r28,0
 1209 050c 01F0      		breq .L74
 1210 050e C130      		cpi r28,1
 1211 0510 D105      		cpc r29,__zero_reg__
 1212 0512 01F4      		brne .L81
 1213 0514 00C0      		rjmp .L78
 1214               	.L80:
 1215 0516 C430      		cpi r28,4
 1216 0518 D105      		cpc r29,__zero_reg__
 1217 051a 01F0      		breq .L78
 1218 051c C430      		cpi r28,4
 1219 051e D105      		cpc r29,__zero_reg__
 1220 0520 04F0      		brlt .L77
 1221 0522 2597      		sbiw r28,5
 1222 0524 01F4      		brne .L81
 1223 0526 00C0      		rjmp .L84
 1224               	.L74:
 1225               	.LM169:
 1226 0528 1092 0000 		sts (tricolorBlinkBlue)+1,__zero_reg__
 1227 052c 1092 0000 		sts tricolorBlinkBlue,__zero_reg__
 1228 0530 8FEF      		ldi r24,lo8(-1)
 1229 0532 6FEF      		ldi r22,lo8(-1)
 1230 0534 40E0      		ldi r20,lo8(0)
 1231 0536 00C0      		rjmp .L83
 1232               	.L77:
 1233               	.LM170:
 1234 0538 83E0      		ldi r24,lo8(3)
 1235 053a 90E0      		ldi r25,hi8(3)
 1236 053c 9093 0000 		sts (tricolorBlinkBlue)+1,r25
 1237 0540 8093 0000 		sts tricolorBlinkBlue,r24
 1238 0544 00C0      		rjmp .L82
 1239               	.L78:
 1240               	.LM171:
 1241 0546 D093 0000 		sts (tricolorBlinkBlue)+1,r29
 1242 054a C093 0000 		sts tricolorBlinkBlue,r28
 1243 054e 00C0      		rjmp .L82
 1244               	.L84:
 1245               	.LM172:
 1246 0550 1092 0000 		sts (tricolorBlinkBlue)+1,__zero_reg__
 1247 0554 1092 0000 		sts tricolorBlinkBlue,__zero_reg__
 1248               	.L82:
 1249 0558 8FEF      		ldi r24,lo8(-1)
 1250 055a 6FEF      		ldi r22,lo8(-1)
 1251 055c 41E0      		ldi r20,lo8(1)
 1252               	.L83:
 1253 055e 0E94 0000 		call _Z8tricolorhhh
 1254               	.L81:
 1255               	/* epilogue start */
 1256               	.LM173:
 1257 0562 DF91      		pop r29
 1258 0564 CF91      		pop r28
 1259               	.LVL54:
 1260 0566 1F91      		pop r17
 1261 0568 0F91      		pop r16
 1262               	.LVL55:
 1263 056a 0895      		ret
 1264               	.LFE146:
 1266               		.data
 1267               	.LC5:
 1268 004b 746F 7563 		.string	"touchset greenled "
 1268      6873 6574 
 1268      2067 7265 
 1268      656E 6C65 
 1268      6420 00
 1269               		.text
 1270               	.global	_Z8greenledii
 1272               	_Z8greenledii:
 1273               	.LFB145:
 1274               	.LM174:
 1275               	.LVL56:
 1276 056c 0F93      		push r16
 1277 056e 1F93      		push r17
 1278 0570 CF93      		push r28
 1279 0572 DF93      		push r29
 1280               	/* prologue: function */
 1281               	/* frame size = 0 */
 1282 0574 EC01      		movw r28,r24
 1283 0576 8B01      		movw r16,r22
 1284               	.LM175:
 1285 0578 80E0      		ldi r24,lo8(Serial)
 1286 057a 90E0      		ldi r25,hi8(Serial)
 1287               	.LVL57:
 1288 057c 60E0      		ldi r22,lo8(.LC5)
 1289 057e 70E0      		ldi r23,hi8(.LC5)
 1290               	.LVL58:
 1291 0580 0E94 0000 		call _ZN16USBVirtualSerial5printEPKc
 1292               	.LM176:
 1293 0584 80E0      		ldi r24,lo8(Serial)
 1294 0586 90E0      		ldi r25,hi8(Serial)
 1295 0588 BE01      		movw r22,r28
 1296 058a 0E94 0000 		call _ZN16USBVirtualSerial5printEi
 1297               	.LM177:
 1298 058e 80E0      		ldi r24,lo8(Serial)
 1299 0590 90E0      		ldi r25,hi8(Serial)
 1300 0592 60E0      		ldi r22,lo8(.LC3)
 1301 0594 70E0      		ldi r23,hi8(.LC3)
 1302 0596 0E94 0000 		call _ZN16USBVirtualSerial5printEPKc
 1303               	.LM178:
 1304 059a 80E0      		ldi r24,lo8(Serial)
 1305 059c 90E0      		ldi r25,hi8(Serial)
 1306 059e B801      		movw r22,r16
 1307 05a0 0E94 0000 		call _ZN16USBVirtualSerial7printlnEi
 1308               	.LM179:
 1309 05a4 C230      		cpi r28,2
 1310 05a6 D105      		cpc r29,__zero_reg__
 1311 05a8 01F0      		breq .L91
 1312 05aa C330      		cpi r28,3
 1313 05ac D105      		cpc r29,__zero_reg__
 1314 05ae 04F4      		brge .L93
 1315 05b0 2097      		sbiw r28,0
 1316 05b2 01F0      		breq .L87
 1317 05b4 C130      		cpi r28,1
 1318 05b6 D105      		cpc r29,__zero_reg__
 1319 05b8 01F4      		brne .L94
 1320 05ba 00C0      		rjmp .L91
 1321               	.L93:
 1322 05bc C430      		cpi r28,4
 1323 05be D105      		cpc r29,__zero_reg__
 1324 05c0 01F0      		breq .L91
 1325 05c2 C430      		cpi r28,4
 1326 05c4 D105      		cpc r29,__zero_reg__
 1327 05c6 04F0      		brlt .L90
 1328 05c8 2597      		sbiw r28,5
 1329 05ca 01F4      		brne .L94
 1330 05cc 00C0      		rjmp .L97
 1331               	.L87:
 1332               	.LM180:
 1333 05ce 1092 0000 		sts (tricolorBlinkGreen)+1,__zero_reg__
 1334 05d2 1092 0000 		sts tricolorBlinkGreen,__zero_reg__
 1335 05d6 8FEF      		ldi r24,lo8(-1)
 1336 05d8 60E0      		ldi r22,lo8(0)
 1337 05da 00C0      		rjmp .L96
 1338               	.L90:
 1339               	.LM181:
 1340 05dc 83E0      		ldi r24,lo8(3)
 1341 05de 90E0      		ldi r25,hi8(3)
 1342 05e0 9093 0000 		sts (tricolorBlinkGreen)+1,r25
 1343 05e4 8093 0000 		sts tricolorBlinkGreen,r24
 1344 05e8 00C0      		rjmp .L95
 1345               	.L91:
 1346               	.LM182:
 1347 05ea D093 0000 		sts (tricolorBlinkGreen)+1,r29
 1348 05ee C093 0000 		sts tricolorBlinkGreen,r28
 1349 05f2 00C0      		rjmp .L95
 1350               	.L97:
 1351               	.LM183:
 1352 05f4 1092 0000 		sts (tricolorBlinkGreen)+1,__zero_reg__
 1353 05f8 1092 0000 		sts tricolorBlinkGreen,__zero_reg__
 1354               	.L95:
 1355 05fc 8FEF      		ldi r24,lo8(-1)
 1356 05fe 61E0      		ldi r22,lo8(1)
 1357               	.L96:
 1358 0600 4FEF      		ldi r20,lo8(-1)
 1359 0602 0E94 0000 		call _Z8tricolorhhh
 1360               	.L94:
 1361               	/* epilogue start */
 1362               	.LM184:
 1363 0606 DF91      		pop r29
 1364 0608 CF91      		pop r28
 1365               	.LVL59:
 1366 060a 1F91      		pop r17
 1367 060c 0F91      		pop r16
 1368               	.LVL60:
 1369 060e 0895      		ret
 1370               	.LFE145:
 1372               		.data
 1373               	.LC6:
 1374 005e 746F 7563 		.string	"touchset redled "
 1374      6873 6574 
 1374      2072 6564 
 1374      6C65 6420 
 1374      00
 1375               		.text
 1376               	.global	_Z6redledii
 1378               	_Z6redledii:
 1379               	.LFB144:
 1380               	.LM185:
 1381               	.LVL61:
 1382 0610 0F93      		push r16
 1383 0612 1F93      		push r17
 1384 0614 CF93      		push r28
 1385 0616 DF93      		push r29
 1386               	/* prologue: function */
 1387               	/* frame size = 0 */
 1388 0618 EC01      		movw r28,r24
 1389 061a 8B01      		movw r16,r22
 1390               	.LM186:
 1391 061c 80E0      		ldi r24,lo8(Serial)
 1392 061e 90E0      		ldi r25,hi8(Serial)
 1393               	.LVL62:
 1394 0620 60E0      		ldi r22,lo8(.LC6)
 1395 0622 70E0      		ldi r23,hi8(.LC6)
 1396               	.LVL63:
 1397 0624 0E94 0000 		call _ZN16USBVirtualSerial5printEPKc
 1398               	.LM187:
 1399 0628 80E0      		ldi r24,lo8(Serial)
 1400 062a 90E0      		ldi r25,hi8(Serial)
 1401 062c BE01      		movw r22,r28
 1402 062e 0E94 0000 		call _ZN16USBVirtualSerial5printEi
 1403               	.LM188:
 1404 0632 80E0      		ldi r24,lo8(Serial)
 1405 0634 90E0      		ldi r25,hi8(Serial)
 1406 0636 60E0      		ldi r22,lo8(.LC3)
 1407 0638 70E0      		ldi r23,hi8(.LC3)
 1408 063a 0E94 0000 		call _ZN16USBVirtualSerial5printEPKc
 1409               	.LM189:
 1410 063e 80E0      		ldi r24,lo8(Serial)
 1411 0640 90E0      		ldi r25,hi8(Serial)
 1412 0642 B801      		movw r22,r16
 1413 0644 0E94 0000 		call _ZN16USBVirtualSerial7printlnEi
 1414               	.LM190:
 1415 0648 C230      		cpi r28,2
 1416 064a D105      		cpc r29,__zero_reg__
 1417 064c 01F0      		breq .L104
 1418 064e C330      		cpi r28,3
 1419 0650 D105      		cpc r29,__zero_reg__
 1420 0652 04F4      		brge .L106
 1421 0654 2097      		sbiw r28,0
 1422 0656 01F0      		breq .L100
 1423 0658 C130      		cpi r28,1
 1424 065a D105      		cpc r29,__zero_reg__
 1425 065c 01F4      		brne .L107
 1426 065e 00C0      		rjmp .L104
 1427               	.L106:
 1428 0660 C430      		cpi r28,4
 1429 0662 D105      		cpc r29,__zero_reg__
 1430 0664 01F0      		breq .L104
 1431 0666 C430      		cpi r28,4
 1432 0668 D105      		cpc r29,__zero_reg__
 1433 066a 04F0      		brlt .L103
 1434 066c 2597      		sbiw r28,5
 1435 066e 01F4      		brne .L107
 1436 0670 00C0      		rjmp .L110
 1437               	.L100:
 1438               	.LM191:
 1439 0672 1092 0000 		sts (tricolorBlinkRed)+1,__zero_reg__
 1440 0676 1092 0000 		sts tricolorBlinkRed,__zero_reg__
 1441 067a 80E0      		ldi r24,lo8(0)
 1442 067c 00C0      		rjmp .L109
 1443               	.L103:
 1444               	.LM192:
 1445 067e 83E0      		ldi r24,lo8(3)
 1446 0680 90E0      		ldi r25,hi8(3)
 1447 0682 9093 0000 		sts (tricolorBlinkRed)+1,r25
 1448 0686 8093 0000 		sts tricolorBlinkRed,r24
 1449 068a 00C0      		rjmp .L108
 1450               	.L104:
 1451               	.LM193:
 1452 068c D093 0000 		sts (tricolorBlinkRed)+1,r29
 1453 0690 C093 0000 		sts tricolorBlinkRed,r28
 1454 0694 00C0      		rjmp .L108
 1455               	.L110:
 1456               	.LM194:
 1457 0696 1092 0000 		sts (tricolorBlinkRed)+1,__zero_reg__
 1458 069a 1092 0000 		sts tricolorBlinkRed,__zero_reg__
 1459               	.L108:
 1460 069e 81E0      		ldi r24,lo8(1)
 1461               	.L109:
 1462 06a0 6FEF      		ldi r22,lo8(-1)
 1463 06a2 4FEF      		ldi r20,lo8(-1)
 1464 06a4 0E94 0000 		call _Z8tricolorhhh
 1465               	.L107:
 1466               	/* epilogue start */
 1467               	.LM195:
 1468 06a8 DF91      		pop r29
 1469 06aa CF91      		pop r28
 1470               	.LVL64:
 1471 06ac 1F91      		pop r17
 1472 06ae 0F91      		pop r16
 1473               	.LVL65:
 1474 06b0 0895      		ret
 1475               	.LFE144:
 1477               		.data
 1478               	.LC7:
 1479 006f 746F 7563 		.string	"touchset beep "
 1479      6873 6574 
 1479      2062 6565 
 1479      7020 00
 1480               		.text
 1481               	.global	_Z4beepiii
 1483               	_Z4beepiii:
 1484               	.LFB147:
 1485               	.LM196:
 1486               	.LVL66:
 1487 06b2 CF92      		push r12
 1488 06b4 DF92      		push r13
 1489 06b6 EF92      		push r14
 1490 06b8 FF92      		push r15
 1491 06ba 0F93      		push r16
 1492 06bc 1F93      		push r17
 1493 06be CF93      		push r28
 1494 06c0 DF93      		push r29
 1495               	/* prologue: function */
 1496               	/* frame size = 0 */
 1497 06c2 6C01      		movw r12,r24
 1498 06c4 EB01      		movw r28,r22
 1499 06c6 7A01      		movw r14,r20
 1500               	.LBB633:
 1501               	.LM197:
 1502 06c8 80E0      		ldi r24,lo8(Serial)
 1503 06ca 90E0      		ldi r25,hi8(Serial)
 1504               	.LVL67:
 1505 06cc 60E0      		ldi r22,lo8(.LC7)
 1506 06ce 70E0      		ldi r23,hi8(.LC7)
 1507               	.LVL68:
 1508 06d0 0E94 0000 		call _ZN16USBVirtualSerial5printEPKc
 1509               	.LVL69:
 1510               	.LM198:
 1511 06d4 80E0      		ldi r24,lo8(Serial)
 1512 06d6 90E0      		ldi r25,hi8(Serial)
 1513 06d8 B601      		movw r22,r12
 1514 06da 0E94 0000 		call _ZN16USBVirtualSerial5printEi
 1515               	.LM199:
 1516 06de 80E0      		ldi r24,lo8(Serial)
 1517 06e0 90E0      		ldi r25,hi8(Serial)
 1518 06e2 60E0      		ldi r22,lo8(.LC3)
 1519 06e4 70E0      		ldi r23,hi8(.LC3)
 1520 06e6 0E94 0000 		call _ZN16USBVirtualSerial5printEPKc
 1521               	.LM200:
 1522 06ea 80E0      		ldi r24,lo8(Serial)
 1523 06ec 90E0      		ldi r25,hi8(Serial)
 1524 06ee BE01      		movw r22,r28
 1525 06f0 0E94 0000 		call _ZN16USBVirtualSerial5printEi
 1526               	.LM201:
 1527 06f4 80E0      		ldi r24,lo8(Serial)
 1528 06f6 90E0      		ldi r25,hi8(Serial)
 1529 06f8 60E0      		ldi r22,lo8(.LC3)
 1530 06fa 70E0      		ldi r23,hi8(.LC3)
 1531 06fc 0E94 0000 		call _ZN16USBVirtualSerial5printEPKc
 1532               	.LM202:
 1533 0700 80E0      		ldi r24,lo8(Serial)
 1534 0702 90E0      		ldi r25,hi8(Serial)
 1535 0704 B701      		movw r22,r14
 1536 0706 0E94 0000 		call _ZN16USBVirtualSerial7printlnEi
 1537               	.LM203:
 1538 070a 2097      		sbiw r28,0
 1539 070c 01F4      		brne .L112
 1540               	.LM204:
 1541 070e 8AE2      		ldi r24,lo8(42)
 1542 0710 0E94 0000 		call _Z6noToneh
 1543 0714 00C0      		rjmp .L120
 1544               	.L112:
 1545               	.LM205:
 1546 0716 C430      		cpi r28,4
 1547 0718 D105      		cpc r29,__zero_reg__
 1548 071a 01F4      		brne .L114
 1549 071c 04E6      		ldi r16,lo8(100)
 1550 071e 10E0      		ldi r17,hi8(100)
 1551               	.LVL70:
 1552 0720 00C0      		rjmp .L115
 1553               	.LVL71:
 1554               	.L114:
 1555               	.LM206:
 1556 0722 2397      		sbiw r28,3
 1557 0724 01F4      		brne .L116
 1558 0726 09E1      		ldi r16,lo8(25)
 1559 0728 10E0      		ldi r17,hi8(25)
 1560               	.LVL72:
 1561 072a 00C0      		rjmp .L115
 1562               	.LVL73:
 1563               	.L116:
 1564 072c 08EE      		ldi r16,lo8(1000)
 1565 072e 13E0      		ldi r17,hi8(1000)
 1566               	.LVL74:
 1567               	.L115:
 1568 0730 C0E0      		ldi r28,lo8(0)
 1569 0732 D0E0      		ldi r29,hi8(0)
 1570               	.LVL75:
 1571 0734 00C0      		rjmp .L117
 1572               	.L119:
 1573               	.LBB634:
 1574               	.LM207:
 1575 0736 1C16      		cp __zero_reg__,r28
 1576 0738 1D06      		cpc __zero_reg__,r29
 1577 073a 04F4      		brge .L118
 1578               	.LM208:
 1579 073c 60E5      		ldi r22,lo8(80)
 1580 073e 70E0      		ldi r23,hi8(80)
 1581 0740 80E0      		ldi r24,hlo8(80)
 1582 0742 90E0      		ldi r25,hhi8(80)
 1583 0744 0E94 0000 		call delay
 1584               	.L118:
 1585               	.LM209:
 1586 0748 8AE2      		ldi r24,lo8(42)
 1587 074a B601      		movw r22,r12
 1588 074c A801      		movw r20,r16
 1589 074e 0E94 0000 		call _Z4tonehjj
 1590               	.LM210:
 1591 0752 2196      		adiw r28,1
 1592               	.L117:
 1593 0754 CE15      		cp r28,r14
 1594 0756 DF05      		cpc r29,r15
 1595 0758 04F0      		brlt .L119
 1596               	.LVL76:
 1597               	.L120:
 1598               	/* epilogue start */
 1599               	.LBE634:
 1600               	.LBE633:
 1601               	.LM211:
 1602 075a DF91      		pop r29
 1603 075c CF91      		pop r28
 1604               	.LVL77:
 1605 075e 1F91      		pop r17
 1606 0760 0F91      		pop r16
 1607               	.LVL78:
 1608 0762 FF90      		pop r15
 1609 0764 EF90      		pop r14
 1610               	.LVL79:
 1611 0766 DF90      		pop r13
 1612 0768 CF90      		pop r12
 1613               	.LVL80:
 1614 076a 0895      		ret
 1615               	.LFE147:
 1617               		.data
 1618               	.LC8:
 1619 007e 746F 7563 		.string	"touchset modifierup "
 1619      6873 6574 
 1619      206D 6F64 
 1619      6966 6965 
 1619      7275 7020 
 1620               		.text
 1621               	.global	_Z10modifierupi
 1623               	_Z10modifierupi:
 1624               	.LFB141:
 1625               	.LM212:
 1626               	.LVL81:
 1627 076c CF93      		push r28
 1628 076e DF93      		push r29
 1629               	/* prologue: function */
 1630               	/* frame size = 0 */
 1631 0770 EC01      		movw r28,r24
 1632               	.LM213:
 1633 0772 80E0      		ldi r24,lo8(Serial)
 1634 0774 90E0      		ldi r25,hi8(Serial)
 1635               	.LVL82:
 1636 0776 60E0      		ldi r22,lo8(.LC8)
 1637 0778 70E0      		ldi r23,hi8(.LC8)
 1638 077a 0E94 0000 		call _ZN16USBVirtualSerial5printEPKc
 1639               	.LM214:
 1640 077e 80E0      		ldi r24,lo8(Serial)
 1641 0780 90E0      		ldi r25,hi8(Serial)
 1642 0782 BE01      		movw r22,r28
 1643 0784 0E94 0000 		call _ZN16USBVirtualSerial7printlnEi
 1644               	.LM215:
 1645 0788 6091 0000 		lds r22,modifiersDown
 1646 078c 7091 0000 		lds r23,(modifiersDown)+1
 1647 0790 CE01      		movw r24,r28
 1648 0792 8623      		and r24,r22
 1649 0794 9723      		and r25,r23
 1650 0796 1816      		cp __zero_reg__,r24
 1651 0798 1906      		cpc __zero_reg__,r25
 1652 079a 04F4      		brge .L123
 1653               	.LM216:
 1654 079c 6C1B      		sub r22,r28
 1655 079e 7D0B      		sbc r23,r29
 1656 07a0 7093 0000 		sts (modifiersDown)+1,r23
 1657 07a4 6093 0000 		sts modifiersDown,r22
 1658               	.LM217:
 1659 07a8 80E0      		ldi r24,lo8(Keyboard)
 1660 07aa 90E0      		ldi r25,hi8(Keyboard)
 1661 07ac 0E94 0000 		call _ZN11USBKeyboard12set_modifierEh
 1662               	.LM218:
 1663 07b0 80E0      		ldi r24,lo8(Keyboard)
 1664 07b2 90E0      		ldi r25,hi8(Keyboard)
 1665 07b4 0E94 0000 		call _ZN11USBKeyboard8send_nowEv
 1666               	.L123:
 1667               	/* epilogue start */
 1668               	.LM219:
 1669 07b8 DF91      		pop r29
 1670 07ba CF91      		pop r28
 1671               	.LVL83:
 1672 07bc 0895      		ret
 1673               	.LFE141:
 1675               	.global	_Z15deactivate_modei
 1677               	_Z15deactivate_modei:
 1678               	.LFB150:
 1679               	.LM220:
 1680               	.LVL84:
 1681               	/* prologue: function */
 1682               	/* frame size = 0 */
 1683               	.LM221:
 1684 07be 0497      		sbiw r24,4
 1685 07c0 01F4      		brne .L127
 1686               	.LM222:
 1687 07c2 88E0      		ldi r24,lo8(8)
 1688 07c4 90E0      		ldi r25,hi8(8)
 1689               	.LVL85:
 1690 07c6 0E94 0000 		call _Z10modifierupi
 1691               	.LVL86:
 1692               	.L127:
 1693 07ca 0895      		ret
 1694               	.LFE150:
 1696               		.data
 1697               	.LC9:
 1698 0093 746F 7563 		.string	"touchset modifierdown "
 1698      6873 6574 
 1698      206D 6F64 
 1698      6966 6965 
 1698      7264 6F77 
 1699               		.text
 1700               	.global	_Z12modifierdowni
 1702               	_Z12modifierdowni:
 1703               	.LFB140:
 1704               	.LM223:
 1705               	.LVL87:
 1706 07cc EF92      		push r14
 1707 07ce FF92      		push r15
 1708 07d0 0F93      		push r16
 1709 07d2 1F93      		push r17
 1710               	/* prologue: function */
 1711               	/* frame size = 0 */
 1712 07d4 7C01      		movw r14,r24
 1713               	.LM224:
 1714 07d6 00E0      		ldi r16,lo8(Serial)
 1715 07d8 10E0      		ldi r17,hi8(Serial)
 1716 07da C801      		movw r24,r16
 1717               	.LVL88:
 1718 07dc 60E0      		ldi r22,lo8(.LC9)
 1719 07de 70E0      		ldi r23,hi8(.LC9)
 1720 07e0 0E94 0000 		call _ZN16USBVirtualSerial5printEPKc
 1721               	.LM225:
 1722 07e4 C801      		movw r24,r16
 1723 07e6 B701      		movw r22,r14
 1724 07e8 0E94 0000 		call _ZN16USBVirtualSerial7printlnEi
 1725               	.LM226:
 1726 07ec 6091 0000 		lds r22,modifiersDown
 1727 07f0 7091 0000 		lds r23,(modifiersDown)+1
 1728 07f4 6E29      		or r22,r14
 1729 07f6 7F29      		or r23,r15
 1730 07f8 7093 0000 		sts (modifiersDown)+1,r23
 1731 07fc 6093 0000 		sts modifiersDown,r22
 1732               	.LM227:
 1733 0800 00E0      		ldi r16,lo8(Keyboard)
 1734 0802 10E0      		ldi r17,hi8(Keyboard)
 1735 0804 C801      		movw r24,r16
 1736 0806 0E94 0000 		call _ZN11USBKeyboard12set_modifierEh
 1737               	.LM228:
 1738 080a C801      		movw r24,r16
 1739 080c 0E94 0000 		call _ZN11USBKeyboard8send_nowEv
 1740               	/* epilogue start */
 1741               	.LM229:
 1742 0810 1F91      		pop r17
 1743 0812 0F91      		pop r16
 1744 0814 FF90      		pop r15
 1745 0816 EF90      		pop r14
 1746               	.LVL89:
 1747 0818 0895      		ret
 1748               	.LFE140:
 1750               	.global	_Z13activate_modei
 1752               	_Z13activate_modei:
 1753               	.LFB149:
 1754               	.LM230:
 1755               	.LVL90:
 1756               	/* prologue: function */
 1757               	/* frame size = 0 */
 1758               	.LM231:
 1759 081a 8230      		cpi r24,2
 1760 081c 9105      		cpc r25,__zero_reg__
 1761 081e 01F0      		breq .L134
 1762 0820 8330      		cpi r24,3
 1763 0822 9105      		cpc r25,__zero_reg__
 1764 0824 04F4      		brge .L137
 1765 0826 0097      		sbiw r24,0
 1766 0828 01F0      		breq .L132
 1767 082a 0197      		sbiw r24,1
 1768 082c 01F0      		breq .+2
 1769 082e 00C0      		rjmp .L138
 1770 0830 00C0      		rjmp .L142
 1771               	.L137:
 1772 0832 8330      		cpi r24,3
 1773 0834 9105      		cpc r25,__zero_reg__
 1774 0836 01F0      		breq .L135
 1775 0838 0497      		sbiw r24,4
 1776 083a 01F0      		breq .+2
 1777 083c 00C0      		rjmp .L138
 1778 083e 00C0      		rjmp .L143
 1779               	.L132:
 1780               	.LM232:
 1781 0840 80ED      		ldi r24,lo8(2000)
 1782 0842 97E0      		ldi r25,hi8(2000)
 1783               	.LVL91:
 1784 0844 63E0      		ldi r22,lo8(3)
 1785 0846 70E0      		ldi r23,hi8(3)
 1786 0848 41E0      		ldi r20,lo8(1)
 1787 084a 50E0      		ldi r21,hi8(1)
 1788 084c 0E94 0000 		call _Z4beepiii
 1789               	.LM233:
 1790 0850 80E0      		ldi r24,lo8(0)
 1791 0852 90E0      		ldi r25,hi8(0)
 1792 0854 60E0      		ldi r22,lo8(0)
 1793 0856 70E0      		ldi r23,hi8(0)
 1794 0858 0E94 0000 		call _Z6redledii
 1795               	.LM234:
 1796 085c 85E0      		ldi r24,lo8(5)
 1797 085e 90E0      		ldi r25,hi8(5)
 1798 0860 00C0      		rjmp .L140
 1799               	.LVL92:
 1800               	.L142:
 1801               	.LM235:
 1802 0862 80ED      		ldi r24,lo8(2000)
 1803 0864 97E0      		ldi r25,hi8(2000)
 1804               	.LVL93:
 1805 0866 63E0      		ldi r22,lo8(3)
 1806 0868 70E0      		ldi r23,hi8(3)
 1807 086a 42E0      		ldi r20,lo8(2)
 1808 086c 50E0      		ldi r21,hi8(2)
 1809 086e 0E94 0000 		call _Z4beepiii
 1810               	.LM236:
 1811 0872 80E0      		ldi r24,lo8(0)
 1812 0874 90E0      		ldi r25,hi8(0)
 1813 0876 60E0      		ldi r22,lo8(0)
 1814 0878 70E0      		ldi r23,hi8(0)
 1815 087a 0E94 0000 		call _Z6redledii
 1816               	.LM237:
 1817 087e 80E0      		ldi r24,lo8(0)
 1818 0880 90E0      		ldi r25,hi8(0)
 1819 0882 00C0      		rjmp .L141
 1820               	.LVL94:
 1821               	.L134:
 1822               	.LM238:
 1823 0884 80ED      		ldi r24,lo8(2000)
 1824 0886 97E0      		ldi r25,hi8(2000)
 1825               	.LVL95:
 1826 0888 63E0      		ldi r22,lo8(3)
 1827 088a 70E0      		ldi r23,hi8(3)
 1828 088c 43E0      		ldi r20,lo8(3)
 1829 088e 50E0      		ldi r21,hi8(3)
 1830 0890 0E94 0000 		call _Z4beepiii
 1831               	.LM239:
 1832 0894 80E0      		ldi r24,lo8(0)
 1833 0896 90E0      		ldi r25,hi8(0)
 1834 0898 60E0      		ldi r22,lo8(0)
 1835 089a 70E0      		ldi r23,hi8(0)
 1836 089c 0E94 0000 		call _Z6redledii
 1837               	.LM240:
 1838 08a0 85E0      		ldi r24,lo8(5)
 1839 08a2 90E0      		ldi r25,hi8(5)
 1840               	.L141:
 1841 08a4 60E0      		ldi r22,lo8(0)
 1842 08a6 70E0      		ldi r23,hi8(0)
 1843 08a8 0E94 0000 		call _Z8greenledii
 1844               	.LM241:
 1845 08ac 85E0      		ldi r24,lo8(5)
 1846 08ae 90E0      		ldi r25,hi8(5)
 1847 08b0 00C0      		rjmp .L139
 1848               	.LVL96:
 1849               	.L135:
 1850               	.LM242:
 1851 08b2 80ED      		ldi r24,lo8(2000)
 1852 08b4 97E0      		ldi r25,hi8(2000)
 1853               	.LVL97:
 1854 08b6 63E0      		ldi r22,lo8(3)
 1855 08b8 70E0      		ldi r23,hi8(3)
 1856 08ba 44E0      		ldi r20,lo8(4)
 1857 08bc 50E0      		ldi r21,hi8(4)
 1858 08be 0E94 0000 		call _Z4beepiii
 1859               	.LM243:
 1860 08c2 85E0      		ldi r24,lo8(5)
 1861 08c4 90E0      		ldi r25,hi8(5)
 1862 08c6 60E0      		ldi r22,lo8(0)
 1863 08c8 70E0      		ldi r23,hi8(0)
 1864 08ca 0E94 0000 		call _Z6redledii
 1865               	.LM244:
 1866 08ce 80E0      		ldi r24,lo8(0)
 1867 08d0 90E0      		ldi r25,hi8(0)
 1868               	.L140:
 1869 08d2 60E0      		ldi r22,lo8(0)
 1870 08d4 70E0      		ldi r23,hi8(0)
 1871 08d6 0E94 0000 		call _Z8greenledii
 1872               	.LM245:
 1873 08da 80E0      		ldi r24,lo8(0)
 1874 08dc 90E0      		ldi r25,hi8(0)
 1875               	.L139:
 1876 08de 60E0      		ldi r22,lo8(0)
 1877 08e0 70E0      		ldi r23,hi8(0)
 1878 08e2 0E94 0000 		call _Z7blueledii
 1879 08e6 0895      		ret
 1880               	.LVL98:
 1881               	.L143:
 1882               	.LM246:
 1883 08e8 80E4      		ldi r24,lo8(1600)
 1884 08ea 96E0      		ldi r25,hi8(1600)
 1885               	.LVL99:
 1886 08ec 64E0      		ldi r22,lo8(4)
 1887 08ee 70E0      		ldi r23,hi8(4)
 1888 08f0 41E0      		ldi r20,lo8(1)
 1889 08f2 50E0      		ldi r21,hi8(1)
 1890 08f4 0E94 0000 		call _Z4beepiii
 1891               	.LM247:
 1892 08f8 83E0      		ldi r24,lo8(3)
 1893 08fa 90E0      		ldi r25,hi8(3)
 1894 08fc 60E0      		ldi r22,lo8(0)
 1895 08fe 70E0      		ldi r23,hi8(0)
 1896 0900 0E94 0000 		call _Z8greenledii
 1897               	.LM248:
 1898 0904 88E0      		ldi r24,lo8(8)
 1899 0906 90E0      		ldi r25,hi8(8)
 1900 0908 0E94 0000 		call _Z12modifierdowni
 1901               	.LVL100:
 1902               	.L138:
 1903 090c 0895      		ret
 1904               	.LFE149:
 1906               		.data
 1907               	.LC10:
 1908 00aa 746F 7563 		.string	"touchset popmode"
 1908      6873 6574 
 1908      2070 6F70 
 1908      6D6F 6465 
 1908      00
 1909               		.text
 1910               	.global	_Z7popmodev
 1912               	_Z7popmodev:
 1913               	.LFB130:
 1914               	.LM249:
 1915               	/* prologue: function */
 1916               	/* frame size = 0 */
 1917               	.LM250:
 1918 090e 80E0      		ldi r24,lo8(Serial)
 1919 0910 90E0      		ldi r25,hi8(Serial)
 1920 0912 60E0      		ldi r22,lo8(.LC10)
 1921 0914 70E0      		ldi r23,hi8(.LC10)
 1922 0916 0E94 0000 		call _ZN16USBVirtualSerial7printlnEPKc
 1923               	.LM251:
 1924 091a E091 0000 		lds r30,modeStackPos
 1925 091e F091 0000 		lds r31,(modeStackPos)+1
 1926 0922 1E16      		cp __zero_reg__,r30
 1927 0924 1F06      		cpc __zero_reg__,r31
 1928 0926 04F4      		brge .L145
 1929 0928 3197      		sbiw r30,1
 1930 092a F093 0000 		sts (modeStackPos)+1,r31
 1931 092e E093 0000 		sts modeStackPos,r30
 1932 0932 EE0F      		lsl r30
 1933 0934 FF1F      		rol r31
 1934 0936 E050      		subi r30,lo8(-(modeStack))
 1935 0938 F040      		sbci r31,hi8(-(modeStack))
 1936 093a 8081      		ld r24,Z
 1937 093c 9181      		ldd r25,Z+1
 1938 093e 0E94 0000 		call _Z15deactivate_modei
 1939               	.L145:
 1940               	.LM252:
 1941 0942 8091 0000 		lds r24,modeStackPos
 1942 0946 9091 0000 		lds r25,(modeStackPos)+1
 1943 094a 892B      		or r24,r25
 1944 094c 01F4      		brne .L146
 1945 094e 1092 0000 		sts (modeStack)+1,__zero_reg__
 1946 0952 1092 0000 		sts modeStack,__zero_reg__
 1947 0956 81E0      		ldi r24,lo8(1)
 1948 0958 90E0      		ldi r25,hi8(1)
 1949 095a 9093 0000 		sts (modeStackPos)+1,r25
 1950 095e 8093 0000 		sts modeStackPos,r24
 1951               	.L146:
 1952               	.LM253:
 1953 0962 E091 0000 		lds r30,modeStackPos
 1954 0966 F091 0000 		lds r31,(modeStackPos)+1
 1955 096a EE0F      		lsl r30
 1956 096c FF1F      		rol r31
 1957 096e E050      		subi r30,lo8(-(modeStack-2))
 1958 0970 F040      		sbci r31,hi8(-(modeStack-2))
 1959 0972 8081      		ld r24,Z
 1960 0974 9181      		ldd r25,Z+1
 1961 0976 0E94 0000 		call _Z13activate_modei
 1962               	/* epilogue start */
 1963               	.LM254:
 1964 097a 0895      		ret
 1965               	.LFE130:
 1967               		.data
 1968               	.LC11:
 1969 00bb 746F 7563 		.string	"touchset pushmode "
 1969      6873 6574 
 1969      2070 7573 
 1969      686D 6F64 
 1969      6520 00
 1970               		.text
 1971               	.global	_Z8pushmodei
 1973               	_Z8pushmodei:
 1974               	.LFB129:
 1975               	.LM255:
 1976               	.LVL101:
 1977 097c CF93      		push r28
 1978 097e DF93      		push r29
 1979               	/* prologue: function */
 1980               	/* frame size = 0 */
 1981 0980 EC01      		movw r28,r24
 1982               	.LM256:
 1983 0982 80E0      		ldi r24,lo8(Serial)
 1984 0984 90E0      		ldi r25,hi8(Serial)
 1985               	.LVL102:
 1986 0986 60E0      		ldi r22,lo8(.LC11)
 1987 0988 70E0      		ldi r23,hi8(.LC11)
 1988 098a 0E94 0000 		call _ZN16USBVirtualSerial5printEPKc
 1989               	.LM257:
 1990 098e 80E0      		ldi r24,lo8(Serial)
 1991 0990 90E0      		ldi r25,hi8(Serial)
 1992 0992 BE01      		movw r22,r28
 1993 0994 0E94 0000 		call _ZN16USBVirtualSerial7printlnEi
 1994               	.LM258:
 1995 0998 8091 0000 		lds r24,modeStackPos
 1996 099c 9091 0000 		lds r25,(modeStackPos)+1
 1997 09a0 8A30      		cpi r24,10
 1998 09a2 9105      		cpc r25,__zero_reg__
 1999 09a4 04F4      		brge .L150
 2000               	.LM259:
 2001 09a6 FC01      		movw r30,r24
 2002 09a8 EE0F      		lsl r30
 2003 09aa FF1F      		rol r31
 2004 09ac E050      		subi r30,lo8(-(modeStack))
 2005 09ae F040      		sbci r31,hi8(-(modeStack))
 2006 09b0 D183      		std Z+1,r29
 2007 09b2 C083      		st Z,r28
 2008               	.LM260:
 2009 09b4 0196      		adiw r24,1
 2010 09b6 9093 0000 		sts (modeStackPos)+1,r25
 2011 09ba 8093 0000 		sts modeStackPos,r24
 2012               	.LM261:
 2013 09be CE01      		movw r24,r28
 2014 09c0 0E94 0000 		call _Z13activate_modei
 2015               	.L150:
 2016               	/* epilogue start */
 2017               	.LM262:
 2018 09c4 DF91      		pop r29
 2019 09c6 CF91      		pop r28
 2020               	.LVL103:
 2021 09c8 0895      		ret
 2022               	.LFE129:
 2024               		.data
 2025               	.LC12:
 2026 00ce 746F 7563 		.string	"touchset togglemode "
 2026      6873 6574 
 2026      2074 6F67 
 2026      676C 656D 
 2026      6F64 6520 
 2027               		.text
 2028               	.global	_Z10togglemodei
 2030               	_Z10togglemodei:
 2031               	.LFB131:
 2032               	.LM263:
 2033               	.LVL104:
 2034 09ca 0F93      		push r16
 2035 09cc 1F93      		push r17
 2036 09ce CF93      		push r28
 2037 09d0 DF93      		push r29
 2038               	/* prologue: function */
 2039               	/* frame size = 0 */
 2040 09d2 8C01      		movw r16,r24
 2041               	.LBB635:
 2042               	.LM264:
 2043 09d4 80E0      		ldi r24,lo8(Serial)
 2044 09d6 90E0      		ldi r25,hi8(Serial)
 2045               	.LVL105:
 2046 09d8 60E0      		ldi r22,lo8(.LC12)
 2047 09da 70E0      		ldi r23,hi8(.LC12)
 2048 09dc 0E94 0000 		call _ZN16USBVirtualSerial5printEPKc
 2049               	.LM265:
 2050 09e0 80E0      		ldi r24,lo8(Serial)
 2051 09e2 90E0      		ldi r25,hi8(Serial)
 2052 09e4 B801      		movw r22,r16
 2053 09e6 0E94 0000 		call _ZN16USBVirtualSerial7printlnEi
 2054               	.LM266:
 2055 09ea 2091 0000 		lds r18,modeStackPos
 2056 09ee 3091 0000 		lds r19,(modeStackPos)+1
 2057 09f2 E0E0      		ldi r30,lo8(modeStack)
 2058 09f4 F0E0      		ldi r31,hi8(modeStack)
 2059 09f6 C0E0      		ldi r28,lo8(0)
 2060 09f8 D0E0      		ldi r29,hi8(0)
 2061               	.LVL106:
 2062 09fa 00C0      		rjmp .L152
 2063               	.L154:
 2064 09fc 2196      		adiw r28,1
 2065               	.L152:
 2066 09fe C217      		cp r28,r18
 2067 0a00 D307      		cpc r29,r19
 2068 0a02 04F4      		brge .L153
 2069 0a04 8191      		ld r24,Z+
 2070 0a06 9191      		ld r25,Z+
 2071 0a08 8017      		cp r24,r16
 2072 0a0a 9107      		cpc r25,r17
 2073 0a0c 01F4      		brne .L154
 2074 0a0e 00C0      		rjmp .L161
 2075               	.L153:
 2076               	.LM267:
 2077 0a10 C801      		movw r24,r16
 2078 0a12 0E94 0000 		call _Z8pushmodei
 2079 0a16 00C0      		rjmp .L159
 2080               	.LVL107:
 2081               	.L157:
 2082               	.LM268:
 2083 0a18 8281      		ldd r24,Z+2
 2084 0a1a 9381      		ldd r25,Z+3
 2085 0a1c 8193      		st Z+,r24
 2086 0a1e 9193      		st Z+,r25
 2087               	.L158:
 2088 0a20 2F5F      		subi r18,lo8(-(1))
 2089 0a22 3F4F      		sbci r19,hi8(-(1))
 2090 0a24 2417      		cp r18,r20
 2091 0a26 3507      		cpc r19,r21
 2092 0a28 04F0      		brlt .L157
 2093               	.LM269:
 2094 0a2a 4150      		subi r20,lo8(-(-1))
 2095 0a2c 5040      		sbci r21,hi8(-(-1))
 2096 0a2e 5093 0000 		sts (modeStackPos)+1,r21
 2097 0a32 4093 0000 		sts modeStackPos,r20
 2098 0a36 00C0      		rjmp .L159
 2099               	.LVL108:
 2100               	.L161:
 2101               	.LM270:
 2102 0a38 C801      		movw r24,r16
 2103 0a3a 0E94 0000 		call _Z15deactivate_modei
 2104               	.LM271:
 2105 0a3e 4091 0000 		lds r20,modeStackPos
 2106 0a42 5091 0000 		lds r21,(modeStackPos)+1
 2107 0a46 9E01      		movw r18,r28
 2108 0a48 FE01      		movw r30,r28
 2109               	.LVL109:
 2110 0a4a EE0F      		lsl r30
 2111 0a4c FF1F      		rol r31
 2112 0a4e E050      		subi r30,lo8(-(modeStack))
 2113 0a50 F040      		sbci r31,hi8(-(modeStack))
 2114 0a52 00C0      		rjmp .L158
 2115               	.LVL110:
 2116               	.L159:
 2117               	/* epilogue start */
 2118               	.LBE635:
 2119               	.LM272:
 2120 0a54 DF91      		pop r29
 2121 0a56 CF91      		pop r28
 2122               	.LVL111:
 2123 0a58 1F91      		pop r17
 2124 0a5a 0F91      		pop r16
 2125               	.LVL112:
 2126 0a5c 0895      		ret
 2127               	.LFE131:
 2129               		.data
 2130               	.LC13:
 2131 00e3 746F 7563 		.string	"touchset setmode "
 2131      6873 6574 
 2131      2073 6574 
 2131      6D6F 6465 
 2131      2000 
 2132               		.text
 2133               	.global	_Z7setmodei
 2135               	_Z7setmodei:
 2136               	.LFB128:
 2137               	.LM273:
 2138               	.LVL113:
 2139 0a5e CF93      		push r28
 2140 0a60 DF93      		push r29
 2141               	/* prologue: function */
 2142               	/* frame size = 0 */
 2143 0a62 EC01      		movw r28,r24
 2144               	.LM274:
 2145 0a64 80E0      		ldi r24,lo8(Serial)
 2146 0a66 90E0      		ldi r25,hi8(Serial)
 2147               	.LVL114:
 2148 0a68 60E0      		ldi r22,lo8(.LC13)
 2149 0a6a 70E0      		ldi r23,hi8(.LC13)
 2150 0a6c 0E94 0000 		call _ZN16USBVirtualSerial5printEPKc
 2151               	.LM275:
 2152 0a70 80E0      		ldi r24,lo8(Serial)
 2153 0a72 90E0      		ldi r25,hi8(Serial)
 2154 0a74 BE01      		movw r22,r28
 2155 0a76 0E94 0000 		call _ZN16USBVirtualSerial7printlnEi
 2156 0a7a 00C0      		rjmp .L163
 2157               	.L164:
 2158               	.LM276:
 2159 0a7c EE0F      		lsl r30
 2160 0a7e FF1F      		rol r31
 2161 0a80 E050      		subi r30,lo8(-(modeStack-2))
 2162 0a82 F040      		sbci r31,hi8(-(modeStack-2))
 2163 0a84 8081      		ld r24,Z
 2164 0a86 9181      		ldd r25,Z+1
 2165 0a88 0E94 0000 		call _Z15deactivate_modei
 2166 0a8c 8091 0000 		lds r24,modeStackPos
 2167 0a90 9091 0000 		lds r25,(modeStackPos)+1
 2168 0a94 0197      		sbiw r24,1
 2169 0a96 9093 0000 		sts (modeStackPos)+1,r25
 2170 0a9a 8093 0000 		sts modeStackPos,r24
 2171               	.L163:
 2172 0a9e E091 0000 		lds r30,modeStackPos
 2173 0aa2 F091 0000 		lds r31,(modeStackPos)+1
 2174 0aa6 1E16      		cp __zero_reg__,r30
 2175 0aa8 1F06      		cpc __zero_reg__,r31
 2176 0aaa 04F0      		brlt .L164
 2177               	.LM277:
 2178 0aac 81E0      		ldi r24,lo8(1)
 2179 0aae 90E0      		ldi r25,hi8(1)
 2180 0ab0 9093 0000 		sts (modeStackPos)+1,r25
 2181 0ab4 8093 0000 		sts modeStackPos,r24
 2182               	.LM278:
 2183 0ab8 D093 0000 		sts (modeStack)+1,r29
 2184 0abc C093 0000 		sts modeStack,r28
 2185               	.LM279:
 2186 0ac0 CE01      		movw r24,r28
 2187 0ac2 0E94 0000 		call _Z13activate_modei
 2188               	/* epilogue start */
 2189               	.LM280:
 2190 0ac6 DF91      		pop r29
 2191 0ac8 CF91      		pop r28
 2192               	.LVL115:
 2193 0aca 0895      		ret
 2194               	.LFE128:
 2196               		.data
 2197               	.LC14:
 2198 00f5 696E 666F 		.string	"info Keyglove device activated"
 2198      204B 6579 
 2198      676C 6F76 
 2198      6520 6465 
 2198      7669 6365 
 2199               		.text
 2200               	.global	setup
 2202               	setup:
 2203               	.LFB153:
 2204               	.LM281:
 2205               	/* prologue: function */
 2206               	/* frame size = 0 */
 2207               	.LM282:
 2208 0acc 80E0      		ldi r24,lo8(Serial)
 2209 0ace 90E0      		ldi r25,hi8(Serial)
 2210 0ad0 40E0      		ldi r20,lo8(38400)
 2211 0ad2 56E9      		ldi r21,hi8(38400)
 2212 0ad4 60E0      		ldi r22,hlo8(38400)
 2213 0ad6 70E0      		ldi r23,hhi8(38400)
 2214 0ad8 0E94 0000 		call _ZN16USBVirtualSerial5beginEm
 2215               	.LM283:
 2216 0adc 80E0      		ldi r24,lo8(Serial)
 2217 0ade 90E0      		ldi r25,hi8(Serial)
 2218 0ae0 60E0      		ldi r22,lo8(.LC14)
 2219 0ae2 70E0      		ldi r23,hi8(.LC14)
 2220 0ae4 0E94 0000 		call _ZN16USBVirtualSerial7printlnEPKc
 2221               	.LM284:
 2222 0ae8 8BE2      		ldi r24,lo8(43)
 2223 0aea 61E0      		ldi r22,lo8(1)
 2224 0aec 0E94 0000 		call pinMode
 2225               	.LM285:
 2226 0af0 8CE2      		ldi r24,lo8(44)
 2227 0af2 61E0      		ldi r22,lo8(1)
 2228 0af4 0E94 0000 		call pinMode
 2229               	.LM286:
 2230 0af8 8DE2      		ldi r24,lo8(45)
 2231 0afa 61E0      		ldi r22,lo8(1)
 2232 0afc 0E94 0000 		call pinMode
 2233               	.LM287:
 2234 0b00 81E0      		ldi r24,lo8(1)
 2235 0b02 61E0      		ldi r22,lo8(1)
 2236 0b04 41E0      		ldi r20,lo8(1)
 2237 0b06 0E94 0000 		call _Z8tricolorhhh
 2238               	.LM288:
 2239 0b0a 64E6      		ldi r22,lo8(100)
 2240 0b0c 70E0      		ldi r23,hi8(100)
 2241 0b0e 80E0      		ldi r24,hlo8(100)
 2242 0b10 90E0      		ldi r25,hhi8(100)
 2243 0b12 0E94 0000 		call delay
 2244               	.LM289:
 2245 0b16 80E0      		ldi r24,lo8(0)
 2246 0b18 60E0      		ldi r22,lo8(0)
 2247 0b1a 40E0      		ldi r20,lo8(0)
 2248 0b1c 0E94 0000 		call _Z8tricolorhhh
 2249               	.LM290:
 2250 0b20 86E0      		ldi r24,lo8(6)
 2251 0b22 61E0      		ldi r22,lo8(1)
 2252 0b24 0E94 0000 		call pinMode
 2253               	.LM291:
 2254 0b28 86E0      		ldi r24,lo8(6)
 2255 0b2a 60E0      		ldi r22,lo8(0)
 2256 0b2c 0E94 0000 		call digitalWrite
 2257               	.LM292:
 2258 0b30 1092 0000 		sts blink_led,__zero_reg__
 2259               	.LM293:
 2260 0b34 1092 0000 		sts i,__zero_reg__
 2261 0b38 1092 0000 		sts (i)+1,__zero_reg__
 2262 0b3c 1092 0000 		sts (i)+2,__zero_reg__
 2263 0b40 1092 0000 		sts (i)+3,__zero_reg__
 2264 0b44 00C0      		rjmp .L167
 2265               	.L168:
 2266               	.LM294:
 2267 0b46 FC01      		movw r30,r24
 2268 0b48 EE0F      		lsl r30
 2269 0b4a FF1F      		rol r31
 2270 0b4c E050      		subi r30,lo8(-(pins))
 2271 0b4e F040      		sbci r31,hi8(-(pins))
 2272 0b50 8081      		ld r24,Z
 2273 0b52 60E0      		ldi r22,lo8(0)
 2274 0b54 0E94 0000 		call pinMode
 2275               	.LM295:
 2276 0b58 E091 0000 		lds r30,i
 2277 0b5c F091 0000 		lds r31,(i)+1
 2278 0b60 EE0F      		lsl r30
 2279 0b62 FF1F      		rol r31
 2280 0b64 E050      		subi r30,lo8(-(pins))
 2281 0b66 F040      		sbci r31,hi8(-(pins))
 2282 0b68 8081      		ld r24,Z
 2283 0b6a 61E0      		ldi r22,lo8(1)
 2284 0b6c 0E94 0000 		call digitalWrite
 2285               	.LM296:
 2286 0b70 8091 0000 		lds r24,i
 2287 0b74 9091 0000 		lds r25,(i)+1
 2288 0b78 A091 0000 		lds r26,(i)+2
 2289 0b7c B091 0000 		lds r27,(i)+3
 2290 0b80 0196      		adiw r24,1
 2291 0b82 A11D      		adc r26,__zero_reg__
 2292 0b84 B11D      		adc r27,__zero_reg__
 2293 0b86 8093 0000 		sts i,r24
 2294 0b8a 9093 0000 		sts (i)+1,r25
 2295 0b8e A093 0000 		sts (i)+2,r26
 2296 0b92 B093 0000 		sts (i)+3,r27
 2297               	.L167:
 2298 0b96 8091 0000 		lds r24,i
 2299 0b9a 9091 0000 		lds r25,(i)+1
 2300 0b9e A091 0000 		lds r26,(i)+2
 2301 0ba2 B091 0000 		lds r27,(i)+3
 2302 0ba6 8232      		cpi r24,lo8(34)
 2303 0ba8 9105      		cpc r25,__zero_reg__
 2304 0baa A105      		cpc r26,__zero_reg__
 2305 0bac B105      		cpc r27,__zero_reg__
 2306 0bae 04F0      		brlt .L168
 2307               	.LM297:
 2308 0bb0 1092 0000 		sts mode,__zero_reg__
 2309               	.LM298:
 2310 0bb4 80E0      		ldi r24,lo8(accel)
 2311 0bb6 90E0      		ldi r25,hi8(accel)
 2312 0bb8 0E94 0000 		call _ZN13Accelerometer7powerOnEv
 2313               	.LM299:
 2314 0bbc 80E0      		ldi r24,lo8(accel)
 2315 0bbe 90E0      		ldi r25,hi8(accel)
 2316 0bc0 40E0      		ldi r20,lo8(0x42c80000)
 2317 0bc2 50E0      		ldi r21,hi8(0x42c80000)
 2318 0bc4 68EC      		ldi r22,hlo8(0x42c80000)
 2319 0bc6 72E4      		ldi r23,hhi8(0x42c80000)
 2320 0bc8 0E94 0000 		call _ZN13Accelerometer7setRateEf
 2321               	.LM300:
 2322 0bcc 1092 0000 		sts (z)+1,__zero_reg__
 2323 0bd0 1092 0000 		sts z,__zero_reg__
 2324 0bd4 1092 0000 		sts (y)+1,__zero_reg__
 2325 0bd8 1092 0000 		sts y,__zero_reg__
 2326 0bdc 1092 0000 		sts (x)+1,__zero_reg__
 2327 0be0 1092 0000 		sts x,__zero_reg__
 2328               	.LM301:
 2329 0be4 1092 0000 		sts cz,__zero_reg__
 2330 0be8 1092 0000 		sts (cz)+1,__zero_reg__
 2331 0bec 1092 0000 		sts (cz)+2,__zero_reg__
 2332 0bf0 1092 0000 		sts (cz)+3,__zero_reg__
 2333 0bf4 1092 0000 		sts cy,__zero_reg__
 2334 0bf8 1092 0000 		sts (cy)+1,__zero_reg__
 2335 0bfc 1092 0000 		sts (cy)+2,__zero_reg__
 2336 0c00 1092 0000 		sts (cy)+3,__zero_reg__
 2337 0c04 1092 0000 		sts cx,__zero_reg__
 2338 0c08 1092 0000 		sts (cx)+1,__zero_reg__
 2339 0c0c 1092 0000 		sts (cx)+2,__zero_reg__
 2340 0c10 1092 0000 		sts (cx)+3,__zero_reg__
 2341               	.LM302:
 2342 0c14 1092 0000 		sts (az)+1,__zero_reg__
 2343 0c18 1092 0000 		sts az,__zero_reg__
 2344 0c1c 1092 0000 		sts (ay)+1,__zero_reg__
 2345 0c20 1092 0000 		sts ay,__zero_reg__
 2346 0c24 1092 0000 		sts (ax)+1,__zero_reg__
 2347 0c28 1092 0000 		sts ax,__zero_reg__
 2348               	.LM303:
 2349 0c2c 1092 0000 		sts accelMicros,__zero_reg__
 2350 0c30 1092 0000 		sts (accelMicros)+1,__zero_reg__
 2351 0c34 1092 0000 		sts (accelMicros)+2,__zero_reg__
 2352 0c38 1092 0000 		sts (accelMicros)+3,__zero_reg__
 2353               	.LM304:
 2354 0c3c 1092 0000 		sts (accelTick)+1,__zero_reg__
 2355 0c40 1092 0000 		sts accelTick,__zero_reg__
 2356               	.LM305:
 2357 0c44 1092 0000 		sts accelCalibrated,__zero_reg__
 2358               	.LM306:
 2359 0c48 1092 0000 		sts (zMin)+1,__zero_reg__
 2360 0c4c 1092 0000 		sts zMin,__zero_reg__
 2361 0c50 1092 0000 		sts (yMin)+1,__zero_reg__
 2362 0c54 1092 0000 		sts yMin,__zero_reg__
 2363 0c58 1092 0000 		sts (xMin)+1,__zero_reg__
 2364 0c5c 1092 0000 		sts xMin,__zero_reg__
 2365               	.LM307:
 2366 0c60 1092 0000 		sts (zMax)+1,__zero_reg__
 2367 0c64 1092 0000 		sts zMax,__zero_reg__
 2368 0c68 1092 0000 		sts (yMax)+1,__zero_reg__
 2369 0c6c 1092 0000 		sts yMax,__zero_reg__
 2370 0c70 1092 0000 		sts (xMax)+1,__zero_reg__
 2371 0c74 1092 0000 		sts xMax,__zero_reg__
 2372               	.LM308:
 2373 0c78 80E0      		ldi r24,lo8(gyro)
 2374 0c7a 90E0      		ldi r25,hi8(gyro)
 2375 0c7c 68E6      		ldi r22,lo8(104)
 2376 0c7e 70E0      		ldi r23,hi8(104)
 2377 0c80 0E94 0000 		call _ZN7ITG32004initEj
 2378               	.LM309:
 2379 0c84 1092 0000 		sts (gz)+1,__zero_reg__
 2380 0c88 1092 0000 		sts gz,__zero_reg__
 2381 0c8c 1092 0000 		sts (gy)+1,__zero_reg__
 2382 0c90 1092 0000 		sts gy,__zero_reg__
 2383 0c94 1092 0000 		sts (gx)+1,__zero_reg__
 2384 0c98 1092 0000 		sts gx,__zero_reg__
 2385               	.LM310:
 2386 0c9c 1092 0000 		sts gyroMicros,__zero_reg__
 2387 0ca0 1092 0000 		sts (gyroMicros)+1,__zero_reg__
 2388 0ca4 1092 0000 		sts (gyroMicros)+2,__zero_reg__
 2389 0ca8 1092 0000 		sts (gyroMicros)+3,__zero_reg__
 2390               	.LM311:
 2391 0cac 1092 0000 		sts (gyroTick)+1,__zero_reg__
 2392 0cb0 1092 0000 		sts gyroTick,__zero_reg__
 2393               	.LM312:
 2394 0cb4 1092 0000 		sts gyroCalibrated,__zero_reg__
 2395               	.LM313:
 2396 0cb8 1092 0000 		sts (gzMin)+1,__zero_reg__
 2397 0cbc 1092 0000 		sts gzMin,__zero_reg__
 2398 0cc0 1092 0000 		sts (gyMin)+1,__zero_reg__
 2399 0cc4 1092 0000 		sts gyMin,__zero_reg__
 2400 0cc8 1092 0000 		sts (gxMin)+1,__zero_reg__
 2401 0ccc 1092 0000 		sts gxMin,__zero_reg__
 2402               	.LM314:
 2403 0cd0 1092 0000 		sts (gzMax)+1,__zero_reg__
 2404 0cd4 1092 0000 		sts gzMax,__zero_reg__
 2405 0cd8 1092 0000 		sts (gyMax)+1,__zero_reg__
 2406 0cdc 1092 0000 		sts gyMax,__zero_reg__
 2407 0ce0 1092 0000 		sts (gxMax)+1,__zero_reg__
 2408 0ce4 1092 0000 		sts gxMax,__zero_reg__
 2409               	.LM315:
 2410 0ce8 1092 0000 		sts (mz0)+1,__zero_reg__
 2411 0cec 1092 0000 		sts mz0,__zero_reg__
 2412 0cf0 1092 0000 		sts (my0)+1,__zero_reg__
 2413 0cf4 1092 0000 		sts my0,__zero_reg__
 2414 0cf8 1092 0000 		sts (mx0)+1,__zero_reg__
 2415 0cfc 1092 0000 		sts mx0,__zero_reg__
 2416 0d00 1092 0000 		sts (mz)+1,__zero_reg__
 2417 0d04 1092 0000 		sts mz,__zero_reg__
 2418 0d08 1092 0000 		sts (my)+1,__zero_reg__
 2419 0d0c 1092 0000 		sts my,__zero_reg__
 2420 0d10 1092 0000 		sts (mx)+1,__zero_reg__
 2421 0d14 1092 0000 		sts mx,__zero_reg__
 2422               	.LM316:
 2423 0d18 1092 0000 		sts (sy0)+1,__zero_reg__
 2424 0d1c 1092 0000 		sts sy0,__zero_reg__
 2425 0d20 1092 0000 		sts (sy)+1,__zero_reg__
 2426 0d24 1092 0000 		sts sy,__zero_reg__
 2427               	.LM317:
 2428 0d28 89E2      		ldi r24,lo8(41)
 2429 0d2a 61E0      		ldi r22,lo8(1)
 2430 0d2c 0E94 0000 		call pinMode
 2431               	.LM318:
 2432 0d30 89E2      		ldi r24,lo8(41)
 2433 0d32 60E0      		ldi r22,lo8(0)
 2434 0d34 0E94 0000 		call digitalWrite
 2435               	.LM319:
 2436 0d38 64E6      		ldi r22,lo8(100)
 2437 0d3a 70E0      		ldi r23,hi8(100)
 2438 0d3c 80E0      		ldi r24,hlo8(100)
 2439 0d3e 90E0      		ldi r25,hhi8(100)
 2440 0d40 0E94 0000 		call delay
 2441               	.LM320:
 2442 0d44 89E2      		ldi r24,lo8(41)
 2443 0d46 61E0      		ldi r22,lo8(1)
 2444 0d48 0E94 0000 		call digitalWrite
 2445               	.LM321:
 2446 0d4c 8AE2      		ldi r24,lo8(42)
 2447 0d4e 60EE      		ldi r22,lo8(1760)
 2448 0d50 76E0      		ldi r23,hi8(1760)
 2449 0d52 49E1      		ldi r20,lo8(25)
 2450 0d54 50E0      		ldi r21,hi8(25)
 2451 0d56 0E94 0000 		call _Z4tonehjj
 2452               	.LM322:
 2453 0d5a 64E6      		ldi r22,lo8(100)
 2454 0d5c 70E0      		ldi r23,hi8(100)
 2455 0d5e 80E0      		ldi r24,hlo8(100)
 2456 0d60 90E0      		ldi r25,hhi8(100)
 2457 0d62 0E94 0000 		call delay
 2458               	.LM323:
 2459 0d66 8AE2      		ldi r24,lo8(42)
 2460 0d68 60EE      		ldi r22,lo8(1760)
 2461 0d6a 76E0      		ldi r23,hi8(1760)
 2462 0d6c 49E1      		ldi r20,lo8(25)
 2463 0d6e 50E0      		ldi r21,hi8(25)
 2464 0d70 0E94 0000 		call _Z4tonehjj
 2465               	.LM324:
 2466 0d74 80E0      		ldi r24,lo8(0)
 2467 0d76 90E0      		ldi r25,hi8(0)
 2468 0d78 0E94 0000 		call _Z7setmodei
 2469               	.LM325:
 2470 0d7c 0E94 0000 		call millis
 2471 0d80 6093 0000 		sts t,r22
 2472 0d84 7093 0000 		sts (t)+1,r23
 2473 0d88 8093 0000 		sts (t)+2,r24
 2474 0d8c 9093 0000 		sts (t)+3,r25
 2475               	/* epilogue start */
 2476               	.LM326:
 2477 0d90 0895      		ret
 2478               	.LFE153:
 2480               		.data
 2481               	.LC15:
 2482 0114 746F 7563 		.string	"touchset modifierpress "
 2482      6873 6574 
 2482      206D 6F64 
 2482      6966 6965 
 2482      7270 7265 
 2483               		.text
 2484               	.global	_Z13modifierpressi
 2486               	_Z13modifierpressi:
 2487               	.LFB143:
 2488               	.LM327:
 2489               	.LVL116:
 2490 0d92 EF92      		push r14
 2491 0d94 FF92      		push r15
 2492 0d96 0F93      		push r16
 2493 0d98 1F93      		push r17
 2494               	/* prologue: function */
 2495               	/* frame size = 0 */
 2496 0d9a 7C01      		movw r14,r24
 2497               	.LM328:
 2498 0d9c 00E0      		ldi r16,lo8(Serial)
 2499 0d9e 10E0      		ldi r17,hi8(Serial)
 2500 0da0 C801      		movw r24,r16
 2501               	.LVL117:
 2502 0da2 60E0      		ldi r22,lo8(.LC15)
 2503 0da4 70E0      		ldi r23,hi8(.LC15)
 2504 0da6 0E94 0000 		call _ZN16USBVirtualSerial5printEPKc
 2505               	.LM329:
 2506 0daa C801      		movw r24,r16
 2507 0dac B701      		movw r22,r14
 2508 0dae 0E94 0000 		call _ZN16USBVirtualSerial7printlnEi
 2509               	.LM330:
 2510 0db2 C701      		movw r24,r14
 2511 0db4 0E94 0000 		call _Z12modifierdowni
 2512               	.LM331:
 2513 0db8 65E0      		ldi r22,lo8(5)
 2514 0dba 70E0      		ldi r23,hi8(5)
 2515 0dbc 80E0      		ldi r24,hlo8(5)
 2516 0dbe 90E0      		ldi r25,hhi8(5)
 2517 0dc0 0E94 0000 		call delay
 2518               	.LM332:
 2519 0dc4 C701      		movw r24,r14
 2520 0dc6 0E94 0000 		call _Z10modifierupi
 2521               	/* epilogue start */
 2522               	.LM333:
 2523 0dca 1F91      		pop r17
 2524 0dcc 0F91      		pop r16
 2525 0dce FF90      		pop r15
 2526 0dd0 EF90      		pop r14
 2527               	.LVL118:
 2528 0dd2 0895      		ret
 2529               	.LFE143:
 2531               		.data
 2532               	.LC16:
 2533 012c 746F 7563 		.string	"touchset modifiertoggle "
 2533      6873 6574 
 2533      206D 6F64 
 2533      6966 6965 
 2533      7274 6F67 
 2534               		.text
 2535               	.global	_Z14togglemodifieri
 2537               	_Z14togglemodifieri:
 2538               	.LFB142:
 2539               	.LM334:
 2540               	.LVL119:
 2541 0dd4 CF93      		push r28
 2542 0dd6 DF93      		push r29
 2543               	/* prologue: function */
 2544               	/* frame size = 0 */
 2545 0dd8 EC01      		movw r28,r24
 2546               	.LM335:
 2547 0dda 80E0      		ldi r24,lo8(Serial)
 2548 0ddc 90E0      		ldi r25,hi8(Serial)
 2549               	.LVL120:
 2550 0dde 60E0      		ldi r22,lo8(.LC16)
 2551 0de0 70E0      		ldi r23,hi8(.LC16)
 2552 0de2 0E94 0000 		call _ZN16USBVirtualSerial5printEPKc
 2553               	.LM336:
 2554 0de6 80E0      		ldi r24,lo8(Serial)
 2555 0de8 90E0      		ldi r25,hi8(Serial)
 2556 0dea BE01      		movw r22,r28
 2557 0dec 0E94 0000 		call _ZN16USBVirtualSerial7printlnEi
 2558               	.LM337:
 2559 0df0 8091 0000 		lds r24,modifiersDown
 2560 0df4 9091 0000 		lds r25,(modifiersDown)+1
 2561 0df8 8C23      		and r24,r28
 2562 0dfa 9D23      		and r25,r29
 2563 0dfc 1816      		cp __zero_reg__,r24
 2564 0dfe 1906      		cpc __zero_reg__,r25
 2565 0e00 04F4      		brge .L173
 2566               	.LM338:
 2567 0e02 CE01      		movw r24,r28
 2568 0e04 0E94 0000 		call _Z10modifierupi
 2569 0e08 00C0      		rjmp .L175
 2570               	.L173:
 2571               	.LM339:
 2572 0e0a CE01      		movw r24,r28
 2573 0e0c 0E94 0000 		call _Z12modifierdowni
 2574               	.L175:
 2575               	/* epilogue start */
 2576               	.LM340:
 2577 0e10 DF91      		pop r29
 2578 0e12 CF91      		pop r28
 2579               	.LVL121:
 2580 0e14 0895      		ret
 2581               	.LFE142:
 2583               		.data
 2584               	.LC17:
 2585 0145 746F 7563 		.string	"touchset keyup "
 2585      6873 6574 
 2585      206B 6579 
 2585      7570 2000 
 2586               		.text
 2587               	.global	_Z5keyupi
 2589               	_Z5keyupi:
 2590               	.LFB138:
 2591               	.LM341:
 2592               	.LVL122:
 2593 0e16 CF93      		push r28
 2594 0e18 DF93      		push r29
 2595               	/* prologue: function */
 2596               	/* frame size = 0 */
 2597 0e1a EC01      		movw r28,r24
 2598               	.LBB636:
 2599               	.LM342:
 2600 0e1c 80E0      		ldi r24,lo8(Serial)
 2601 0e1e 90E0      		ldi r25,hi8(Serial)
 2602               	.LVL123:
 2603 0e20 60E0      		ldi r22,lo8(.LC17)
 2604 0e22 70E0      		ldi r23,hi8(.LC17)
 2605 0e24 0E94 0000 		call _ZN16USBVirtualSerial5printEPKc
 2606               	.LM343:
 2607 0e28 80E0      		ldi r24,lo8(Serial)
 2608 0e2a 90E0      		ldi r25,hi8(Serial)
 2609 0e2c BE01      		movw r22,r28
 2610 0e2e 0E94 0000 		call _ZN16USBVirtualSerial7printlnEi
 2611 0e32 E0E0      		ldi r30,lo8(keysDown)
 2612 0e34 F0E0      		ldi r31,hi8(keysDown)
 2613 0e36 20E0      		ldi r18,lo8(0)
 2614 0e38 30E0      		ldi r19,hi8(0)
 2615               	.LVL124:
 2616 0e3a 00C0      		rjmp .L177
 2617               	.L179:
 2618               	.LM344:
 2619 0e3c 2F5F      		subi r18,lo8(-(1))
 2620 0e3e 3F4F      		sbci r19,hi8(-(1))
 2621 0e40 3296      		adiw r30,2
 2622 0e42 2630      		cpi r18,6
 2623 0e44 3105      		cpc r19,__zero_reg__
 2624 0e46 01F4      		brne .+2
 2625 0e48 00C0      		rjmp .L188
 2626               	.L177:
 2627 0e4a 8081      		ld r24,Z
 2628 0e4c 9181      		ldd r25,Z+1
 2629 0e4e 8C17      		cp r24,r28
 2630 0e50 9D07      		cpc r25,r29
 2631 0e52 01F4      		brne .L179
 2632               	.LM345:
 2633 0e54 F901      		movw r30,r18
 2634 0e56 EE0F      		lsl r30
 2635 0e58 FF1F      		rol r31
 2636 0e5a E050      		subi r30,lo8(-(keysDown))
 2637 0e5c F040      		sbci r31,hi8(-(keysDown))
 2638 0e5e 1182      		std Z+1,__zero_reg__
 2639 0e60 1082      		st Z,__zero_reg__
 2640               	.LM346:
 2641 0e62 2230      		cpi r18,2
 2642 0e64 3105      		cpc r19,__zero_reg__
 2643 0e66 01F0      		breq .L183
 2644 0e68 2330      		cpi r18,3
 2645 0e6a 3105      		cpc r19,__zero_reg__
 2646 0e6c 04F4      		brge .L187
 2647 0e6e 2115      		cp r18,__zero_reg__
 2648 0e70 3105      		cpc r19,__zero_reg__
 2649 0e72 01F0      		breq .L181
 2650 0e74 2130      		cpi r18,1
 2651 0e76 3105      		cpc r19,__zero_reg__
 2652 0e78 01F4      		brne .L180
 2653 0e7a 00C0      		rjmp .L189
 2654               	.L187:
 2655 0e7c 2430      		cpi r18,4
 2656 0e7e 3105      		cpc r19,__zero_reg__
 2657 0e80 01F0      		breq .L185
 2658 0e82 2430      		cpi r18,4
 2659 0e84 3105      		cpc r19,__zero_reg__
 2660 0e86 04F0      		brlt .L184
 2661 0e88 2530      		cpi r18,5
 2662 0e8a 3105      		cpc r19,__zero_reg__
 2663 0e8c 01F4      		brne .L180
 2664 0e8e 00C0      		rjmp .L190
 2665               	.L181:
 2666               	.LM347:
 2667 0e90 80E0      		ldi r24,lo8(Keyboard)
 2668 0e92 90E0      		ldi r25,hi8(Keyboard)
 2669 0e94 60E0      		ldi r22,lo8(0)
 2670 0e96 0E94 0000 		call _ZN11USBKeyboard8set_key1Eh
 2671               	.LVL125:
 2672 0e9a 00C0      		rjmp .L180
 2673               	.LVL126:
 2674               	.L189:
 2675               	.LM348:
 2676 0e9c 80E0      		ldi r24,lo8(Keyboard)
 2677 0e9e 90E0      		ldi r25,hi8(Keyboard)
 2678 0ea0 60E0      		ldi r22,lo8(0)
 2679 0ea2 0E94 0000 		call _ZN11USBKeyboard8set_key2Eh
 2680               	.LVL127:
 2681 0ea6 00C0      		rjmp .L180
 2682               	.LVL128:
 2683               	.L183:
 2684               	.LM349:
 2685 0ea8 80E0      		ldi r24,lo8(Keyboard)
 2686 0eaa 90E0      		ldi r25,hi8(Keyboard)
 2687 0eac 60E0      		ldi r22,lo8(0)
 2688 0eae 0E94 0000 		call _ZN11USBKeyboard8set_key3Eh
 2689               	.LVL129:
 2690 0eb2 00C0      		rjmp .L180
 2691               	.LVL130:
 2692               	.L184:
 2693               	.LM350:
 2694 0eb4 80E0      		ldi r24,lo8(Keyboard)
 2695 0eb6 90E0      		ldi r25,hi8(Keyboard)
 2696 0eb8 60E0      		ldi r22,lo8(0)
 2697 0eba 0E94 0000 		call _ZN11USBKeyboard8set_key4Eh
 2698               	.LVL131:
 2699 0ebe 00C0      		rjmp .L180
 2700               	.LVL132:
 2701               	.L185:
 2702               	.LM351:
 2703 0ec0 80E0      		ldi r24,lo8(Keyboard)
 2704 0ec2 90E0      		ldi r25,hi8(Keyboard)
 2705 0ec4 60E0      		ldi r22,lo8(0)
 2706 0ec6 0E94 0000 		call _ZN11USBKeyboard8set_key5Eh
 2707               	.LVL133:
 2708 0eca 00C0      		rjmp .L180
 2709               	.LVL134:
 2710               	.L190:
 2711               	.LM352:
 2712 0ecc 80E0      		ldi r24,lo8(Keyboard)
 2713 0ece 90E0      		ldi r25,hi8(Keyboard)
 2714 0ed0 60E0      		ldi r22,lo8(0)
 2715 0ed2 0E94 0000 		call _ZN11USBKeyboard8set_key6Eh
 2716               	.LVL135:
 2717               	.L180:
 2718               	.LM353:
 2719 0ed6 80E0      		ldi r24,lo8(Keyboard)
 2720 0ed8 90E0      		ldi r25,hi8(Keyboard)
 2721 0eda 0E94 0000 		call _ZN11USBKeyboard8send_nowEv
 2722               	.LVL136:
 2723               	.L188:
 2724               	/* epilogue start */
 2725               	.LBE636:
 2726               	.LM354:
 2727 0ede DF91      		pop r29
 2728 0ee0 CF91      		pop r28
 2729               	.LVL137:
 2730 0ee2 0895      		ret
 2731               	.LFE138:
 2733               		.data
 2734               	.LC18:
 2735 0155 746F 7563 		.string	"touchset keydown "
 2735      6873 6574 
 2735      206B 6579 
 2735      646F 776E 
 2735      2000 
 2736               		.text
 2737               	.global	_Z7keydowni
 2739               	_Z7keydowni:
 2740               	.LFB137:
 2741               	.LM355:
 2742               	.LVL138:
 2743 0ee4 0F93      		push r16
 2744 0ee6 1F93      		push r17
 2745               	/* prologue: function */
 2746               	/* frame size = 0 */
 2747 0ee8 182F      		mov r17,r24
 2748 0eea 092F      		mov r16,r25
 2749               	.LVL139:
 2750               	.LBB637:
 2751               	.LM356:
 2752 0eec 80E0      		ldi r24,lo8(Serial)
 2753 0eee 90E0      		ldi r25,hi8(Serial)
 2754               	.LVL140:
 2755 0ef0 60E0      		ldi r22,lo8(.LC18)
 2756 0ef2 70E0      		ldi r23,hi8(.LC18)
 2757 0ef4 0E94 0000 		call _ZN16USBVirtualSerial5printEPKc
 2758               	.LVL141:
 2759               	.LM357:
 2760 0ef8 80E0      		ldi r24,lo8(Serial)
 2761 0efa 90E0      		ldi r25,hi8(Serial)
 2762 0efc 612F      		mov r22,r17
 2763 0efe 702F      		mov r23,r16
 2764 0f00 0E94 0000 		call _ZN16USBVirtualSerial7printlnEi
 2765 0f04 E0E0      		ldi r30,lo8(keysDown)
 2766 0f06 F0E0      		ldi r31,hi8(keysDown)
 2767 0f08 20E0      		ldi r18,lo8(0)
 2768 0f0a 30E0      		ldi r19,hi8(0)
 2769               	.LVL142:
 2770 0f0c 00C0      		rjmp .L192
 2771               	.L194:
 2772               	.LM358:
 2773 0f0e 2F5F      		subi r18,lo8(-(1))
 2774 0f10 3F4F      		sbci r19,hi8(-(1))
 2775 0f12 3296      		adiw r30,2
 2776 0f14 2630      		cpi r18,6
 2777 0f16 3105      		cpc r19,__zero_reg__
 2778 0f18 01F4      		brne .+2
 2779 0f1a 00C0      		rjmp .L203
 2780               	.L192:
 2781 0f1c 8081      		ld r24,Z
 2782 0f1e 9181      		ldd r25,Z+1
 2783 0f20 892B      		or r24,r25
 2784 0f22 01F4      		brne .L194
 2785               	.LM359:
 2786 0f24 F901      		movw r30,r18
 2787 0f26 EE0F      		lsl r30
 2788 0f28 FF1F      		rol r31
 2789 0f2a E050      		subi r30,lo8(-(keysDown))
 2790 0f2c F040      		sbci r31,hi8(-(keysDown))
 2791 0f2e 1083      		st Z,r17
 2792 0f30 0183      		std Z+1,r16
 2793               	.LM360:
 2794 0f32 2230      		cpi r18,2
 2795 0f34 3105      		cpc r19,__zero_reg__
 2796 0f36 01F0      		breq .L198
 2797 0f38 2330      		cpi r18,3
 2798 0f3a 3105      		cpc r19,__zero_reg__
 2799 0f3c 04F4      		brge .L202
 2800 0f3e 2115      		cp r18,__zero_reg__
 2801 0f40 3105      		cpc r19,__zero_reg__
 2802 0f42 01F0      		breq .L196
 2803 0f44 2130      		cpi r18,1
 2804 0f46 3105      		cpc r19,__zero_reg__
 2805 0f48 01F4      		brne .L195
 2806 0f4a 00C0      		rjmp .L204
 2807               	.L202:
 2808 0f4c 2430      		cpi r18,4
 2809 0f4e 3105      		cpc r19,__zero_reg__
 2810 0f50 01F0      		breq .L200
 2811 0f52 2430      		cpi r18,4
 2812 0f54 3105      		cpc r19,__zero_reg__
 2813 0f56 04F0      		brlt .L199
 2814 0f58 2530      		cpi r18,5
 2815 0f5a 3105      		cpc r19,__zero_reg__
 2816 0f5c 01F4      		brne .L195
 2817 0f5e 00C0      		rjmp .L205
 2818               	.L196:
 2819               	.LM361:
 2820 0f60 80E0      		ldi r24,lo8(Keyboard)
 2821 0f62 90E0      		ldi r25,hi8(Keyboard)
 2822 0f64 612F      		mov r22,r17
 2823 0f66 0E94 0000 		call _ZN11USBKeyboard8set_key1Eh
 2824               	.LVL143:
 2825 0f6a 00C0      		rjmp .L195
 2826               	.LVL144:
 2827               	.L204:
 2828               	.LM362:
 2829 0f6c 80E0      		ldi r24,lo8(Keyboard)
 2830 0f6e 90E0      		ldi r25,hi8(Keyboard)
 2831 0f70 612F      		mov r22,r17
 2832 0f72 0E94 0000 		call _ZN11USBKeyboard8set_key2Eh
 2833               	.LVL145:
 2834 0f76 00C0      		rjmp .L195
 2835               	.LVL146:
 2836               	.L198:
 2837               	.LM363:
 2838 0f78 80E0      		ldi r24,lo8(Keyboard)
 2839 0f7a 90E0      		ldi r25,hi8(Keyboard)
 2840 0f7c 612F      		mov r22,r17
 2841 0f7e 0E94 0000 		call _ZN11USBKeyboard8set_key3Eh
 2842               	.LVL147:
 2843 0f82 00C0      		rjmp .L195
 2844               	.LVL148:
 2845               	.L199:
 2846               	.LM364:
 2847 0f84 80E0      		ldi r24,lo8(Keyboard)
 2848 0f86 90E0      		ldi r25,hi8(Keyboard)
 2849 0f88 612F      		mov r22,r17
 2850 0f8a 0E94 0000 		call _ZN11USBKeyboard8set_key4Eh
 2851               	.LVL149:
 2852 0f8e 00C0      		rjmp .L195
 2853               	.LVL150:
 2854               	.L200:
 2855               	.LM365:
 2856 0f90 80E0      		ldi r24,lo8(Keyboard)
 2857 0f92 90E0      		ldi r25,hi8(Keyboard)
 2858 0f94 612F      		mov r22,r17
 2859 0f96 0E94 0000 		call _ZN11USBKeyboard8set_key5Eh
 2860               	.LVL151:
 2861 0f9a 00C0      		rjmp .L195
 2862               	.LVL152:
 2863               	.L205:
 2864               	.LM366:
 2865 0f9c 80E0      		ldi r24,lo8(Keyboard)
 2866 0f9e 90E0      		ldi r25,hi8(Keyboard)
 2867 0fa0 612F      		mov r22,r17
 2868 0fa2 0E94 0000 		call _ZN11USBKeyboard8set_key6Eh
 2869               	.LVL153:
 2870               	.L195:
 2871               	.LM367:
 2872 0fa6 80E0      		ldi r24,lo8(Keyboard)
 2873 0fa8 90E0      		ldi r25,hi8(Keyboard)
 2874 0faa 0E94 0000 		call _ZN11USBKeyboard8send_nowEv
 2875               	.LVL154:
 2876               	.L203:
 2877               	/* epilogue start */
 2878               	.LBE637:
 2879               	.LM368:
 2880 0fae 1F91      		pop r17
 2881               	.LVL155:
 2882 0fb0 0F91      		pop r16
 2883               	.LVL156:
 2884 0fb2 0895      		ret
 2885               	.LFE137:
 2887               		.data
 2888               	.LC19:
 2889 0167 746F 7563 		.string	"touchset keypress "
 2889      6873 6574 
 2889      206B 6579 
 2889      7072 6573 
 2889      7320 00
 2890               		.text
 2891               	.global	_Z8keypressi
 2893               	_Z8keypressi:
 2894               	.LFB139:
 2895               	.LM369:
 2896               	.LVL157:
 2897 0fb4 EF92      		push r14
 2898 0fb6 FF92      		push r15
 2899 0fb8 0F93      		push r16
 2900 0fba 1F93      		push r17
 2901               	/* prologue: function */
 2902               	/* frame size = 0 */
 2903 0fbc 7C01      		movw r14,r24
 2904               	.LM370:
 2905 0fbe 00E0      		ldi r16,lo8(Serial)
 2906 0fc0 10E0      		ldi r17,hi8(Serial)
 2907 0fc2 C801      		movw r24,r16
 2908               	.LVL158:
 2909 0fc4 60E0      		ldi r22,lo8(.LC19)
 2910 0fc6 70E0      		ldi r23,hi8(.LC19)
 2911 0fc8 0E94 0000 		call _ZN16USBVirtualSerial5printEPKc
 2912               	.LM371:
 2913 0fcc C801      		movw r24,r16
 2914 0fce B701      		movw r22,r14
 2915 0fd0 0E94 0000 		call _ZN16USBVirtualSerial7printlnEi
 2916               	.LM372:
 2917 0fd4 C701      		movw r24,r14
 2918 0fd6 0E94 0000 		call _Z7keydowni
 2919               	.LM373:
 2920 0fda 65E0      		ldi r22,lo8(5)
 2921 0fdc 70E0      		ldi r23,hi8(5)
 2922 0fde 80E0      		ldi r24,hlo8(5)
 2923 0fe0 90E0      		ldi r25,hhi8(5)
 2924 0fe2 0E94 0000 		call delay
 2925               	.LM374:
 2926 0fe6 C701      		movw r24,r14
 2927 0fe8 0E94 0000 		call _Z5keyupi
 2928               	/* epilogue start */
 2929               	.LM375:
 2930 0fec 1F91      		pop r17
 2931 0fee 0F91      		pop r16
 2932 0ff0 FF90      		pop r15
 2933 0ff2 EF90      		pop r14
 2934               	.LVL159:
 2935 0ff4 0895      		ret
 2936               	.LFE139:
 2938               		.data
 2939               	.LC20:
 2940 017a 746F 7563 		.string	"touchset mouseup "
 2940      6873 6574 
 2940      206D 6F75 
 2940      7365 7570 
 2940      2000 
 2941               		.text
 2942               	.global	_Z7mouseupi
 2944               	_Z7mouseupi:
 2945               	.LFB135:
 2946               	.LM376:
 2947               	.LVL160:
 2948 0ff6 CF93      		push r28
 2949 0ff8 DF93      		push r29
 2950               	/* prologue: function */
 2951               	/* frame size = 0 */
 2952 0ffa EC01      		movw r28,r24
 2953               	.LM377:
 2954 0ffc 80E0      		ldi r24,lo8(Serial)
 2955 0ffe 90E0      		ldi r25,hi8(Serial)
 2956               	.LVL161:
 2957 1000 60E0      		ldi r22,lo8(.LC20)
 2958 1002 70E0      		ldi r23,hi8(.LC20)
 2959 1004 0E94 0000 		call _ZN16USBVirtualSerial5printEPKc
 2960               	.LM378:
 2961 1008 80E0      		ldi r24,lo8(Serial)
 2962 100a 90E0      		ldi r25,hi8(Serial)
 2963 100c BE01      		movw r22,r28
 2964 100e 0E94 0000 		call _ZN16USBVirtualSerial7printlnEi
 2965               	.LM379:
 2966 1012 2091 0000 		lds r18,mouseDown
 2967 1016 3091 0000 		lds r19,(mouseDown)+1
 2968 101a CE01      		movw r24,r28
 2969 101c 8223      		and r24,r18
 2970 101e 9323      		and r25,r19
 2971 1020 1816      		cp __zero_reg__,r24
 2972 1022 1906      		cpc __zero_reg__,r25
 2973 1024 04F4      		brge .L211
 2974               	.LM380:
 2975 1026 2C1B      		sub r18,r28
 2976 1028 3D0B      		sbc r19,r29
 2977 102a 3093 0000 		sts (mouseDown)+1,r19
 2978 102e 2093 0000 		sts mouseDown,r18
 2979               	.LM381:
 2980 1032 60E0      		ldi r22,lo8(0)
 2981 1034 20FD      		sbrc r18,0
 2982 1036 61E0      		ldi r22,lo8(1)
 2983               	.L210:
 2984 1038 3695      		lsr r19
 2985 103a 2795      		ror r18
 2986 103c 422F      		mov r20,r18
 2987 103e 4170      		andi r20,lo8(1)
 2988 1040 3695      		lsr r19
 2989 1042 2795      		ror r18
 2990 1044 2170      		andi r18,lo8(1)
 2991 1046 80E0      		ldi r24,lo8(Mouse)
 2992 1048 90E0      		ldi r25,hi8(Mouse)
 2993 104a 0E94 0000 		call _ZN8USBMouse11set_buttonsEhhh
 2994               	.L211:
 2995               	/* epilogue start */
 2996               	.LM382:
 2997 104e DF91      		pop r29
 2998 1050 CF91      		pop r28
 2999               	.LVL162:
 3000 1052 0895      		ret
 3001               	.LFE135:
 3003               	.global	_Z21check_sensors_releasemmi
 3005               	_Z21check_sensors_releasemmi:
 3006               	.LFB152:
 3007               	.LM383:
 3008               	.LVL163:
 3009 1054 4F92      		push r4
 3010 1056 5F92      		push r5
 3011 1058 6F92      		push r6
 3012 105a 7F92      		push r7
 3013 105c 8F92      		push r8
 3014 105e 9F92      		push r9
 3015 1060 AF92      		push r10
 3016 1062 BF92      		push r11
 3017 1064 CF92      		push r12
 3018 1066 DF92      		push r13
 3019 1068 EF92      		push r14
 3020 106a FF92      		push r15
 3021 106c 0F93      		push r16
 3022               	.LVL164:
 3023 106e 1F93      		push r17
 3024 1070 DF93      		push r29
 3025 1072 CF93      		push r28
 3026 1074 CDB7      		in r28,__SP_L__
 3027 1076 DEB7      		in r29,__SP_H__
 3028 1078 CC54      		subi r28,lo8(-(-76))
 3029 107a D040      		sbci r29,hi8(-(-76))
 3030 107c 0FB6      		in __tmp_reg__,__SREG__
 3031 107e F894      		cli
 3032 1080 DEBF      		out __SP_H__,r29
 3033 1082 0FBE      		out __SREG__,__tmp_reg__
 3034 1084 CDBF      		out __SP_L__,r28
 3035               	/* prologue: function */
 3036               	/* frame size = 76 */
 3037 1086 6B01      		movw r12,r22
 3038 1088 7C01      		movw r14,r24
 3039 108a 4901      		movw r8,r18
 3040 108c 5A01      		movw r10,r20
 3041               	.LBB638:
 3042               	.LBB639:
 3043               	.LM384:
 3044 108e 6091 0000 		lds r22,modeStackPos
 3045 1092 7091 0000 		lds r23,(modeStackPos)+1
 3046               	.LVL165:
 3047 1096 9801      		movw r18,r16
 3048               	.LVL166:
 3049 1098 40E0      		ldi r20,lo8(0)
 3050 109a 50E0      		ldi r21,hi8(0)
 3051               	.LBE639:
 3052               	.LBE638:
 3053               	.LM385:
 3054 109c D701      		movw r26,r14
 3055 109e C601      		movw r24,r12
 3056 10a0 8270      		andi r24,lo8(2)
 3057 10a2 9070      		andi r25,hi8(2)
 3058 10a4 A070      		andi r26,hlo8(2)
 3059 10a6 B070      		andi r27,hhi8(2)
 3060 10a8 8983      		std Y+1,r24
 3061 10aa 9A83      		std Y+2,r25
 3062 10ac AB83      		std Y+3,r26
 3063 10ae BC83      		std Y+4,r27
 3064               	.LM386:
 3065 10b0 D701      		movw r26,r14
 3066 10b2 C601      		movw r24,r12
 3067 10b4 8870      		andi r24,lo8(8)
 3068 10b6 9070      		andi r25,hi8(8)
 3069 10b8 A070      		andi r26,hlo8(8)
 3070 10ba B070      		andi r27,hhi8(8)
 3071 10bc 8D83      		std Y+5,r24
 3072 10be 9E83      		std Y+6,r25
 3073 10c0 AF83      		std Y+7,r26
 3074 10c2 B887      		std Y+8,r27
 3075               	.LM387:
 3076 10c4 D701      		movw r26,r14
 3077 10c6 C601      		movw r24,r12
 3078 10c8 8071      		andi r24,lo8(16)
 3079 10ca 9070      		andi r25,hi8(16)
 3080 10cc A070      		andi r26,hlo8(16)
 3081 10ce B070      		andi r27,hhi8(16)
 3082 10d0 8987      		std Y+9,r24
 3083 10d2 9A87      		std Y+10,r25
 3084 10d4 AB87      		std Y+11,r26
 3085 10d6 BC87      		std Y+12,r27
 3086               	.LM388:
 3087 10d8 D701      		movw r26,r14
 3088 10da C601      		movw r24,r12
 3089 10dc 8072      		andi r24,lo8(32)
 3090 10de 9070      		andi r25,hi8(32)
 3091 10e0 A070      		andi r26,hlo8(32)
 3092 10e2 B070      		andi r27,hhi8(32)
 3093 10e4 8D87      		std Y+13,r24
 3094 10e6 9E87      		std Y+14,r25
 3095 10e8 AF87      		std Y+15,r26
 3096 10ea B88B      		std Y+16,r27
 3097               	.LM389:
 3098 10ec D701      		movw r26,r14
 3099 10ee C601      		movw r24,r12
 3100 10f0 8074      		andi r24,lo8(64)
 3101 10f2 9070      		andi r25,hi8(64)
 3102 10f4 A070      		andi r26,hlo8(64)
 3103 10f6 B070      		andi r27,hhi8(64)
 3104 10f8 898B      		std Y+17,r24
 3105 10fa 9A8B      		std Y+18,r25
 3106 10fc AB8B      		std Y+19,r26
 3107 10fe BC8B      		std Y+20,r27
 3108               	.LM390:
 3109 1100 D701      		movw r26,r14
 3110 1102 C601      		movw r24,r12
 3111 1104 8070      		andi r24,lo8(256)
 3112 1106 9170      		andi r25,hi8(256)
 3113 1108 A070      		andi r26,hlo8(256)
 3114 110a B070      		andi r27,hhi8(256)
 3115 110c 8D8B      		std Y+21,r24
 3116 110e 9E8B      		std Y+22,r25
 3117 1110 AF8B      		std Y+23,r26
 3118 1112 B88F      		std Y+24,r27
 3119               	.LM391:
 3120 1114 D701      		movw r26,r14
 3121 1116 C601      		movw r24,r12
 3122 1118 8070      		andi r24,lo8(512)
 3123 111a 9270      		andi r25,hi8(512)
 3124 111c A070      		andi r26,hlo8(512)
 3125 111e B070      		andi r27,hhi8(512)
 3126 1120 898F      		std Y+25,r24
 3127 1122 9A8F      		std Y+26,r25
 3128 1124 AB8F      		std Y+27,r26
 3129 1126 BC8F      		std Y+28,r27
 3130               	.LM392:
 3131 1128 D701      		movw r26,r14
 3132 112a C601      		movw r24,r12
 3133 112c 8070      		andi r24,lo8(2048)
 3134 112e 9870      		andi r25,hi8(2048)
 3135 1130 A070      		andi r26,hlo8(2048)
 3136 1132 B070      		andi r27,hhi8(2048)
 3137 1134 8D8F      		std Y+29,r24
 3138 1136 9E8F      		std Y+30,r25
 3139 1138 AF8F      		std Y+31,r26
 3140 113a B8A3      		std Y+32,r27
 3141               	.LM393:
 3142 113c D701      		movw r26,r14
 3143 113e C601      		movw r24,r12
 3144 1140 8070      		andi r24,lo8(8192)
 3145 1142 9072      		andi r25,hi8(8192)
 3146 1144 A070      		andi r26,hlo8(8192)
 3147 1146 B070      		andi r27,hhi8(8192)
 3148 1148 89A3      		std Y+33,r24
 3149 114a 9AA3      		std Y+34,r25
 3150 114c ABA3      		std Y+35,r26
 3151 114e BCA3      		std Y+36,r27
 3152               	.LM394:
 3153 1150 D701      		movw r26,r14
 3154 1152 C601      		movw r24,r12
 3155 1154 8070      		andi r24,lo8(16384)
 3156 1156 9074      		andi r25,hi8(16384)
 3157 1158 A070      		andi r26,hlo8(16384)
 3158 115a B070      		andi r27,hhi8(16384)
 3159 115c 8DA3      		std Y+37,r24
 3160 115e 9EA3      		std Y+38,r25
 3161 1160 AFA3      		std Y+39,r26
 3162 1162 B8A7      		std Y+40,r27
 3163               	.LM395:
 3164 1164 D701      		movw r26,r14
 3165 1166 C601      		movw r24,r12
 3166 1168 8070      		andi r24,lo8(65536)
 3167 116a 9070      		andi r25,hi8(65536)
 3168 116c A170      		andi r26,hlo8(65536)
 3169 116e B070      		andi r27,hhi8(65536)
 3170 1170 89A7      		std Y+41,r24
 3171 1172 9AA7      		std Y+42,r25
 3172 1174 ABA7      		std Y+43,r26
 3173 1176 BCA7      		std Y+44,r27
 3174               	.LM396:
 3175 1178 D701      		movw r26,r14
 3176 117a C601      		movw r24,r12
 3177 117c 8070      		andi r24,lo8(131072)
 3178 117e 9070      		andi r25,hi8(131072)
 3179 1180 A270      		andi r26,hlo8(131072)
 3180 1182 B070      		andi r27,hhi8(131072)
 3181 1184 8DA7      		std Y+45,r24
 3182 1186 9EA7      		std Y+46,r25
 3183 1188 AFA7      		std Y+47,r26
 3184 118a B8AB      		std Y+48,r27
 3185               	.LM397:
 3186 118c D701      		movw r26,r14
 3187 118e C601      		movw r24,r12
 3188 1190 8070      		andi r24,lo8(1048576)
 3189 1192 9070      		andi r25,hi8(1048576)
 3190 1194 A071      		andi r26,hlo8(1048576)
 3191 1196 B070      		andi r27,hhi8(1048576)
 3192 1198 89AB      		std Y+49,r24
 3193 119a 9AAB      		std Y+50,r25
 3194 119c ABAB      		std Y+51,r26
 3195 119e BCAB      		std Y+52,r27
 3196               	.LM398:
 3197 11a0 D701      		movw r26,r14
 3198 11a2 C601      		movw r24,r12
 3199 11a4 8070      		andi r24,lo8(2097152)
 3200 11a6 9070      		andi r25,hi8(2097152)
 3201 11a8 A072      		andi r26,hlo8(2097152)
 3202 11aa B070      		andi r27,hhi8(2097152)
 3203 11ac 8DAB      		std Y+53,r24
 3204 11ae 9EAB      		std Y+54,r25
 3205 11b0 AFAB      		std Y+55,r26
 3206 11b2 B8AF      		std Y+56,r27
 3207               	.LM399:
 3208 11b4 D701      		movw r26,r14
 3209 11b6 C601      		movw r24,r12
 3210 11b8 8070      		andi r24,lo8(4194304)
 3211 11ba 9070      		andi r25,hi8(4194304)
 3212 11bc A074      		andi r26,hlo8(4194304)
 3213 11be B070      		andi r27,hhi8(4194304)
 3214 11c0 89AF      		std Y+57,r24
 3215 11c2 9AAF      		std Y+58,r25
 3216 11c4 ABAF      		std Y+59,r26
 3217 11c6 BCAF      		std Y+60,r27
 3218               	.LM400:
 3219 11c8 D701      		movw r26,r14
 3220 11ca C601      		movw r24,r12
 3221 11cc 8070      		andi r24,lo8(8388608)
 3222 11ce 9070      		andi r25,hi8(8388608)
 3223 11d0 A078      		andi r26,hlo8(8388608)
 3224 11d2 B070      		andi r27,hhi8(8388608)
 3225 11d4 2196      		adiw r28,61-60
 3226 11d6 8CAF      		std Y+60,r24
 3227 11d8 9DAF      		std Y+61,r25
 3228 11da AEAF      		std Y+62,r26
 3229 11dc BFAF      		std Y+63,r27
 3230 11de 2197      		sbiw r28,61-60
 3231               	.LM401:
 3232 11e0 D701      		movw r26,r14
 3233 11e2 C601      		movw r24,r12
 3234 11e4 8070      		andi r24,lo8(16777216)
 3235 11e6 9070      		andi r25,hi8(16777216)
 3236 11e8 A070      		andi r26,hlo8(16777216)
 3237 11ea B170      		andi r27,hhi8(16777216)
 3238 11ec 2596      		adiw r28,65-60
 3239 11ee 8CAF      		std Y+60,r24
 3240 11f0 9DAF      		std Y+61,r25
 3241 11f2 AEAF      		std Y+62,r26
 3242 11f4 BFAF      		std Y+63,r27
 3243 11f6 2597      		sbiw r28,65-60
 3244               	.LM402:
 3245 11f8 D701      		movw r26,r14
 3246 11fa C601      		movw r24,r12
 3247 11fc 8070      		andi r24,lo8(67108864)
 3248 11fe 9070      		andi r25,hi8(67108864)
 3249 1200 A070      		andi r26,hlo8(67108864)
 3250 1202 B470      		andi r27,hhi8(67108864)
 3251 1204 2996      		adiw r28,69-60
 3252 1206 8CAF      		std Y+60,r24
 3253 1208 9DAF      		std Y+61,r25
 3254 120a AEAF      		std Y+62,r26
 3255 120c BFAF      		std Y+63,r27
 3256 120e 2997      		sbiw r28,69-60
 3257               	.LM403:
 3258 1210 D701      		movw r26,r14
 3259 1212 C601      		movw r24,r12
 3260 1214 8070      		andi r24,lo8(268435456)
 3261 1216 9070      		andi r25,hi8(268435456)
 3262 1218 A070      		andi r26,hlo8(268435456)
 3263 121a B071      		andi r27,hhi8(268435456)
 3264 121c 2D96      		adiw r28,73-60
 3265 121e 8CAF      		std Y+60,r24
 3266 1220 9DAF      		std Y+61,r25
 3267 1222 AEAF      		std Y+62,r26
 3268 1224 BFAF      		std Y+63,r27
 3269 1226 2D97      		sbiw r28,73-60
 3270               	.LM404:
 3271 1228 412C      		mov r4,__zero_reg__
 3272 122a 512C      		mov r5,__zero_reg__
 3273 122c 612C      		mov r6,__zero_reg__
 3274 122e F0E4      		ldi r31,hhi8(1073741824)
 3275 1230 7F2E      		mov r7,r31
 3276 1232 4C20      		and r4,r12
 3277 1234 5D20      		and r5,r13
 3278 1236 6E20      		and r6,r14
 3279 1238 7F20      		and r7,r15
 3280               	.LBB641:
 3281               	.LBB642:
 3282               	.LM405:
 3283 123a 8FEF      		ldi r24,lo8(32767)
 3284 123c 9FE7      		ldi r25,hi8(32767)
 3285 123e 289F      		mul r18,r24
 3286 1240 8001      		movw r16,r0
 3287 1242 299F      		mul r18,r25
 3288 1244 100D      		add r17,r0
 3289 1246 389F      		mul r19,r24
 3290 1248 100D      		add r17,r0
 3291 124a 1124      		clr r1
 3292               	.LVL167:
 3293 124c 060F      		add r16,r22
 3294 124e 171F      		adc r17,r23
 3295 1250 000F      		lsl r16
 3296 1252 111F      		rol r17
 3297 1254 0050      		subi r16,lo8(-(modeStack))
 3298 1256 1040      		sbci r17,hi8(-(modeStack))
 3299               	.L339:
 3300               	.LBE642:
 3301               	.LBE641:
 3302               	.LM406:
 3303 1258 8981      		ldd r24,Y+1
 3304 125a 9A81      		ldd r25,Y+2
 3305 125c AB81      		ldd r26,Y+3
 3306 125e BC81      		ldd r27,Y+4
 3307 1260 0097      		sbiw r24,0
 3308 1262 A105      		cpc r26,__zero_reg__
 3309 1264 B105      		cpc r27,__zero_reg__
 3310 1266 01F0      		breq .L213
 3311               	.LBB644:
 3312               	.LBB640:
 3313               	.LM407:
 3314 1268 6217      		cp r22,r18
 3315 126a 7307      		cpc r23,r19
 3316 126c 04F4      		brge .+4
 3317 126e 0C94 0000 		jmp .L352
 3318               	.LM408:
 3319 1272 F801      		movw r30,r16
 3320 1274 E40F      		add r30,r20
 3321 1276 F51F      		adc r31,r21
 3322 1278 0190      		ld __tmp_reg__,Z+
 3323 127a F081      		ld r31,Z
 3324 127c E02D      		mov r30,__tmp_reg__
 3325               	.LBE640:
 3326               	.LBE644:
 3327               	.LM409:
 3328 127e 3097      		sbiw r30,0
 3329 1280 01F4      		brne .L215
 3330               	.LM410:
 3331 1282 87E3      		ldi r24,lo8(55)
 3332 1284 90E0      		ldi r25,hi8(55)
 3333 1286 0E94 0000 		call _Z8keypressi
 3334               	.LVL168:
 3335               	.LM411:
 3336 128a 82E0      		ldi r24,lo8(2)
 3337 128c 90E0      		ldi r25,hi8(2)
 3338 128e 0E94 0000 		call _Z10modifierupi
 3339               	.LM412:
 3340 1292 84E0      		ldi r24,lo8(4)
 3341 1294 90E0      		ldi r25,hi8(4)
 3342 1296 0E94 0000 		call _Z10modifierupi
 3343               	.LM413:
 3344 129a 81E0      		ldi r24,lo8(1)
 3345 129c 90E0      		ldi r25,hi8(1)
 3346 129e 0E94 0000 		call _Z10modifierupi
 3347 12a2 0C94 0000 		jmp .L352
 3348               	.LVL169:
 3349               	.L215:
 3350               	.LM414:
 3351 12a6 E130      		cpi r30,1
 3352 12a8 F105      		cpc r31,__zero_reg__
 3353 12aa 01F0      		breq .L216
 3354 12ac E230      		cpi r30,2
 3355 12ae F105      		cpc r31,__zero_reg__
 3356 12b0 01F0      		breq .L216
 3357 12b2 3397      		sbiw r30,3
 3358 12b4 01F0      		breq .+4
 3359 12b6 0C94 0000 		jmp .L217
 3360               	.L216:
 3361               	.LM415:
 3362 12ba 89E2      		ldi r24,lo8(41)
 3363 12bc 90E0      		ldi r25,hi8(41)
 3364 12be 0E94 0000 		call _Z8keypressi
 3365               	.LVL170:
 3366               	.LM416:
 3367 12c2 82E0      		ldi r24,lo8(2)
 3368 12c4 90E0      		ldi r25,hi8(2)
 3369 12c6 0E94 0000 		call _Z10modifierupi
 3370               	.LM417:
 3371 12ca 84E0      		ldi r24,lo8(4)
 3372 12cc 90E0      		ldi r25,hi8(4)
 3373 12ce 0E94 0000 		call _Z10modifierupi
 3374               	.LM418:
 3375 12d2 81E0      		ldi r24,lo8(1)
 3376 12d4 90E0      		ldi r25,hi8(1)
 3377 12d6 0E94 0000 		call _Z10modifierupi
 3378 12da 0C94 0000 		jmp .L352
 3379               	.LVL171:
 3380               	.L213:
 3381               	.LM419:
 3382 12de 8D81      		ldd r24,Y+5
 3383 12e0 9E81      		ldd r25,Y+6
 3384 12e2 AF81      		ldd r26,Y+7
 3385 12e4 B885      		ldd r27,Y+8
 3386 12e6 0097      		sbiw r24,0
 3387 12e8 A105      		cpc r26,__zero_reg__
 3388 12ea B105      		cpc r27,__zero_reg__
 3389 12ec 01F4      		brne .+2
 3390 12ee 00C0      		rjmp .L218
 3391               	.LM420:
 3392 12f0 D701      		movw r26,r14
 3393 12f2 C601      		movw r24,r12
 3394 12f4 8870      		andi r24,lo8(8200)
 3395 12f6 9072      		andi r25,hi8(8200)
 3396 12f8 A070      		andi r26,hlo8(8200)
 3397 12fa B070      		andi r27,hhi8(8200)
 3398 12fc 8850      		subi r24,lo8(8200)
 3399 12fe 9042      		sbci r25,hi8(8200)
 3400 1300 A040      		sbci r26,hlo8(8200)
 3401 1302 B040      		sbci r27,hhi8(8200)
 3402 1304 01F4      		brne .L219
 3403               	.LBB645:
 3404               	.LBB646:
 3405               	.LM421:
 3406 1306 6217      		cp r22,r18
 3407 1308 7307      		cpc r23,r19
 3408 130a 04F4      		brge .+4
 3409 130c 0C94 0000 		jmp .L352
 3410               	.LM422:
 3411 1310 F801      		movw r30,r16
 3412 1312 E40F      		add r30,r20
 3413 1314 F51F      		adc r31,r21
 3414 1316 0190      		ld __tmp_reg__,Z+
 3415 1318 F081      		ld r31,Z
 3416 131a E02D      		mov r30,__tmp_reg__
 3417               	.LBE646:
 3418               	.LBE645:
 3419               	.LM423:
 3420 131c 3097      		sbiw r30,0
 3421 131e 01F0      		breq .L220
 3422 1320 E230      		cpi r30,2
 3423 1322 F105      		cpc r31,__zero_reg__
 3424 1324 01F0      		breq .L220
 3425 1326 E330      		cpi r30,3
 3426 1328 F105      		cpc r31,__zero_reg__
 3427 132a 01F4      		brne .L221
 3428               	.L220:
 3429               	.LM424:
 3430 132c 88E2      		ldi r24,lo8(40)
 3431 132e 90E0      		ldi r25,hi8(40)
 3432 1330 0E94 0000 		call _Z8keypressi
 3433               	.LVL172:
 3434               	.LM425:
 3435 1334 82E0      		ldi r24,lo8(2)
 3436 1336 90E0      		ldi r25,hi8(2)
 3437 1338 0E94 0000 		call _Z10modifierupi
 3438               	.LM426:
 3439 133c 84E0      		ldi r24,lo8(4)
 3440 133e 90E0      		ldi r25,hi8(4)
 3441 1340 0E94 0000 		call _Z10modifierupi
 3442               	.LM427:
 3443 1344 81E0      		ldi r24,lo8(1)
 3444 1346 90E0      		ldi r25,hi8(1)
 3445 1348 0E94 0000 		call _Z10modifierupi
 3446 134c 0C94 0000 		jmp .L352
 3447               	.LVL173:
 3448               	.L221:
 3449               	.LM428:
 3450 1350 3197      		sbiw r30,1
 3451 1352 01F0      		breq .+4
 3452 1354 0C94 0000 		jmp .L217
 3453               	.LM429:
 3454 1358 88E5      		ldi r24,lo8(88)
 3455 135a 90E0      		ldi r25,hi8(88)
 3456 135c 0E94 0000 		call _Z8keypressi
 3457               	.LVL174:
 3458               	.LM430:
 3459 1360 82E0      		ldi r24,lo8(2)
 3460 1362 90E0      		ldi r25,hi8(2)
 3461 1364 0E94 0000 		call _Z10modifierupi
 3462               	.LM431:
 3463 1368 84E0      		ldi r24,lo8(4)
 3464 136a 90E0      		ldi r25,hi8(4)
 3465 136c 0E94 0000 		call _Z10modifierupi
 3466               	.LM432:
 3467 1370 81E0      		ldi r24,lo8(1)
 3468 1372 90E0      		ldi r25,hi8(1)
 3469 1374 0E94 0000 		call _Z10modifierupi
 3470 1378 0C94 0000 		jmp .L352
 3471               	.LVL175:
 3472               	.L219:
 3473               	.LM433:
 3474 137c 87FC      		sbrc r8,7
 3475 137e 00C0      		rjmp .+4
 3476 1380 0C94 0000 		jmp .L222
 3477               	.LBB647:
 3478               	.LBB648:
 3479               	.LM434:
 3480 1384 6217      		cp r22,r18
 3481 1386 7307      		cpc r23,r19
 3482 1388 04F4      		brge .+4
 3483 138a 0C94 0000 		jmp .L352
 3484               	.LM435:
 3485 138e F801      		movw r30,r16
 3486 1390 E40F      		add r30,r20
 3487 1392 F51F      		adc r31,r21
 3488 1394 0190      		ld __tmp_reg__,Z+
 3489 1396 F081      		ld r31,Z
 3490 1398 E02D      		mov r30,__tmp_reg__
 3491               	.LBE648:
 3492               	.LBE647:
 3493               	.LM436:
 3494 139a 3097      		sbiw r30,0
 3495 139c 01F0      		breq .L223
 3496 139e E130      		cpi r30,1
 3497 13a0 F105      		cpc r31,__zero_reg__
 3498 13a2 01F0      		breq .L223
 3499 13a4 E230      		cpi r30,2
 3500 13a6 F105      		cpc r31,__zero_reg__
 3501 13a8 01F0      		breq .L223
 3502 13aa 3397      		sbiw r30,3
 3503 13ac 01F4      		brne .L224
 3504               	.L223:
 3505               	.LM437:
 3506 13ae 8BE2      		ldi r24,lo8(43)
 3507 13b0 90E0      		ldi r25,hi8(43)
 3508 13b2 0E94 0000 		call _Z8keypressi
 3509               	.LVL176:
 3510               	.LM438:
 3511 13b6 82E0      		ldi r24,lo8(2)
 3512 13b8 90E0      		ldi r25,hi8(2)
 3513 13ba 0E94 0000 		call _Z10modifierupi
 3514               	.LM439:
 3515 13be 84E0      		ldi r24,lo8(4)
 3516 13c0 90E0      		ldi r25,hi8(4)
 3517 13c2 0E94 0000 		call _Z10modifierupi
 3518               	.LM440:
 3519 13c6 81E0      		ldi r24,lo8(1)
 3520 13c8 90E0      		ldi r25,hi8(1)
 3521 13ca 0E94 0000 		call _Z10modifierupi
 3522 13ce 0C94 0000 		jmp .L352
 3523               	.LVL177:
 3524               	.L224:
 3525               	.LBB649:
 3526               	.LBB650:
 3527               	.LM441:
 3528 13d2 F801      		movw r30,r16
 3529 13d4 E40F      		add r30,r20
 3530 13d6 F51F      		adc r31,r21
 3531 13d8 0190      		ld __tmp_reg__,Z+
 3532 13da F081      		ld r31,Z
 3533 13dc E02D      		mov r30,__tmp_reg__
 3534               	.LBE650:
 3535               	.LBE649:
 3536               	.LM442:
 3537 13de 3097      		sbiw r30,0
 3538 13e0 01F4      		brne .L225
 3539               	.LM443:
 3540 13e2 86E1      		ldi r24,lo8(22)
 3541 13e4 90E0      		ldi r25,hi8(22)
 3542 13e6 0E94 0000 		call _Z8keypressi
 3543               	.LVL178:
 3544               	.LM444:
 3545 13ea 82E0      		ldi r24,lo8(2)
 3546 13ec 90E0      		ldi r25,hi8(2)
 3547 13ee 0E94 0000 		call _Z10modifierupi
 3548               	.LM445:
 3549 13f2 84E0      		ldi r24,lo8(4)
 3550 13f4 90E0      		ldi r25,hi8(4)
 3551 13f6 0E94 0000 		call _Z10modifierupi
 3552               	.LM446:
 3553 13fa 81E0      		ldi r24,lo8(1)
 3554 13fc 90E0      		ldi r25,hi8(1)
 3555 13fe 0E94 0000 		call _Z10modifierupi
 3556 1402 0C94 0000 		jmp .L352
 3557               	.LVL179:
 3558               	.L225:
 3559               	.LM447:
 3560 1406 E130      		cpi r30,1
 3561 1408 F105      		cpc r31,__zero_reg__
 3562 140a 01F4      		brne .L226
 3563               	.LM448:
 3564 140c 82E0      		ldi r24,lo8(2)
 3565 140e 90E0      		ldi r25,hi8(2)
 3566 1410 0E94 0000 		call _Z12modifierdowni
 3567               	.LVL180:
 3568               	.LM449:
 3569 1414 80E2      		ldi r24,lo8(32)
 3570 1416 90E0      		ldi r25,hi8(32)
 3571 1418 0E94 0000 		call _Z8keypressi
 3572               	.LM450:
 3573 141c 82E0      		ldi r24,lo8(2)
 3574 141e 90E0      		ldi r25,hi8(2)
 3575 1420 0E94 0000 		call _Z10modifierupi
 3576               	.LM451:
 3577 1424 84E0      		ldi r24,lo8(4)
 3578 1426 90E0      		ldi r25,hi8(4)
 3579 1428 0E94 0000 		call _Z10modifierupi
 3580               	.LM452:
 3581 142c 81E0      		ldi r24,lo8(1)
 3582 142e 90E0      		ldi r25,hi8(1)
 3583 1430 0E94 0000 		call _Z10modifierupi
 3584 1434 0C94 0000 		jmp .L352
 3585               	.LVL181:
 3586               	.L226:
 3587               	.LM453:
 3588 1438 E230      		cpi r30,2
 3589 143a F105      		cpc r31,__zero_reg__
 3590 143c 01F4      		brne .L227
 3591               	.LM454:
 3592 143e 83E3      		ldi r24,lo8(51)
 3593 1440 90E0      		ldi r25,hi8(51)
 3594 1442 0E94 0000 		call _Z8keypressi
 3595               	.LVL182:
 3596               	.LM455:
 3597 1446 82E0      		ldi r24,lo8(2)
 3598 1448 90E0      		ldi r25,hi8(2)
 3599 144a 0E94 0000 		call _Z10modifierupi
 3600               	.LM456:
 3601 144e 84E0      		ldi r24,lo8(4)
 3602 1450 90E0      		ldi r25,hi8(4)
 3603 1452 0E94 0000 		call _Z10modifierupi
 3604               	.LM457:
 3605 1456 81E0      		ldi r24,lo8(1)
 3606 1458 90E0      		ldi r25,hi8(1)
 3607 145a 0E94 0000 		call _Z10modifierupi
 3608 145e 0C94 0000 		jmp .L352
 3609               	.LVL183:
 3610               	.L227:
 3611               	.LM458:
 3612 1462 3397      		sbiw r30,3
 3613 1464 01F0      		breq .+4
 3614 1466 0C94 0000 		jmp .L217
 3615               	.LM459:
 3616 146a 83E4      		ldi r24,lo8(67)
 3617 146c 90E0      		ldi r25,hi8(67)
 3618 146e 0E94 0000 		call _Z8keypressi
 3619               	.LVL184:
 3620               	.LM460:
 3621 1472 82E0      		ldi r24,lo8(2)
 3622 1474 90E0      		ldi r25,hi8(2)
 3623 1476 0E94 0000 		call _Z10modifierupi
 3624               	.LM461:
 3625 147a 84E0      		ldi r24,lo8(4)
 3626 147c 90E0      		ldi r25,hi8(4)
 3627 147e 0E94 0000 		call _Z10modifierupi
 3628               	.LM462:
 3629 1482 81E0      		ldi r24,lo8(1)
 3630 1484 90E0      		ldi r25,hi8(1)
 3631 1486 0E94 0000 		call _Z10modifierupi
 3632 148a 0C94 0000 		jmp .L352
 3633               	.LVL185:
 3634               	.L218:
 3635               	.LM463:
 3636 148e 8985      		ldd r24,Y+9
 3637 1490 9A85      		ldd r25,Y+10
 3638 1492 AB85      		ldd r26,Y+11
 3639 1494 BC85      		ldd r27,Y+12
 3640 1496 0097      		sbiw r24,0
 3641 1498 A105      		cpc r26,__zero_reg__
 3642 149a B105      		cpc r27,__zero_reg__
 3643 149c 01F4      		brne .+2
 3644 149e 00C0      		rjmp .L228
 3645               	.LBB652:
 3646               	.LBB653:
 3647               	.LM464:
 3648 14a0 6217      		cp r22,r18
 3649 14a2 7307      		cpc r23,r19
 3650 14a4 04F4      		brge .+4
 3651 14a6 0C94 0000 		jmp .L352
 3652               	.LM465:
 3653 14aa F801      		movw r30,r16
 3654 14ac E40F      		add r30,r20
 3655 14ae F51F      		adc r31,r21
 3656 14b0 0190      		ld __tmp_reg__,Z+
 3657 14b2 F081      		ld r31,Z
 3658 14b4 E02D      		mov r30,__tmp_reg__
 3659               	.LBE653:
 3660               	.LBE652:
 3661               	.LM466:
 3662 14b6 3097      		sbiw r30,0
 3663 14b8 01F4      		brne .L229
 3664               	.LM467:
 3665 14ba 86E0      		ldi r24,lo8(6)
 3666 14bc 90E0      		ldi r25,hi8(6)
 3667 14be 0E94 0000 		call _Z8keypressi
 3668               	.LVL186:
 3669               	.LM468:
 3670 14c2 82E0      		ldi r24,lo8(2)
 3671 14c4 90E0      		ldi r25,hi8(2)
 3672 14c6 0E94 0000 		call _Z10modifierupi
 3673               	.LM469:
 3674 14ca 84E0      		ldi r24,lo8(4)
 3675 14cc 90E0      		ldi r25,hi8(4)
 3676 14ce 0E94 0000 		call _Z10modifierupi
 3677               	.LM470:
 3678 14d2 81E0      		ldi r24,lo8(1)
 3679 14d4 90E0      		ldi r25,hi8(1)
 3680 14d6 0E94 0000 		call _Z10modifierupi
 3681 14da 0C94 0000 		jmp .L352
 3682               	.LVL187:
 3683               	.L229:
 3684               	.LM471:
 3685 14de E130      		cpi r30,1
 3686 14e0 F105      		cpc r31,__zero_reg__
 3687 14e2 01F4      		brne .L230
 3688               	.LM472:
 3689 14e4 87E2      		ldi r24,lo8(39)
 3690 14e6 90E0      		ldi r25,hi8(39)
 3691 14e8 0E94 0000 		call _Z8keypressi
 3692               	.LVL188:
 3693               	.LM473:
 3694 14ec 82E0      		ldi r24,lo8(2)
 3695 14ee 90E0      		ldi r25,hi8(2)
 3696 14f0 0E94 0000 		call _Z10modifierupi
 3697               	.LM474:
 3698 14f4 84E0      		ldi r24,lo8(4)
 3699 14f6 90E0      		ldi r25,hi8(4)
 3700 14f8 0E94 0000 		call _Z10modifierupi
 3701               	.LM475:
 3702 14fc 81E0      		ldi r24,lo8(1)
 3703 14fe 90E0      		ldi r25,hi8(1)
 3704 1500 0E94 0000 		call _Z10modifierupi
 3705 1504 0C94 0000 		jmp .L352
 3706               	.LVL189:
 3707               	.L230:
 3708               	.LM476:
 3709 1508 E230      		cpi r30,2
 3710 150a F105      		cpc r31,__zero_reg__
 3711 150c 01F4      		brne .L231
 3712               	.LM477:
 3713 150e 82E0      		ldi r24,lo8(2)
 3714 1510 90E0      		ldi r25,hi8(2)
 3715 1512 0E94 0000 		call _Z12modifierdowni
 3716               	.LVL190:
 3717               	.LM478:
 3718 1516 83E3      		ldi r24,lo8(51)
 3719 1518 90E0      		ldi r25,hi8(51)
 3720 151a 0E94 0000 		call _Z8keypressi
 3721               	.LM479:
 3722 151e 82E0      		ldi r24,lo8(2)
 3723 1520 90E0      		ldi r25,hi8(2)
 3724 1522 0E94 0000 		call _Z10modifierupi
 3725               	.LM480:
 3726 1526 84E0      		ldi r24,lo8(4)
 3727 1528 90E0      		ldi r25,hi8(4)
 3728 152a 0E94 0000 		call _Z10modifierupi
 3729               	.LM481:
 3730 152e 81E0      		ldi r24,lo8(1)
 3731 1530 90E0      		ldi r25,hi8(1)
 3732 1532 0E94 0000 		call _Z10modifierupi
 3733 1536 0C94 0000 		jmp .L352
 3734               	.LVL191:
 3735               	.L231:
 3736               	.LM482:
 3737 153a 3397      		sbiw r30,3
 3738 153c 01F0      		breq .+4
 3739 153e 0C94 0000 		jmp .L217
 3740               	.LM483:
 3741 1542 84E4      		ldi r24,lo8(68)
 3742 1544 90E0      		ldi r25,hi8(68)
 3743 1546 0E94 0000 		call _Z8keypressi
 3744               	.LVL192:
 3745               	.LM484:
 3746 154a 82E0      		ldi r24,lo8(2)
 3747 154c 90E0      		ldi r25,hi8(2)
 3748 154e 0E94 0000 		call _Z10modifierupi
 3749               	.LM485:
 3750 1552 84E0      		ldi r24,lo8(4)
 3751 1554 90E0      		ldi r25,hi8(4)
 3752 1556 0E94 0000 		call _Z10modifierupi
 3753               	.LM486:
 3754 155a 81E0      		ldi r24,lo8(1)
 3755 155c 90E0      		ldi r25,hi8(1)
 3756 155e 0E94 0000 		call _Z10modifierupi
 3757 1562 0C94 0000 		jmp .L352
 3758               	.LVL193:
 3759               	.L228:
 3760               	.LM487:
 3761 1566 8D85      		ldd r24,Y+13
 3762 1568 9E85      		ldd r25,Y+14
 3763 156a AF85      		ldd r26,Y+15
 3764 156c B889      		ldd r27,Y+16
 3765 156e 0097      		sbiw r24,0
 3766 1570 A105      		cpc r26,__zero_reg__
 3767 1572 B105      		cpc r27,__zero_reg__
 3768 1574 01F4      		brne .+2
 3769 1576 00C0      		rjmp .L232
 3770               	.LBB654:
 3771               	.LBB655:
 3772               	.LM488:
 3773 1578 6217      		cp r22,r18
 3774 157a 7307      		cpc r23,r19
 3775 157c 04F4      		brge .+4
 3776 157e 0C94 0000 		jmp .L352
 3777               	.LM489:
 3778 1582 F801      		movw r30,r16
 3779 1584 E40F      		add r30,r20
 3780 1586 F51F      		adc r31,r21
 3781 1588 0190      		ld __tmp_reg__,Z+
 3782 158a F081      		ld r31,Z
 3783 158c E02D      		mov r30,__tmp_reg__
 3784               	.LBE655:
 3785               	.LBE654:
 3786               	.LM490:
 3787 158e 3097      		sbiw r30,0
 3788 1590 01F4      		brne .L233
 3789               	.LM491:
 3790 1592 83E1      		ldi r24,lo8(19)
 3791 1594 90E0      		ldi r25,hi8(19)
 3792 1596 0E94 0000 		call _Z8keypressi
 3793               	.LVL194:
 3794               	.LM492:
 3795 159a 82E0      		ldi r24,lo8(2)
 3796 159c 90E0      		ldi r25,hi8(2)
 3797 159e 0E94 0000 		call _Z10modifierupi
 3798               	.LM493:
 3799 15a2 84E0      		ldi r24,lo8(4)
 3800 15a4 90E0      		ldi r25,hi8(4)
 3801 15a6 0E94 0000 		call _Z10modifierupi
 3802               	.LM494:
 3803 15aa 81E0      		ldi r24,lo8(1)
 3804 15ac 90E0      		ldi r25,hi8(1)
 3805 15ae 0E94 0000 		call _Z10modifierupi
 3806 15b2 0C94 0000 		jmp .L352
 3807               	.LVL195:
 3808               	.L233:
 3809               	.LM495:
 3810 15b6 E130      		cpi r30,1
 3811 15b8 F105      		cpc r31,__zero_reg__
 3812 15ba 01F4      		brne .L234
 3813               	.LM496:
 3814 15bc 82E0      		ldi r24,lo8(2)
 3815 15be 90E0      		ldi r25,hi8(2)
 3816 15c0 0E94 0000 		call _Z12modifierdowni
 3817               	.LVL196:
 3818               	.LM497:
 3819 15c4 85E2      		ldi r24,lo8(37)
 3820 15c6 90E0      		ldi r25,hi8(37)
 3821 15c8 0E94 0000 		call _Z8keypressi
 3822               	.LM498:
 3823 15cc 82E0      		ldi r24,lo8(2)
 3824 15ce 90E0      		ldi r25,hi8(2)
 3825 15d0 0E94 0000 		call _Z10modifierupi
 3826               	.LM499:
 3827 15d4 84E0      		ldi r24,lo8(4)
 3828 15d6 90E0      		ldi r25,hi8(4)
 3829 15d8 0E94 0000 		call _Z10modifierupi
 3830               	.LM500:
 3831 15dc 81E0      		ldi r24,lo8(1)
 3832 15de 90E0      		ldi r25,hi8(1)
 3833 15e0 0E94 0000 		call _Z10modifierupi
 3834 15e4 0C94 0000 		jmp .L352
 3835               	.LVL197:
 3836               	.L234:
 3837               	.LM501:
 3838 15e8 E230      		cpi r30,2
 3839 15ea F105      		cpc r31,__zero_reg__
 3840 15ec 01F4      		brne .L235
 3841               	.LM502:
 3842 15ee 82E0      		ldi r24,lo8(2)
 3843 15f0 90E0      		ldi r25,hi8(2)
 3844 15f2 0E94 0000 		call _Z12modifierdowni
 3845               	.LVL198:
 3846               	.LM503:
 3847 15f6 85E3      		ldi r24,lo8(53)
 3848 15f8 90E0      		ldi r25,hi8(53)
 3849 15fa 0E94 0000 		call _Z8keypressi
 3850               	.LM504:
 3851 15fe 82E0      		ldi r24,lo8(2)
 3852 1600 90E0      		ldi r25,hi8(2)
 3853 1602 0E94 0000 		call _Z10modifierupi
 3854               	.LM505:
 3855 1606 84E0      		ldi r24,lo8(4)
 3856 1608 90E0      		ldi r25,hi8(4)
 3857 160a 0E94 0000 		call _Z10modifierupi
 3858               	.LM506:
 3859 160e 81E0      		ldi r24,lo8(1)
 3860 1610 90E0      		ldi r25,hi8(1)
 3861 1612 0E94 0000 		call _Z10modifierupi
 3862 1616 0C94 0000 		jmp .L352
 3863               	.LVL199:
 3864               	.L235:
 3865               	.LM507:
 3866 161a 3397      		sbiw r30,3
 3867 161c 01F0      		breq .+4
 3868 161e 0C94 0000 		jmp .L217
 3869               	.LM508:
 3870 1622 85E4      		ldi r24,lo8(69)
 3871 1624 90E0      		ldi r25,hi8(69)
 3872 1626 0E94 0000 		call _Z8keypressi
 3873               	.LVL200:
 3874               	.LM509:
 3875 162a 82E0      		ldi r24,lo8(2)
 3876 162c 90E0      		ldi r25,hi8(2)
 3877 162e 0E94 0000 		call _Z10modifierupi
 3878               	.LM510:
 3879 1632 84E0      		ldi r24,lo8(4)
 3880 1634 90E0      		ldi r25,hi8(4)
 3881 1636 0E94 0000 		call _Z10modifierupi
 3882               	.LM511:
 3883 163a 81E0      		ldi r24,lo8(1)
 3884 163c 90E0      		ldi r25,hi8(1)
 3885 163e 0E94 0000 		call _Z10modifierupi
 3886 1642 0C94 0000 		jmp .L352
 3887               	.LVL201:
 3888               	.L232:
 3889               	.LM512:
 3890 1646 8989      		ldd r24,Y+17
 3891 1648 9A89      		ldd r25,Y+18
 3892 164a AB89      		ldd r26,Y+19
 3893 164c BC89      		ldd r27,Y+20
 3894 164e 0097      		sbiw r24,0
 3895 1650 A105      		cpc r26,__zero_reg__
 3896 1652 B105      		cpc r27,__zero_reg__
 3897 1654 01F4      		brne .+2
 3898 1656 00C0      		rjmp .L236
 3899               	.LBB656:
 3900               	.LBB657:
 3901               	.LM513:
 3902 1658 6217      		cp r22,r18
 3903 165a 7307      		cpc r23,r19
 3904 165c 04F4      		brge .+4
 3905 165e 0C94 0000 		jmp .L352
 3906               	.LM514:
 3907 1662 F801      		movw r30,r16
 3908 1664 E40F      		add r30,r20
 3909 1666 F51F      		adc r31,r21
 3910 1668 0190      		ld __tmp_reg__,Z+
 3911 166a F081      		ld r31,Z
 3912 166c E02D      		mov r30,__tmp_reg__
 3913               	.LBE657:
 3914               	.LBE656:
 3915               	.LM515:
 3916 166e 3097      		sbiw r30,0
 3917 1670 01F4      		brne .L237
 3918               	.LM516:
 3919 1672 8FE0      		ldi r24,lo8(15)
 3920 1674 90E0      		ldi r25,hi8(15)
 3921 1676 0E94 0000 		call _Z8keypressi
 3922               	.LVL202:
 3923               	.LM517:
 3924 167a 82E0      		ldi r24,lo8(2)
 3925 167c 90E0      		ldi r25,hi8(2)
 3926 167e 0E94 0000 		call _Z10modifierupi
 3927               	.LM518:
 3928 1682 84E0      		ldi r24,lo8(4)
 3929 1684 90E0      		ldi r25,hi8(4)
 3930 1686 0E94 0000 		call _Z10modifierupi
 3931               	.LM519:
 3932 168a 81E0      		ldi r24,lo8(1)
 3933 168c 90E0      		ldi r25,hi8(1)
 3934 168e 0E94 0000 		call _Z10modifierupi
 3935 1692 0C94 0000 		jmp .L352
 3936               	.LVL203:
 3937               	.L237:
 3938               	.LM520:
 3939 1696 E130      		cpi r30,1
 3940 1698 F105      		cpc r31,__zero_reg__
 3941 169a 01F4      		brne .L238
 3942               	.LM521:
 3943 169c 85E2      		ldi r24,lo8(37)
 3944 169e 90E0      		ldi r25,hi8(37)
 3945 16a0 0E94 0000 		call _Z8keypressi
 3946               	.LVL204:
 3947               	.LM522:
 3948 16a4 82E0      		ldi r24,lo8(2)
 3949 16a6 90E0      		ldi r25,hi8(2)
 3950 16a8 0E94 0000 		call _Z10modifierupi
 3951               	.LM523:
 3952 16ac 84E0      		ldi r24,lo8(4)
 3953 16ae 90E0      		ldi r25,hi8(4)
 3954 16b0 0E94 0000 		call _Z10modifierupi
 3955               	.LM524:
 3956 16b4 81E0      		ldi r24,lo8(1)
 3957 16b6 90E0      		ldi r25,hi8(1)
 3958 16b8 0E94 0000 		call _Z10modifierupi
 3959 16bc 0C94 0000 		jmp .L352
 3960               	.LVL205:
 3961               	.L238:
 3962               	.LM525:
 3963 16c0 E230      		cpi r30,2
 3964 16c2 F105      		cpc r31,__zero_reg__
 3965 16c4 01F4      		brne .L239
 3966               	.LM526:
 3967 16c6 82E0      		ldi r24,lo8(2)
 3968 16c8 90E0      		ldi r25,hi8(2)
 3969 16ca 0E94 0000 		call _Z12modifierdowni
 3970               	.LVL206:
 3971               	.LM527:
 3972 16ce 87E3      		ldi r24,lo8(55)
 3973 16d0 90E0      		ldi r25,hi8(55)
 3974 16d2 0E94 0000 		call _Z8keypressi
 3975               	.LM528:
 3976 16d6 82E0      		ldi r24,lo8(2)
 3977 16d8 90E0      		ldi r25,hi8(2)
 3978 16da 0E94 0000 		call _Z10modifierupi
 3979               	.LM529:
 3980 16de 84E0      		ldi r24,lo8(4)
 3981 16e0 90E0      		ldi r25,hi8(4)
 3982 16e2 0E94 0000 		call _Z10modifierupi
 3983               	.LM530:
 3984 16e6 81E0      		ldi r24,lo8(1)
 3985 16e8 90E0      		ldi r25,hi8(1)
 3986 16ea 0E94 0000 		call _Z10modifierupi
 3987 16ee 0C94 0000 		jmp .L352
 3988               	.LVL207:
 3989               	.L239:
 3990               	.LM531:
 3991 16f2 3397      		sbiw r30,3
 3992 16f4 01F0      		breq .+4
 3993 16f6 0C94 0000 		jmp .L217
 3994               	.LM532:
 3995 16fa 81E4      		ldi r24,lo8(65)
 3996 16fc 90E0      		ldi r25,hi8(65)
 3997 16fe 0E94 0000 		call _Z8keypressi
 3998               	.LVL208:
 3999               	.LM533:
 4000 1702 82E0      		ldi r24,lo8(2)
 4001 1704 90E0      		ldi r25,hi8(2)
 4002 1706 0E94 0000 		call _Z10modifierupi
 4003               	.LM534:
 4004 170a 84E0      		ldi r24,lo8(4)
 4005 170c 90E0      		ldi r25,hi8(4)
 4006 170e 0E94 0000 		call _Z10modifierupi
 4007               	.LM535:
 4008 1712 81E0      		ldi r24,lo8(1)
 4009 1714 90E0      		ldi r25,hi8(1)
 4010 1716 0E94 0000 		call _Z10modifierupi
 4011 171a 0C94 0000 		jmp .L352
 4012               	.LVL209:
 4013               	.L236:
 4014               	.LM536:
 4015 171e C7FE      		sbrs r12,7
 4016 1720 00C0      		rjmp .L240
 4017               	.LBB658:
 4018               	.LBB659:
 4019               	.LM537:
 4020 1722 6217      		cp r22,r18
 4021 1724 7307      		cpc r23,r19
 4022 1726 04F4      		brge .+4
 4023 1728 0C94 0000 		jmp .L352
 4024               	.LM538:
 4025 172c F801      		movw r30,r16
 4026 172e E40F      		add r30,r20
 4027 1730 F51F      		adc r31,r21
 4028 1732 0190      		ld __tmp_reg__,Z+
 4029 1734 F081      		ld r31,Z
 4030 1736 E02D      		mov r30,__tmp_reg__
 4031               	.LBE659:
 4032               	.LBE658:
 4033               	.LM539:
 4034 1738 3097      		sbiw r30,0
 4035 173a 01F4      		brne .L241
 4036               	.LM540:
 4037 173c 84E1      		ldi r24,lo8(20)
 4038 173e 90E0      		ldi r25,hi8(20)
 4039 1740 0E94 0000 		call _Z8keypressi
 4040               	.LVL210:
 4041               	.LM541:
 4042 1744 82E0      		ldi r24,lo8(2)
 4043 1746 90E0      		ldi r25,hi8(2)
 4044 1748 0E94 0000 		call _Z10modifierupi
 4045               	.LM542:
 4046 174c 84E0      		ldi r24,lo8(4)
 4047 174e 90E0      		ldi r25,hi8(4)
 4048 1750 0E94 0000 		call _Z10modifierupi
 4049               	.LM543:
 4050 1754 81E0      		ldi r24,lo8(1)
 4051 1756 90E0      		ldi r25,hi8(1)
 4052 1758 0E94 0000 		call _Z10modifierupi
 4053 175c 0C94 0000 		jmp .L352
 4054               	.LVL211:
 4055               	.L241:
 4056               	.LM544:
 4057 1760 E130      		cpi r30,1
 4058 1762 F105      		cpc r31,__zero_reg__
 4059 1764 01F4      		brne .L242
 4060               	.LM545:
 4061 1766 83E6      		ldi r24,lo8(99)
 4062 1768 90E0      		ldi r25,hi8(99)
 4063 176a 0E94 0000 		call _Z8keypressi
 4064               	.LVL212:
 4065               	.LM546:
 4066 176e 82E0      		ldi r24,lo8(2)
 4067 1770 90E0      		ldi r25,hi8(2)
 4068 1772 0E94 0000 		call _Z10modifierupi
 4069               	.LM547:
 4070 1776 84E0      		ldi r24,lo8(4)
 4071 1778 90E0      		ldi r25,hi8(4)
 4072 177a 0E94 0000 		call _Z10modifierupi
 4073               	.LM548:
 4074 177e 81E0      		ldi r24,lo8(1)
 4075 1780 90E0      		ldi r25,hi8(1)
 4076 1782 0E94 0000 		call _Z10modifierupi
 4077 1786 0C94 0000 		jmp .L352
 4078               	.LVL213:
 4079               	.L242:
 4080               	.LM549:
 4081 178a 3297      		sbiw r30,2
 4082 178c 01F0      		breq .+4
 4083 178e 0C94 0000 		jmp .L217
 4084               	.LM550:
 4085 1792 85E3      		ldi r24,lo8(53)
 4086 1794 90E0      		ldi r25,hi8(53)
 4087 1796 0E94 0000 		call _Z8keypressi
 4088               	.LVL214:
 4089               	.LM551:
 4090 179a 82E0      		ldi r24,lo8(2)
 4091 179c 90E0      		ldi r25,hi8(2)
 4092 179e 0E94 0000 		call _Z10modifierupi
 4093               	.LM552:
 4094 17a2 84E0      		ldi r24,lo8(4)
 4095 17a4 90E0      		ldi r25,hi8(4)
 4096 17a6 0E94 0000 		call _Z10modifierupi
 4097               	.LM553:
 4098 17aa 81E0      		ldi r24,lo8(1)
 4099 17ac 90E0      		ldi r25,hi8(1)
 4100 17ae 0E94 0000 		call _Z10modifierupi
 4101 17b2 0C94 0000 		jmp .L352
 4102               	.LVL215:
 4103               	.L240:
 4104               	.LM554:
 4105 17b6 8D89      		ldd r24,Y+21
 4106 17b8 9E89      		ldd r25,Y+22
 4107 17ba AF89      		ldd r26,Y+23
 4108 17bc B88D      		ldd r27,Y+24
 4109 17be 0097      		sbiw r24,0
 4110 17c0 A105      		cpc r26,__zero_reg__
 4111 17c2 B105      		cpc r27,__zero_reg__
 4112 17c4 01F4      		brne .+2
 4113 17c6 00C0      		rjmp .L243
 4114               	.LBB660:
 4115               	.LBB661:
 4116               	.LM555:
 4117 17c8 6217      		cp r22,r18
 4118 17ca 7307      		cpc r23,r19
 4119 17cc 04F4      		brge .+4
 4120 17ce 0C94 0000 		jmp .L352
 4121               	.LM556:
 4122 17d2 F801      		movw r30,r16
 4123 17d4 E40F      		add r30,r20
 4124 17d6 F51F      		adc r31,r21
 4125 17d8 0190      		ld __tmp_reg__,Z+
 4126 17da F081      		ld r31,Z
 4127 17dc E02D      		mov r30,__tmp_reg__
 4128               	.LBE661:
 4129               	.LBE660:
 4130               	.LM557:
 4131 17de 3097      		sbiw r30,0
 4132 17e0 01F4      		brne .L244
 4133               	.LM558:
 4134 17e2 8CE1      		ldi r24,lo8(28)
 4135 17e4 90E0      		ldi r25,hi8(28)
 4136 17e6 0E94 0000 		call _Z8keypressi
 4137               	.LVL216:
 4138               	.LM559:
 4139 17ea 82E0      		ldi r24,lo8(2)
 4140 17ec 90E0      		ldi r25,hi8(2)
 4141 17ee 0E94 0000 		call _Z10modifierupi
 4142               	.LM560:
 4143 17f2 84E0      		ldi r24,lo8(4)
 4144 17f4 90E0      		ldi r25,hi8(4)
 4145 17f6 0E94 0000 		call _Z10modifierupi
 4146               	.LM561:
 4147 17fa 81E0      		ldi r24,lo8(1)
 4148 17fc 90E0      		ldi r25,hi8(1)
 4149 17fe 0E94 0000 		call _Z10modifierupi
 4150 1802 0C94 0000 		jmp .L352
 4151               	.LVL217:
 4152               	.L244:
 4153               	.LM562:
 4154 1806 E230      		cpi r30,2
 4155 1808 F105      		cpc r31,__zero_reg__
 4156 180a 01F4      		brne .L245
 4157               	.LM563:
 4158 180c 82E0      		ldi r24,lo8(2)
 4159 180e 90E0      		ldi r25,hi8(2)
 4160 1810 0E94 0000 		call _Z12modifierdowni
 4161               	.LVL218:
 4162               	.LM564:
 4163 1814 8DE2      		ldi r24,lo8(45)
 4164 1816 90E0      		ldi r25,hi8(45)
 4165 1818 0E94 0000 		call _Z8keypressi
 4166               	.LM565:
 4167 181c 82E0      		ldi r24,lo8(2)
 4168 181e 90E0      		ldi r25,hi8(2)
 4169 1820 0E94 0000 		call _Z10modifierupi
 4170               	.LM566:
 4171 1824 84E0      		ldi r24,lo8(4)
 4172 1826 90E0      		ldi r25,hi8(4)
 4173 1828 0E94 0000 		call _Z10modifierupi
 4174               	.LM567:
 4175 182c 81E0      		ldi r24,lo8(1)
 4176 182e 90E0      		ldi r25,hi8(1)
 4177 1830 0E94 0000 		call _Z10modifierupi
 4178 1834 0C94 0000 		jmp .L352
 4179               	.LVL219:
 4180               	.L245:
 4181               	.LM568:
 4182 1838 3397      		sbiw r30,3
 4183 183a 01F0      		breq .+4
 4184 183c 0C94 0000 		jmp .L217
 4185               	.LM569:
 4186 1840 89E4      		ldi r24,lo8(73)
 4187 1842 90E0      		ldi r25,hi8(73)
 4188 1844 0E94 0000 		call _Z8keypressi
 4189               	.LVL220:
 4190               	.LM570:
 4191 1848 82E0      		ldi r24,lo8(2)
 4192 184a 90E0      		ldi r25,hi8(2)
 4193 184c 0E94 0000 		call _Z10modifierupi
 4194               	.LM571:
 4195 1850 84E0      		ldi r24,lo8(4)
 4196 1852 90E0      		ldi r25,hi8(4)
 4197 1854 0E94 0000 		call _Z10modifierupi
 4198               	.LM572:
 4199 1858 81E0      		ldi r24,lo8(1)
 4200 185a 90E0      		ldi r25,hi8(1)
 4201 185c 0E94 0000 		call _Z10modifierupi
 4202 1860 0C94 0000 		jmp .L352
 4203               	.LVL221:
 4204               	.L243:
 4205               	.LM573:
 4206 1864 898D      		ldd r24,Y+25
 4207 1866 9A8D      		ldd r25,Y+26
 4208 1868 AB8D      		ldd r26,Y+27
 4209 186a BC8D      		ldd r27,Y+28
 4210 186c 0097      		sbiw r24,0
 4211 186e A105      		cpc r26,__zero_reg__
 4212 1870 B105      		cpc r27,__zero_reg__
 4213 1872 01F4      		brne .+2
 4214 1874 00C0      		rjmp .L246
 4215               	.LBB662:
 4216               	.LBB663:
 4217               	.LM574:
 4218 1876 6217      		cp r22,r18
 4219 1878 7307      		cpc r23,r19
 4220 187a 04F4      		brge .+4
 4221 187c 0C94 0000 		jmp .L352
 4222               	.LM575:
 4223 1880 F801      		movw r30,r16
 4224 1882 E40F      		add r30,r20
 4225 1884 F51F      		adc r31,r21
 4226 1886 0190      		ld __tmp_reg__,Z+
 4227 1888 F081      		ld r31,Z
 4228 188a E02D      		mov r30,__tmp_reg__
 4229               	.LBE663:
 4230               	.LBE662:
 4231               	.LM576:
 4232 188c 3097      		sbiw r30,0
 4233 188e 01F4      		brne .L247
 4234               	.LM577:
 4235 1890 8BE1      		ldi r24,lo8(27)
 4236 1892 90E0      		ldi r25,hi8(27)
 4237 1894 0E94 0000 		call _Z8keypressi
 4238               	.LVL222:
 4239               	.LM578:
 4240 1898 82E0      		ldi r24,lo8(2)
 4241 189a 90E0      		ldi r25,hi8(2)
 4242 189c 0E94 0000 		call _Z10modifierupi
 4243               	.LM579:
 4244 18a0 84E0      		ldi r24,lo8(4)
 4245 18a2 90E0      		ldi r25,hi8(4)
 4246 18a4 0E94 0000 		call _Z10modifierupi
 4247               	.LM580:
 4248 18a8 81E0      		ldi r24,lo8(1)
 4249 18aa 90E0      		ldi r25,hi8(1)
 4250 18ac 0E94 0000 		call _Z10modifierupi
 4251 18b0 0C94 0000 		jmp .L352
 4252               	.LVL223:
 4253               	.L247:
 4254               	.LM581:
 4255 18b4 E230      		cpi r30,2
 4256 18b6 F105      		cpc r31,__zero_reg__
 4257 18b8 01F4      		brne .L248
 4258               	.LM582:
 4259 18ba 82E0      		ldi r24,lo8(2)
 4260 18bc 90E0      		ldi r25,hi8(2)
 4261 18be 0E94 0000 		call _Z12modifierdowni
 4262               	.LVL224:
 4263               	.LM583:
 4264 18c2 81E3      		ldi r24,lo8(49)
 4265 18c4 90E0      		ldi r25,hi8(49)
 4266 18c6 0E94 0000 		call _Z8keypressi
 4267               	.LM584:
 4268 18ca 82E0      		ldi r24,lo8(2)
 4269 18cc 90E0      		ldi r25,hi8(2)
 4270 18ce 0E94 0000 		call _Z10modifierupi
 4271               	.LM585:
 4272 18d2 84E0      		ldi r24,lo8(4)
 4273 18d4 90E0      		ldi r25,hi8(4)
 4274 18d6 0E94 0000 		call _Z10modifierupi
 4275               	.LM586:
 4276 18da 81E0      		ldi r24,lo8(1)
 4277 18dc 90E0      		ldi r25,hi8(1)
 4278 18de 0E94 0000 		call _Z10modifierupi
 4279 18e2 0C94 0000 		jmp .L352
 4280               	.LVL225:
 4281               	.L248:
 4282               	.LM587:
 4283 18e6 3397      		sbiw r30,3
 4284 18e8 01F0      		breq .+4
 4285 18ea 0C94 0000 		jmp .L217
 4286               	.LM588:
 4287 18ee 86E4      		ldi r24,lo8(70)
 4288 18f0 90E0      		ldi r25,hi8(70)
 4289 18f2 0E94 0000 		call _Z8keypressi
 4290               	.LVL226:
 4291               	.LM589:
 4292 18f6 82E0      		ldi r24,lo8(2)
 4293 18f8 90E0      		ldi r25,hi8(2)
 4294 18fa 0E94 0000 		call _Z10modifierupi
 4295               	.LM590:
 4296 18fe 84E0      		ldi r24,lo8(4)
 4297 1900 90E0      		ldi r25,hi8(4)
 4298 1902 0E94 0000 		call _Z10modifierupi
 4299               	.LM591:
 4300 1906 81E0      		ldi r24,lo8(1)
 4301 1908 90E0      		ldi r25,hi8(1)
 4302 190a 0E94 0000 		call _Z10modifierupi
 4303 190e 0C94 0000 		jmp .L352
 4304               	.LVL227:
 4305               	.L246:
 4306               	.LM592:
 4307 1912 8D8D      		ldd r24,Y+29
 4308 1914 9E8D      		ldd r25,Y+30
 4309 1916 AF8D      		ldd r26,Y+31
 4310 1918 B8A1      		ldd r27,Y+32
 4311 191a 0097      		sbiw r24,0
 4312 191c A105      		cpc r26,__zero_reg__
 4313 191e B105      		cpc r27,__zero_reg__
 4314 1920 01F0      		breq .L249
 4315               	.LBB664:
 4316               	.LBB665:
 4317               	.LM593:
 4318 1922 6217      		cp r22,r18
 4319 1924 7307      		cpc r23,r19
 4320 1926 04F4      		brge .+4
 4321 1928 0C94 0000 		jmp .L352
 4322               	.LM594:
 4323 192c F801      		movw r30,r16
 4324 192e E40F      		add r30,r20
 4325 1930 F51F      		adc r31,r21
 4326 1932 0190      		ld __tmp_reg__,Z+
 4327 1934 F081      		ld r31,Z
 4328 1936 E02D      		mov r30,__tmp_reg__
 4329               	.LBE665:
 4330               	.LBE664:
 4331               	.LM595:
 4332 1938 3097      		sbiw r30,0
 4333 193a 01F4      		brne .L250
 4334               	.LM596:
 4335 193c 86E3      		ldi r24,lo8(54)
 4336 193e 90E0      		ldi r25,hi8(54)
 4337 1940 0E94 0000 		call _Z8keypressi
 4338               	.LVL228:
 4339               	.LM597:
 4340 1944 82E0      		ldi r24,lo8(2)
 4341 1946 90E0      		ldi r25,hi8(2)
 4342 1948 0E94 0000 		call _Z10modifierupi
 4343               	.LM598:
 4344 194c 84E0      		ldi r24,lo8(4)
 4345 194e 90E0      		ldi r25,hi8(4)
 4346 1950 0E94 0000 		call _Z10modifierupi
 4347               	.LM599:
 4348 1954 81E0      		ldi r24,lo8(1)
 4349 1956 90E0      		ldi r25,hi8(1)
 4350 1958 0E94 0000 		call _Z10modifierupi
 4351 195c 0C94 0000 		jmp .L352
 4352               	.LVL229:
 4353               	.L250:
 4354               	.LM600:
 4355 1960 E130      		cpi r30,1
 4356 1962 F105      		cpc r31,__zero_reg__
 4357 1964 01F0      		breq .L251
 4358 1966 E230      		cpi r30,2
 4359 1968 F105      		cpc r31,__zero_reg__
 4360 196a 01F0      		breq .L251
 4361 196c 3397      		sbiw r30,3
 4362 196e 01F0      		breq .+4
 4363 1970 0C94 0000 		jmp .L217
 4364               	.L251:
 4365               	.LM601:
 4366 1974 8CE4      		ldi r24,lo8(76)
 4367 1976 90E0      		ldi r25,hi8(76)
 4368 1978 0E94 0000 		call _Z8keypressi
 4369               	.LVL230:
 4370               	.LM602:
 4371 197c 82E0      		ldi r24,lo8(2)
 4372 197e 90E0      		ldi r25,hi8(2)
 4373 1980 0E94 0000 		call _Z10modifierupi
 4374               	.LM603:
 4375 1984 84E0      		ldi r24,lo8(4)
 4376 1986 90E0      		ldi r25,hi8(4)
 4377 1988 0E94 0000 		call _Z10modifierupi
 4378               	.LM604:
 4379 198c 81E0      		ldi r24,lo8(1)
 4380 198e 90E0      		ldi r25,hi8(1)
 4381 1990 0E94 0000 		call _Z10modifierupi
 4382 1994 0C94 0000 		jmp .L352
 4383               	.LVL231:
 4384               	.L249:
 4385               	.LM605:
 4386 1998 89A1      		ldd r24,Y+33
 4387 199a 9AA1      		ldd r25,Y+34
 4388 199c ABA1      		ldd r26,Y+35
 4389 199e BCA1      		ldd r27,Y+36
 4390 19a0 0097      		sbiw r24,0
 4391 19a2 A105      		cpc r26,__zero_reg__
 4392 19a4 B105      		cpc r27,__zero_reg__
 4393 19a6 01F4      		brne .+2
 4394 19a8 00C0      		rjmp .L252
 4395               	.LM606:
 4396 19aa D701      		movw r26,r14
 4397 19ac C601      		movw r24,r12
 4398 19ae 8070      		andi r24,lo8(4202496)
 4399 19b0 9072      		andi r25,hi8(4202496)
 4400 19b2 A074      		andi r26,hlo8(4202496)
 4401 19b4 B070      		andi r27,hhi8(4202496)
 4402 19b6 8050      		subi r24,lo8(4202496)
 4403 19b8 9042      		sbci r25,hi8(4202496)
 4404 19ba A044      		sbci r26,hlo8(4202496)
 4405 19bc B040      		sbci r27,hhi8(4202496)
 4406 19be 01F4      		brne .L253
 4407               	.LBB666:
 4408               	.LBB667:
 4409               	.LM607:
 4410 19c0 6217      		cp r22,r18
 4411 19c2 7307      		cpc r23,r19
 4412 19c4 04F4      		brge .+4
 4413 19c6 0C94 0000 		jmp .L352
 4414               	.LM608:
 4415 19ca F801      		movw r30,r16
 4416 19cc E40F      		add r30,r20
 4417 19ce F51F      		adc r31,r21
 4418 19d0 0190      		ld __tmp_reg__,Z+
 4419 19d2 F081      		ld r31,Z
 4420 19d4 E02D      		mov r30,__tmp_reg__
 4421               	.LBE667:
 4422               	.LBE666:
 4423               	.LM609:
 4424 19d6 3097      		sbiw r30,0
 4425 19d8 01F4      		brne .L254
 4426               	.LM610:
 4427 19da 8AE2      		ldi r24,lo8(42)
 4428 19dc 90E0      		ldi r25,hi8(42)
 4429 19de 0E94 0000 		call _Z8keypressi
 4430               	.LVL232:
 4431               	.LM611:
 4432 19e2 82E0      		ldi r24,lo8(2)
 4433 19e4 90E0      		ldi r25,hi8(2)
 4434 19e6 0E94 0000 		call _Z10modifierupi
 4435               	.LM612:
 4436 19ea 84E0      		ldi r24,lo8(4)
 4437 19ec 90E0      		ldi r25,hi8(4)
 4438 19ee 0E94 0000 		call _Z10modifierupi
 4439               	.LM613:
 4440 19f2 81E0      		ldi r24,lo8(1)
 4441 19f4 90E0      		ldi r25,hi8(1)
 4442 19f6 0E94 0000 		call _Z10modifierupi
 4443 19fa 00C0      		rjmp .L352
 4444               	.LVL233:
 4445               	.L254:
 4446               	.LM614:
 4447 19fc E130      		cpi r30,1
 4448 19fe F105      		cpc r31,__zero_reg__
 4449 1a00 01F0      		breq .L255
 4450 1a02 E230      		cpi r30,2
 4451 1a04 F105      		cpc r31,__zero_reg__
 4452 1a06 01F0      		breq .L255
 4453 1a08 3397      		sbiw r30,3
 4454 1a0a 01F0      		breq .+2
 4455 1a0c 00C0      		rjmp .L217
 4456               	.L255:
 4457               	.LM615:
 4458 1a0e 8CE2      		ldi r24,lo8(44)
 4459 1a10 90E0      		ldi r25,hi8(44)
 4460 1a12 0E94 0000 		call _Z8keypressi
 4461               	.LVL234:
 4462               	.LM616:
 4463 1a16 82E0      		ldi r24,lo8(2)
 4464 1a18 90E0      		ldi r25,hi8(2)
 4465 1a1a 0E94 0000 		call _Z10modifierupi
 4466               	.LM617:
 4467 1a1e 84E0      		ldi r24,lo8(4)
 4468 1a20 90E0      		ldi r25,hi8(4)
 4469 1a22 0E94 0000 		call _Z10modifierupi
 4470               	.LM618:
 4471 1a26 81E0      		ldi r24,lo8(1)
 4472 1a28 90E0      		ldi r25,hi8(1)
 4473 1a2a 0E94 0000 		call _Z10modifierupi
 4474 1a2e 00C0      		rjmp .L352
 4475               	.LVL235:
 4476               	.L253:
 4477               	.LBB668:
 4478               	.LBB669:
 4479               	.LM619:
 4480 1a30 6217      		cp r22,r18
 4481 1a32 7307      		cpc r23,r19
 4482 1a34 04F4      		brge .+2
 4483 1a36 00C0      		rjmp .L352
 4484               	.LM620:
 4485 1a38 F801      		movw r30,r16
 4486 1a3a E40F      		add r30,r20
 4487 1a3c F51F      		adc r31,r21
 4488 1a3e 0190      		ld __tmp_reg__,Z+
 4489 1a40 F081      		ld r31,Z
 4490 1a42 E02D      		mov r30,__tmp_reg__
 4491               	.LBE669:
 4492               	.LBE668:
 4493               	.LM621:
 4494 1a44 3097      		sbiw r30,0
 4495 1a46 01F4      		brne .L256
 4496               	.LM622:
 4497 1a48 87E1      		ldi r24,lo8(23)
 4498 1a4a 90E0      		ldi r25,hi8(23)
 4499 1a4c 0E94 0000 		call _Z8keypressi
 4500               	.LVL236:
 4501               	.LM623:
 4502 1a50 82E0      		ldi r24,lo8(2)
 4503 1a52 90E0      		ldi r25,hi8(2)
 4504 1a54 0E94 0000 		call _Z10modifierupi
 4505               	.LM624:
 4506 1a58 84E0      		ldi r24,lo8(4)
 4507 1a5a 90E0      		ldi r25,hi8(4)
 4508 1a5c 0E94 0000 		call _Z10modifierupi
 4509               	.LM625:
 4510 1a60 81E0      		ldi r24,lo8(1)
 4511 1a62 90E0      		ldi r25,hi8(1)
 4512 1a64 0E94 0000 		call _Z10modifierupi
 4513 1a68 00C0      		rjmp .L352
 4514               	.LVL237:
 4515               	.L256:
 4516               	.LM626:
 4517 1a6a E130      		cpi r30,1
 4518 1a6c F105      		cpc r31,__zero_reg__
 4519 1a6e 01F4      		brne .L257
 4520               	.LM627:
 4521 1a70 84E2      		ldi r24,lo8(36)
 4522 1a72 90E0      		ldi r25,hi8(36)
 4523 1a74 0E94 0000 		call _Z8keypressi
 4524               	.LVL238:
 4525               	.LM628:
 4526 1a78 82E0      		ldi r24,lo8(2)
 4527 1a7a 90E0      		ldi r25,hi8(2)
 4528 1a7c 0E94 0000 		call _Z10modifierupi
 4529               	.LM629:
 4530 1a80 84E0      		ldi r24,lo8(4)
 4531 1a82 90E0      		ldi r25,hi8(4)
 4532 1a84 0E94 0000 		call _Z10modifierupi
 4533               	.LM630:
 4534 1a88 81E0      		ldi r24,lo8(1)
 4535 1a8a 90E0      		ldi r25,hi8(1)
 4536 1a8c 0E94 0000 		call _Z10modifierupi
 4537 1a90 00C0      		rjmp .L352
 4538               	.LVL239:
 4539               	.L257:
 4540               	.LM631:
 4541 1a92 E230      		cpi r30,2
 4542 1a94 F105      		cpc r31,__zero_reg__
 4543 1a96 01F4      		brne .L258
 4544               	.LM632:
 4545 1a98 82E0      		ldi r24,lo8(2)
 4546 1a9a 90E0      		ldi r25,hi8(2)
 4547 1a9c 0E94 0000 		call _Z12modifierdowni
 4548               	.LVL240:
 4549               	.LM633:
 4550 1aa0 86E3      		ldi r24,lo8(54)
 4551 1aa2 90E0      		ldi r25,hi8(54)
 4552 1aa4 0E94 0000 		call _Z8keypressi
 4553               	.LM634:
 4554 1aa8 82E0      		ldi r24,lo8(2)
 4555 1aaa 90E0      		ldi r25,hi8(2)
 4556 1aac 0E94 0000 		call _Z10modifierupi
 4557               	.LM635:
 4558 1ab0 84E0      		ldi r24,lo8(4)
 4559 1ab2 90E0      		ldi r25,hi8(4)
 4560 1ab4 0E94 0000 		call _Z10modifierupi
 4561               	.LM636:
 4562 1ab8 81E0      		ldi r24,lo8(1)
 4563 1aba 90E0      		ldi r25,hi8(1)
 4564 1abc 0E94 0000 		call _Z10modifierupi
 4565 1ac0 00C0      		rjmp .L352
 4566               	.LVL241:
 4567               	.L258:
 4568               	.LM637:
 4569 1ac2 3397      		sbiw r30,3
 4570 1ac4 01F0      		breq .+2
 4571 1ac6 00C0      		rjmp .L217
 4572               	.LM638:
 4573 1ac8 80E4      		ldi r24,lo8(64)
 4574 1aca 90E0      		ldi r25,hi8(64)
 4575 1acc 0E94 0000 		call _Z8keypressi
 4576               	.LVL242:
 4577               	.LM639:
 4578 1ad0 82E0      		ldi r24,lo8(2)
 4579 1ad2 90E0      		ldi r25,hi8(2)
 4580 1ad4 0E94 0000 		call _Z10modifierupi
 4581               	.LM640:
 4582 1ad8 84E0      		ldi r24,lo8(4)
 4583 1ada 90E0      		ldi r25,hi8(4)
 4584 1adc 0E94 0000 		call _Z10modifierupi
 4585               	.LM641:
 4586 1ae0 81E0      		ldi r24,lo8(1)
 4587 1ae2 90E0      		ldi r25,hi8(1)
 4588 1ae4 0E94 0000 		call _Z10modifierupi
 4589 1ae8 00C0      		rjmp .L352
 4590               	.LVL243:
 4591               	.L252:
 4592               	.LM642:
 4593 1aea 8DA1      		ldd r24,Y+37
 4594 1aec 9EA1      		ldd r25,Y+38
 4595 1aee AFA1      		ldd r26,Y+39
 4596 1af0 B8A5      		ldd r27,Y+40
 4597 1af2 0097      		sbiw r24,0
 4598 1af4 A105      		cpc r26,__zero_reg__
 4599 1af6 B105      		cpc r27,__zero_reg__
 4600 1af8 01F4      		brne .+2
 4601 1afa 00C0      		rjmp .L259
 4602               	.LBB670:
 4603               	.LBB671:
 4604               	.LM643:
 4605 1afc 6217      		cp r22,r18
 4606 1afe 7307      		cpc r23,r19
 4607 1b00 04F4      		brge .+2
 4608 1b02 00C0      		rjmp .L352
 4609               	.LM644:
 4610 1b04 F801      		movw r30,r16
 4611 1b06 E40F      		add r30,r20
 4612 1b08 F51F      		adc r31,r21
 4613 1b0a 0190      		ld __tmp_reg__,Z+
 4614 1b0c F081      		ld r31,Z
 4615 1b0e E02D      		mov r30,__tmp_reg__
 4616               	.LBE671:
 4617               	.LBE670:
 4618               	.LM645:
 4619 1b10 3097      		sbiw r30,0
 4620 1b12 01F4      		brne .L260
 4621               	.LM646:
 4622 1b14 8AE0      		ldi r24,lo8(10)
 4623 1b16 90E0      		ldi r25,hi8(10)
 4624 1b18 0E94 0000 		call _Z8keypressi
 4625               	.LVL244:
 4626               	.LM647:
 4627 1b1c 82E0      		ldi r24,lo8(2)
 4628 1b1e 90E0      		ldi r25,hi8(2)
 4629 1b20 0E94 0000 		call _Z10modifierupi
 4630               	.LM648:
 4631 1b24 84E0      		ldi r24,lo8(4)
 4632 1b26 90E0      		ldi r25,hi8(4)
 4633 1b28 0E94 0000 		call _Z10modifierupi
 4634               	.LM649:
 4635 1b2c 81E0      		ldi r24,lo8(1)
 4636 1b2e 90E0      		ldi r25,hi8(1)
 4637 1b30 0E94 0000 		call _Z10modifierupi
 4638 1b34 00C0      		rjmp .L352
 4639               	.LVL245:
 4640               	.L260:
 4641               	.LM650:
 4642 1b36 E130      		cpi r30,1
 4643 1b38 F105      		cpc r31,__zero_reg__
 4644 1b3a 01F4      		brne .L261
 4645               	.LM651:
 4646 1b3c 86E2      		ldi r24,lo8(38)
 4647 1b3e 90E0      		ldi r25,hi8(38)
 4648 1b40 0E94 0000 		call _Z8keypressi
 4649               	.LVL246:
 4650               	.LM652:
 4651 1b44 82E0      		ldi r24,lo8(2)
 4652 1b46 90E0      		ldi r25,hi8(2)
 4653 1b48 0E94 0000 		call _Z10modifierupi
 4654               	.LM653:
 4655 1b4c 84E0      		ldi r24,lo8(4)
 4656 1b4e 90E0      		ldi r25,hi8(4)
 4657 1b50 0E94 0000 		call _Z10modifierupi
 4658               	.LM654:
 4659 1b54 81E0      		ldi r24,lo8(1)
 4660 1b56 90E0      		ldi r25,hi8(1)
 4661 1b58 0E94 0000 		call _Z10modifierupi
 4662 1b5c 00C0      		rjmp .L352
 4663               	.LVL247:
 4664               	.L261:
 4665               	.LM655:
 4666 1b5e E230      		cpi r30,2
 4667 1b60 F105      		cpc r31,__zero_reg__
 4668 1b62 01F4      		brne .L262
 4669               	.LM656:
 4670 1b64 88E3      		ldi r24,lo8(56)
 4671 1b66 90E0      		ldi r25,hi8(56)
 4672 1b68 0E94 0000 		call _Z8keypressi
 4673               	.LVL248:
 4674               	.LM657:
 4675 1b6c 82E0      		ldi r24,lo8(2)
 4676 1b6e 90E0      		ldi r25,hi8(2)
 4677 1b70 0E94 0000 		call _Z10modifierupi
 4678               	.LM658:
 4679 1b74 84E0      		ldi r24,lo8(4)
 4680 1b76 90E0      		ldi r25,hi8(4)
 4681 1b78 0E94 0000 		call _Z10modifierupi
 4682               	.LM659:
 4683 1b7c 81E0      		ldi r24,lo8(1)
 4684 1b7e 90E0      		ldi r25,hi8(1)
 4685 1b80 0E94 0000 		call _Z10modifierupi
 4686 1b84 00C0      		rjmp .L352
 4687               	.LVL249:
 4688               	.L262:
 4689               	.LM660:
 4690 1b86 3397      		sbiw r30,3
 4691 1b88 01F0      		breq .+2
 4692 1b8a 00C0      		rjmp .L217
 4693               	.LM661:
 4694 1b8c 82E4      		ldi r24,lo8(66)
 4695 1b8e 90E0      		ldi r25,hi8(66)
 4696 1b90 0E94 0000 		call _Z8keypressi
 4697               	.LVL250:
 4698               	.LM662:
 4699 1b94 82E0      		ldi r24,lo8(2)
 4700 1b96 90E0      		ldi r25,hi8(2)
 4701 1b98 0E94 0000 		call _Z10modifierupi
 4702               	.LM663:
 4703 1b9c 84E0      		ldi r24,lo8(4)
 4704 1b9e 90E0      		ldi r25,hi8(4)
 4705 1ba0 0E94 0000 		call _Z10modifierupi
 4706               	.LM664:
 4707 1ba4 81E0      		ldi r24,lo8(1)
 4708 1ba6 90E0      		ldi r25,hi8(1)
 4709 1ba8 0E94 0000 		call _Z10modifierupi
 4710 1bac 00C0      		rjmp .L352
 4711               	.LVL251:
 4712               	.L259:
 4713               	.LM665:
 4714 1bae C601      		movw r24,r12
 4715               	.LVL252:
 4716 1bb0 8070      		andi r24,lo8(-32768)
 4717 1bb2 9078      		andi r25,hi8(-32768)
 4718 1bb4 892B      		or r24,r25
 4719 1bb6 01F4      		brne .+2
 4720 1bb8 00C0      		rjmp .L263
 4721               	.LBB672:
 4722               	.LBB673:
 4723               	.LM666:
 4724 1bba 6217      		cp r22,r18
 4725 1bbc 7307      		cpc r23,r19
 4726 1bbe 04F4      		brge .+2
 4727 1bc0 00C0      		rjmp .L352
 4728               	.LM667:
 4729 1bc2 F801      		movw r30,r16
 4730 1bc4 E40F      		add r30,r20
 4731 1bc6 F51F      		adc r31,r21
 4732 1bc8 0190      		ld __tmp_reg__,Z+
 4733 1bca F081      		ld r31,Z
 4734 1bcc E02D      		mov r30,__tmp_reg__
 4735               	.LBE673:
 4736               	.LBE672:
 4737               	.LM668:
 4738 1bce 3097      		sbiw r30,0
 4739 1bd0 01F4      		brne .L264
 4740               	.LM669:
 4741 1bd2 8AE1      		ldi r24,lo8(26)
 4742 1bd4 90E0      		ldi r25,hi8(26)
 4743 1bd6 0E94 0000 		call _Z8keypressi
 4744               	.LVL253:
 4745               	.LM670:
 4746 1bda 82E0      		ldi r24,lo8(2)
 4747 1bdc 90E0      		ldi r25,hi8(2)
 4748 1bde 0E94 0000 		call _Z10modifierupi
 4749               	.LM671:
 4750 1be2 84E0      		ldi r24,lo8(4)
 4751 1be4 90E0      		ldi r25,hi8(4)
 4752 1be6 0E94 0000 		call _Z10modifierupi
 4753               	.LM672:
 4754 1bea 81E0      		ldi r24,lo8(1)
 4755 1bec 90E0      		ldi r25,hi8(1)
 4756 1bee 0E94 0000 		call _Z10modifierupi
 4757 1bf2 00C0      		rjmp .L352
 4758               	.LVL254:
 4759               	.L264:
 4760               	.LM673:
 4761 1bf4 E130      		cpi r30,1
 4762 1bf6 F105      		cpc r31,__zero_reg__
 4763 1bf8 01F4      		brne .L265
 4764               	.LM674:
 4765 1bfa 87E6      		ldi r24,lo8(103)
 4766 1bfc 90E0      		ldi r25,hi8(103)
 4767 1bfe 0E94 0000 		call _Z8keypressi
 4768               	.LVL255:
 4769               	.LM675:
 4770 1c02 82E0      		ldi r24,lo8(2)
 4771 1c04 90E0      		ldi r25,hi8(2)
 4772 1c06 0E94 0000 		call _Z10modifierupi
 4773               	.LM676:
 4774 1c0a 84E0      		ldi r24,lo8(4)
 4775 1c0c 90E0      		ldi r25,hi8(4)
 4776 1c0e 0E94 0000 		call _Z10modifierupi
 4777               	.LM677:
 4778 1c12 81E0      		ldi r24,lo8(1)
 4779 1c14 90E0      		ldi r25,hi8(1)
 4780 1c16 0E94 0000 		call _Z10modifierupi
 4781 1c1a 00C0      		rjmp .L352
 4782               	.LVL256:
 4783               	.L265:
 4784               	.LM678:
 4785 1c1c 3297      		sbiw r30,2
 4786 1c1e 01F0      		breq .+2
 4787 1c20 00C0      		rjmp .L217
 4788               	.LM679:
 4789 1c22 8FE2      		ldi r24,lo8(47)
 4790 1c24 90E0      		ldi r25,hi8(47)
 4791 1c26 0E94 0000 		call _Z8keypressi
 4792               	.LVL257:
 4793               	.LM680:
 4794 1c2a 82E0      		ldi r24,lo8(2)
 4795 1c2c 90E0      		ldi r25,hi8(2)
 4796 1c2e 0E94 0000 		call _Z10modifierupi
 4797               	.LM681:
 4798 1c32 84E0      		ldi r24,lo8(4)
 4799 1c34 90E0      		ldi r25,hi8(4)
 4800 1c36 0E94 0000 		call _Z10modifierupi
 4801               	.LM682:
 4802 1c3a 81E0      		ldi r24,lo8(1)
 4803 1c3c 90E0      		ldi r25,hi8(1)
 4804 1c3e 0E94 0000 		call _Z10modifierupi
 4805 1c42 00C0      		rjmp .L352
 4806               	.LVL258:
 4807               	.L263:
 4808               	.LM683:
 4809 1c44 89A5      		ldd r24,Y+41
 4810 1c46 9AA5      		ldd r25,Y+42
 4811 1c48 ABA5      		ldd r26,Y+43
 4812 1c4a BCA5      		ldd r27,Y+44
 4813 1c4c 0097      		sbiw r24,0
 4814 1c4e A105      		cpc r26,__zero_reg__
 4815 1c50 B105      		cpc r27,__zero_reg__
 4816 1c52 01F4      		brne .+2
 4817 1c54 00C0      		rjmp .L266
 4818               	.LBB674:
 4819               	.LBB675:
 4820               	.LM684:
 4821 1c56 6217      		cp r22,r18
 4822 1c58 7307      		cpc r23,r19
 4823 1c5a 04F4      		brge .+2
 4824 1c5c 00C0      		rjmp .L352
 4825               	.LM685:
 4826 1c5e F801      		movw r30,r16
 4827 1c60 E40F      		add r30,r20
 4828 1c62 F51F      		adc r31,r21
 4829 1c64 0190      		ld __tmp_reg__,Z+
 4830 1c66 F081      		ld r31,Z
 4831 1c68 E02D      		mov r30,__tmp_reg__
 4832               	.LBE675:
 4833               	.LBE674:
 4834               	.LM686:
 4835 1c6a 3097      		sbiw r30,0
 4836 1c6c 01F4      		brne .L267
 4837               	.LM687:
 4838 1c6e 8EE0      		ldi r24,lo8(14)
 4839 1c70 90E0      		ldi r25,hi8(14)
 4840 1c72 0E94 0000 		call _Z8keypressi
 4841               	.LVL259:
 4842               	.LM688:
 4843 1c76 82E0      		ldi r24,lo8(2)
 4844 1c78 90E0      		ldi r25,hi8(2)
 4845 1c7a 0E94 0000 		call _Z10modifierupi
 4846               	.LM689:
 4847 1c7e 84E0      		ldi r24,lo8(4)
 4848 1c80 90E0      		ldi r25,hi8(4)
 4849 1c82 0E94 0000 		call _Z10modifierupi
 4850               	.LM690:
 4851 1c86 81E0      		ldi r24,lo8(1)
 4852 1c88 90E0      		ldi r25,hi8(1)
 4853 1c8a 0E94 0000 		call _Z10modifierupi
 4854 1c8e 00C0      		rjmp .L352
 4855               	.LVL260:
 4856               	.L267:
 4857               	.LM691:
 4858 1c90 E130      		cpi r30,1
 4859 1c92 F105      		cpc r31,__zero_reg__
 4860 1c94 01F4      		brne .L268
 4861               	.LM692:
 4862 1c96 82E0      		ldi r24,lo8(2)
 4863 1c98 90E0      		ldi r25,hi8(2)
 4864 1c9a 0E94 0000 		call _Z12modifierdowni
 4865               	.LVL261:
 4866               	.LM693:
 4867 1c9e 83E2      		ldi r24,lo8(35)
 4868 1ca0 90E0      		ldi r25,hi8(35)
 4869 1ca2 0E94 0000 		call _Z8keypressi
 4870               	.LM694:
 4871 1ca6 82E0      		ldi r24,lo8(2)
 4872 1ca8 90E0      		ldi r25,hi8(2)
 4873 1caa 0E94 0000 		call _Z10modifierupi
 4874               	.LM695:
 4875 1cae 84E0      		ldi r24,lo8(4)
 4876 1cb0 90E0      		ldi r25,hi8(4)
 4877 1cb2 0E94 0000 		call _Z10modifierupi
 4878               	.LM696:
 4879 1cb6 81E0      		ldi r24,lo8(1)
 4880 1cb8 90E0      		ldi r25,hi8(1)
 4881 1cba 0E94 0000 		call _Z10modifierupi
 4882 1cbe 00C0      		rjmp .L352
 4883               	.LVL262:
 4884               	.L268:
 4885               	.LM697:
 4886 1cc0 3297      		sbiw r30,2
 4887 1cc2 01F0      		breq .+2
 4888 1cc4 00C0      		rjmp .L217
 4889               	.LM698:
 4890 1cc6 80E3      		ldi r24,lo8(48)
 4891 1cc8 90E0      		ldi r25,hi8(48)
 4892 1cca 0E94 0000 		call _Z8keypressi
 4893               	.LVL263:
 4894               	.LM699:
 4895 1cce 82E0      		ldi r24,lo8(2)
 4896 1cd0 90E0      		ldi r25,hi8(2)
 4897 1cd2 0E94 0000 		call _Z10modifierupi
 4898               	.LM700:
 4899 1cd6 84E0      		ldi r24,lo8(4)
 4900 1cd8 90E0      		ldi r25,hi8(4)
 4901 1cda 0E94 0000 		call _Z10modifierupi
 4902               	.LM701:
 4903 1cde 81E0      		ldi r24,lo8(1)
 4904 1ce0 90E0      		ldi r25,hi8(1)
 4905 1ce2 0E94 0000 		call _Z10modifierupi
 4906 1ce6 00C0      		rjmp .L352
 4907               	.LVL264:
 4908               	.L266:
 4909               	.LM702:
 4910 1ce8 8DA5      		ldd r24,Y+45
 4911 1cea 9EA5      		ldd r25,Y+46
 4912 1cec AFA5      		ldd r26,Y+47
 4913 1cee B8A9      		ldd r27,Y+48
 4914 1cf0 0097      		sbiw r24,0
 4915 1cf2 A105      		cpc r26,__zero_reg__
 4916 1cf4 B105      		cpc r27,__zero_reg__
 4917 1cf6 01F4      		brne .+2
 4918 1cf8 00C0      		rjmp .L269
 4919               	.LBB676:
 4920               	.LBB677:
 4921               	.LM703:
 4922 1cfa 6217      		cp r22,r18
 4923 1cfc 7307      		cpc r23,r19
 4924 1cfe 04F4      		brge .+2
 4925 1d00 00C0      		rjmp .L352
 4926               	.LM704:
 4927 1d02 F801      		movw r30,r16
 4928 1d04 E40F      		add r30,r20
 4929 1d06 F51F      		adc r31,r21
 4930 1d08 0190      		ld __tmp_reg__,Z+
 4931 1d0a F081      		ld r31,Z
 4932 1d0c E02D      		mov r30,__tmp_reg__
 4933               	.LBE677:
 4934               	.LBE676:
 4935               	.LM705:
 4936 1d0e 3097      		sbiw r30,0
 4937 1d10 01F4      		brne .L270
 4938               	.LM706:
 4939 1d12 8DE1      		ldi r24,lo8(29)
 4940 1d14 90E0      		ldi r25,hi8(29)
 4941 1d16 0E94 0000 		call _Z8keypressi
 4942               	.LVL265:
 4943               	.LM707:
 4944 1d1a 82E0      		ldi r24,lo8(2)
 4945 1d1c 90E0      		ldi r25,hi8(2)
 4946 1d1e 0E94 0000 		call _Z10modifierupi
 4947               	.LM708:
 4948 1d22 84E0      		ldi r24,lo8(4)
 4949 1d24 90E0      		ldi r25,hi8(4)
 4950 1d26 0E94 0000 		call _Z10modifierupi
 4951               	.LM709:
 4952 1d2a 81E0      		ldi r24,lo8(1)
 4953 1d2c 90E0      		ldi r25,hi8(1)
 4954 1d2e 0E94 0000 		call _Z10modifierupi
 4955 1d32 00C0      		rjmp .L352
 4956               	.LVL266:
 4957               	.L270:
 4958               	.LM710:
 4959 1d34 E130      		cpi r30,1
 4960 1d36 F105      		cpc r31,__zero_reg__
 4961 1d38 01F4      		brne .L271
 4962               	.LM711:
 4963 1d3a 82E0      		ldi r24,lo8(2)
 4964 1d3c 90E0      		ldi r25,hi8(2)
 4965 1d3e 0E94 0000 		call _Z12modifierdowni
 4966               	.LVL267:
 4967               	.LM712:
 4968 1d42 82E2      		ldi r24,lo8(34)
 4969 1d44 90E0      		ldi r25,hi8(34)
 4970 1d46 0E94 0000 		call _Z8keypressi
 4971               	.LM713:
 4972 1d4a 82E0      		ldi r24,lo8(2)
 4973 1d4c 90E0      		ldi r25,hi8(2)
 4974 1d4e 0E94 0000 		call _Z10modifierupi
 4975               	.LM714:
 4976 1d52 84E0      		ldi r24,lo8(4)
 4977 1d54 90E0      		ldi r25,hi8(4)
 4978 1d56 0E94 0000 		call _Z10modifierupi
 4979               	.LM715:
 4980 1d5a 81E0      		ldi r24,lo8(1)
 4981 1d5c 90E0      		ldi r25,hi8(1)
 4982 1d5e 0E94 0000 		call _Z10modifierupi
 4983 1d62 00C0      		rjmp .L352
 4984               	.LVL268:
 4985               	.L271:
 4986               	.LM716:
 4987 1d64 3297      		sbiw r30,2
 4988 1d66 01F0      		breq .+2
 4989 1d68 00C0      		rjmp .L217
 4990               	.LM717:
 4991 1d6a 81E3      		ldi r24,lo8(49)
 4992 1d6c 90E0      		ldi r25,hi8(49)
 4993 1d6e 0E94 0000 		call _Z8keypressi
 4994               	.LVL269:
 4995               	.LM718:
 4996 1d72 82E0      		ldi r24,lo8(2)
 4997 1d74 90E0      		ldi r25,hi8(2)
 4998 1d76 0E94 0000 		call _Z10modifierupi
 4999               	.LM719:
 5000 1d7a 84E0      		ldi r24,lo8(4)
 5001 1d7c 90E0      		ldi r25,hi8(4)
 5002 1d7e 0E94 0000 		call _Z10modifierupi
 5003               	.LM720:
 5004 1d82 81E0      		ldi r24,lo8(1)
 5005 1d84 90E0      		ldi r25,hi8(1)
 5006 1d86 0E94 0000 		call _Z10modifierupi
 5007 1d8a 00C0      		rjmp .L352
 5008               	.LVL270:
 5009               	.L269:
 5010               	.LM721:
 5011 1d8c 89A9      		ldd r24,Y+49
 5012 1d8e 9AA9      		ldd r25,Y+50
 5013 1d90 ABA9      		ldd r26,Y+51
 5014 1d92 BCA9      		ldd r27,Y+52
 5015 1d94 0097      		sbiw r24,0
 5016 1d96 A105      		cpc r26,__zero_reg__
 5017 1d98 B105      		cpc r27,__zero_reg__
 5018 1d9a 01F4      		brne .+2
 5019 1d9c 00C0      		rjmp .L272
 5020               	.LBB678:
 5021               	.LBB679:
 5022               	.LM722:
 5023 1d9e 6217      		cp r22,r18
 5024 1da0 7307      		cpc r23,r19
 5025 1da2 04F4      		brge .+2
 5026 1da4 00C0      		rjmp .L272
 5027               	.LBE679:
 5028               	.LBE678:
 5029               	.LM723:
 5030 1da6 F801      		movw r30,r16
 5031 1da8 E40F      		add r30,r20
 5032 1daa F51F      		adc r31,r21
 5033 1dac 8081      		ld r24,Z
 5034 1dae 9181      		ldd r25,Z+1
 5035 1db0 892B      		or r24,r25
 5036 1db2 01F0      		breq .+2
 5037 1db4 00C0      		rjmp .L272
 5038               	.LM724:
 5039 1db6 89E1      		ldi r24,lo8(25)
 5040 1db8 90E0      		ldi r25,hi8(25)
 5041 1dba 0E94 0000 		call _Z8keypressi
 5042               	.LVL271:
 5043               	.LM725:
 5044 1dbe 82E0      		ldi r24,lo8(2)
 5045 1dc0 90E0      		ldi r25,hi8(2)
 5046 1dc2 0E94 0000 		call _Z10modifierupi
 5047               	.LM726:
 5048 1dc6 84E0      		ldi r24,lo8(4)
 5049 1dc8 90E0      		ldi r25,hi8(4)
 5050 1dca 0E94 0000 		call _Z10modifierupi
 5051               	.LM727:
 5052 1dce 81E0      		ldi r24,lo8(1)
 5053 1dd0 90E0      		ldi r25,hi8(1)
 5054 1dd2 0E94 0000 		call _Z10modifierupi
 5055 1dd6 00C0      		rjmp .L352
 5056               	.LVL272:
 5057               	.L340:
 5058               	.LBB680:
 5059               	.LBB681:
 5060               	.LM728:
 5061 1dd8 6217      		cp r22,r18
 5062 1dda 7307      		cpc r23,r19
 5063 1ddc 04F4      		brge .+2
 5064 1dde 00C0      		rjmp .L273
 5065               	.LM729:
 5066 1de0 F801      		movw r30,r16
 5067 1de2 E40F      		add r30,r20
 5068 1de4 F51F      		adc r31,r21
 5069 1de6 0190      		ld __tmp_reg__,Z+
 5070 1de8 F081      		ld r31,Z
 5071 1dea E02D      		mov r30,__tmp_reg__
 5072               	.LBE681:
 5073               	.LBE680:
 5074               	.LM730:
 5075 1dec 3097      		sbiw r30,0
 5076 1dee 01F0      		breq .L274
 5077 1df0 E130      		cpi r30,1
 5078 1df2 F105      		cpc r31,__zero_reg__
 5079 1df4 01F0      		breq .L274
 5080 1df6 E230      		cpi r30,2
 5081 1df8 F105      		cpc r31,__zero_reg__
 5082 1dfa 01F0      		breq .L274
 5083 1dfc 3397      		sbiw r30,3
 5084 1dfe 01F0      		breq .+2
 5085 1e00 00C0      		rjmp .L273
 5086               	.L274:
 5087               	.LM731:
 5088 1e02 81E0      		ldi r24,lo8(1)
 5089 1e04 90E0      		ldi r25,hi8(1)
 5090 1e06 0E94 0000 		call _Z8mouseoffi
 5091               	.LVL273:
 5092 1e0a 00C0      		rjmp .L352
 5093               	.LVL274:
 5094               	.L341:
 5095               	.LM732:
 5096 1e0c 87FE      		sbrs r8,7
 5097 1e0e 00C0      		rjmp .L275
 5098               	.LBB682:
 5099               	.LBB683:
 5100               	.LM733:
 5101 1e10 6217      		cp r22,r18
 5102 1e12 7307      		cpc r23,r19
 5103 1e14 04F4      		brge .+2
 5104 1e16 00C0      		rjmp .L352
 5105               	.LM734:
 5106 1e18 F801      		movw r30,r16
 5107 1e1a E40F      		add r30,r20
 5108 1e1c F51F      		adc r31,r21
 5109 1e1e 0190      		ld __tmp_reg__,Z+
 5110 1e20 F081      		ld r31,Z
 5111 1e22 E02D      		mov r30,__tmp_reg__
 5112               	.LBE683:
 5113               	.LBE682:
 5114               	.LM735:
 5115 1e24 3097      		sbiw r30,0
 5116 1e26 01F4      		brne .L276
 5117               	.LM736:
 5118 1e28 8CE2      		ldi r24,lo8(44)
 5119 1e2a 90E0      		ldi r25,hi8(44)
 5120 1e2c 0E94 0000 		call _Z8keypressi
 5121               	.LVL275:
 5122               	.LM737:
 5123 1e30 82E0      		ldi r24,lo8(2)
 5124 1e32 90E0      		ldi r25,hi8(2)
 5125 1e34 0E94 0000 		call _Z10modifierupi
 5126               	.LM738:
 5127 1e38 84E0      		ldi r24,lo8(4)
 5128 1e3a 90E0      		ldi r25,hi8(4)
 5129 1e3c 0E94 0000 		call _Z10modifierupi
 5130               	.LM739:
 5131 1e40 81E0      		ldi r24,lo8(1)
 5132 1e42 90E0      		ldi r25,hi8(1)
 5133 1e44 0E94 0000 		call _Z10modifierupi
 5134 1e48 00C0      		rjmp .L352
 5135               	.LVL276:
 5136               	.L276:
 5137               	.LM740:
 5138 1e4a E130      		cpi r30,1
 5139 1e4c F105      		cpc r31,__zero_reg__
 5140 1e4e 01F0      		breq .L277
 5141 1e50 E230      		cpi r30,2
 5142 1e52 F105      		cpc r31,__zero_reg__
 5143 1e54 01F0      		breq .L277
 5144 1e56 3397      		sbiw r30,3
 5145 1e58 01F0      		breq .+2
 5146 1e5a 00C0      		rjmp .L217
 5147               	.L277:
 5148               	.LM741:
 5149 1e5c 8AE2      		ldi r24,lo8(42)
 5150 1e5e 90E0      		ldi r25,hi8(42)
 5151 1e60 0E94 0000 		call _Z8keypressi
 5152               	.LVL277:
 5153               	.LM742:
 5154 1e64 82E0      		ldi r24,lo8(2)
 5155 1e66 90E0      		ldi r25,hi8(2)
 5156 1e68 0E94 0000 		call _Z10modifierupi
 5157               	.LM743:
 5158 1e6c 84E0      		ldi r24,lo8(4)
 5159 1e6e 90E0      		ldi r25,hi8(4)
 5160 1e70 0E94 0000 		call _Z10modifierupi
 5161               	.LM744:
 5162 1e74 81E0      		ldi r24,lo8(1)
 5163 1e76 90E0      		ldi r25,hi8(1)
 5164 1e78 0E94 0000 		call _Z10modifierupi
 5165 1e7c 00C0      		rjmp .L352
 5166               	.LVL278:
 5167               	.L275:
 5168               	.LBB684:
 5169               	.LBB685:
 5170               	.LM745:
 5171 1e7e 6217      		cp r22,r18
 5172 1e80 7307      		cpc r23,r19
 5173 1e82 04F4      		brge .+2
 5174 1e84 00C0      		rjmp .L352
 5175               	.LM746:
 5176 1e86 F801      		movw r30,r16
 5177 1e88 E40F      		add r30,r20
 5178 1e8a F51F      		adc r31,r21
 5179 1e8c 0190      		ld __tmp_reg__,Z+
 5180 1e8e F081      		ld r31,Z
 5181 1e90 E02D      		mov r30,__tmp_reg__
 5182               	.LBE685:
 5183               	.LBE684:
 5184               	.LM747:
 5185 1e92 3097      		sbiw r30,0
 5186 1e94 01F4      		brne .L278
 5187               	.LM748:
 5188 1e96 8BE0      		ldi r24,lo8(11)
 5189 1e98 90E0      		ldi r25,hi8(11)
 5190 1e9a 0E94 0000 		call _Z8keypressi
 5191               	.LVL279:
 5192               	.LM749:
 5193 1e9e 82E0      		ldi r24,lo8(2)
 5194 1ea0 90E0      		ldi r25,hi8(2)
 5195 1ea2 0E94 0000 		call _Z10modifierupi
 5196               	.LM750:
 5197 1ea6 84E0      		ldi r24,lo8(4)
 5198 1ea8 90E0      		ldi r25,hi8(4)
 5199 1eaa 0E94 0000 		call _Z10modifierupi
 5200               	.LM751:
 5201 1eae 81E0      		ldi r24,lo8(1)
 5202 1eb0 90E0      		ldi r25,hi8(1)
 5203 1eb2 0E94 0000 		call _Z10modifierupi
 5204 1eb6 00C0      		rjmp .L352
 5205               	.LVL280:
 5206               	.L278:
 5207               	.LM752:
 5208 1eb8 E130      		cpi r30,1
 5209 1eba F105      		cpc r31,__zero_reg__
 5210 1ebc 01F4      		brne .L279
 5211               	.LM753:
 5212 1ebe 81E2      		ldi r24,lo8(33)
 5213 1ec0 90E0      		ldi r25,hi8(33)
 5214 1ec2 0E94 0000 		call _Z8keypressi
 5215               	.LVL281:
 5216               	.LM754:
 5217 1ec6 82E0      		ldi r24,lo8(2)
 5218 1ec8 90E0      		ldi r25,hi8(2)
 5219 1eca 0E94 0000 		call _Z10modifierupi
 5220               	.LM755:
 5221 1ece 84E0      		ldi r24,lo8(4)
 5222 1ed0 90E0      		ldi r25,hi8(4)
 5223 1ed2 0E94 0000 		call _Z10modifierupi
 5224               	.LM756:
 5225 1ed6 81E0      		ldi r24,lo8(1)
 5226 1ed8 90E0      		ldi r25,hi8(1)
 5227 1eda 0E94 0000 		call _Z10modifierupi
 5228 1ede 00C0      		rjmp .L352
 5229               	.LVL282:
 5230               	.L279:
 5231               	.LM757:
 5232 1ee0 E230      		cpi r30,2
 5233 1ee2 F105      		cpc r31,__zero_reg__
 5234 1ee4 01F4      		brne .L280
 5235               	.LM758:
 5236 1ee6 82E0      		ldi r24,lo8(2)
 5237 1ee8 90E0      		ldi r25,hi8(2)
 5238 1eea 0E94 0000 		call _Z12modifierdowni
 5239               	.LVL283:
 5240               	.LM759:
 5241 1eee 86E2      		ldi r24,lo8(38)
 5242 1ef0 90E0      		ldi r25,hi8(38)
 5243 1ef2 0E94 0000 		call _Z8keypressi
 5244               	.LM760:
 5245 1ef6 82E0      		ldi r24,lo8(2)
 5246 1ef8 90E0      		ldi r25,hi8(2)
 5247 1efa 0E94 0000 		call _Z10modifierupi
 5248               	.LM761:
 5249 1efe 84E0      		ldi r24,lo8(4)
 5250 1f00 90E0      		ldi r25,hi8(4)
 5251 1f02 0E94 0000 		call _Z10modifierupi
 5252               	.LM762:
 5253 1f06 81E0      		ldi r24,lo8(1)
 5254 1f08 90E0      		ldi r25,hi8(1)
 5255 1f0a 0E94 0000 		call _Z10modifierupi
 5256 1f0e 00C0      		rjmp .L352
 5257               	.LVL284:
 5258               	.L280:
 5259               	.LM763:
 5260 1f10 3397      		sbiw r30,3
 5261 1f12 01F0      		breq .+2
 5262 1f14 00C0      		rjmp .L217
 5263               	.LM764:
 5264 1f16 8DE3      		ldi r24,lo8(61)
 5265 1f18 90E0      		ldi r25,hi8(61)
 5266 1f1a 0E94 0000 		call _Z8keypressi
 5267               	.LVL285:
 5268               	.LM765:
 5269 1f1e 82E0      		ldi r24,lo8(2)
 5270 1f20 90E0      		ldi r25,hi8(2)
 5271 1f22 0E94 0000 		call _Z10modifierupi
 5272               	.LM766:
 5273 1f26 84E0      		ldi r24,lo8(4)
 5274 1f28 90E0      		ldi r25,hi8(4)
 5275 1f2a 0E94 0000 		call _Z10modifierupi
 5276               	.LM767:
 5277 1f2e 81E0      		ldi r24,lo8(1)
 5278 1f30 90E0      		ldi r25,hi8(1)
 5279 1f32 0E94 0000 		call _Z10modifierupi
 5280 1f36 00C0      		rjmp .L352
 5281               	.LVL286:
 5282               	.L357:
 5283               	.LM768:
 5284 1f38 2196      		adiw r28,61-60
 5285 1f3a 8CAD      		ldd r24,Y+60
 5286 1f3c 9DAD      		ldd r25,Y+61
 5287 1f3e AEAD      		ldd r26,Y+62
 5288 1f40 BFAD      		ldd r27,Y+63
 5289 1f42 2197      		sbiw r28,61-60
 5290 1f44 0097      		sbiw r24,0
 5291 1f46 A105      		cpc r26,__zero_reg__
 5292 1f48 B105      		cpc r27,__zero_reg__
 5293 1f4a 01F4      		brne .+2
 5294 1f4c 00C0      		rjmp .L281
 5295               	.LBB686:
 5296               	.LBB687:
 5297               	.LM769:
 5298 1f4e 6217      		cp r22,r18
 5299 1f50 7307      		cpc r23,r19
 5300 1f52 04F4      		brge .+2
 5301 1f54 00C0      		rjmp .L352
 5302               	.LM770:
 5303 1f56 F801      		movw r30,r16
 5304 1f58 E40F      		add r30,r20
 5305 1f5a F51F      		adc r31,r21
 5306 1f5c 0190      		ld __tmp_reg__,Z+
 5307 1f5e F081      		ld r31,Z
 5308 1f60 E02D      		mov r30,__tmp_reg__
 5309               	.LBE687:
 5310               	.LBE686:
 5311               	.LM771:
 5312 1f62 3097      		sbiw r30,0
 5313 1f64 01F4      		brne .L282
 5314               	.LM772:
 5315 1f66 80E1      		ldi r24,lo8(16)
 5316 1f68 90E0      		ldi r25,hi8(16)
 5317 1f6a 0E94 0000 		call _Z8keypressi
 5318               	.LVL287:
 5319               	.LM773:
 5320 1f6e 82E0      		ldi r24,lo8(2)
 5321 1f70 90E0      		ldi r25,hi8(2)
 5322 1f72 0E94 0000 		call _Z10modifierupi
 5323               	.LM774:
 5324 1f76 84E0      		ldi r24,lo8(4)
 5325 1f78 90E0      		ldi r25,hi8(4)
 5326 1f7a 0E94 0000 		call _Z10modifierupi
 5327               	.LM775:
 5328 1f7e 81E0      		ldi r24,lo8(1)
 5329 1f80 90E0      		ldi r25,hi8(1)
 5330 1f82 0E94 0000 		call _Z10modifierupi
 5331 1f86 00C0      		rjmp .L352
 5332               	.LVL288:
 5333               	.L282:
 5334               	.LM776:
 5335 1f88 E130      		cpi r30,1
 5336 1f8a F105      		cpc r31,__zero_reg__
 5337 1f8c 01F4      		brne .L283
 5338               	.LM777:
 5339 1f8e 82E2      		ldi r24,lo8(34)
 5340 1f90 90E0      		ldi r25,hi8(34)
 5341 1f92 0E94 0000 		call _Z8keypressi
 5342               	.LVL289:
 5343               	.LM778:
 5344 1f96 82E0      		ldi r24,lo8(2)
 5345 1f98 90E0      		ldi r25,hi8(2)
 5346 1f9a 0E94 0000 		call _Z10modifierupi
 5347               	.LM779:
 5348 1f9e 84E0      		ldi r24,lo8(4)
 5349 1fa0 90E0      		ldi r25,hi8(4)
 5350 1fa2 0E94 0000 		call _Z10modifierupi
 5351               	.LM780:
 5352 1fa6 81E0      		ldi r24,lo8(1)
 5353 1fa8 90E0      		ldi r25,hi8(1)
 5354 1faa 0E94 0000 		call _Z10modifierupi
 5355 1fae 00C0      		rjmp .L352
 5356               	.LVL290:
 5357               	.L283:
 5358               	.LM781:
 5359 1fb0 E230      		cpi r30,2
 5360 1fb2 F105      		cpc r31,__zero_reg__
 5361 1fb4 01F4      		brne .L284
 5362               	.LM782:
 5363 1fb6 82E0      		ldi r24,lo8(2)
 5364 1fb8 90E0      		ldi r25,hi8(2)
 5365 1fba 0E94 0000 		call _Z12modifierdowni
 5366               	.LVL291:
 5367               	.LM783:
 5368 1fbe 87E2      		ldi r24,lo8(39)
 5369 1fc0 90E0      		ldi r25,hi8(39)
 5370 1fc2 0E94 0000 		call _Z8keypressi
 5371               	.LM784:
 5372 1fc6 82E0      		ldi r24,lo8(2)
 5373 1fc8 90E0      		ldi r25,hi8(2)
 5374 1fca 0E94 0000 		call _Z10modifierupi
 5375               	.LM785:
 5376 1fce 84E0      		ldi r24,lo8(4)
 5377 1fd0 90E0      		ldi r25,hi8(4)
 5378 1fd2 0E94 0000 		call _Z10modifierupi
 5379               	.LM786:
 5380 1fd6 81E0      		ldi r24,lo8(1)
 5381 1fd8 90E0      		ldi r25,hi8(1)
 5382 1fda 0E94 0000 		call _Z10modifierupi
 5383 1fde 00C0      		rjmp .L352
 5384               	.LVL292:
 5385               	.L284:
 5386               	.LM787:
 5387 1fe0 3397      		sbiw r30,3
 5388 1fe2 01F0      		breq .+2
 5389 1fe4 00C0      		rjmp .L217
 5390               	.LM788:
 5391 1fe6 8EE3      		ldi r24,lo8(62)
 5392 1fe8 90E0      		ldi r25,hi8(62)
 5393 1fea 0E94 0000 		call _Z8keypressi
 5394               	.LVL293:
 5395               	.LM789:
 5396 1fee 82E0      		ldi r24,lo8(2)
 5397 1ff0 90E0      		ldi r25,hi8(2)
 5398 1ff2 0E94 0000 		call _Z10modifierupi
 5399               	.LM790:
 5400 1ff6 84E0      		ldi r24,lo8(4)
 5401 1ff8 90E0      		ldi r25,hi8(4)
 5402 1ffa 0E94 0000 		call _Z10modifierupi
 5403               	.LM791:
 5404 1ffe 81E0      		ldi r24,lo8(1)
 5405 2000 90E0      		ldi r25,hi8(1)
 5406 2002 0E94 0000 		call _Z10modifierupi
 5407 2006 00C0      		rjmp .L352
 5408               	.LVL294:
 5409               	.L281:
 5410               	.LM792:
 5411 2008 2596      		adiw r28,65-60
 5412 200a 8CAD      		ldd r24,Y+60
 5413 200c 9DAD      		ldd r25,Y+61
 5414 200e AEAD      		ldd r26,Y+62
 5415 2010 BFAD      		ldd r27,Y+63
 5416 2012 2597      		sbiw r28,65-60
 5417 2014 0097      		sbiw r24,0
 5418 2016 A105      		cpc r26,__zero_reg__
 5419 2018 B105      		cpc r27,__zero_reg__
 5420 201a 01F4      		brne .+2
 5421 201c 00C0      		rjmp .L285
 5422               	.LBB688:
 5423               	.LBB689:
 5424               	.LM793:
 5425 201e 6217      		cp r22,r18
 5426 2020 7307      		cpc r23,r19
 5427 2022 04F4      		brge .+2
 5428 2024 00C0      		rjmp .L352
 5429               	.LM794:
 5430 2026 F801      		movw r30,r16
 5431 2028 E40F      		add r30,r20
 5432 202a F51F      		adc r31,r21
 5433 202c 0190      		ld __tmp_reg__,Z+
 5434 202e F081      		ld r31,Z
 5435 2030 E02D      		mov r30,__tmp_reg__
 5436               	.LBE689:
 5437               	.LBE688:
 5438               	.LM795:
 5439 2032 3097      		sbiw r30,0
 5440 2034 01F4      		brne .L286
 5441               	.LM796:
 5442 2036 85E0      		ldi r24,lo8(5)
 5443 2038 90E0      		ldi r25,hi8(5)
 5444 203a 0E94 0000 		call _Z8keypressi
 5445               	.LVL295:
 5446               	.LM797:
 5447 203e 82E0      		ldi r24,lo8(2)
 5448 2040 90E0      		ldi r25,hi8(2)
 5449 2042 0E94 0000 		call _Z10modifierupi
 5450               	.LM798:
 5451 2046 84E0      		ldi r24,lo8(4)
 5452 2048 90E0      		ldi r25,hi8(4)
 5453 204a 0E94 0000 		call _Z10modifierupi
 5454               	.LM799:
 5455 204e 81E0      		ldi r24,lo8(1)
 5456 2050 90E0      		ldi r25,hi8(1)
 5457 2052 0E94 0000 		call _Z10modifierupi
 5458 2056 00C0      		rjmp .L352
 5459               	.LVL296:
 5460               	.L286:
 5461               	.LM800:
 5462 2058 E130      		cpi r30,1
 5463 205a F105      		cpc r31,__zero_reg__
 5464 205c 01F4      		brne .L287
 5465               	.LM801:
 5466 205e 83E2      		ldi r24,lo8(35)
 5467 2060 90E0      		ldi r25,hi8(35)
 5468 2062 0E94 0000 		call _Z8keypressi
 5469               	.LVL297:
 5470               	.LM802:
 5471 2066 82E0      		ldi r24,lo8(2)
 5472 2068 90E0      		ldi r25,hi8(2)
 5473 206a 0E94 0000 		call _Z10modifierupi
 5474               	.LM803:
 5475 206e 84E0      		ldi r24,lo8(4)
 5476 2070 90E0      		ldi r25,hi8(4)
 5477 2072 0E94 0000 		call _Z10modifierupi
 5478               	.LM804:
 5479 2076 81E0      		ldi r24,lo8(1)
 5480 2078 90E0      		ldi r25,hi8(1)
 5481 207a 0E94 0000 		call _Z10modifierupi
 5482 207e 00C0      		rjmp .L352
 5483               	.LVL298:
 5484               	.L287:
 5485               	.LM805:
 5486 2080 E230      		cpi r30,2
 5487 2082 F105      		cpc r31,__zero_reg__
 5488 2084 01F4      		brne .L288
 5489               	.LM806:
 5490 2086 82E0      		ldi r24,lo8(2)
 5491 2088 90E0      		ldi r25,hi8(2)
 5492 208a 0E94 0000 		call _Z12modifierdowni
 5493               	.LVL299:
 5494               	.LM807:
 5495 208e 88E3      		ldi r24,lo8(56)
 5496 2090 90E0      		ldi r25,hi8(56)
 5497 2092 0E94 0000 		call _Z8keypressi
 5498               	.LM808:
 5499 2096 82E0      		ldi r24,lo8(2)
 5500 2098 90E0      		ldi r25,hi8(2)
 5501 209a 0E94 0000 		call _Z10modifierupi
 5502               	.LM809:
 5503 209e 84E0      		ldi r24,lo8(4)
 5504 20a0 90E0      		ldi r25,hi8(4)
 5505 20a2 0E94 0000 		call _Z10modifierupi
 5506               	.LM810:
 5507 20a6 81E0      		ldi r24,lo8(1)
 5508 20a8 90E0      		ldi r25,hi8(1)
 5509 20aa 0E94 0000 		call _Z10modifierupi
 5510 20ae 00C0      		rjmp .L352
 5511               	.LVL300:
 5512               	.L288:
 5513               	.LM811:
 5514 20b0 3397      		sbiw r30,3
 5515 20b2 01F0      		breq .+2
 5516 20b4 00C0      		rjmp .L217
 5517               	.LM812:
 5518 20b6 8FE3      		ldi r24,lo8(63)
 5519 20b8 90E0      		ldi r25,hi8(63)
 5520 20ba 0E94 0000 		call _Z8keypressi
 5521               	.LVL301:
 5522               	.LM813:
 5523 20be 82E0      		ldi r24,lo8(2)
 5524 20c0 90E0      		ldi r25,hi8(2)
 5525 20c2 0E94 0000 		call _Z10modifierupi
 5526               	.LM814:
 5527 20c6 84E0      		ldi r24,lo8(4)
 5528 20c8 90E0      		ldi r25,hi8(4)
 5529 20ca 0E94 0000 		call _Z10modifierupi
 5530               	.LM815:
 5531 20ce 81E0      		ldi r24,lo8(1)
 5532 20d0 90E0      		ldi r25,hi8(1)
 5533 20d2 0E94 0000 		call _Z10modifierupi
 5534 20d6 00C0      		rjmp .L352
 5535               	.LVL302:
 5536               	.L285:
 5537               	.LM816:
 5538 20d8 2996      		adiw r28,69-60
 5539 20da 8CAD      		ldd r24,Y+60
 5540 20dc 9DAD      		ldd r25,Y+61
 5541 20de AEAD      		ldd r26,Y+62
 5542 20e0 BFAD      		ldd r27,Y+63
 5543 20e2 2997      		sbiw r28,69-60
 5544 20e4 0097      		sbiw r24,0
 5545 20e6 A105      		cpc r26,__zero_reg__
 5546 20e8 B105      		cpc r27,__zero_reg__
 5547 20ea 01F4      		brne .+2
 5548 20ec 00C0      		rjmp .L289
 5549               	.LBB690:
 5550               	.LBB691:
 5551               	.LM817:
 5552 20ee 6217      		cp r22,r18
 5553 20f0 7307      		cpc r23,r19
 5554 20f2 04F4      		brge .+2
 5555 20f4 00C0      		rjmp .L352
 5556               	.LM818:
 5557 20f6 F801      		movw r30,r16
 5558 20f8 E40F      		add r30,r20
 5559 20fa F51F      		adc r31,r21
 5560 20fc 0190      		ld __tmp_reg__,Z+
 5561 20fe F081      		ld r31,Z
 5562 2100 E02D      		mov r30,__tmp_reg__
 5563               	.LBE691:
 5564               	.LBE690:
 5565               	.LM819:
 5566 2102 3097      		sbiw r30,0
 5567 2104 01F4      		brne .L290
 5568               	.LM820:
 5569 2106 82E1      		ldi r24,lo8(18)
 5570 2108 90E0      		ldi r25,hi8(18)
 5571 210a 0E94 0000 		call _Z8keypressi
 5572               	.LVL303:
 5573               	.LM821:
 5574 210e 82E0      		ldi r24,lo8(2)
 5575 2110 90E0      		ldi r25,hi8(2)
 5576 2112 0E94 0000 		call _Z10modifierupi
 5577               	.LM822:
 5578 2116 84E0      		ldi r24,lo8(4)
 5579 2118 90E0      		ldi r25,hi8(4)
 5580 211a 0E94 0000 		call _Z10modifierupi
 5581               	.LM823:
 5582 211e 81E0      		ldi r24,lo8(1)
 5583 2120 90E0      		ldi r25,hi8(1)
 5584 2122 0E94 0000 		call _Z10modifierupi
 5585 2126 00C0      		rjmp .L352
 5586               	.LVL304:
 5587               	.L290:
 5588               	.LM824:
 5589 2128 E130      		cpi r30,1
 5590 212a F105      		cpc r31,__zero_reg__
 5591 212c 01F4      		brne .L291
 5592               	.LM825:
 5593 212e 85E5      		ldi r24,lo8(85)
 5594 2130 90E0      		ldi r25,hi8(85)
 5595 2132 0E94 0000 		call _Z8keypressi
 5596               	.LVL305:
 5597               	.LM826:
 5598 2136 82E0      		ldi r24,lo8(2)
 5599 2138 90E0      		ldi r25,hi8(2)
 5600 213a 0E94 0000 		call _Z10modifierupi
 5601               	.LM827:
 5602 213e 84E0      		ldi r24,lo8(4)
 5603 2140 90E0      		ldi r25,hi8(4)
 5604 2142 0E94 0000 		call _Z10modifierupi
 5605               	.LM828:
 5606 2146 81E0      		ldi r24,lo8(1)
 5607 2148 90E0      		ldi r25,hi8(1)
 5608 214a 0E94 0000 		call _Z10modifierupi
 5609 214e 00C0      		rjmp .L352
 5610               	.LVL306:
 5611               	.L291:
 5612               	.LM829:
 5613 2150 E230      		cpi r30,2
 5614 2152 F105      		cpc r31,__zero_reg__
 5615 2154 01F4      		brne .L292
 5616               	.LM830:
 5617 2156 82E0      		ldi r24,lo8(2)
 5618 2158 90E0      		ldi r25,hi8(2)
 5619 215a 0E94 0000 		call _Z12modifierdowni
 5620               	.LVL307:
 5621               	.LM831:
 5622 215e 8FE2      		ldi r24,lo8(47)
 5623 2160 90E0      		ldi r25,hi8(47)
 5624 2162 0E94 0000 		call _Z8keypressi
 5625               	.LM832:
 5626 2166 82E0      		ldi r24,lo8(2)
 5627 2168 90E0      		ldi r25,hi8(2)
 5628 216a 0E94 0000 		call _Z10modifierupi
 5629               	.LM833:
 5630 216e 84E0      		ldi r24,lo8(4)
 5631 2170 90E0      		ldi r25,hi8(4)
 5632 2172 0E94 0000 		call _Z10modifierupi
 5633               	.LM834:
 5634 2176 81E0      		ldi r24,lo8(1)
 5635 2178 90E0      		ldi r25,hi8(1)
 5636 217a 0E94 0000 		call _Z10modifierupi
 5637 217e 00C0      		rjmp .L352
 5638               	.LVL308:
 5639               	.L292:
 5640               	.LM835:
 5641 2180 3397      		sbiw r30,3
 5642 2182 01F0      		breq .+2
 5643 2184 00C0      		rjmp .L217
 5644               	.LM836:
 5645 2186 8FE7      		ldi r24,lo8(127)
 5646 2188 90E0      		ldi r25,hi8(127)
 5647 218a 0E94 0000 		call _Z8keypressi
 5648               	.LVL309:
 5649               	.LM837:
 5650 218e 82E0      		ldi r24,lo8(2)
 5651 2190 90E0      		ldi r25,hi8(2)
 5652 2192 0E94 0000 		call _Z10modifierupi
 5653               	.LM838:
 5654 2196 84E0      		ldi r24,lo8(4)
 5655 2198 90E0      		ldi r25,hi8(4)
 5656 219a 0E94 0000 		call _Z10modifierupi
 5657               	.LM839:
 5658 219e 81E0      		ldi r24,lo8(1)
 5659 21a0 90E0      		ldi r25,hi8(1)
 5660 21a2 0E94 0000 		call _Z10modifierupi
 5661 21a6 00C0      		rjmp .L352
 5662               	.LVL310:
 5663               	.L289:
 5664               	.LM840:
 5665 21a8 2D96      		adiw r28,73-60
 5666 21aa 8CAD      		ldd r24,Y+60
 5667 21ac 9DAD      		ldd r25,Y+61
 5668 21ae AEAD      		ldd r26,Y+62
 5669 21b0 BFAD      		ldd r27,Y+63
 5670 21b2 2D97      		sbiw r28,73-60
 5671 21b4 0097      		sbiw r24,0
 5672 21b6 A105      		cpc r26,__zero_reg__
 5673 21b8 B105      		cpc r27,__zero_reg__
 5674 21ba 01F4      		brne .+2
 5675 21bc 00C0      		rjmp .L293
 5676               	.LBB692:
 5677               	.LBB693:
 5678               	.LM841:
 5679 21be 6217      		cp r22,r18
 5680 21c0 7307      		cpc r23,r19
 5681 21c2 04F4      		brge .+2
 5682 21c4 00C0      		rjmp .L352
 5683               	.LM842:
 5684 21c6 F801      		movw r30,r16
 5685 21c8 E40F      		add r30,r20
 5686 21ca F51F      		adc r31,r21
 5687 21cc 0190      		ld __tmp_reg__,Z+
 5688 21ce F081      		ld r31,Z
 5689 21d0 E02D      		mov r30,__tmp_reg__
 5690               	.LBE693:
 5691               	.LBE692:
 5692               	.LM843:
 5693 21d2 3097      		sbiw r30,0
 5694 21d4 01F4      		brne .L294
 5695               	.LM844:
 5696 21d6 88E1      		ldi r24,lo8(24)
 5697 21d8 90E0      		ldi r25,hi8(24)
 5698 21da 0E94 0000 		call _Z8keypressi
 5699               	.LVL311:
 5700               	.LM845:
 5701 21de 82E0      		ldi r24,lo8(2)
 5702 21e0 90E0      		ldi r25,hi8(2)
 5703 21e2 0E94 0000 		call _Z10modifierupi
 5704               	.LM846:
 5705 21e6 84E0      		ldi r24,lo8(4)
 5706 21e8 90E0      		ldi r25,hi8(4)
 5707 21ea 0E94 0000 		call _Z10modifierupi
 5708               	.LM847:
 5709 21ee 81E0      		ldi r24,lo8(1)
 5710 21f0 90E0      		ldi r25,hi8(1)
 5711 21f2 0E94 0000 		call _Z10modifierupi
 5712 21f6 00C0      		rjmp .L352
 5713               	.LVL312:
 5714               	.L294:
 5715               	.LM848:
 5716 21f8 E130      		cpi r30,1
 5717 21fa F105      		cpc r31,__zero_reg__
 5718 21fc 01F4      		brne .L295
 5719               	.LM849:
 5720 21fe 84E5      		ldi r24,lo8(84)
 5721 2200 90E0      		ldi r25,hi8(84)
 5722 2202 0E94 0000 		call _Z8keypressi
 5723               	.LVL313:
 5724               	.LM850:
 5725 2206 82E0      		ldi r24,lo8(2)
 5726 2208 90E0      		ldi r25,hi8(2)
 5727 220a 0E94 0000 		call _Z10modifierupi
 5728               	.LM851:
 5729 220e 84E0      		ldi r24,lo8(4)
 5730 2210 90E0      		ldi r25,hi8(4)
 5731 2212 0E94 0000 		call _Z10modifierupi
 5732               	.LM852:
 5733 2216 81E0      		ldi r24,lo8(1)
 5734 2218 90E0      		ldi r25,hi8(1)
 5735 221a 0E94 0000 		call _Z10modifierupi
 5736 221e 00C0      		rjmp .L352
 5737               	.LVL314:
 5738               	.L295:
 5739               	.LM853:
 5740 2220 3297      		sbiw r30,2
 5741 2222 01F0      		breq .+2
 5742 2224 00C0      		rjmp .L217
 5743               	.LM854:
 5744 2226 82E0      		ldi r24,lo8(2)
 5745 2228 90E0      		ldi r25,hi8(2)
 5746 222a 0E94 0000 		call _Z12modifierdowni
 5747               	.LVL315:
 5748               	.LM855:
 5749 222e 80E3      		ldi r24,lo8(48)
 5750 2230 90E0      		ldi r25,hi8(48)
 5751 2232 0E94 0000 		call _Z8keypressi
 5752               	.LM856:
 5753 2236 82E0      		ldi r24,lo8(2)
 5754 2238 90E0      		ldi r25,hi8(2)
 5755 223a 0E94 0000 		call _Z10modifierupi
 5756               	.LM857:
 5757 223e 84E0      		ldi r24,lo8(4)
 5758 2240 90E0      		ldi r25,hi8(4)
 5759 2242 0E94 0000 		call _Z10modifierupi
 5760               	.LM858:
 5761 2246 81E0      		ldi r24,lo8(1)
 5762 2248 90E0      		ldi r25,hi8(1)
 5763 224a 0E94 0000 		call _Z10modifierupi
 5764 224e 00C0      		rjmp .L352
 5765               	.LVL316:
 5766               	.L293:
 5767               	.LM859:
 5768 2250 4114      		cp r4,__zero_reg__
 5769 2252 5104      		cpc r5,__zero_reg__
 5770 2254 6104      		cpc r6,__zero_reg__
 5771 2256 7104      		cpc r7,__zero_reg__
 5772 2258 01F0      		breq .L296
 5773               	.LBB694:
 5774               	.LBB695:
 5775               	.LM860:
 5776 225a 6217      		cp r22,r18
 5777 225c 7307      		cpc r23,r19
 5778 225e 04F4      		brge .+2
 5779 2260 00C0      		rjmp .L352
 5780               	.LM861:
 5781 2262 F801      		movw r30,r16
 5782 2264 E40F      		add r30,r20
 5783 2266 F51F      		adc r31,r21
 5784 2268 0190      		ld __tmp_reg__,Z+
 5785 226a F081      		ld r31,Z
 5786 226c E02D      		mov r30,__tmp_reg__
 5787               	.LBE695:
 5788               	.LBE694:
 5789               	.LM862:
 5790 226e 3097      		sbiw r30,0
 5791 2270 01F4      		brne .L297
 5792               	.LM863:
 5793 2272 87E0      		ldi r24,lo8(7)
 5794 2274 90E0      		ldi r25,hi8(7)
 5795 2276 0E94 0000 		call _Z8keypressi
 5796               	.LVL317:
 5797               	.LM864:
 5798 227a 82E0      		ldi r24,lo8(2)
 5799 227c 90E0      		ldi r25,hi8(2)
 5800 227e 0E94 0000 		call _Z10modifierupi
 5801               	.LM865:
 5802 2282 84E0      		ldi r24,lo8(4)
 5803 2284 90E0      		ldi r25,hi8(4)
 5804 2286 0E94 0000 		call _Z10modifierupi
 5805               	.LM866:
 5806 228a 81E0      		ldi r24,lo8(1)
 5807 228c 90E0      		ldi r25,hi8(1)
 5808 228e 0E94 0000 		call _Z10modifierupi
 5809 2292 00C0      		rjmp .L352
 5810               	.LVL318:
 5811               	.L297:
 5812               	.LM867:
 5813 2294 3297      		sbiw r30,2
 5814 2296 01F0      		breq .+2
 5815 2298 00C0      		rjmp .L217
 5816               	.LM868:
 5817 229a 82E0      		ldi r24,lo8(2)
 5818 229c 90E0      		ldi r25,hi8(2)
 5819 229e 0E94 0000 		call _Z12modifierdowni
 5820               	.LVL319:
 5821               	.LM869:
 5822 22a2 8EE1      		ldi r24,lo8(30)
 5823 22a4 90E0      		ldi r25,hi8(30)
 5824 22a6 0E94 0000 		call _Z8keypressi
 5825               	.LM870:
 5826 22aa 82E0      		ldi r24,lo8(2)
 5827 22ac 90E0      		ldi r25,hi8(2)
 5828 22ae 0E94 0000 		call _Z10modifierupi
 5829               	.LM871:
 5830 22b2 84E0      		ldi r24,lo8(4)
 5831 22b4 90E0      		ldi r25,hi8(4)
 5832 22b6 0E94 0000 		call _Z10modifierupi
 5833               	.LM872:
 5834 22ba 81E0      		ldi r24,lo8(1)
 5835 22bc 90E0      		ldi r25,hi8(1)
 5836 22be 0E94 0000 		call _Z10modifierupi
 5837 22c2 00C0      		rjmp .L352
 5838               	.LVL320:
 5839               	.L296:
 5840               	.LM873:
 5841 22c4 84FE      		sbrs r8,4
 5842 22c6 00C0      		rjmp .L298
 5843               	.LBB696:
 5844               	.LBB697:
 5845               	.LM874:
 5846 22c8 6217      		cp r22,r18
 5847 22ca 7307      		cpc r23,r19
 5848 22cc 04F4      		brge .+2
 5849 22ce 00C0      		rjmp .L298
 5850               	.LBE697:
 5851               	.LBE696:
 5852               	.LM875:
 5853 22d0 F801      		movw r30,r16
 5854 22d2 E40F      		add r30,r20
 5855 22d4 F51F      		adc r31,r21
 5856 22d6 8081      		ld r24,Z
 5857 22d8 9181      		ldd r25,Z+1
 5858 22da 892B      		or r24,r25
 5859 22dc 01F0      		breq .+2
 5860 22de 00C0      		rjmp .L298
 5861               	.LM876:
 5862 22e0 8DE0      		ldi r24,lo8(13)
 5863 22e2 90E0      		ldi r25,hi8(13)
 5864 22e4 0E94 0000 		call _Z8keypressi
 5865               	.LVL321:
 5866               	.LM877:
 5867 22e8 82E0      		ldi r24,lo8(2)
 5868 22ea 90E0      		ldi r25,hi8(2)
 5869 22ec 0E94 0000 		call _Z10modifierupi
 5870               	.LM878:
 5871 22f0 84E0      		ldi r24,lo8(4)
 5872 22f2 90E0      		ldi r25,hi8(4)
 5873 22f4 0E94 0000 		call _Z10modifierupi
 5874               	.LM879:
 5875 22f8 81E0      		ldi r24,lo8(1)
 5876 22fa 90E0      		ldi r25,hi8(1)
 5877 22fc 0E94 0000 		call _Z10modifierupi
 5878 2300 00C0      		rjmp .L352
 5879               	.LVL322:
 5880               	.L343:
 5881               	.LBB698:
 5882               	.LBB699:
 5883               	.LM880:
 5884 2302 6217      		cp r22,r18
 5885 2304 7307      		cpc r23,r19
 5886 2306 04F4      		brge .+2
 5887 2308 00C0      		rjmp .L299
 5888               	.LM881:
 5889 230a F801      		movw r30,r16
 5890 230c E40F      		add r30,r20
 5891 230e F51F      		adc r31,r21
 5892 2310 0190      		ld __tmp_reg__,Z+
 5893 2312 F081      		ld r31,Z
 5894 2314 E02D      		mov r30,__tmp_reg__
 5895               	.LBE699:
 5896               	.LBE698:
 5897               	.LM882:
 5898 2316 3097      		sbiw r30,0
 5899 2318 01F0      		breq .L300
 5900 231a E130      		cpi r30,1
 5901 231c F105      		cpc r31,__zero_reg__
 5902 231e 01F0      		breq .L300
 5903 2320 E230      		cpi r30,2
 5904 2322 F105      		cpc r31,__zero_reg__
 5905 2324 01F0      		breq .L300
 5906 2326 3397      		sbiw r30,3
 5907 2328 01F0      		breq .+2
 5908 232a 00C0      		rjmp .L299
 5909               	.L300:
 5910               	.LM883:
 5911 232c 80E0      		ldi r24,lo8(0)
 5912 232e 90E0      		ldi r25,hi8(0)
 5913 2330 0E94 0000 		call _Z8mouseoffi
 5914               	.LVL323:
 5915 2334 00C0      		rjmp .L352
 5916               	.LVL324:
 5917               	.L344:
 5918               	.LBB700:
 5919               	.LBB701:
 5920               	.LM884:
 5921 2336 6217      		cp r22,r18
 5922 2338 7307      		cpc r23,r19
 5923 233a 04F4      		brge .+2
 5924 233c 00C0      		rjmp .L352
 5925               	.LM885:
 5926 233e F801      		movw r30,r16
 5927 2340 E40F      		add r30,r20
 5928 2342 F51F      		adc r31,r21
 5929 2344 0190      		ld __tmp_reg__,Z+
 5930 2346 F081      		ld r31,Z
 5931 2348 E02D      		mov r30,__tmp_reg__
 5932               	.LBE701:
 5933               	.LBE700:
 5934               	.LM886:
 5935 234a 3097      		sbiw r30,0
 5936 234c 01F4      		brne .L301
 5937               	.LM887:
 5938 234e 84E0      		ldi r24,lo8(4)
 5939 2350 90E0      		ldi r25,hi8(4)
 5940 2352 0E94 0000 		call _Z8keypressi
 5941               	.LVL325:
 5942               	.LM888:
 5943 2356 82E0      		ldi r24,lo8(2)
 5944 2358 90E0      		ldi r25,hi8(2)
 5945 235a 0E94 0000 		call _Z10modifierupi
 5946               	.LM889:
 5947 235e 84E0      		ldi r24,lo8(4)
 5948 2360 90E0      		ldi r25,hi8(4)
 5949 2362 0E94 0000 		call _Z10modifierupi
 5950               	.LM890:
 5951 2366 81E0      		ldi r24,lo8(1)
 5952 2368 90E0      		ldi r25,hi8(1)
 5953 236a 0E94 0000 		call _Z10modifierupi
 5954 236e 00C0      		rjmp .L352
 5955               	.LVL326:
 5956               	.L301:
 5957               	.LM891:
 5958 2370 E130      		cpi r30,1
 5959 2372 F105      		cpc r31,__zero_reg__
 5960 2374 01F4      		brne .L302
 5961               	.LM892:
 5962 2376 87E5      		ldi r24,lo8(87)
 5963 2378 90E0      		ldi r25,hi8(87)
 5964 237a 0E94 0000 		call _Z8keypressi
 5965               	.LVL327:
 5966               	.LM893:
 5967 237e 82E0      		ldi r24,lo8(2)
 5968 2380 90E0      		ldi r25,hi8(2)
 5969 2382 0E94 0000 		call _Z10modifierupi
 5970               	.LM894:
 5971 2386 84E0      		ldi r24,lo8(4)
 5972 2388 90E0      		ldi r25,hi8(4)
 5973 238a 0E94 0000 		call _Z10modifierupi
 5974               	.LM895:
 5975 238e 81E0      		ldi r24,lo8(1)
 5976 2390 90E0      		ldi r25,hi8(1)
 5977 2392 0E94 0000 		call _Z10modifierupi
 5978 2396 00C0      		rjmp .L352
 5979               	.LVL328:
 5980               	.L302:
 5981               	.LM896:
 5982 2398 3297      		sbiw r30,2
 5983 239a 01F0      		breq .+2
 5984 239c 00C0      		rjmp .L217
 5985               	.LM897:
 5986 239e 82E0      		ldi r24,lo8(2)
 5987 23a0 90E0      		ldi r25,hi8(2)
 5988 23a2 0E94 0000 		call _Z12modifierdowni
 5989               	.LVL329:
 5990               	.LM898:
 5991 23a6 84E3      		ldi r24,lo8(52)
 5992 23a8 90E0      		ldi r25,hi8(52)
 5993 23aa 0E94 0000 		call _Z8keypressi
 5994               	.LM899:
 5995 23ae 82E0      		ldi r24,lo8(2)
 5996 23b0 90E0      		ldi r25,hi8(2)
 5997 23b2 0E94 0000 		call _Z10modifierupi
 5998               	.LM900:
 5999 23b6 84E0      		ldi r24,lo8(4)
 6000 23b8 90E0      		ldi r25,hi8(4)
 6001 23ba 0E94 0000 		call _Z10modifierupi
 6002               	.LM901:
 6003 23be 81E0      		ldi r24,lo8(1)
 6004 23c0 90E0      		ldi r25,hi8(1)
 6005 23c2 0E94 0000 		call _Z10modifierupi
 6006 23c6 00C0      		rjmp .L352
 6007               	.LVL330:
 6008               	.L358:
 6009               	.LM902:
 6010 23c8 87FE      		sbrs r8,7
 6011 23ca 00C0      		rjmp .L303
 6012               	.LBB702:
 6013               	.LBB703:
 6014               	.LM903:
 6015 23cc 6217      		cp r22,r18
 6016 23ce 7307      		cpc r23,r19
 6017 23d0 04F4      		brge .+2
 6018 23d2 00C0      		rjmp .L352
 6019               	.LM904:
 6020 23d4 F801      		movw r30,r16
 6021 23d6 E40F      		add r30,r20
 6022 23d8 F51F      		adc r31,r21
 6023 23da 0190      		ld __tmp_reg__,Z+
 6024 23dc F081      		ld r31,Z
 6025 23de E02D      		mov r30,__tmp_reg__
 6026               	.LBE703:
 6027               	.LBE702:
 6028               	.LM905:
 6029 23e0 3097      		sbiw r30,0
 6030 23e2 01F4      		brne .L304
 6031               	.LM906:
 6032 23e4 85E1      		ldi r24,lo8(21)
 6033 23e6 90E0      		ldi r25,hi8(21)
 6034 23e8 0E94 0000 		call _Z8keypressi
 6035               	.LVL331:
 6036               	.LM907:
 6037 23ec 82E0      		ldi r24,lo8(2)
 6038 23ee 90E0      		ldi r25,hi8(2)
 6039 23f0 0E94 0000 		call _Z10modifierupi
 6040               	.LM908:
 6041 23f4 84E0      		ldi r24,lo8(4)
 6042 23f6 90E0      		ldi r25,hi8(4)
 6043 23f8 0E94 0000 		call _Z10modifierupi
 6044               	.LM909:
 6045 23fc 81E0      		ldi r24,lo8(1)
 6046 23fe 90E0      		ldi r25,hi8(1)
 6047 2400 0E94 0000 		call _Z10modifierupi
 6048 2404 00C0      		rjmp .L352
 6049               	.LVL332:
 6050               	.L304:
 6051               	.LM910:
 6052 2406 E130      		cpi r30,1
 6053 2408 F105      		cpc r31,__zero_reg__
 6054 240a 01F4      		brne .L305
 6055               	.LM911:
 6056 240c 8EE1      		ldi r24,lo8(30)
 6057 240e 90E0      		ldi r25,hi8(30)
 6058 2410 0E94 0000 		call _Z8keypressi
 6059               	.LVL333:
 6060               	.LM912:
 6061 2414 82E0      		ldi r24,lo8(2)
 6062 2416 90E0      		ldi r25,hi8(2)
 6063 2418 0E94 0000 		call _Z10modifierupi
 6064               	.LM913:
 6065 241c 84E0      		ldi r24,lo8(4)
 6066 241e 90E0      		ldi r25,hi8(4)
 6067 2420 0E94 0000 		call _Z10modifierupi
 6068               	.LM914:
 6069 2424 81E0      		ldi r24,lo8(1)
 6070 2426 90E0      		ldi r25,hi8(1)
 6071 2428 0E94 0000 		call _Z10modifierupi
 6072 242c 00C0      		rjmp .L352
 6073               	.LVL334:
 6074               	.L305:
 6075               	.LM915:
 6076 242e E230      		cpi r30,2
 6077 2430 F105      		cpc r31,__zero_reg__
 6078 2432 01F4      		brne .L306
 6079               	.LM916:
 6080 2434 87E3      		ldi r24,lo8(55)
 6081 2436 90E0      		ldi r25,hi8(55)
 6082 2438 0E94 0000 		call _Z8keypressi
 6083               	.LVL335:
 6084               	.LM917:
 6085 243c 82E0      		ldi r24,lo8(2)
 6086 243e 90E0      		ldi r25,hi8(2)
 6087 2440 0E94 0000 		call _Z10modifierupi
 6088               	.LM918:
 6089 2444 84E0      		ldi r24,lo8(4)
 6090 2446 90E0      		ldi r25,hi8(4)
 6091 2448 0E94 0000 		call _Z10modifierupi
 6092               	.LM919:
 6093 244c 81E0      		ldi r24,lo8(1)
 6094 244e 90E0      		ldi r25,hi8(1)
 6095 2450 0E94 0000 		call _Z10modifierupi
 6096 2454 00C0      		rjmp .L352
 6097               	.LVL336:
 6098               	.L306:
 6099               	.LM920:
 6100 2456 3397      		sbiw r30,3
 6101 2458 01F0      		breq .+2
 6102 245a 00C0      		rjmp .L217
 6103               	.LM921:
 6104 245c 8AE3      		ldi r24,lo8(58)
 6105 245e 90E0      		ldi r25,hi8(58)
 6106 2460 0E94 0000 		call _Z8keypressi
 6107               	.LVL337:
 6108               	.LM922:
 6109 2464 82E0      		ldi r24,lo8(2)
 6110 2466 90E0      		ldi r25,hi8(2)
 6111 2468 0E94 0000 		call _Z10modifierupi
 6112               	.LM923:
 6113 246c 84E0      		ldi r24,lo8(4)
 6114 246e 90E0      		ldi r25,hi8(4)
 6115 2470 0E94 0000 		call _Z10modifierupi
 6116               	.LM924:
 6117 2474 81E0      		ldi r24,lo8(1)
 6118 2476 90E0      		ldi r25,hi8(1)
 6119 2478 0E94 0000 		call _Z10modifierupi
 6120 247c 00C0      		rjmp .L352
 6121               	.LVL338:
 6122               	.L303:
 6123               	.LM925:
 6124 247e 90FE      		sbrs r9,0
 6125 2480 00C0      		rjmp .L307
 6126               	.LBB704:
 6127               	.LBB705:
 6128               	.LM926:
 6129 2482 6217      		cp r22,r18
 6130 2484 7307      		cpc r23,r19
 6131 2486 04F4      		brge .+2
 6132 2488 00C0      		rjmp .L352
 6133               	.LM927:
 6134 248a F801      		movw r30,r16
 6135 248c E40F      		add r30,r20
 6136 248e F51F      		adc r31,r21
 6137 2490 0190      		ld __tmp_reg__,Z+
 6138 2492 F081      		ld r31,Z
 6139 2494 E02D      		mov r30,__tmp_reg__
 6140               	.LBE705:
 6141               	.LBE704:
 6142               	.LM928:
 6143 2496 3097      		sbiw r30,0
 6144 2498 01F4      		brne .L308
 6145               	.LM929:
 6146 249a 81E1      		ldi r24,lo8(17)
 6147 249c 90E0      		ldi r25,hi8(17)
 6148 249e 0E94 0000 		call _Z8keypressi
 6149               	.LVL339:
 6150               	.LM930:
 6151 24a2 82E0      		ldi r24,lo8(2)
 6152 24a4 90E0      		ldi r25,hi8(2)
 6153 24a6 0E94 0000 		call _Z10modifierupi
 6154               	.LM931:
 6155 24aa 84E0      		ldi r24,lo8(4)
 6156 24ac 90E0      		ldi r25,hi8(4)
 6157 24ae 0E94 0000 		call _Z10modifierupi
 6158               	.LM932:
 6159 24b2 81E0      		ldi r24,lo8(1)
 6160 24b4 90E0      		ldi r25,hi8(1)
 6161 24b6 0E94 0000 		call _Z10modifierupi
 6162 24ba 00C0      		rjmp .L352
 6163               	.LVL340:
 6164               	.L308:
 6165               	.LM933:
 6166 24bc E130      		cpi r30,1
 6167 24be F105      		cpc r31,__zero_reg__
 6168 24c0 01F4      		brne .L309
 6169               	.LM934:
 6170 24c2 8FE1      		ldi r24,lo8(31)
 6171 24c4 90E0      		ldi r25,hi8(31)
 6172 24c6 0E94 0000 		call _Z8keypressi
 6173               	.LVL341:
 6174               	.LM935:
 6175 24ca 82E0      		ldi r24,lo8(2)
 6176 24cc 90E0      		ldi r25,hi8(2)
 6177 24ce 0E94 0000 		call _Z10modifierupi
 6178               	.LM936:
 6179 24d2 84E0      		ldi r24,lo8(4)
 6180 24d4 90E0      		ldi r25,hi8(4)
 6181 24d6 0E94 0000 		call _Z10modifierupi
 6182               	.LM937:
 6183 24da 81E0      		ldi r24,lo8(1)
 6184 24dc 90E0      		ldi r25,hi8(1)
 6185 24de 0E94 0000 		call _Z10modifierupi
 6186 24e2 00C0      		rjmp .L352
 6187               	.LVL342:
 6188               	.L309:
 6189               	.LM938:
 6190 24e4 E230      		cpi r30,2
 6191 24e6 F105      		cpc r31,__zero_reg__
 6192 24e8 01F4      		brne .L310
 6193               	.LM939:
 6194 24ea 86E3      		ldi r24,lo8(54)
 6195 24ec 90E0      		ldi r25,hi8(54)
 6196 24ee 0E94 0000 		call _Z8keypressi
 6197               	.LVL343:
 6198               	.LM940:
 6199 24f2 82E0      		ldi r24,lo8(2)
 6200 24f4 90E0      		ldi r25,hi8(2)
 6201 24f6 0E94 0000 		call _Z10modifierupi
 6202               	.LM941:
 6203 24fa 84E0      		ldi r24,lo8(4)
 6204 24fc 90E0      		ldi r25,hi8(4)
 6205 24fe 0E94 0000 		call _Z10modifierupi
 6206               	.LM942:
 6207 2502 81E0      		ldi r24,lo8(1)
 6208 2504 90E0      		ldi r25,hi8(1)
 6209 2506 0E94 0000 		call _Z10modifierupi
 6210 250a 00C0      		rjmp .L352
 6211               	.LVL344:
 6212               	.L310:
 6213               	.LM943:
 6214 250c 3397      		sbiw r30,3
 6215 250e 01F0      		breq .+2
 6216 2510 00C0      		rjmp .L217
 6217               	.LM944:
 6218 2512 8BE3      		ldi r24,lo8(59)
 6219 2514 90E0      		ldi r25,hi8(59)
 6220 2516 0E94 0000 		call _Z8keypressi
 6221               	.LVL345:
 6222               	.LM945:
 6223 251a 82E0      		ldi r24,lo8(2)
 6224 251c 90E0      		ldi r25,hi8(2)
 6225 251e 0E94 0000 		call _Z10modifierupi
 6226               	.LM946:
 6227 2522 84E0      		ldi r24,lo8(4)
 6228 2524 90E0      		ldi r25,hi8(4)
 6229 2526 0E94 0000 		call _Z10modifierupi
 6230               	.LM947:
 6231 252a 81E0      		ldi r24,lo8(1)
 6232 252c 90E0      		ldi r25,hi8(1)
 6233 252e 0E94 0000 		call _Z10modifierupi
 6234 2532 00C0      		rjmp .L352
 6235               	.LVL346:
 6236               	.L307:
 6237               	.LM948:
 6238 2534 91FE      		sbrs r9,1
 6239 2536 00C0      		rjmp .L311
 6240               	.LBB706:
 6241               	.LBB707:
 6242               	.LM949:
 6243 2538 6217      		cp r22,r18
 6244 253a 7307      		cpc r23,r19
 6245 253c 04F4      		brge .+2
 6246 253e 00C0      		rjmp .L352
 6247               	.LM950:
 6248 2540 F801      		movw r30,r16
 6249 2542 E40F      		add r30,r20
 6250 2544 F51F      		adc r31,r21
 6251 2546 0190      		ld __tmp_reg__,Z+
 6252 2548 F081      		ld r31,Z
 6253 254a E02D      		mov r30,__tmp_reg__
 6254               	.LBE707:
 6255               	.LBE706:
 6256               	.LM951:
 6257 254c 3097      		sbiw r30,0
 6258 254e 01F4      		brne .L312
 6259               	.LM952:
 6260 2550 89E0      		ldi r24,lo8(9)
 6261 2552 90E0      		ldi r25,hi8(9)
 6262 2554 0E94 0000 		call _Z8keypressi
 6263               	.LVL347:
 6264               	.LM953:
 6265 2558 82E0      		ldi r24,lo8(2)
 6266 255a 90E0      		ldi r25,hi8(2)
 6267 255c 0E94 0000 		call _Z10modifierupi
 6268               	.LM954:
 6269 2560 84E0      		ldi r24,lo8(4)
 6270 2562 90E0      		ldi r25,hi8(4)
 6271 2564 0E94 0000 		call _Z10modifierupi
 6272               	.LM955:
 6273 2568 81E0      		ldi r24,lo8(1)
 6274 256a 90E0      		ldi r25,hi8(1)
 6275 256c 0E94 0000 		call _Z10modifierupi
 6276 2570 00C0      		rjmp .L352
 6277               	.LVL348:
 6278               	.L312:
 6279               	.LM956:
 6280 2572 E130      		cpi r30,1
 6281 2574 F105      		cpc r31,__zero_reg__
 6282 2576 01F4      		brne .L313
 6283               	.LM957:
 6284 2578 80E2      		ldi r24,lo8(32)
 6285 257a 90E0      		ldi r25,hi8(32)
 6286 257c 0E94 0000 		call _Z8keypressi
 6287               	.LVL349:
 6288               	.LM958:
 6289 2580 82E0      		ldi r24,lo8(2)
 6290 2582 90E0      		ldi r25,hi8(2)
 6291 2584 0E94 0000 		call _Z10modifierupi
 6292               	.LM959:
 6293 2588 84E0      		ldi r24,lo8(4)
 6294 258a 90E0      		ldi r25,hi8(4)
 6295 258c 0E94 0000 		call _Z10modifierupi
 6296               	.LM960:
 6297 2590 81E0      		ldi r24,lo8(1)
 6298 2592 90E0      		ldi r25,hi8(1)
 6299 2594 0E94 0000 		call _Z10modifierupi
 6300 2598 00C0      		rjmp .L352
 6301               	.LVL350:
 6302               	.L313:
 6303               	.LM961:
 6304 259a E230      		cpi r30,2
 6305 259c F105      		cpc r31,__zero_reg__
 6306 259e 01F4      		brne .L314
 6307               	.LM962:
 6308 25a0 82E0      		ldi r24,lo8(2)
 6309 25a2 90E0      		ldi r25,hi8(2)
 6310 25a4 0E94 0000 		call _Z12modifierdowni
 6311               	.LVL351:
 6312               	.LM963:
 6313 25a8 8FE1      		ldi r24,lo8(31)
 6314 25aa 90E0      		ldi r25,hi8(31)
 6315 25ac 0E94 0000 		call _Z8keypressi
 6316               	.LM964:
 6317 25b0 82E0      		ldi r24,lo8(2)
 6318 25b2 90E0      		ldi r25,hi8(2)
 6319 25b4 0E94 0000 		call _Z10modifierupi
 6320               	.LM965:
 6321 25b8 84E0      		ldi r24,lo8(4)
 6322 25ba 90E0      		ldi r25,hi8(4)
 6323 25bc 0E94 0000 		call _Z10modifierupi
 6324               	.LM966:
 6325 25c0 81E0      		ldi r24,lo8(1)
 6326 25c2 90E0      		ldi r25,hi8(1)
 6327 25c4 0E94 0000 		call _Z10modifierupi
 6328 25c8 00C0      		rjmp .L352
 6329               	.LVL352:
 6330               	.L314:
 6331               	.LM967:
 6332 25ca 3397      		sbiw r30,3
 6333 25cc 01F0      		breq .+2
 6334 25ce 00C0      		rjmp .L217
 6335               	.LM968:
 6336 25d0 8CE3      		ldi r24,lo8(60)
 6337 25d2 90E0      		ldi r25,hi8(60)
 6338 25d4 0E94 0000 		call _Z8keypressi
 6339               	.LVL353:
 6340               	.LM969:
 6341 25d8 82E0      		ldi r24,lo8(2)
 6342 25da 90E0      		ldi r25,hi8(2)
 6343 25dc 0E94 0000 		call _Z10modifierupi
 6344               	.LM970:
 6345 25e0 84E0      		ldi r24,lo8(4)
 6346 25e2 90E0      		ldi r25,hi8(4)
 6347 25e4 0E94 0000 		call _Z10modifierupi
 6348               	.LM971:
 6349 25e8 81E0      		ldi r24,lo8(1)
 6350 25ea 90E0      		ldi r25,hi8(1)
 6351 25ec 0E94 0000 		call _Z10modifierupi
 6352 25f0 00C0      		rjmp .L352
 6353               	.LVL354:
 6354               	.L311:
 6355               	.LM972:
 6356 25f2 94FE      		sbrs r9,4
 6357 25f4 00C0      		rjmp .L315
 6358               	.LBB708:
 6359               	.LBB709:
 6360               	.LM973:
 6361 25f6 6217      		cp r22,r18
 6362 25f8 7307      		cpc r23,r19
 6363 25fa 04F4      		brge .+2
 6364 25fc 00C0      		rjmp .L352
 6365               	.LM974:
 6366 25fe F801      		movw r30,r16
 6367 2600 E40F      		add r30,r20
 6368 2602 F51F      		adc r31,r21
 6369 2604 0190      		ld __tmp_reg__,Z+
 6370 2606 F081      		ld r31,Z
 6371 2608 E02D      		mov r30,__tmp_reg__
 6372               	.LBE709:
 6373               	.LBE708:
 6374               	.LM975:
 6375 260a 3097      		sbiw r30,0
 6376 260c 01F4      		brne .L316
 6377               	.LM976:
 6378 260e 88E0      		ldi r24,lo8(8)
 6379 2610 90E0      		ldi r25,hi8(8)
 6380 2612 0E94 0000 		call _Z8keypressi
 6381               	.LVL355:
 6382               	.LM977:
 6383 2616 82E0      		ldi r24,lo8(2)
 6384 2618 90E0      		ldi r25,hi8(2)
 6385 261a 0E94 0000 		call _Z10modifierupi
 6386               	.LM978:
 6387 261e 84E0      		ldi r24,lo8(4)
 6388 2620 90E0      		ldi r25,hi8(4)
 6389 2622 0E94 0000 		call _Z10modifierupi
 6390               	.LM979:
 6391 2626 81E0      		ldi r24,lo8(1)
 6392 2628 90E0      		ldi r25,hi8(1)
 6393 262a 0E94 0000 		call _Z10modifierupi
 6394 262e 00C0      		rjmp .L352
 6395               	.LVL356:
 6396               	.L316:
 6397               	.LM980:
 6398 2630 E130      		cpi r30,1
 6399 2632 F105      		cpc r31,__zero_reg__
 6400 2634 01F4      		brne .L317
 6401               	.LM981:
 6402 2636 86E5      		ldi r24,lo8(86)
 6403 2638 90E0      		ldi r25,hi8(86)
 6404 263a 0E94 0000 		call _Z8keypressi
 6405               	.LVL357:
 6406               	.LM982:
 6407 263e 82E0      		ldi r24,lo8(2)
 6408 2640 90E0      		ldi r25,hi8(2)
 6409 2642 0E94 0000 		call _Z10modifierupi
 6410               	.LM983:
 6411 2646 84E0      		ldi r24,lo8(4)
 6412 2648 90E0      		ldi r25,hi8(4)
 6413 264a 0E94 0000 		call _Z10modifierupi
 6414               	.LM984:
 6415 264e 81E0      		ldi r24,lo8(1)
 6416 2650 90E0      		ldi r25,hi8(1)
 6417 2652 0E94 0000 		call _Z10modifierupi
 6418 2656 00C0      		rjmp .L352
 6419               	.LVL358:
 6420               	.L317:
 6421               	.LM985:
 6422 2658 E230      		cpi r30,2
 6423 265a F105      		cpc r31,__zero_reg__
 6424 265c 01F4      		brne .L318
 6425               	.LM986:
 6426 265e 84E3      		ldi r24,lo8(52)
 6427 2660 90E0      		ldi r25,hi8(52)
 6428 2662 0E94 0000 		call _Z8keypressi
 6429               	.LVL359:
 6430               	.LM987:
 6431 2666 82E0      		ldi r24,lo8(2)
 6432 2668 90E0      		ldi r25,hi8(2)
 6433 266a 0E94 0000 		call _Z10modifierupi
 6434               	.LM988:
 6435 266e 84E0      		ldi r24,lo8(4)
 6436 2670 90E0      		ldi r25,hi8(4)
 6437 2672 0E94 0000 		call _Z10modifierupi
 6438               	.LM989:
 6439 2676 81E0      		ldi r24,lo8(1)
 6440 2678 90E0      		ldi r25,hi8(1)
 6441 267a 0E94 0000 		call _Z10modifierupi
 6442 267e 00C0      		rjmp .L352
 6443               	.LVL360:
 6444               	.L318:
 6445               	.LM990:
 6446 2680 3397      		sbiw r30,3
 6447 2682 01F0      		breq .+2
 6448 2684 00C0      		rjmp .L217
 6449               	.LM991:
 6450 2686 88E0      		ldi r24,lo8(8)
 6451 2688 90E0      		ldi r25,hi8(8)
 6452 268a 0E94 0000 		call _Z13modifierpressi
 6453               	.LVL361:
 6454 268e 00C0      		rjmp .L352
 6455               	.LVL362:
 6456               	.L315:
 6457               	.LM992:
 6458 2690 96FE      		sbrs r9,6
 6459 2692 00C0      		rjmp .L319
 6460               	.LBB710:
 6461               	.LBB711:
 6462               	.LM993:
 6463 2694 6217      		cp r22,r18
 6464 2696 7307      		cpc r23,r19
 6465 2698 04F4      		brge .+2
 6466 269a 00C0      		rjmp .L352
 6467               	.LM994:
 6468 269c F801      		movw r30,r16
 6469 269e E40F      		add r30,r20
 6470 26a0 F51F      		adc r31,r21
 6471 26a2 0190      		ld __tmp_reg__,Z+
 6472 26a4 F081      		ld r31,Z
 6473 26a6 E02D      		mov r30,__tmp_reg__
 6474               	.LBE711:
 6475               	.LBE710:
 6476               	.LM995:
 6477 26a8 3097      		sbiw r30,0
 6478 26aa 01F4      		brne .L320
 6479               	.LM996:
 6480 26ac 8CE0      		ldi r24,lo8(12)
 6481 26ae 90E0      		ldi r25,hi8(12)
 6482 26b0 0E94 0000 		call _Z8keypressi
 6483               	.LVL363:
 6484               	.LM997:
 6485 26b4 82E0      		ldi r24,lo8(2)
 6486 26b6 90E0      		ldi r25,hi8(2)
 6487 26b8 0E94 0000 		call _Z10modifierupi
 6488               	.LM998:
 6489 26bc 84E0      		ldi r24,lo8(4)
 6490 26be 90E0      		ldi r25,hi8(4)
 6491 26c0 0E94 0000 		call _Z10modifierupi
 6492               	.LM999:
 6493 26c4 81E0      		ldi r24,lo8(1)
 6494 26c6 90E0      		ldi r25,hi8(1)
 6495 26c8 0E94 0000 		call _Z10modifierupi
 6496 26cc 00C0      		rjmp .L352
 6497               	.LVL364:
 6498               	.L320:
 6499               	.LM1000:
 6500 26ce E230      		cpi r30,2
 6501 26d0 F105      		cpc r31,__zero_reg__
 6502 26d2 01F4      		brne .L321
 6503               	.LM1001:
 6504 26d4 82E0      		ldi r24,lo8(2)
 6505 26d6 90E0      		ldi r25,hi8(2)
 6506 26d8 0E94 0000 		call _Z12modifierdowni
 6507               	.LVL365:
 6508               	.LM1002:
 6509 26dc 84E2      		ldi r24,lo8(36)
 6510 26de 90E0      		ldi r25,hi8(36)
 6511 26e0 0E94 0000 		call _Z8keypressi
 6512               	.LM1003:
 6513 26e4 82E0      		ldi r24,lo8(2)
 6514 26e6 90E0      		ldi r25,hi8(2)
 6515 26e8 0E94 0000 		call _Z10modifierupi
 6516               	.LM1004:
 6517 26ec 84E0      		ldi r24,lo8(4)
 6518 26ee 90E0      		ldi r25,hi8(4)
 6519 26f0 0E94 0000 		call _Z10modifierupi
 6520               	.LM1005:
 6521 26f4 81E0      		ldi r24,lo8(1)
 6522 26f6 90E0      		ldi r25,hi8(1)
 6523 26f8 0E94 0000 		call _Z10modifierupi
 6524 26fc 00C0      		rjmp .L352
 6525               	.LVL366:
 6526               	.L321:
 6527               	.LM1006:
 6528 26fe 3397      		sbiw r30,3
 6529 2700 01F0      		breq .+2
 6530 2702 00C0      		rjmp .L217
 6531               	.LM1007:
 6532 2704 85E6      		ldi r24,lo8(101)
 6533 2706 90E0      		ldi r25,hi8(101)
 6534 2708 0E94 0000 		call _Z8keypressi
 6535               	.LVL367:
 6536               	.LM1008:
 6537 270c 82E0      		ldi r24,lo8(2)
 6538 270e 90E0      		ldi r25,hi8(2)
 6539 2710 0E94 0000 		call _Z10modifierupi
 6540               	.LM1009:
 6541 2714 84E0      		ldi r24,lo8(4)
 6542 2716 90E0      		ldi r25,hi8(4)
 6543 2718 0E94 0000 		call _Z10modifierupi
 6544               	.LM1010:
 6545 271c 81E0      		ldi r24,lo8(1)
 6546 271e 90E0      		ldi r25,hi8(1)
 6547 2720 0E94 0000 		call _Z10modifierupi
 6548 2724 00C0      		rjmp .L352
 6549               	.LVL368:
 6550               	.L319:
 6551               	.LM1011:
 6552 2726 C401      		movw r24,r8
 6553               	.LVL369:
 6554 2728 8070      		andi r24,lo8(-32768)
 6555 272a 9078      		andi r25,hi8(-32768)
 6556 272c 892B      		or r24,r25
 6557 272e 01F0      		breq .L322
 6558               	.LBB712:
 6559               	.LBB713:
 6560               	.LM1012:
 6561 2730 6217      		cp r22,r18
 6562 2732 7307      		cpc r23,r19
 6563 2734 04F4      		brge .+2
 6564 2736 00C0      		rjmp .L352
 6565               	.LM1013:
 6566 2738 F801      		movw r30,r16
 6567 273a E40F      		add r30,r20
 6568 273c F51F      		adc r31,r21
 6569 273e 0190      		ld __tmp_reg__,Z+
 6570 2740 F081      		ld r31,Z
 6571 2742 E02D      		mov r30,__tmp_reg__
 6572               	.LBE713:
 6573               	.LBE712:
 6574               	.LM1014:
 6575 2744 3097      		sbiw r30,0
 6576 2746 01F0      		breq .L323
 6577 2748 E130      		cpi r30,1
 6578 274a F105      		cpc r31,__zero_reg__
 6579 274c 01F0      		breq .L323
 6580 274e E230      		cpi r30,2
 6581 2750 F105      		cpc r31,__zero_reg__
 6582 2752 01F4      		brne .L324
 6583               	.L323:
 6584               	.LM1015:
 6585 2754 83E0      		ldi r24,lo8(3)
 6586 2756 90E0      		ldi r25,hi8(3)
 6587 2758 0E94 0000 		call _Z7setmodei
 6588               	.LVL370:
 6589 275c 00C0      		rjmp .L352
 6590               	.LVL371:
 6591               	.L324:
 6592               	.LM1016:
 6593 275e 3397      		sbiw r30,3
 6594 2760 01F0      		breq .+2
 6595 2762 00C0      		rjmp .L217
 6596               	.LM1017:
 6597 2764 80E0      		ldi r24,lo8(0)
 6598 2766 90E0      		ldi r25,hi8(0)
 6599 2768 0E94 0000 		call _Z7setmodei
 6600               	.LVL372:
 6601 276c 00C0      		rjmp .L352
 6602               	.LVL373:
 6603               	.L322:
 6604               	.LM1018:
 6605 276e A0FE      		sbrs r10,0
 6606 2770 00C0      		rjmp .L325
 6607               	.LVL374:
 6608               	.LBB714:
 6609               	.LBB715:
 6610               	.LM1019:
 6611 2772 6217      		cp r22,r18
 6612 2774 7307      		cpc r23,r19
 6613 2776 04F4      		brge .+2
 6614 2778 00C0      		rjmp .L352
 6615               	.LM1020:
 6616 277a F801      		movw r30,r16
 6617 277c E40F      		add r30,r20
 6618 277e F51F      		adc r31,r21
 6619 2780 0190      		ld __tmp_reg__,Z+
 6620 2782 F081      		ld r31,Z
 6621 2784 E02D      		mov r30,__tmp_reg__
 6622               	.LBE715:
 6623               	.LBE714:
 6624               	.LM1021:
 6625 2786 3097      		sbiw r30,0
 6626 2788 01F0      		breq .L326
 6627 278a E130      		cpi r30,1
 6628 278c F105      		cpc r31,__zero_reg__
 6629 278e 01F0      		breq .L326
 6630 2790 E330      		cpi r30,3
 6631 2792 F105      		cpc r31,__zero_reg__
 6632 2794 01F4      		brne .L327
 6633               	.L326:
 6634               	.LM1022:
 6635 2796 82E0      		ldi r24,lo8(2)
 6636 2798 90E0      		ldi r25,hi8(2)
 6637 279a 0E94 0000 		call _Z7setmodei
 6638               	.LVL375:
 6639 279e 00C0      		rjmp .L352
 6640               	.LVL376:
 6641               	.L327:
 6642               	.LM1023:
 6643 27a0 3297      		sbiw r30,2
 6644 27a2 01F0      		breq .+2
 6645 27a4 00C0      		rjmp .L217
 6646               	.LM1024:
 6647 27a6 80E0      		ldi r24,lo8(0)
 6648 27a8 90E0      		ldi r25,hi8(0)
 6649 27aa 0E94 0000 		call _Z7setmodei
 6650               	.LVL377:
 6651 27ae 00C0      		rjmp .L352
 6652               	.LVL378:
 6653               	.L325:
 6654               	.LM1025:
 6655 27b0 A1FE      		sbrs r10,1
 6656 27b2 00C0      		rjmp .L328
 6657               	.LBB716:
 6658               	.LBB717:
 6659               	.LM1026:
 6660 27b4 6217      		cp r22,r18
 6661 27b6 7307      		cpc r23,r19
 6662 27b8 04F4      		brge .+2
 6663 27ba 00C0      		rjmp .L352
 6664               	.LM1027:
 6665 27bc F801      		movw r30,r16
 6666 27be E40F      		add r30,r20
 6667 27c0 F51F      		adc r31,r21
 6668 27c2 0190      		ld __tmp_reg__,Z+
 6669 27c4 F081      		ld r31,Z
 6670 27c6 E02D      		mov r30,__tmp_reg__
 6671               	.LBE717:
 6672               	.LBE716:
 6673               	.LM1028:
 6674 27c8 3097      		sbiw r30,0
 6675 27ca 01F0      		breq .L329
 6676 27cc E230      		cpi r30,2
 6677 27ce F105      		cpc r31,__zero_reg__
 6678 27d0 01F0      		breq .L329
 6679 27d2 E330      		cpi r30,3
 6680 27d4 F105      		cpc r31,__zero_reg__
 6681 27d6 01F4      		brne .L330
 6682               	.L329:
 6683               	.LM1029:
 6684 27d8 81E0      		ldi r24,lo8(1)
 6685 27da 90E0      		ldi r25,hi8(1)
 6686 27dc 0E94 0000 		call _Z7setmodei
 6687               	.LVL379:
 6688 27e0 00C0      		rjmp .L352
 6689               	.LVL380:
 6690               	.L330:
 6691               	.LM1030:
 6692 27e2 3197      		sbiw r30,1
 6693 27e4 01F0      		breq .+2
 6694 27e6 00C0      		rjmp .L217
 6695               	.LM1031:
 6696 27e8 80E0      		ldi r24,lo8(0)
 6697 27ea 90E0      		ldi r25,hi8(0)
 6698 27ec 0E94 0000 		call _Z7setmodei
 6699               	.LVL381:
 6700 27f0 00C0      		rjmp .L352
 6701               	.LVL382:
 6702               	.L328:
 6703               	.LM1032:
 6704 27f2 A2FE      		sbrs r10,2
 6705 27f4 00C0      		rjmp .L331
 6706               	.LBB718:
 6707               	.LBB719:
 6708               	.LM1033:
 6709 27f6 6217      		cp r22,r18
 6710 27f8 7307      		cpc r23,r19
 6711 27fa 04F4      		brge .+2
 6712 27fc 00C0      		rjmp .L331
 6713               	.LM1034:
 6714 27fe F801      		movw r30,r16
 6715 2800 E40F      		add r30,r20
 6716 2802 F51F      		adc r31,r21
 6717 2804 0190      		ld __tmp_reg__,Z+
 6718 2806 F081      		ld r31,Z
 6719 2808 E02D      		mov r30,__tmp_reg__
 6720               	.LBE719:
 6721               	.LBE718:
 6722               	.LM1035:
 6723 280a 3097      		sbiw r30,0
 6724 280c 01F4      		brne .+2
 6725 280e 00C0      		rjmp .L352
 6726 2810 E130      		cpi r30,1
 6727 2812 F105      		cpc r31,__zero_reg__
 6728 2814 01F4      		brne .+2
 6729 2816 00C0      		rjmp .L352
 6730 2818 E230      		cpi r30,2
 6731 281a F105      		cpc r31,__zero_reg__
 6732 281c 01F4      		brne .+2
 6733 281e 00C0      		rjmp .L352
 6734 2820 3397      		sbiw r30,3
 6735 2822 01F4      		brne .+2
 6736 2824 00C0      		rjmp .L352
 6737 2826 00C0      		rjmp .L331
 6738               	.L346:
 6739               	.LBB720:
 6740               	.LBB721:
 6741               	.LM1036:
 6742 2828 6217      		cp r22,r18
 6743 282a 7307      		cpc r23,r19
 6744 282c 04F4      		brge .+2
 6745 282e 00C0      		rjmp .L332
 6746               	.LM1037:
 6747 2830 F801      		movw r30,r16
 6748 2832 E40F      		add r30,r20
 6749 2834 F51F      		adc r31,r21
 6750 2836 0190      		ld __tmp_reg__,Z+
 6751 2838 F081      		ld r31,Z
 6752 283a E02D      		mov r30,__tmp_reg__
 6753               	.LBE721:
 6754               	.LBE720:
 6755               	.LM1038:
 6756 283c 3097      		sbiw r30,0
 6757 283e 01F4      		brne .+2
 6758 2840 00C0      		rjmp .L352
 6759 2842 E130      		cpi r30,1
 6760 2844 F105      		cpc r31,__zero_reg__
 6761 2846 01F4      		brne .+2
 6762 2848 00C0      		rjmp .L352
 6763 284a E230      		cpi r30,2
 6764 284c F105      		cpc r31,__zero_reg__
 6765 284e 01F4      		brne .+2
 6766 2850 00C0      		rjmp .L352
 6767 2852 3397      		sbiw r30,3
 6768 2854 01F4      		brne .+2
 6769 2856 00C0      		rjmp .L352
 6770 2858 00C0      		rjmp .L332
 6771               	.L347:
 6772               	.LBB722:
 6773               	.LBB723:
 6774               	.LM1039:
 6775 285a 6217      		cp r22,r18
 6776 285c 7307      		cpc r23,r19
 6777 285e 04F4      		brge .+2
 6778 2860 00C0      		rjmp .L333
 6779               	.LM1040:
 6780 2862 F801      		movw r30,r16
 6781 2864 E40F      		add r30,r20
 6782 2866 F51F      		adc r31,r21
 6783 2868 0190      		ld __tmp_reg__,Z+
 6784 286a F081      		ld r31,Z
 6785 286c E02D      		mov r30,__tmp_reg__
 6786               	.LBE723:
 6787               	.LBE722:
 6788               	.LM1041:
 6789 286e 3097      		sbiw r30,0
 6790 2870 01F4      		brne .+2
 6791 2872 00C0      		rjmp .L352
 6792 2874 E130      		cpi r30,1
 6793 2876 F105      		cpc r31,__zero_reg__
 6794 2878 01F4      		brne .+2
 6795 287a 00C0      		rjmp .L352
 6796 287c E230      		cpi r30,2
 6797 287e F105      		cpc r31,__zero_reg__
 6798 2880 01F4      		brne .+2
 6799 2882 00C0      		rjmp .L352
 6800 2884 3397      		sbiw r30,3
 6801 2886 01F4      		brne .+2
 6802 2888 00C0      		rjmp .L352
 6803 288a 00C0      		rjmp .L333
 6804               	.L348:
 6805               	.LBB724:
 6806               	.LBB725:
 6807               	.LM1042:
 6808 288c 6217      		cp r22,r18
 6809 288e 7307      		cpc r23,r19
 6810 2890 04F4      		brge .+2
 6811 2892 00C0      		rjmp .L334
 6812               	.LM1043:
 6813 2894 F801      		movw r30,r16
 6814 2896 E40F      		add r30,r20
 6815 2898 F51F      		adc r31,r21
 6816 289a 0190      		ld __tmp_reg__,Z+
 6817 289c F081      		ld r31,Z
 6818 289e E02D      		mov r30,__tmp_reg__
 6819               	.LBE725:
 6820               	.LBE724:
 6821               	.LM1044:
 6822 28a0 3097      		sbiw r30,0
 6823 28a2 01F0      		breq .L335
 6824 28a4 E130      		cpi r30,1
 6825 28a6 F105      		cpc r31,__zero_reg__
 6826 28a8 01F0      		breq .L335
 6827 28aa E230      		cpi r30,2
 6828 28ac F105      		cpc r31,__zero_reg__
 6829 28ae 01F0      		breq .L335
 6830 28b0 3397      		sbiw r30,3
 6831 28b2 01F0      		breq .+2
 6832 28b4 00C0      		rjmp .L334
 6833               	.L335:
 6834               	.LM1045:
 6835 28b6 84E0      		ldi r24,lo8(4)
 6836 28b8 90E0      		ldi r25,hi8(4)
 6837 28ba 0E94 0000 		call _Z7mouseupi
 6838               	.LVL383:
 6839 28be 00C0      		rjmp .L352
 6840               	.LVL384:
 6841               	.L349:
 6842               	.LBB726:
 6843               	.LBB727:
 6844               	.LM1046:
 6845 28c0 6217      		cp r22,r18
 6846 28c2 7307      		cpc r23,r19
 6847 28c4 04F4      		brge .+2
 6848 28c6 00C0      		rjmp .L336
 6849               	.LM1047:
 6850 28c8 F801      		movw r30,r16
 6851 28ca E40F      		add r30,r20
 6852 28cc F51F      		adc r31,r21
 6853 28ce 0190      		ld __tmp_reg__,Z+
 6854 28d0 F081      		ld r31,Z
 6855 28d2 E02D      		mov r30,__tmp_reg__
 6856               	.LBE727:
 6857               	.LBE726:
 6858               	.LM1048:
 6859 28d4 3097      		sbiw r30,0
 6860 28d6 01F0      		breq .L337
 6861 28d8 E130      		cpi r30,1
 6862 28da F105      		cpc r31,__zero_reg__
 6863 28dc 01F0      		breq .L337
 6864 28de E230      		cpi r30,2
 6865 28e0 F105      		cpc r31,__zero_reg__
 6866 28e2 01F0      		breq .L337
 6867 28e4 3397      		sbiw r30,3
 6868 28e6 01F0      		breq .+2
 6869 28e8 00C0      		rjmp .L336
 6870               	.L337:
 6871               	.LM1049:
 6872 28ea 82E0      		ldi r24,lo8(2)
 6873 28ec 90E0      		ldi r25,hi8(2)
 6874 28ee 0E94 0000 		call _Z7mouseupi
 6875               	.LVL385:
 6876 28f2 00C0      		rjmp .L352
 6877               	.LVL386:
 6878               	.L359:
 6879               	.LBB728:
 6880               	.LBB643:
 6881               	.LM1050:
 6882 28f4 6217      		cp r22,r18
 6883 28f6 7307      		cpc r23,r19
 6884 28f8 04F4      		brge .+2
 6885 28fa 00C0      		rjmp .L352
 6886               	.LM1051:
 6887 28fc F801      		movw r30,r16
 6888 28fe E40F      		add r30,r20
 6889 2900 F51F      		adc r31,r21
 6890 2902 0190      		ld __tmp_reg__,Z+
 6891 2904 F081      		ld r31,Z
 6892 2906 E02D      		mov r30,__tmp_reg__
 6893               	.LBE643:
 6894               	.LBE728:
 6895               	.LM1052:
 6896 2908 3097      		sbiw r30,0
 6897 290a 01F0      		breq .L338
 6898 290c E130      		cpi r30,1
 6899 290e F105      		cpc r31,__zero_reg__
 6900 2910 01F0      		breq .L338
 6901 2912 E230      		cpi r30,2
 6902 2914 F105      		cpc r31,__zero_reg__
 6903 2916 01F0      		breq .L338
 6904 2918 3397      		sbiw r30,3
 6905 291a 01F4      		brne .L217
 6906               	.L338:
 6907               	.LM1053:
 6908 291c 81E0      		ldi r24,lo8(1)
 6909 291e 90E0      		ldi r25,hi8(1)
 6910 2920 0E94 0000 		call _Z7mouseupi
 6911               	.LVL387:
 6912 2924 00C0      		rjmp .L352
 6913               	.LVL388:
 6914               	.L350:
 6915               	.LBB729:
 6916               	.LBB730:
 6917               	.LM1054:
 6918 2926 6217      		cp r22,r18
 6919 2928 7307      		cpc r23,r19
 6920 292a 04F4      		brge .+2
 6921 292c 00C0      		rjmp .L352
 6922               	.LVL389:
 6923               	.L217:
 6924               	.LM1055:
 6925 292e F801      		movw r30,r16
 6926 2930 E40F      		add r30,r20
 6927 2932 F51F      		adc r31,r21
 6928               	.LBE730:
 6929               	.LBE729:
 6930               	.LM1056:
 6931 2934 8081      		ld r24,Z
 6932 2936 9181      		ldd r25,Z+1
 6933 2938 0497      		sbiw r24,4
 6934 293a 01F4      		brne .L352
 6935 293c 2F5F      		subi r18,lo8(-(1))
 6936 293e 3F4F      		sbci r19,hi8(-(1))
 6937               	.LBB731:
 6938               	.LBB732:
 6939               	.LM1057:
 6940 2940 6217      		cp r22,r18
 6941 2942 7307      		cpc r23,r19
 6942 2944 04F0      		brlt .L352
 6943 2946 4250      		subi r20,lo8(-(-2))
 6944 2948 5040      		sbci r21,hi8(-(-2))
 6945               	.LBE732:
 6946               	.LBE731:
 6947               	.LM1058:
 6948 294a 3297      		sbiw r30,2
 6949 294c 8081      		ld r24,Z
 6950 294e 9181      		ldd r25,Z+1
 6951 2950 892B      		or r24,r25
 6952 2952 01F4      		brne .+4
 6953 2954 0C94 0000 		jmp .L339
 6954 2958 00C0      		rjmp .L352
 6955               	.L222:
 6956               	.LBB733:
 6957               	.LBB651:
 6958               	.LM1059:
 6959 295a 6217      		cp r22,r18
 6960 295c 7307      		cpc r23,r19
 6961 295e 04F0      		brlt .+4
 6962 2960 0C94 0000 		jmp .L224
 6963 2964 00C0      		rjmp .L352
 6964               	.LVL390:
 6965               	.L272:
 6966               	.LBE651:
 6967               	.LBE733:
 6968               	.LM1060:
 6969 2966 8DA9      		ldd r24,Y+53
 6970 2968 9EA9      		ldd r25,Y+54
 6971 296a AFA9      		ldd r26,Y+55
 6972 296c B8AD      		ldd r27,Y+56
 6973 296e 0097      		sbiw r24,0
 6974 2970 A105      		cpc r26,__zero_reg__
 6975 2972 B105      		cpc r27,__zero_reg__
 6976 2974 01F0      		breq .+2
 6977 2976 00C0      		rjmp .L340
 6978               	.L273:
 6979               	.LM1061:
 6980 2978 89AD      		ldd r24,Y+57
 6981 297a 9AAD      		ldd r25,Y+58
 6982 297c ABAD      		ldd r26,Y+59
 6983 297e BCAD      		ldd r27,Y+60
 6984 2980 0097      		sbiw r24,0
 6985 2982 A105      		cpc r26,__zero_reg__
 6986 2984 B105      		cpc r27,__zero_reg__
 6987 2986 01F0      		breq .+2
 6988 2988 00C0      		rjmp .L341
 6989 298a 00C0      		rjmp .L357
 6990               	.L298:
 6991               	.LM1062:
 6992 298c 85FC      		sbrc r8,5
 6993 298e 00C0      		rjmp .L343
 6994               	.L299:
 6995               	.LM1063:
 6996 2990 86FC      		sbrc r8,6
 6997 2992 00C0      		rjmp .L344
 6998 2994 00C0      		rjmp .L358
 6999               	.L331:
 7000               	.LM1064:
 7001 2996 A3FC      		sbrc r10,3
 7002 2998 00C0      		rjmp .L346
 7003               	.L332:
 7004               	.LM1065:
 7005 299a A4FC      		sbrc r10,4
 7006 299c 00C0      		rjmp .L347
 7007               	.L333:
 7008               	.LM1066:
 7009 299e B0FC      		sbrc r11,0
 7010 29a0 00C0      		rjmp .L348
 7011               	.L334:
 7012               	.LM1067:
 7013 29a2 B1FC      		sbrc r11,1
 7014 29a4 00C0      		rjmp .L349
 7015               	.L336:
 7016               	.LM1068:
 7017 29a6 B2FE      		sbrs r11,2
 7018 29a8 00C0      		rjmp .L350
 7019 29aa 00C0      		rjmp .L359
 7020               	.LVL391:
 7021               	.L352:
 7022               	/* epilogue start */
 7023               	.LM1069:
 7024 29ac C45B      		subi r28,lo8(-(76))
 7025 29ae DF4F      		sbci r29,hi8(-(76))
 7026 29b0 0FB6      		in __tmp_reg__,__SREG__
 7027 29b2 F894      		cli
 7028 29b4 DEBF      		out __SP_H__,r29
 7029 29b6 0FBE      		out __SREG__,__tmp_reg__
 7030 29b8 CDBF      		out __SP_L__,r28
 7031 29ba CF91      		pop r28
 7032 29bc DF91      		pop r29
 7033 29be 1F91      		pop r17
 7034 29c0 0F91      		pop r16
 7035 29c2 FF90      		pop r15
 7036 29c4 EF90      		pop r14
 7037 29c6 DF90      		pop r13
 7038 29c8 CF90      		pop r12
 7039               	.LVL392:
 7040 29ca BF90      		pop r11
 7041 29cc AF90      		pop r10
 7042 29ce 9F90      		pop r9
 7043 29d0 8F90      		pop r8
 7044               	.LVL393:
 7045 29d2 7F90      		pop r7
 7046 29d4 6F90      		pop r6
 7047 29d6 5F90      		pop r5
 7048 29d8 4F90      		pop r4
 7049 29da 0895      		ret
 7050               	.LFE152:
 7052               		.data
 7053               	.LC21:
 7054 018c 746F 7563 		.string	"touchset mousedown "
 7054      6873 6574 
 7054      206D 6F75 
 7054      7365 646F 
 7054      776E 2000 
 7055               		.text
 7056               	.global	_Z9mousedowni
 7058               	_Z9mousedowni:
 7059               	.LFB134:
 7060               	.LM1070:
 7061               	.LVL394:
 7062 29dc 0F93      		push r16
 7063 29de 1F93      		push r17
 7064               	/* prologue: function */
 7065               	/* frame size = 0 */
 7066 29e0 8C01      		movw r16,r24
 7067               	.LM1071:
 7068 29e2 80E0      		ldi r24,lo8(Serial)
 7069 29e4 90E0      		ldi r25,hi8(Serial)
 7070               	.LVL395:
 7071 29e6 60E0      		ldi r22,lo8(.LC21)
 7072 29e8 70E0      		ldi r23,hi8(.LC21)
 7073 29ea 0E94 0000 		call _ZN16USBVirtualSerial5printEPKc
 7074               	.LM1072:
 7075 29ee 80E0      		ldi r24,lo8(Serial)
 7076 29f0 90E0      		ldi r25,hi8(Serial)
 7077 29f2 B801      		movw r22,r16
 7078 29f4 0E94 0000 		call _ZN16USBVirtualSerial7printlnEi
 7079               	.LM1073:
 7080 29f8 2091 0000 		lds r18,mouseDown
 7081 29fc 3091 0000 		lds r19,(mouseDown)+1
 7082 2a00 202B      		or r18,r16
 7083 2a02 312B      		or r19,r17
 7084 2a04 3093 0000 		sts (mouseDown)+1,r19
 7085 2a08 2093 0000 		sts mouseDown,r18
 7086               	.LM1074:
 7087 2a0c 60E0      		ldi r22,lo8(0)
 7088 2a0e 20FD      		sbrc r18,0
 7089 2a10 61E0      		ldi r22,lo8(1)
 7090               	.L361:
 7091 2a12 3695      		lsr r19
 7092 2a14 2795      		ror r18
 7093 2a16 422F      		mov r20,r18
 7094 2a18 4170      		andi r20,lo8(1)
 7095 2a1a 3695      		lsr r19
 7096 2a1c 2795      		ror r18
 7097 2a1e 2170      		andi r18,lo8(1)
 7098 2a20 80E0      		ldi r24,lo8(Mouse)
 7099 2a22 90E0      		ldi r25,hi8(Mouse)
 7100 2a24 0E94 0000 		call _ZN8USBMouse11set_buttonsEhhh
 7101               	/* epilogue start */
 7102               	.LM1075:
 7103 2a28 1F91      		pop r17
 7104 2a2a 0F91      		pop r16
 7105               	.LVL396:
 7106 2a2c 0895      		ret
 7107               	.LFE134:
 7109               	.global	_Z19check_sensors_touchmmi
 7111               	_Z19check_sensors_touchmmi:
 7112               	.LFB151:
 7113               	.LM1076:
 7114               	.LVL397:
 7115 2a2e 2F92      		push r2
 7116 2a30 3F92      		push r3
 7117 2a32 4F92      		push r4
 7118 2a34 5F92      		push r5
 7119 2a36 6F92      		push r6
 7120 2a38 7F92      		push r7
 7121 2a3a 8F92      		push r8
 7122 2a3c 9F92      		push r9
 7123 2a3e AF92      		push r10
 7124 2a40 BF92      		push r11
 7125 2a42 CF92      		push r12
 7126 2a44 DF92      		push r13
 7127 2a46 EF92      		push r14
 7128 2a48 FF92      		push r15
 7129 2a4a 0F93      		push r16
 7130               	.LVL398:
 7131 2a4c 1F93      		push r17
 7132 2a4e DF93      		push r29
 7133 2a50 CF93      		push r28
 7134 2a52 CDB7      		in r28,__SP_L__
 7135 2a54 DEB7      		in r29,__SP_H__
 7136 2a56 6297      		sbiw r28,18
 7137 2a58 0FB6      		in __tmp_reg__,__SREG__
 7138 2a5a F894      		cli
 7139 2a5c DEBF      		out __SP_H__,r29
 7140 2a5e 0FBE      		out __SREG__,__tmp_reg__
 7141 2a60 CDBF      		out __SP_L__,r28
 7142               	/* prologue: function */
 7143               	/* frame size = 18 */
 7144 2a62 6B01      		movw r12,r22
 7145 2a64 7C01      		movw r14,r24
 7146               	.LBB734:
 7147               	.LBB735:
 7148               	.LM1077:
 7149 2a66 6091 0000 		lds r22,modeStackPos
 7150 2a6a 7091 0000 		lds r23,(modeStackPos)+1
 7151               	.LVL399:
 7152 2a6e 7A8B      		std Y+18,r23
 7153 2a70 698B      		std Y+17,r22
 7154 2a72 C801      		movw r24,r16
 7155               	.LVL400:
 7156 2a74 8095      		com r24
 7157 2a76 9095      		com r25
 7158 2a78 860F      		add r24,r22
 7159 2a7a 971F      		adc r25,r23
 7160 2a7c 880F      		lsl r24
 7161 2a7e 991F      		rol r25
 7162 2a80 8050      		subi r24,lo8(-(modeStack))
 7163 2a82 9040      		sbci r25,hi8(-(modeStack))
 7164 2a84 988B      		std Y+16,r25
 7165 2a86 8F87      		std Y+15,r24
 7166 2a88 601B      		sub r22,r16
 7167 2a8a 710B      		sbc r23,r17
 7168 2a8c 660F      		lsl r22
 7169 2a8e 771F      		rol r23
 7170 2a90 6050      		subi r22,lo8(-(modeStack))
 7171 2a92 7040      		sbci r23,hi8(-(modeStack))
 7172 2a94 7E87      		std Y+14,r23
 7173 2a96 6D87      		std Y+13,r22
 7174 2a98 2B01      		movw r4,r22
 7175 2a9a 3B01      		movw r6,r22
 7176 2a9c 4B01      		movw r8,r22
 7177 2a9e 5B01      		movw r10,r22
 7178 2aa0 1B01      		movw r2,r22
 7179               	.LBE735:
 7180               	.LBE734:
 7181               	.LM1078:
 7182 2aa2 60E0      		ldi r22,lo8(2097152)
 7183 2aa4 70E0      		ldi r23,hi8(2097152)
 7184 2aa6 80E2      		ldi r24,hlo8(2097152)
 7185 2aa8 90E0      		ldi r25,hhi8(2097152)
 7186 2aaa C622      		and r12,r22
 7187 2aac D722      		and r13,r23
 7188 2aae E822      		and r14,r24
 7189 2ab0 F922      		and r15,r25
 7190               	.LM1079:
 7191 2ab2 DA01      		movw r26,r20
 7192 2ab4 C901      		movw r24,r18
 7193 2ab6 8072      		andi r24,lo8(32)
 7194 2ab8 9070      		andi r25,hi8(32)
 7195 2aba A070      		andi r26,hlo8(32)
 7196 2abc B070      		andi r27,hhi8(32)
 7197 2abe 8983      		std Y+1,r24
 7198 2ac0 9A83      		std Y+2,r25
 7199 2ac2 AB83      		std Y+3,r26
 7200 2ac4 BC83      		std Y+4,r27
 7201               	.LM1080:
 7202 2ac6 CA01      		movw r24,r20
 7203 2ac8 B901      		movw r22,r18
 7204 2aca 6070      		andi r22,lo8(16777216)
 7205 2acc 7070      		andi r23,hi8(16777216)
 7206 2ace 8070      		andi r24,hlo8(16777216)
 7207 2ad0 9170      		andi r25,hhi8(16777216)
 7208 2ad2 6D83      		std Y+5,r22
 7209 2ad4 7E83      		std Y+6,r23
 7210 2ad6 8F83      		std Y+7,r24
 7211 2ad8 9887      		std Y+8,r25
 7212               	.LM1081:
 7213 2ada DA01      		movw r26,r20
 7214 2adc C901      		movw r24,r18
 7215 2ade 8070      		andi r24,lo8(33554432)
 7216 2ae0 9070      		andi r25,hi8(33554432)
 7217 2ae2 A070      		andi r26,hlo8(33554432)
 7218 2ae4 B270      		andi r27,hhi8(33554432)
 7219 2ae6 8987      		std Y+9,r24
 7220 2ae8 9A87      		std Y+10,r25
 7221 2aea AB87      		std Y+11,r26
 7222 2aec BC87      		std Y+12,r27
 7223               	.LM1082:
 7224 2aee 2070      		andi r18,lo8(67108864)
 7225 2af0 3070      		andi r19,hi8(67108864)
 7226 2af2 4070      		andi r20,hlo8(67108864)
 7227 2af4 5470      		andi r21,hhi8(67108864)
 7228               	.LVL401:
 7229               	.L375:
 7230               	.LM1083:
 7231 2af6 C114      		cp r12,__zero_reg__
 7232 2af8 D104      		cpc r13,__zero_reg__
 7233 2afa E104      		cpc r14,__zero_reg__
 7234 2afc F104      		cpc r15,__zero_reg__
 7235 2afe 01F4      		brne .+2
 7236 2b00 00C0      		rjmp .L364
 7237               	.LBB737:
 7238               	.LBB736:
 7239               	.LM1084:
 7240 2b02 A989      		ldd r26,Y+17
 7241 2b04 BA89      		ldd r27,Y+18
 7242 2b06 A017      		cp r26,r16
 7243 2b08 B107      		cpc r27,r17
 7244 2b0a 04F4      		brge .+2
 7245 2b0c 00C0      		rjmp .L364
 7246               	.LM1085:
 7247 2b0e F301      		movw r30,r6
 7248 2b10 8081      		ld r24,Z
 7249 2b12 9181      		ldd r25,Z+1
 7250               	.LBE736:
 7251               	.LBE737:
 7252               	.LM1086:
 7253 2b14 0097      		sbiw r24,0
 7254 2b16 01F0      		breq .L365
 7255 2b18 8130      		cpi r24,1
 7256 2b1a 9105      		cpc r25,__zero_reg__
 7257 2b1c 01F0      		breq .L365
 7258 2b1e 8230      		cpi r24,2
 7259 2b20 9105      		cpc r25,__zero_reg__
 7260 2b22 01F0      		breq .L365
 7261 2b24 0397      		sbiw r24,3
 7262 2b26 01F0      		breq .+2
 7263 2b28 00C0      		rjmp .L364
 7264               	.L365:
 7265               	.LM1087:
 7266 2b2a 81E0      		ldi r24,lo8(1)
 7267 2b2c 90E0      		ldi r25,hi8(1)
 7268 2b2e 00C0      		rjmp .L382
 7269               	.L376:
 7270               	.LBB738:
 7271               	.LBB739:
 7272               	.LM1088:
 7273 2b30 6989      		ldd r22,Y+17
 7274 2b32 7A89      		ldd r23,Y+18
 7275 2b34 6017      		cp r22,r16
 7276 2b36 7107      		cpc r23,r17
 7277 2b38 04F4      		brge .+2
 7278 2b3a 00C0      		rjmp .L367
 7279               	.LM1089:
 7280 2b3c D401      		movw r26,r8
 7281 2b3e 8D91      		ld r24,X+
 7282 2b40 9C91      		ld r25,X
 7283               	.LBE739:
 7284               	.LBE738:
 7285               	.LM1090:
 7286 2b42 0097      		sbiw r24,0
 7287 2b44 01F0      		breq .L368
 7288 2b46 8130      		cpi r24,1
 7289 2b48 9105      		cpc r25,__zero_reg__
 7290 2b4a 01F0      		breq .L368
 7291 2b4c 8230      		cpi r24,2
 7292 2b4e 9105      		cpc r25,__zero_reg__
 7293 2b50 01F0      		breq .L368
 7294 2b52 0397      		sbiw r24,3
 7295 2b54 01F0      		breq .+2
 7296 2b56 00C0      		rjmp .L367
 7297               	.L368:
 7298               	.LM1091:
 7299 2b58 80E0      		ldi r24,lo8(0)
 7300 2b5a 90E0      		ldi r25,hi8(0)
 7301               	.L382:
 7302 2b5c 0E94 0000 		call _Z7mouseoni
 7303 2b60 00C0      		rjmp .L380
 7304               	.L377:
 7305               	.LBB740:
 7306               	.LBB741:
 7307               	.LM1092:
 7308 2b62 E989      		ldd r30,Y+17
 7309 2b64 FA89      		ldd r31,Y+18
 7310 2b66 E017      		cp r30,r16
 7311 2b68 F107      		cpc r31,r17
 7312 2b6a 04F4      		brge .+2
 7313 2b6c 00C0      		rjmp .L369
 7314               	.LM1093:
 7315 2b6e AD85      		ldd r26,Y+13
 7316 2b70 BE85      		ldd r27,Y+14
 7317 2b72 8D91      		ld r24,X+
 7318 2b74 9C91      		ld r25,X
 7319               	.LBE741:
 7320               	.LBE740:
 7321               	.LM1094:
 7322 2b76 0097      		sbiw r24,0
 7323 2b78 01F0      		breq .L370
 7324 2b7a 8130      		cpi r24,1
 7325 2b7c 9105      		cpc r25,__zero_reg__
 7326 2b7e 01F0      		breq .L370
 7327 2b80 8230      		cpi r24,2
 7328 2b82 9105      		cpc r25,__zero_reg__
 7329 2b84 01F0      		breq .L370
 7330 2b86 0397      		sbiw r24,3
 7331 2b88 01F0      		breq .+2
 7332 2b8a 00C0      		rjmp .L369
 7333               	.L370:
 7334               	.LM1095:
 7335 2b8c 84E0      		ldi r24,lo8(4)
 7336 2b8e 90E0      		ldi r25,hi8(4)
 7337 2b90 00C0      		rjmp .L383
 7338               	.L378:
 7339               	.LBB742:
 7340               	.LBB743:
 7341               	.LM1096:
 7342 2b92 E989      		ldd r30,Y+17
 7343 2b94 FA89      		ldd r31,Y+18
 7344 2b96 E017      		cp r30,r16
 7345 2b98 F107      		cpc r31,r17
 7346 2b9a 04F4      		brge .+2
 7347 2b9c 00C0      		rjmp .L371
 7348               	.LM1097:
 7349 2b9e D501      		movw r26,r10
 7350 2ba0 8D91      		ld r24,X+
 7351 2ba2 9C91      		ld r25,X
 7352               	.LBE743:
 7353               	.LBE742:
 7354               	.LM1098:
 7355 2ba4 0097      		sbiw r24,0
 7356 2ba6 01F0      		breq .L372
 7357 2ba8 8130      		cpi r24,1
 7358 2baa 9105      		cpc r25,__zero_reg__
 7359 2bac 01F0      		breq .L372
 7360 2bae 8230      		cpi r24,2
 7361 2bb0 9105      		cpc r25,__zero_reg__
 7362 2bb2 01F0      		breq .L372
 7363 2bb4 0397      		sbiw r24,3
 7364 2bb6 01F0      		breq .+2
 7365 2bb8 00C0      		rjmp .L371
 7366               	.L372:
 7367               	.LM1099:
 7368 2bba 82E0      		ldi r24,lo8(2)
 7369 2bbc 90E0      		ldi r25,hi8(2)
 7370 2bbe 00C0      		rjmp .L383
 7371               	.L379:
 7372               	.LBB744:
 7373               	.LBB745:
 7374               	.LM1100:
 7375 2bc0 E989      		ldd r30,Y+17
 7376 2bc2 FA89      		ldd r31,Y+18
 7377 2bc4 E017      		cp r30,r16
 7378 2bc6 F107      		cpc r31,r17
 7379 2bc8 04F4      		brge .+2
 7380 2bca 00C0      		rjmp .L380
 7381               	.LM1101:
 7382 2bcc D101      		movw r26,r2
 7383 2bce 8D91      		ld r24,X+
 7384 2bd0 9C91      		ld r25,X
 7385               	.LBE745:
 7386               	.LBE744:
 7387               	.LM1102:
 7388 2bd2 0097      		sbiw r24,0
 7389 2bd4 01F0      		breq .L373
 7390 2bd6 8130      		cpi r24,1
 7391 2bd8 9105      		cpc r25,__zero_reg__
 7392 2bda 01F0      		breq .L373
 7393 2bdc 8230      		cpi r24,2
 7394 2bde 9105      		cpc r25,__zero_reg__
 7395 2be0 01F0      		breq .L373
 7396 2be2 0397      		sbiw r24,3
 7397 2be4 01F4      		brne .L374
 7398               	.L373:
 7399               	.LM1103:
 7400 2be6 81E0      		ldi r24,lo8(1)
 7401 2be8 90E0      		ldi r25,hi8(1)
 7402               	.L383:
 7403 2bea 0E94 0000 		call _Z9mousedowni
 7404 2bee 00C0      		rjmp .L380
 7405               	.L374:
 7406               	.LM1104:
 7407 2bf0 F201      		movw r30,r4
 7408 2bf2 8081      		ld r24,Z
 7409 2bf4 9181      		ldd r25,Z+1
 7410 2bf6 0497      		sbiw r24,4
 7411 2bf8 01F0      		breq .+2
 7412 2bfa 00C0      		rjmp .L380
 7413 2bfc 0F5F      		subi r16,lo8(-(1))
 7414 2bfe 1F4F      		sbci r17,hi8(-(1))
 7415               	.LBB746:
 7416               	.LBB747:
 7417               	.LM1105:
 7418 2c00 6989      		ldd r22,Y+17
 7419 2c02 7A89      		ldd r23,Y+18
 7420 2c04 6017      		cp r22,r16
 7421 2c06 7107      		cpc r23,r17
 7422 2c08 04F4      		brge .+2
 7423 2c0a 00C0      		rjmp .L380
 7424               	.LM1106:
 7425 2c0c AF85      		ldd r26,Y+15
 7426 2c0e B889      		ldd r27,Y+16
 7427 2c10 8D91      		ld r24,X+
 7428 2c12 9C91      		ld r25,X
 7429 2c14 1197      		sbiw r26,1
 7430 2c16 1297      		sbiw r26,2
 7431 2c18 B88B      		std Y+16,r27
 7432 2c1a AF87      		std Y+15,r26
 7433 2c1c EEEF      		ldi r30,lo8(-2)
 7434 2c1e FFEF      		ldi r31,hi8(-2)
 7435 2c20 4E0E      		add r4,r30
 7436 2c22 5F1E      		adc r5,r31
 7437 2c24 6E0E      		add r6,r30
 7438 2c26 7F1E      		adc r7,r31
 7439 2c28 8E0E      		add r8,r30
 7440 2c2a 9F1E      		adc r9,r31
 7441 2c2c 6D85      		ldd r22,Y+13
 7442 2c2e 7E85      		ldd r23,Y+14
 7443 2c30 6250      		subi r22,lo8(-(-2))
 7444 2c32 7040      		sbci r23,hi8(-(-2))
 7445 2c34 7E87      		std Y+14,r23
 7446 2c36 6D87      		std Y+13,r22
 7447 2c38 AE0E      		add r10,r30
 7448 2c3a BF1E      		adc r11,r31
 7449 2c3c 2E0E      		add r2,r30
 7450 2c3e 3F1E      		adc r3,r31
 7451               	.LBE747:
 7452               	.LBE746:
 7453               	.LM1107:
 7454 2c40 892B      		or r24,r25
 7455 2c42 01F4      		brne .+2
 7456 2c44 00C0      		rjmp .L375
 7457 2c46 00C0      		rjmp .L380
 7458               	.L364:
 7459               	.LM1108:
 7460 2c48 8981      		ldd r24,Y+1
 7461 2c4a 9A81      		ldd r25,Y+2
 7462 2c4c AB81      		ldd r26,Y+3
 7463 2c4e BC81      		ldd r27,Y+4
 7464 2c50 0097      		sbiw r24,0
 7465 2c52 A105      		cpc r26,__zero_reg__
 7466 2c54 B105      		cpc r27,__zero_reg__
 7467 2c56 01F0      		breq .+2
 7468 2c58 00C0      		rjmp .L376
 7469               	.L367:
 7470               	.LM1109:
 7471 2c5a 6D81      		ldd r22,Y+5
 7472 2c5c 7E81      		ldd r23,Y+6
 7473 2c5e 8F81      		ldd r24,Y+7
 7474 2c60 9885      		ldd r25,Y+8
 7475 2c62 6115      		cp r22,__zero_reg__
 7476 2c64 7105      		cpc r23,__zero_reg__
 7477 2c66 8105      		cpc r24,__zero_reg__
 7478 2c68 9105      		cpc r25,__zero_reg__
 7479 2c6a 01F0      		breq .+2
 7480 2c6c 00C0      		rjmp .L377
 7481               	.L369:
 7482               	.LM1110:
 7483 2c6e 8985      		ldd r24,Y+9
 7484 2c70 9A85      		ldd r25,Y+10
 7485 2c72 AB85      		ldd r26,Y+11
 7486 2c74 BC85      		ldd r27,Y+12
 7487 2c76 0097      		sbiw r24,0
 7488 2c78 A105      		cpc r26,__zero_reg__
 7489 2c7a B105      		cpc r27,__zero_reg__
 7490 2c7c 01F0      		breq .+2
 7491 2c7e 00C0      		rjmp .L378
 7492               	.L371:
 7493               	.LM1111:
 7494 2c80 2115      		cp r18,__zero_reg__
 7495 2c82 3105      		cpc r19,__zero_reg__
 7496 2c84 4105      		cpc r20,__zero_reg__
 7497 2c86 5105      		cpc r21,__zero_reg__
 7498 2c88 01F0      		breq .+2
 7499 2c8a 00C0      		rjmp .L379
 7500               	.LBB748:
 7501               	.LBB749:
 7502               	.LM1112:
 7503 2c8c A989      		ldd r26,Y+17
 7504 2c8e BA89      		ldd r27,Y+18
 7505 2c90 A017      		cp r26,r16
 7506 2c92 B107      		cpc r27,r17
 7507 2c94 04F0      		brlt .+2
 7508 2c96 00C0      		rjmp .L374
 7509               	.L380:
 7510               	/* epilogue start */
 7511               	.LBE749:
 7512               	.LBE748:
 7513               	.LM1113:
 7514 2c98 6296      		adiw r28,18
 7515 2c9a 0FB6      		in __tmp_reg__,__SREG__
 7516 2c9c F894      		cli
 7517 2c9e DEBF      		out __SP_H__,r29
 7518 2ca0 0FBE      		out __SREG__,__tmp_reg__
 7519 2ca2 CDBF      		out __SP_L__,r28
 7520 2ca4 CF91      		pop r28
 7521 2ca6 DF91      		pop r29
 7522 2ca8 1F91      		pop r17
 7523 2caa 0F91      		pop r16
 7524               	.LVL402:
 7525 2cac FF90      		pop r15
 7526 2cae EF90      		pop r14
 7527 2cb0 DF90      		pop r13
 7528 2cb2 CF90      		pop r12
 7529 2cb4 BF90      		pop r11
 7530 2cb6 AF90      		pop r10
 7531 2cb8 9F90      		pop r9
 7532 2cba 8F90      		pop r8
 7533 2cbc 7F90      		pop r7
 7534 2cbe 6F90      		pop r6
 7535 2cc0 5F90      		pop r5
 7536 2cc2 4F90      		pop r4
 7537 2cc4 3F90      		pop r3
 7538 2cc6 2F90      		pop r2
 7539 2cc8 0895      		ret
 7540               	.LFE151:
 7542               		.data
 7543               	.LC22:
 7544 01a0 746F 7563 		.string	"touch "
 7544      6820 00
 7545               	.LC23:
 7546 01a7 0A00      		.string	"\n"
 7547               	.LC24:
 7548 01a9 6265 6E63 		.string	"benchmark 1000 "
 7548      686D 6172 
 7548      6B20 3130 
 7548      3030 2000 
 7549               		.text
 7550               	.global	loop
 7552               	loop:
 7553               	.LFB154:
 7554               	.LM1114:
 7555 2cca 2F92      		push r2
 7556 2ccc 3F92      		push r3
 7557 2cce 4F92      		push r4
 7558 2cd0 5F92      		push r5
 7559 2cd2 6F92      		push r6
 7560 2cd4 7F92      		push r7
 7561 2cd6 8F92      		push r8
 7562 2cd8 9F92      		push r9
 7563 2cda AF92      		push r10
 7564 2cdc BF92      		push r11
 7565 2cde CF92      		push r12
 7566 2ce0 DF92      		push r13
 7567 2ce2 EF92      		push r14
 7568 2ce4 FF92      		push r15
 7569 2ce6 0F93      		push r16
 7570 2ce8 1F93      		push r17
 7571 2cea DF93      		push r29
 7572 2cec CF93      		push r28
 7573 2cee CDB7      		in r28,__SP_L__
 7574 2cf0 DEB7      		in r29,__SP_H__
 7575 2cf2 2897      		sbiw r28,8
 7576 2cf4 0FB6      		in __tmp_reg__,__SREG__
 7577 2cf6 F894      		cli
 7578 2cf8 DEBF      		out __SP_H__,r29
 7579 2cfa 0FBE      		out __SREG__,__tmp_reg__
 7580 2cfc CDBF      		out __SP_L__,r28
 7581               	/* prologue: function */
 7582               	/* frame size = 8 */
 7583               	.LBB750:
 7584               	.LM1115:
 7585 2cfe 1092 0000 		sts moveMouse,__zero_reg__
 7586               	.LM1116:
 7587 2d02 1092 0000 		sts scrollMouse,__zero_reg__
 7588               	.LM1117:
 7589 2d06 6091 0000 		lds r22,opt_motion_sampling_div
 7590 2d0a 7091 0000 		lds r23,(opt_motion_sampling_div)+1
 7591 2d0e 8091 0000 		lds r24,counter
 7592 2d12 9091 0000 		lds r25,(counter)+1
 7593 2d16 0E94 0000 		call __divmodhi4
 7594 2d1a 892B      		or r24,r25
 7595 2d1c 01F0      		breq .+4
 7596 2d1e 0C94 0000 		jmp .L385
 7597               	.LM1118:
 7598 2d22 8091 0000 		lds r24,opt_mouse_mode
 7599 2d26 8823      		tst r24
 7600 2d28 01F4      		brne .L386
 7601 2d2a 8091 0000 		lds r24,opt_scroll_mode
 7602 2d2e 8823      		tst r24
 7603 2d30 01F4      		brne .+2
 7604 2d32 00C0      		rjmp .L387
 7605               	.L386:
 7606               	.LBB751:
 7607               	.LM1119:
 7608 2d34 8091 0000 		lds r24,x0
 7609 2d38 9091 0000 		lds r25,(x0)+1
 7610 2d3c 9093 0000 		sts (x00)+1,r25
 7611 2d40 8093 0000 		sts x00,r24
 7612               	.LM1120:
 7613 2d44 8091 0000 		lds r24,y0
 7614 2d48 9091 0000 		lds r25,(y0)+1
 7615 2d4c 9093 0000 		sts (y00)+1,r25
 7616 2d50 8093 0000 		sts y00,r24
 7617               	.LM1121:
 7618 2d54 8091 0000 		lds r24,z0
 7619 2d58 9091 0000 		lds r25,(z0)+1
 7620 2d5c 9093 0000 		sts (z00)+1,r25
 7621 2d60 8093 0000 		sts z00,r24
 7622               	.LM1122:
 7623 2d64 8091 0000 		lds r24,x
 7624 2d68 9091 0000 		lds r25,(x)+1
 7625 2d6c 9093 0000 		sts (x0)+1,r25
 7626 2d70 8093 0000 		sts x0,r24
 7627               	.LM1123:
 7628 2d74 8091 0000 		lds r24,y
 7629 2d78 9091 0000 		lds r25,(y)+1
 7630 2d7c 9093 0000 		sts (y0)+1,r25
 7631 2d80 8093 0000 		sts y0,r24
 7632               	.LM1124:
 7633 2d84 8091 0000 		lds r24,z
 7634 2d88 9091 0000 		lds r25,(z)+1
 7635 2d8c 9093 0000 		sts (z0)+1,r25
 7636 2d90 8093 0000 		sts z0,r24
 7637               	.LM1125:
 7638 2d94 8091 0000 		lds r24,opt_accel_rot90
 7639 2d98 8823      		tst r24
 7640 2d9a 01F4      		brne .L388
 7641               	.LM1126:
 7642 2d9c 80E0      		ldi r24,lo8(accel)
 7643 2d9e 90E0      		ldi r25,hi8(accel)
 7644 2da0 60E0      		ldi r22,lo8(xRaw)
 7645 2da2 70E0      		ldi r23,hi8(xRaw)
 7646 2da4 40E0      		ldi r20,lo8(yRaw)
 7647 2da6 50E0      		ldi r21,hi8(yRaw)
 7648 2da8 20E0      		ldi r18,lo8(zRaw)
 7649 2daa 30E0      		ldi r19,hi8(zRaw)
 7650 2dac 0E94 0000 		call _ZN13Accelerometer9readAccelEPiS0_S0_
 7651 2db0 00C0      		rjmp .L389
 7652               	.L388:
 7653               	.LM1127:
 7654 2db2 8130      		cpi r24,lo8(1)
 7655 2db4 01F4      		brne .L390
 7656               	.LM1128:
 7657 2db6 80E0      		ldi r24,lo8(accel)
 7658 2db8 90E0      		ldi r25,hi8(accel)
 7659 2dba 60E0      		ldi r22,lo8(xRaw)
 7660 2dbc 70E0      		ldi r23,hi8(xRaw)
 7661 2dbe 40E0      		ldi r20,lo8(zRaw)
 7662 2dc0 50E0      		ldi r21,hi8(zRaw)
 7663 2dc2 20E0      		ldi r18,lo8(yRaw)
 7664 2dc4 30E0      		ldi r19,hi8(yRaw)
 7665 2dc6 00C0      		rjmp .L503
 7666               	.L390:
 7667               	.LM1129:
 7668 2dc8 8230      		cpi r24,lo8(2)
 7669 2dca 01F4      		brne .+2
 7670 2dcc 00C0      		rjmp .L517
 7671               	.L391:
 7672               	.LM1130:
 7673 2dce 8430      		cpi r24,lo8(4)
 7674 2dd0 01F4      		brne .L392
 7675               	.LM1131:
 7676 2dd2 80E0      		ldi r24,lo8(accel)
 7677 2dd4 90E0      		ldi r25,hi8(accel)
 7678 2dd6 60E0      		ldi r22,lo8(yRaw)
 7679 2dd8 70E0      		ldi r23,hi8(yRaw)
 7680 2dda 40E0      		ldi r20,lo8(xRaw)
 7681 2ddc 50E0      		ldi r21,hi8(xRaw)
 7682 2dde 20E0      		ldi r18,lo8(zRaw)
 7683 2de0 30E0      		ldi r19,hi8(zRaw)
 7684 2de2 0E94 0000 		call _ZN13Accelerometer9readAccelEPiS0_S0_
 7685               	.LM1132:
 7686 2de6 8091 0000 		lds r24,yRaw
 7687 2dea 9091 0000 		lds r25,(yRaw)+1
 7688 2dee 9095      		com r25
 7689 2df0 8195      		neg r24
 7690 2df2 9F4F      		sbci r25,lo8(-1)
 7691 2df4 9093 0000 		sts (yRaw)+1,r25
 7692 2df8 8093 0000 		sts yRaw,r24
 7693 2dfc 00C0      		rjmp .L389
 7694               	.L392:
 7695               	.LM1133:
 7696 2dfe 8330      		cpi r24,lo8(3)
 7697 2e00 01F4      		brne .L393
 7698               	.LM1134:
 7699 2e02 80E0      		ldi r24,lo8(accel)
 7700 2e04 90E0      		ldi r25,hi8(accel)
 7701 2e06 60E0      		ldi r22,lo8(zRaw)
 7702 2e08 70E0      		ldi r23,hi8(zRaw)
 7703 2e0a 40E0      		ldi r20,lo8(xRaw)
 7704 2e0c 50E0      		ldi r21,hi8(xRaw)
 7705 2e0e 20E0      		ldi r18,lo8(yRaw)
 7706 2e10 30E0      		ldi r19,hi8(yRaw)
 7707 2e12 0E94 0000 		call _ZN13Accelerometer9readAccelEPiS0_S0_
 7708               	.LM1135:
 7709 2e16 8091 0000 		lds r24,xRaw
 7710 2e1a 9091 0000 		lds r25,(xRaw)+1
 7711 2e1e 9095      		com r25
 7712 2e20 8195      		neg r24
 7713 2e22 9F4F      		sbci r25,lo8(-1)
 7714 2e24 9093 0000 		sts (xRaw)+1,r25
 7715 2e28 8093 0000 		sts xRaw,r24
 7716 2e2c 00C0      		rjmp .L504
 7717               	.L393:
 7718               	.LM1136:
 7719 2e2e 8530      		cpi r24,lo8(5)
 7720 2e30 01F4      		brne .L394
 7721               	.LM1137:
 7722 2e32 80E0      		ldi r24,lo8(accel)
 7723 2e34 90E0      		ldi r25,hi8(accel)
 7724 2e36 60E0      		ldi r22,lo8(yRaw)
 7725 2e38 70E0      		ldi r23,hi8(yRaw)
 7726 2e3a 40E0      		ldi r20,lo8(zRaw)
 7727 2e3c 50E0      		ldi r21,hi8(zRaw)
 7728 2e3e 20E0      		ldi r18,lo8(xRaw)
 7729 2e40 30E0      		ldi r19,hi8(xRaw)
 7730 2e42 00C0      		rjmp .L512
 7731               	.L394:
 7732               	.LM1138:
 7733 2e44 8630      		cpi r24,lo8(6)
 7734 2e46 01F4      		brne .L395
 7735               	.LM1139:
 7736 2e48 80E0      		ldi r24,lo8(accel)
 7737 2e4a 90E0      		ldi r25,hi8(accel)
 7738 2e4c 60E0      		ldi r22,lo8(zRaw)
 7739 2e4e 70E0      		ldi r23,hi8(zRaw)
 7740 2e50 40E0      		ldi r20,lo8(xRaw)
 7741 2e52 50E0      		ldi r21,hi8(xRaw)
 7742 2e54 20E0      		ldi r18,lo8(yRaw)
 7743 2e56 30E0      		ldi r19,hi8(yRaw)
 7744               	.L512:
 7745 2e58 0E94 0000 		call _ZN13Accelerometer9readAccelEPiS0_S0_
 7746               	.LM1140:
 7747 2e5c 8091 0000 		lds r24,yRaw
 7748 2e60 9091 0000 		lds r25,(yRaw)+1
 7749 2e64 9095      		com r25
 7750 2e66 8195      		neg r24
 7751 2e68 9F4F      		sbci r25,lo8(-1)
 7752 2e6a 9093 0000 		sts (yRaw)+1,r25
 7753 2e6e 8093 0000 		sts yRaw,r24
 7754 2e72 00C0      		rjmp .L504
 7755               	.L395:
 7756               	.LM1141:
 7757 2e74 8730      		cpi r24,lo8(7)
 7758 2e76 01F4      		brne .L389
 7759               	.L517:
 7760               	.LM1142:
 7761 2e78 80E0      		ldi r24,lo8(accel)
 7762 2e7a 90E0      		ldi r25,hi8(accel)
 7763 2e7c 60E0      		ldi r22,lo8(zRaw)
 7764 2e7e 70E0      		ldi r23,hi8(zRaw)
 7765 2e80 40E0      		ldi r20,lo8(yRaw)
 7766 2e82 50E0      		ldi r21,hi8(yRaw)
 7767 2e84 20E0      		ldi r18,lo8(xRaw)
 7768 2e86 30E0      		ldi r19,hi8(xRaw)
 7769               	.L503:
 7770 2e88 0E94 0000 		call _ZN13Accelerometer9readAccelEPiS0_S0_
 7771               	.L504:
 7772               	.LM1143:
 7773 2e8c 8091 0000 		lds r24,zRaw
 7774 2e90 9091 0000 		lds r25,(zRaw)+1
 7775 2e94 9095      		com r25
 7776 2e96 8195      		neg r24
 7777 2e98 9F4F      		sbci r25,lo8(-1)
 7778 2e9a 9093 0000 		sts (zRaw)+1,r25
 7779 2e9e 8093 0000 		sts zRaw,r24
 7780               	.L389:
 7781               	.LM1144:
 7782 2ea2 8091 0000 		lds r24,accelMicros
 7783 2ea6 9091 0000 		lds r25,(accelMicros)+1
 7784 2eaa A091 0000 		lds r26,(accelMicros)+2
 7785 2eae B091 0000 		lds r27,(accelMicros)+3
 7786 2eb2 0097      		sbiw r24,0
 7787 2eb4 A105      		cpc r26,__zero_reg__
 7788 2eb6 B105      		cpc r27,__zero_reg__
 7789 2eb8 01F4      		brne .L396
 7790 2eba 21E0      		ldi r18,lo8(1)
 7791 2ebc 30E0      		ldi r19,hi8(1)
 7792 2ebe 40E0      		ldi r20,hlo8(1)
 7793 2ec0 50E0      		ldi r21,hhi8(1)
 7794 2ec2 00C0      		rjmp .L397
 7795               	.L396:
 7796 2ec4 0E94 0000 		call micros
 7797 2ec8 9B01      		movw r18,r22
 7798 2eca AC01      		movw r20,r24
 7799 2ecc 8091 0000 		lds r24,accelMicros
 7800 2ed0 9091 0000 		lds r25,(accelMicros)+1
 7801 2ed4 A091 0000 		lds r26,(accelMicros)+2
 7802 2ed8 B091 0000 		lds r27,(accelMicros)+3
 7803 2edc 281B      		sub r18,r24
 7804 2ede 390B      		sbc r19,r25
 7805 2ee0 4A0B      		sbc r20,r26
 7806 2ee2 5B0B      		sbc r21,r27
 7807               	.L397:
 7808 2ee4 2093 0000 		sts accelDiff,r18
 7809 2ee8 3093 0000 		sts (accelDiff)+1,r19
 7810 2eec 4093 0000 		sts (accelDiff)+2,r20
 7811 2ef0 5093 0000 		sts (accelDiff)+3,r21
 7812               	.LM1145:
 7813 2ef4 0E94 0000 		call micros
 7814 2ef8 6093 0000 		sts accelMicros,r22
 7815 2efc 7093 0000 		sts (accelMicros)+1,r23
 7816 2f00 8093 0000 		sts (accelMicros)+2,r24
 7817 2f04 9093 0000 		sts (accelMicros)+3,r25
 7818               	.LM1146:
 7819 2f08 6091 0000 		lds r22,xRaw
 7820 2f0c 7091 0000 		lds r23,(xRaw)+1
 7821 2f10 2091 0000 		lds r18,opt_accel_offset
 7822 2f14 3091 0000 		lds r19,(opt_accel_offset)+1
 7823 2f18 620F      		add r22,r18
 7824 2f1a 731F      		adc r23,r19
 7825               	.LM1147:
 7826 2f1c E090 0000 		lds r14,yRaw
 7827 2f20 F090 0000 		lds r15,(yRaw)+1
 7828 2f24 2091 0000 		lds r18,opt_accel_offset+2
 7829 2f28 3091 0000 		lds r19,(opt_accel_offset+2)+1
 7830 2f2c E20E      		add r14,r18
 7831 2f2e F31E      		adc r15,r19
 7832               	.LM1148:
 7833 2f30 A090 0000 		lds r10,zRaw
 7834 2f34 B090 0000 		lds r11,(zRaw)+1
 7835 2f38 2091 0000 		lds r18,opt_accel_offset+4
 7836 2f3c 3091 0000 		lds r19,(opt_accel_offset+4)+1
 7837 2f40 A20E      		add r10,r18
 7838 2f42 B31E      		adc r11,r19
 7839               	.LM1149:
 7840 2f44 8827      		clr r24
 7841 2f46 77FD      		sbrc r23,7
 7842 2f48 8095      		com r24
 7843 2f4a 982F      		mov r25,r24
 7844 2f4c 0E94 0000 		call __floatsisf
 7845 2f50 2091 0000 		lds r18,opt_accel_calibrate
 7846 2f54 3091 0000 		lds r19,(opt_accel_calibrate)+1
 7847 2f58 4091 0000 		lds r20,(opt_accel_calibrate)+2
 7848 2f5c 5091 0000 		lds r21,(opt_accel_calibrate)+3
 7849 2f60 0E94 0000 		call __mulsf3
 7850 2f64 0E94 0000 		call __fixsfsi
 7851 2f68 3B01      		movw r6,r22
 7852 2f6a 4C01      		movw r8,r24
 7853 2f6c 7093 0000 		sts (xRaw)+1,r23
 7854 2f70 6093 0000 		sts xRaw,r22
 7855               	.LM1150:
 7856 2f74 0027      		clr r16
 7857 2f76 F7FC      		sbrc r15,7
 7858 2f78 0095      		com r16
 7859 2f7a 102F      		mov r17,r16
 7860 2f7c C801      		movw r24,r16
 7861 2f7e B701      		movw r22,r14
 7862 2f80 0E94 0000 		call __floatsisf
 7863 2f84 2091 0000 		lds r18,opt_accel_calibrate+4
 7864 2f88 3091 0000 		lds r19,(opt_accel_calibrate+4)+1
 7865 2f8c 4091 0000 		lds r20,(opt_accel_calibrate+4)+2
 7866 2f90 5091 0000 		lds r21,(opt_accel_calibrate+4)+3
 7867 2f94 0E94 0000 		call __mulsf3
 7868 2f98 0E94 0000 		call __fixsfsi
 7869 2f9c 1B01      		movw r2,r22
 7870 2f9e 2C01      		movw r4,r24
 7871 2fa0 7093 0000 		sts (yRaw)+1,r23
 7872 2fa4 6093 0000 		sts yRaw,r22
 7873               	.LM1151:
 7874 2fa8 CC24      		clr r12
 7875 2faa B7FC      		sbrc r11,7
 7876 2fac C094      		com r12
 7877 2fae DC2C      		mov r13,r12
 7878 2fb0 C601      		movw r24,r12
 7879 2fb2 B501      		movw r22,r10
 7880 2fb4 0E94 0000 		call __floatsisf
 7881 2fb8 2091 0000 		lds r18,opt_accel_calibrate+8
 7882 2fbc 3091 0000 		lds r19,(opt_accel_calibrate+8)+1
 7883 2fc0 4091 0000 		lds r20,(opt_accel_calibrate+8)+2
 7884 2fc4 5091 0000 		lds r21,(opt_accel_calibrate+8)+3
 7885 2fc8 0E94 0000 		call __mulsf3
 7886 2fcc 0E94 0000 		call __fixsfsi
 7887 2fd0 4B01      		movw r8,r22
 7888 2fd2 5C01      		movw r10,r24
 7889 2fd4 7093 0000 		sts (zRaw)+1,r23
 7890 2fd8 6093 0000 		sts zRaw,r22
 7891               	.LM1152:
 7892 2fdc 0091 0000 		lds r16,x0
 7893 2fe0 1091 0000 		lds r17,(x0)+1
 7894 2fe4 B801      		movw r22,r16
 7895 2fe6 8827      		clr r24
 7896 2fe8 77FD      		sbrc r23,7
 7897 2fea 8095      		com r24
 7898 2fec 982F      		mov r25,r24
 7899 2fee 0E94 0000 		call __floatsisf
 7900 2ff2 6B01      		movw r12,r22
 7901 2ff4 7C01      		movw r14,r24
 7902 2ff6 601A      		sub r6,r16
 7903 2ff8 710A      		sbc r7,r17
 7904 2ffa B301      		movw r22,r6
 7905 2ffc 8827      		clr r24
 7906 2ffe 77FD      		sbrc r23,7
 7907 3000 8095      		com r24
 7908 3002 982F      		mov r25,r24
 7909 3004 0E94 0000 		call __floatsisf
 7910 3008 2091 0000 		lds r18,opt_accel_kalman_constant
 7911 300c 3091 0000 		lds r19,(opt_accel_kalman_constant)+1
 7912 3010 4091 0000 		lds r20,(opt_accel_kalman_constant)+2
 7913 3014 5091 0000 		lds r21,(opt_accel_kalman_constant)+3
 7914 3018 0E94 0000 		call __mulsf3
 7915 301c 9B01      		movw r18,r22
 7916 301e AC01      		movw r20,r24
 7917 3020 C701      		movw r24,r14
 7918 3022 B601      		movw r22,r12
 7919 3024 0E94 0000 		call __addsf3
 7920 3028 0E94 0000 		call __fixsfsi
 7921 302c 7093 0000 		sts (x)+1,r23
 7922 3030 6093 0000 		sts x,r22
 7923               	.LM1153:
 7924 3034 0091 0000 		lds r16,y0
 7925 3038 1091 0000 		lds r17,(y0)+1
 7926 303c B801      		movw r22,r16
 7927 303e 8827      		clr r24
 7928 3040 77FD      		sbrc r23,7
 7929 3042 8095      		com r24
 7930 3044 982F      		mov r25,r24
 7931 3046 0E94 0000 		call __floatsisf
 7932 304a 6B01      		movw r12,r22
 7933 304c 7C01      		movw r14,r24
 7934 304e 201A      		sub r2,r16
 7935 3050 310A      		sbc r3,r17
 7936 3052 B101      		movw r22,r2
 7937 3054 8827      		clr r24
 7938 3056 77FD      		sbrc r23,7
 7939 3058 8095      		com r24
 7940 305a 982F      		mov r25,r24
 7941 305c 0E94 0000 		call __floatsisf
 7942 3060 2091 0000 		lds r18,opt_accel_kalman_constant
 7943 3064 3091 0000 		lds r19,(opt_accel_kalman_constant)+1
 7944 3068 4091 0000 		lds r20,(opt_accel_kalman_constant)+2
 7945 306c 5091 0000 		lds r21,(opt_accel_kalman_constant)+3
 7946 3070 0E94 0000 		call __mulsf3
 7947 3074 9B01      		movw r18,r22
 7948 3076 AC01      		movw r20,r24
 7949 3078 C701      		movw r24,r14
 7950 307a B601      		movw r22,r12
 7951 307c 0E94 0000 		call __addsf3
 7952 3080 0E94 0000 		call __fixsfsi
 7953 3084 7093 0000 		sts (y)+1,r23
 7954 3088 6093 0000 		sts y,r22
 7955               	.LM1154:
 7956 308c 0091 0000 		lds r16,z0
 7957 3090 1091 0000 		lds r17,(z0)+1
 7958 3094 B801      		movw r22,r16
 7959 3096 8827      		clr r24
 7960 3098 77FD      		sbrc r23,7
 7961 309a 8095      		com r24
 7962 309c 982F      		mov r25,r24
 7963 309e 0E94 0000 		call __floatsisf
 7964 30a2 6B01      		movw r12,r22
 7965 30a4 7C01      		movw r14,r24
 7966 30a6 9401      		movw r18,r8
 7967 30a8 201B      		sub r18,r16
 7968 30aa 310B      		sbc r19,r17
 7969 30ac B901      		movw r22,r18
 7970 30ae 8827      		clr r24
 7971 30b0 77FD      		sbrc r23,7
 7972 30b2 8095      		com r24
 7973 30b4 982F      		mov r25,r24
 7974 30b6 0E94 0000 		call __floatsisf
 7975 30ba 2091 0000 		lds r18,opt_accel_kalman_constant
 7976 30be 3091 0000 		lds r19,(opt_accel_kalman_constant)+1
 7977 30c2 4091 0000 		lds r20,(opt_accel_kalman_constant)+2
 7978 30c6 5091 0000 		lds r21,(opt_accel_kalman_constant)+3
 7979 30ca 0E94 0000 		call __mulsf3
 7980 30ce 9B01      		movw r18,r22
 7981 30d0 AC01      		movw r20,r24
 7982 30d2 C701      		movw r24,r14
 7983 30d4 B601      		movw r22,r12
 7984 30d6 0E94 0000 		call __addsf3
 7985 30da 0E94 0000 		call __fixsfsi
 7986 30de 7093 0000 		sts (z)+1,r23
 7987 30e2 6093 0000 		sts z,r22
 7988               	.LM1155:
 7989 30e6 8091 0000 		lds r24,opt_accel_smooth_average
 7990 30ea 8823      		tst r24
 7991 30ec 01F4      		brne .+2
 7992 30ee 00C0      		rjmp .L398
 7993               	.LM1156:
 7994 30f0 81E0      		ldi r24,lo8(1)
 7995 30f2 90E0      		ldi r25,hi8(1)
 7996 30f4 A0E0      		ldi r26,hlo8(1)
 7997 30f6 B0E0      		ldi r27,hhi8(1)
 7998 30f8 8093 0000 		sts i,r24
 7999 30fc 9093 0000 		sts (i)+1,r25
 8000 3100 A093 0000 		sts (i)+2,r26
 8001 3104 B093 0000 		sts (i)+3,r27
 8002 3108 00C0      		rjmp .L399
 8003               	.L400:
 8004               	.LM1157:
 8005 310a B301      		movw r22,r6
 8006 310c 8827      		clr r24
 8007 310e 77FD      		sbrc r23,7
 8008 3110 8095      		com r24
 8009 3112 982F      		mov r25,r24
 8010 3114 6C0D      		add r22,r12
 8011 3116 7D1D      		adc r23,r13
 8012 3118 8E1D      		adc r24,r14
 8013 311a 9F1D      		adc r25,r15
 8014 311c 0E94 0000 		call __divmodsi4
 8015 3120 DC01      		movw r26,r24
 8016 3122 CB01      		movw r24,r22
 8017 3124 880F      		lsl r24
 8018 3126 991F      		rol r25
 8019 3128 FC01      		movw r30,r24
 8020 312a E050      		subi r30,lo8(-(xHist))
 8021 312c F040      		sbci r31,hi8(-(xHist))
 8022 312e 2081      		ld r18,Z
 8023 3130 3181      		ldd r19,Z+1
 8024 3132 020F      		add r16,r18
 8025 3134 131F      		adc r17,r19
 8026 3136 1093 0000 		sts (x)+1,r17
 8027 313a 0093 0000 		sts x,r16
 8028               	.LM1158:
 8029 313e FC01      		movw r30,r24
 8030 3140 E050      		subi r30,lo8(-(yHist))
 8031 3142 F040      		sbci r31,hi8(-(yHist))
 8032 3144 2081      		ld r18,Z
 8033 3146 3181      		ldd r19,Z+1
 8034 3148 A20E      		add r10,r18
 8035 314a B31E      		adc r11,r19
 8036 314c B092 0000 		sts (y)+1,r11
 8037 3150 A092 0000 		sts y,r10
 8038               	.LM1159:
 8039 3154 8050      		subi r24,lo8(-(zHist))
 8040 3156 9040      		sbci r25,hi8(-(zHist))
 8041 3158 DC01      		movw r26,r24
 8042 315a 8D91      		ld r24,X+
 8043 315c 9C91      		ld r25,X
 8044 315e 480E      		add r4,r24
 8045 3160 591E      		adc r5,r25
 8046 3162 5092 0000 		sts (z)+1,r5
 8047 3166 4092 0000 		sts z,r4
 8048               	.LM1160:
 8049 316a 0894      		sec
 8050 316c C11C      		adc r12,__zero_reg__
 8051 316e D11C      		adc r13,__zero_reg__
 8052 3170 E11C      		adc r14,__zero_reg__
 8053 3172 F11C      		adc r15,__zero_reg__
 8054 3174 C092 0000 		sts i,r12
 8055 3178 D092 0000 		sts (i)+1,r13
 8056 317c E092 0000 		sts (i)+2,r14
 8057 3180 F092 0000 		sts (i)+3,r15
 8058               	.L399:
 8059 3184 C090 0000 		lds r12,i
 8060 3188 D090 0000 		lds r13,(i)+1
 8061 318c E090 0000 		lds r14,(i)+2
 8062 3190 F090 0000 		lds r15,(i)+3
 8063 3194 9090 0000 		lds r9,opt_accel_smooth_average
 8064 3198 292D      		mov r18,r9
 8065 319a 30E0      		ldi r19,lo8(0)
 8066 319c 40E0      		ldi r20,lo8(0)
 8067 319e 50E0      		ldi r21,hi8(0)
 8068 31a0 0091 0000 		lds r16,x
 8069 31a4 1091 0000 		lds r17,(x)+1
 8070 31a8 A090 0000 		lds r10,y
 8071 31ac B090 0000 		lds r11,(y)+1
 8072 31b0 4090 0000 		lds r4,z
 8073 31b4 5090 0000 		lds r5,(z)+1
 8074 31b8 6090 0000 		lds r6,accelTick
 8075 31bc 7090 0000 		lds r7,(accelTick)+1
 8076 31c0 C216      		cp r12,r18
 8077 31c2 D306      		cpc r13,r19
 8078 31c4 E406      		cpc r14,r20
 8079 31c6 F506      		cpc r15,r21
 8080 31c8 04F4      		brge .+2
 8081 31ca 00C0      		rjmp .L400
 8082               	.LM1161:
 8083 31cc C801      		movw r24,r16
 8084 31ce 692D      		mov r22,r9
 8085 31d0 70E0      		ldi r23,lo8(0)
 8086 31d2 0E94 0000 		call __divmodhi4
 8087 31d6 9B01      		movw r18,r22
 8088 31d8 7093 0000 		sts (x)+1,r23
 8089 31dc 6093 0000 		sts x,r22
 8090               	.LM1162:
 8091 31e0 C501      		movw r24,r10
 8092 31e2 692D      		mov r22,r9
 8093 31e4 70E0      		ldi r23,lo8(0)
 8094 31e6 0E94 0000 		call __divmodhi4
 8095 31ea 8B01      		movw r16,r22
 8096 31ec 7093 0000 		sts (y)+1,r23
 8097 31f0 6093 0000 		sts y,r22
 8098               	.LM1163:
 8099 31f4 C201      		movw r24,r4
 8100 31f6 692D      		mov r22,r9
 8101 31f8 70E0      		ldi r23,lo8(0)
 8102 31fa 0E94 0000 		call __divmodhi4
 8103 31fe 7B01      		movw r14,r22
 8104 3200 7093 0000 		sts (z)+1,r23
 8105 3204 6093 0000 		sts z,r22
 8106               	.LM1164:
 8107 3208 C301      		movw r24,r6
 8108 320a 692D      		mov r22,r9
 8109 320c 70E0      		ldi r23,lo8(0)
 8110 320e 0E94 0000 		call __divmodhi4
 8111 3212 FC01      		movw r30,r24
 8112 3214 EE0F      		lsl r30
 8113 3216 FF1F      		rol r31
 8114 3218 E050      		subi r30,lo8(-(xHist))
 8115 321a F040      		sbci r31,hi8(-(xHist))
 8116 321c 3183      		std Z+1,r19
 8117 321e 2083      		st Z,r18
 8118               	.LM1165:
 8119 3220 C301      		movw r24,r6
 8120 3222 692D      		mov r22,r9
 8121 3224 70E0      		ldi r23,lo8(0)
 8122 3226 0E94 0000 		call __divmodhi4
 8123 322a FC01      		movw r30,r24
 8124 322c EE0F      		lsl r30
 8125 322e FF1F      		rol r31
 8126 3230 E050      		subi r30,lo8(-(yHist))
 8127 3232 F040      		sbci r31,hi8(-(yHist))
 8128 3234 1183      		std Z+1,r17
 8129 3236 0083      		st Z,r16
 8130               	.LM1166:
 8131 3238 C301      		movw r24,r6
 8132 323a 692D      		mov r22,r9
 8133 323c 70E0      		ldi r23,lo8(0)
 8134 323e 0E94 0000 		call __divmodhi4
 8135 3242 FC01      		movw r30,r24
 8136 3244 EE0F      		lsl r30
 8137 3246 FF1F      		rol r31
 8138 3248 E050      		subi r30,lo8(-(zHist))
 8139 324a F040      		sbci r31,hi8(-(zHist))
 8140 324c F182      		std Z+1,r15
 8141 324e E082      		st Z,r14
 8142               	.L398:
 8143               	.LM1167:
 8144 3250 4091 0000 		lds r20,x0
 8145 3254 5091 0000 		lds r21,(x0)+1
 8146 3258 6091 0000 		lds r22,x
 8147 325c 7091 0000 		lds r23,(x)+1
 8148 3260 8091 0000 		lds r24,xv
 8149 3264 9091 0000 		lds r25,(xv)+1
 8150 3268 860F      		add r24,r22
 8151 326a 971F      		adc r25,r23
 8152 326c 2091 0000 		lds r18,x00
 8153 3270 3091 0000 		lds r19,(x00)+1
 8154 3274 820F      		add r24,r18
 8155 3276 931F      		adc r25,r19
 8156 3278 841B      		sub r24,r20
 8157 327a 950B      		sbc r25,r21
 8158 327c 841B      		sub r24,r20
 8159 327e 950B      		sbc r25,r21
 8160 3280 9093 0000 		sts (xv)+1,r25
 8161 3284 8093 0000 		sts xv,r24
 8162               	.LM1168:
 8163 3288 4091 0000 		lds r20,y0
 8164 328c 5091 0000 		lds r21,(y0)+1
 8165 3290 8091 0000 		lds r24,y
 8166 3294 9091 0000 		lds r25,(y)+1
 8167 3298 2091 0000 		lds r18,yv
 8168 329c 3091 0000 		lds r19,(yv)+1
 8169 32a0 820F      		add r24,r18
 8170 32a2 931F      		adc r25,r19
 8171 32a4 2091 0000 		lds r18,y00
 8172 32a8 3091 0000 		lds r19,(y00)+1
 8173 32ac 820F      		add r24,r18
 8174 32ae 931F      		adc r25,r19
 8175 32b0 841B      		sub r24,r20
 8176 32b2 950B      		sbc r25,r21
 8177 32b4 841B      		sub r24,r20
 8178 32b6 950B      		sbc r25,r21
 8179 32b8 9093 0000 		sts (yv)+1,r25
 8180 32bc 8093 0000 		sts yv,r24
 8181               	.LM1169:
 8182 32c0 4091 0000 		lds r20,z0
 8183 32c4 5091 0000 		lds r21,(z0)+1
 8184 32c8 8091 0000 		lds r24,z
 8185 32cc 9091 0000 		lds r25,(z)+1
 8186 32d0 2091 0000 		lds r18,zv
 8187 32d4 3091 0000 		lds r19,(zv)+1
 8188 32d8 820F      		add r24,r18
 8189 32da 931F      		adc r25,r19
 8190 32dc 2091 0000 		lds r18,z00
 8191 32e0 3091 0000 		lds r19,(z00)+1
 8192 32e4 820F      		add r24,r18
 8193 32e6 931F      		adc r25,r19
 8194 32e8 841B      		sub r24,r20
 8195 32ea 950B      		sbc r25,r21
 8196 32ec 841B      		sub r24,r20
 8197 32ee 950B      		sbc r25,r21
 8198 32f0 9093 0000 		sts (zv)+1,r25
 8199 32f4 8093 0000 		sts zv,r24
 8200               	.LM1170:
 8201 32f8 8091 0000 		lds r24,opt_enable_calibration
 8202 32fc 9091 0000 		lds r25,(opt_enable_calibration)+1
 8203 3300 892B      		or r24,r25
 8204 3302 01F4      		brne .+2
 8205 3304 00C0      		rjmp .L401
 8206               	.LM1171:
 8207 3306 2091 0000 		lds r18,xMin
 8208 330a 3091 0000 		lds r19,(xMin)+1
 8209 330e CB01      		movw r24,r22
 8210 3310 2617      		cp r18,r22
 8211 3312 3707      		cpc r19,r23
 8212 3314 04F4      		brge .L402
 8213 3316 C901      		movw r24,r18
 8214               	.L402:
 8215 3318 9093 0000 		sts (xMin)+1,r25
 8216 331c 8093 0000 		sts xMin,r24
 8217               	.LM1172:
 8218 3320 2091 0000 		lds r18,yMin
 8219 3324 3091 0000 		lds r19,(yMin)+1
 8220 3328 8091 0000 		lds r24,y
 8221 332c 9091 0000 		lds r25,(y)+1
 8222 3330 2817      		cp r18,r24
 8223 3332 3907      		cpc r19,r25
 8224 3334 04F4      		brge .L403
 8225 3336 C901      		movw r24,r18
 8226               	.L403:
 8227 3338 9093 0000 		sts (yMin)+1,r25
 8228 333c 8093 0000 		sts yMin,r24
 8229               	.LM1173:
 8230 3340 2091 0000 		lds r18,zMin
 8231 3344 3091 0000 		lds r19,(zMin)+1
 8232 3348 8091 0000 		lds r24,z
 8233 334c 9091 0000 		lds r25,(z)+1
 8234 3350 2817      		cp r18,r24
 8235 3352 3907      		cpc r19,r25
 8236 3354 04F4      		brge .L404
 8237 3356 C901      		movw r24,r18
 8238               	.L404:
 8239 3358 9093 0000 		sts (zMin)+1,r25
 8240 335c 8093 0000 		sts zMin,r24
 8241               	.LM1174:
 8242 3360 2091 0000 		lds r18,xMax
 8243 3364 3091 0000 		lds r19,(xMax)+1
 8244 3368 8091 0000 		lds r24,x
 8245 336c 9091 0000 		lds r25,(x)+1
 8246 3370 8217      		cp r24,r18
 8247 3372 9307      		cpc r25,r19
 8248 3374 04F4      		brge .L405
 8249 3376 C901      		movw r24,r18
 8250               	.L405:
 8251 3378 9093 0000 		sts (xMax)+1,r25
 8252 337c 8093 0000 		sts xMax,r24
 8253               	.LM1175:
 8254 3380 2091 0000 		lds r18,yMax
 8255 3384 3091 0000 		lds r19,(yMax)+1
 8256 3388 8091 0000 		lds r24,y
 8257 338c 9091 0000 		lds r25,(y)+1
 8258 3390 8217      		cp r24,r18
 8259 3392 9307      		cpc r25,r19
 8260 3394 04F4      		brge .L406
 8261 3396 C901      		movw r24,r18
 8262               	.L406:
 8263 3398 9093 0000 		sts (yMax)+1,r25
 8264 339c 8093 0000 		sts yMax,r24
 8265               	.LM1176:
 8266 33a0 2091 0000 		lds r18,zMax
 8267 33a4 3091 0000 		lds r19,(zMax)+1
 8268 33a8 8091 0000 		lds r24,z
 8269 33ac 9091 0000 		lds r25,(z)+1
 8270 33b0 8217      		cp r24,r18
 8271 33b2 9307      		cpc r25,r19
 8272 33b4 04F4      		brge .L407
 8273 33b6 C901      		movw r24,r18
 8274               	.L407:
 8275 33b8 9093 0000 		sts (zMax)+1,r25
 8276 33bc 8093 0000 		sts zMax,r24
 8277               	.L401:
 8278               	.LM1177:
 8279 33c0 8091 0000 		lds r24,ax0
 8280 33c4 9091 0000 		lds r25,(ax0)+1
 8281 33c8 9093 0000 		sts (ax00)+1,r25
 8282 33cc 8093 0000 		sts ax00,r24
 8283               	.LM1178:
 8284 33d0 8091 0000 		lds r24,ay0
 8285 33d4 9091 0000 		lds r25,(ay0)+1
 8286 33d8 9093 0000 		sts (ay00)+1,r25
 8287 33dc 8093 0000 		sts ay00,r24
 8288               	.LM1179:
 8289 33e0 8091 0000 		lds r24,az0
 8290 33e4 9091 0000 		lds r25,(az0)+1
 8291 33e8 9093 0000 		sts (az00)+1,r25
 8292 33ec 8093 0000 		sts az00,r24
 8293               	.LM1180:
 8294 33f0 8091 0000 		lds r24,ax
 8295 33f4 9091 0000 		lds r25,(ax)+1
 8296 33f8 9093 0000 		sts (ax0)+1,r25
 8297 33fc 8093 0000 		sts ax0,r24
 8298               	.LM1181:
 8299 3400 8091 0000 		lds r24,ay
 8300 3404 9091 0000 		lds r25,(ay)+1
 8301 3408 9093 0000 		sts (ay0)+1,r25
 8302 340c 8093 0000 		sts ay0,r24
 8303               	.LM1182:
 8304 3410 8091 0000 		lds r24,az
 8305 3414 9091 0000 		lds r25,(az)+1
 8306 3418 9093 0000 		sts (az0)+1,r25
 8307 341c 8093 0000 		sts az0,r24
 8308               	.LM1183:
 8309 3420 6091 0000 		lds r22,x
 8310 3424 7091 0000 		lds r23,(x)+1
 8311 3428 8827      		clr r24
 8312 342a 77FD      		sbrc r23,7
 8313 342c 8095      		com r24
 8314 342e 982F      		mov r25,r24
 8315 3430 0E94 0000 		call __floatsisf
 8316 3434 20E0      		ldi r18,lo8(0x3b800000)
 8317 3436 30E0      		ldi r19,hi8(0x3b800000)
 8318 3438 40E8      		ldi r20,hlo8(0x3b800000)
 8319 343a 5BE3      		ldi r21,hhi8(0x3b800000)
 8320 343c 0E94 0000 		call __mulsf3
 8321 3440 7B01      		movw r14,r22
 8322 3442 8C01      		movw r16,r24
 8323 3444 6091 0000 		lds r22,y
 8324 3448 7091 0000 		lds r23,(y)+1
 8325 344c 8827      		clr r24
 8326 344e 77FD      		sbrc r23,7
 8327 3450 8095      		com r24
 8328 3452 982F      		mov r25,r24
 8329 3454 0E94 0000 		call __floatsisf
 8330 3458 20E0      		ldi r18,lo8(0x3b800000)
 8331 345a 30E0      		ldi r19,hi8(0x3b800000)
 8332 345c 40E8      		ldi r20,hlo8(0x3b800000)
 8333 345e 5BE3      		ldi r21,hhi8(0x3b800000)
 8334 3460 0E94 0000 		call __mulsf3
 8335 3464 5B01      		movw r10,r22
 8336 3466 6C01      		movw r12,r24
 8337 3468 6091 0000 		lds r22,z
 8338 346c 7091 0000 		lds r23,(z)+1
 8339 3470 8827      		clr r24
 8340 3472 77FD      		sbrc r23,7
 8341 3474 8095      		com r24
 8342 3476 982F      		mov r25,r24
 8343 3478 0E94 0000 		call __floatsisf
 8344 347c 20E0      		ldi r18,lo8(0x3b800000)
 8345 347e 30E0      		ldi r19,hi8(0x3b800000)
 8346 3480 40E8      		ldi r20,hlo8(0x3b800000)
 8347 3482 5BE3      		ldi r21,hhi8(0x3b800000)
 8348 3484 0E94 0000 		call __mulsf3
 8349 3488 1B01      		movw r2,r22
 8350 348a 2C01      		movw r4,r24
 8351               	.LM1184:
 8352 348c C601      		movw r24,r12
 8353 348e B501      		movw r22,r10
 8354 3490 A601      		movw r20,r12
 8355 3492 9501      		movw r18,r10
 8356 3494 0E94 0000 		call __mulsf3
 8357 3498 6983      		std Y+1,r22
 8358 349a 7A83      		std Y+2,r23
 8359 349c 8B83      		std Y+3,r24
 8360 349e 9C83      		std Y+4,r25
 8361 34a0 C201      		movw r24,r4
 8362 34a2 B101      		movw r22,r2
 8363 34a4 A201      		movw r20,r4
 8364 34a6 9101      		movw r18,r2
 8365 34a8 0E94 0000 		call __mulsf3
 8366 34ac 6D83      		std Y+5,r22
 8367 34ae 7E83      		std Y+6,r23
 8368 34b0 8F83      		std Y+7,r24
 8369 34b2 9887      		std Y+8,r25
 8370 34b4 6981      		ldd r22,Y+1
 8371 34b6 7A81      		ldd r23,Y+2
 8372 34b8 8B81      		ldd r24,Y+3
 8373 34ba 9C81      		ldd r25,Y+4
 8374 34bc 2D81      		ldd r18,Y+5
 8375 34be 3E81      		ldd r19,Y+6
 8376 34c0 4F81      		ldd r20,Y+7
 8377 34c2 5885      		ldd r21,Y+8
 8378 34c4 0E94 0000 		call __addsf3
 8379 34c8 0E94 0000 		call sqrt
 8380 34cc 9B01      		movw r18,r22
 8381 34ce AC01      		movw r20,r24
 8382 34d0 C801      		movw r24,r16
 8383 34d2 B701      		movw r22,r14
 8384 34d4 0E94 0000 		call __divsf3
 8385 34d8 0E94 0000 		call atan
 8386 34dc 21EE      		ldi r18,lo8(0x42652ee1)
 8387 34de 3EE2      		ldi r19,hi8(0x42652ee1)
 8388 34e0 45E6      		ldi r20,hlo8(0x42652ee1)
 8389 34e2 52E4      		ldi r21,hhi8(0x42652ee1)
 8390 34e4 0E94 0000 		call __mulsf3
 8391 34e8 0E94 0000 		call __fixsfsi
 8392 34ec 3B01      		movw r6,r22
 8393 34ee 4C01      		movw r8,r24
 8394 34f0 7093 0000 		sts (ax)+1,r23
 8395 34f4 6093 0000 		sts ax,r22
 8396               	.LM1185:
 8397 34f8 C801      		movw r24,r16
 8398 34fa B701      		movw r22,r14
 8399 34fc A801      		movw r20,r16
 8400 34fe 9701      		movw r18,r14
 8401 3500 0E94 0000 		call __mulsf3
 8402 3504 7B01      		movw r14,r22
 8403 3506 8C01      		movw r16,r24
 8404 3508 2D81      		ldd r18,Y+5
 8405 350a 3E81      		ldd r19,Y+6
 8406 350c 4F81      		ldd r20,Y+7
 8407 350e 5885      		ldd r21,Y+8
 8408 3510 0E94 0000 		call __addsf3
 8409 3514 0E94 0000 		call sqrt
 8410 3518 9B01      		movw r18,r22
 8411 351a AC01      		movw r20,r24
 8412 351c C601      		movw r24,r12
 8413 351e B501      		movw r22,r10
 8414 3520 0E94 0000 		call __divsf3
 8415 3524 0E94 0000 		call atan
 8416 3528 21EE      		ldi r18,lo8(0x42652ee1)
 8417 352a 3EE2      		ldi r19,hi8(0x42652ee1)
 8418 352c 45E6      		ldi r20,hlo8(0x42652ee1)
 8419 352e 52E4      		ldi r21,hhi8(0x42652ee1)
 8420 3530 0E94 0000 		call __mulsf3
 8421 3534 0E94 0000 		call __fixsfsi
 8422 3538 7093 0000 		sts (ay)+1,r23
 8423 353c 6093 0000 		sts ay,r22
 8424               	.LM1186:
 8425 3540 C801      		movw r24,r16
 8426 3542 B701      		movw r22,r14
 8427 3544 2981      		ldd r18,Y+1
 8428 3546 3A81      		ldd r19,Y+2
 8429 3548 4B81      		ldd r20,Y+3
 8430 354a 5C81      		ldd r21,Y+4
 8431 354c 0E94 0000 		call __addsf3
 8432 3550 0E94 0000 		call sqrt
 8433 3554 9B01      		movw r18,r22
 8434 3556 AC01      		movw r20,r24
 8435 3558 C201      		movw r24,r4
 8436 355a B101      		movw r22,r2
 8437 355c 0E94 0000 		call __divsf3
 8438 3560 0E94 0000 		call atan
 8439 3564 21EE      		ldi r18,lo8(0x42652ee1)
 8440 3566 3EE2      		ldi r19,hi8(0x42652ee1)
 8441 3568 45E6      		ldi r20,hlo8(0x42652ee1)
 8442 356a 52E4      		ldi r21,hhi8(0x42652ee1)
 8443 356c 0E94 0000 		call __mulsf3
 8444 3570 0E94 0000 		call __fixsfsi
 8445 3574 AB01      		movw r20,r22
 8446 3576 7093 0000 		sts (az)+1,r23
 8447 357a 6093 0000 		sts az,r22
 8448               	.LM1187:
 8449 357e 2091 0000 		lds r18,ay
 8450 3582 3091 0000 		lds r19,ay+1
 8451               	.LM1188:
 8452 3586 C301      		movw r24,r6
 8453 3588 77FE      		sbrs r7,7
 8454 358a 00C0      		rjmp .L409
 8455 358c 9095      		com r25
 8456 358e 8195      		neg r24
 8457 3590 9F4F      		sbci r25,lo8(-1)
 8458               	.L409:
 8459 3592 8B35      		cpi r24,91
 8460 3594 9105      		cpc r25,__zero_reg__
 8461 3596 04F4      		brge .L408
 8462 3598 37FF      		sbrs r19,7
 8463 359a 00C0      		rjmp .L411
 8464 359c 3095      		com r19
 8465 359e 2195      		neg r18
 8466 35a0 3F4F      		sbci r19,lo8(-1)
 8467               	.L411:
 8468 35a2 2B35      		cpi r18,91
 8469 35a4 3105      		cpc r19,__zero_reg__
 8470 35a6 04F0      		brlt .L410
 8471               	.L408:
 8472 35a8 4C54      		subi r20,lo8(-(180))
 8473 35aa 5F4F      		sbci r21,hi8(-(180))
 8474 35ac 5093 0000 		sts (az)+1,r21
 8475 35b0 4093 0000 		sts az,r20
 8476               	.L410:
 8477               	.LM1189:
 8478 35b4 8091 0000 		lds r24,accelTick
 8479 35b8 9091 0000 		lds r25,(accelTick)+1
 8480 35bc 0196      		adiw r24,1
 8481 35be 9093 0000 		sts (accelTick)+1,r25
 8482 35c2 8093 0000 		sts accelTick,r24
 8483               	.LM1190:
 8484 35c6 8091 0000 		lds r24,gx0
 8485 35ca 9091 0000 		lds r25,(gx0)+1
 8486 35ce 9093 0000 		sts (gx00)+1,r25
 8487 35d2 8093 0000 		sts gx00,r24
 8488               	.LM1191:
 8489 35d6 8091 0000 		lds r24,gy0
 8490 35da 9091 0000 		lds r25,(gy0)+1
 8491 35de 9093 0000 		sts (gy00)+1,r25
 8492 35e2 8093 0000 		sts gy00,r24
 8493               	.LM1192:
 8494 35e6 8091 0000 		lds r24,gz0
 8495 35ea 9091 0000 		lds r25,(gz0)+1
 8496 35ee 9093 0000 		sts (gz00)+1,r25
 8497 35f2 8093 0000 		sts gz00,r24
 8498               	.LM1193:
 8499 35f6 8091 0000 		lds r24,gx
 8500 35fa 9091 0000 		lds r25,(gx)+1
 8501 35fe 9093 0000 		sts (gx0)+1,r25
 8502 3602 8093 0000 		sts gx0,r24
 8503               	.LM1194:
 8504 3606 8091 0000 		lds r24,gy
 8505 360a 9091 0000 		lds r25,(gy)+1
 8506 360e 9093 0000 		sts (gy0)+1,r25
 8507 3612 8093 0000 		sts gy0,r24
 8508               	.LM1195:
 8509 3616 8091 0000 		lds r24,gz
 8510 361a 9091 0000 		lds r25,(gz)+1
 8511 361e 9093 0000 		sts (gz0)+1,r25
 8512 3622 8093 0000 		sts gz0,r24
 8513               	.LM1196:
 8514 3626 8091 0000 		lds r24,opt_gyro_rot90
 8515 362a 8823      		tst r24
 8516 362c 01F4      		brne .L412
 8517               	.LM1197:
 8518 362e 80E0      		ldi r24,lo8(gyro)
 8519 3630 90E0      		ldi r25,hi8(gyro)
 8520 3632 60E0      		ldi r22,lo8(gxRaw)
 8521 3634 70E0      		ldi r23,hi8(gxRaw)
 8522 3636 40E0      		ldi r20,lo8(gyRaw)
 8523 3638 50E0      		ldi r21,hi8(gyRaw)
 8524 363a 20E0      		ldi r18,lo8(gzRaw)
 8525 363c 30E0      		ldi r19,hi8(gzRaw)
 8526 363e 0E94 0000 		call _ZN7ITG320011readGyroRawEPiS0_S0_
 8527 3642 00C0      		rjmp .L413
 8528               	.L412:
 8529               	.LM1198:
 8530 3644 8130      		cpi r24,lo8(1)
 8531 3646 01F4      		brne .L414
 8532               	.LM1199:
 8533 3648 80E0      		ldi r24,lo8(gyro)
 8534 364a 90E0      		ldi r25,hi8(gyro)
 8535 364c 60E0      		ldi r22,lo8(gxRaw)
 8536 364e 70E0      		ldi r23,hi8(gxRaw)
 8537 3650 40E0      		ldi r20,lo8(gzRaw)
 8538 3652 50E0      		ldi r21,hi8(gzRaw)
 8539 3654 20E0      		ldi r18,lo8(gyRaw)
 8540 3656 30E0      		ldi r19,hi8(gyRaw)
 8541 3658 00C0      		rjmp .L505
 8542               	.L414:
 8543               	.LM1200:
 8544 365a 8230      		cpi r24,lo8(2)
 8545 365c 01F4      		brne .+2
 8546 365e 00C0      		rjmp .L518
 8547               	.L415:
 8548               	.LM1201:
 8549 3660 8430      		cpi r24,lo8(4)
 8550 3662 01F4      		brne .L416
 8551               	.LM1202:
 8552 3664 80E0      		ldi r24,lo8(gyro)
 8553 3666 90E0      		ldi r25,hi8(gyro)
 8554 3668 60E0      		ldi r22,lo8(gyRaw)
 8555 366a 70E0      		ldi r23,hi8(gyRaw)
 8556 366c 40E0      		ldi r20,lo8(gxRaw)
 8557 366e 50E0      		ldi r21,hi8(gxRaw)
 8558 3670 20E0      		ldi r18,lo8(gzRaw)
 8559 3672 30E0      		ldi r19,hi8(gzRaw)
 8560 3674 0E94 0000 		call _ZN7ITG320011readGyroRawEPiS0_S0_
 8561               	.LM1203:
 8562 3678 8091 0000 		lds r24,gyRaw
 8563 367c 9091 0000 		lds r25,(gyRaw)+1
 8564 3680 9095      		com r25
 8565 3682 8195      		neg r24
 8566 3684 9F4F      		sbci r25,lo8(-1)
 8567 3686 9093 0000 		sts (gyRaw)+1,r25
 8568 368a 8093 0000 		sts gyRaw,r24
 8569 368e 00C0      		rjmp .L413
 8570               	.L416:
 8571               	.LM1204:
 8572 3690 8330      		cpi r24,lo8(3)
 8573 3692 01F4      		brne .L417
 8574               	.LM1205:
 8575 3694 80E0      		ldi r24,lo8(gyro)
 8576 3696 90E0      		ldi r25,hi8(gyro)
 8577 3698 60E0      		ldi r22,lo8(gzRaw)
 8578 369a 70E0      		ldi r23,hi8(gzRaw)
 8579 369c 40E0      		ldi r20,lo8(gxRaw)
 8580 369e 50E0      		ldi r21,hi8(gxRaw)
 8581 36a0 20E0      		ldi r18,lo8(gyRaw)
 8582 36a2 30E0      		ldi r19,hi8(gyRaw)
 8583 36a4 0E94 0000 		call _ZN7ITG320011readGyroRawEPiS0_S0_
 8584               	.LM1206:
 8585 36a8 8091 0000 		lds r24,gxRaw
 8586 36ac 9091 0000 		lds r25,(gxRaw)+1
 8587 36b0 9095      		com r25
 8588 36b2 8195      		neg r24
 8589 36b4 9F4F      		sbci r25,lo8(-1)
 8590 36b6 9093 0000 		sts (gxRaw)+1,r25
 8591 36ba 8093 0000 		sts gxRaw,r24
 8592 36be 00C0      		rjmp .L506
 8593               	.L417:
 8594               	.LM1207:
 8595 36c0 8530      		cpi r24,lo8(5)
 8596 36c2 01F4      		brne .L418
 8597               	.LM1208:
 8598 36c4 80E0      		ldi r24,lo8(gyro)
 8599 36c6 90E0      		ldi r25,hi8(gyro)
 8600 36c8 60E0      		ldi r22,lo8(gyRaw)
 8601 36ca 70E0      		ldi r23,hi8(gyRaw)
 8602 36cc 40E0      		ldi r20,lo8(gzRaw)
 8603 36ce 50E0      		ldi r21,hi8(gzRaw)
 8604 36d0 20E0      		ldi r18,lo8(gxRaw)
 8605 36d2 30E0      		ldi r19,hi8(gxRaw)
 8606 36d4 00C0      		rjmp .L513
 8607               	.L418:
 8608               	.LM1209:
 8609 36d6 8630      		cpi r24,lo8(6)
 8610 36d8 01F4      		brne .L419
 8611               	.LM1210:
 8612 36da 80E0      		ldi r24,lo8(gyro)
 8613 36dc 90E0      		ldi r25,hi8(gyro)
 8614 36de 60E0      		ldi r22,lo8(gzRaw)
 8615 36e0 70E0      		ldi r23,hi8(gzRaw)
 8616 36e2 40E0      		ldi r20,lo8(gxRaw)
 8617 36e4 50E0      		ldi r21,hi8(gxRaw)
 8618 36e6 20E0      		ldi r18,lo8(gyRaw)
 8619 36e8 30E0      		ldi r19,hi8(gyRaw)
 8620               	.L513:
 8621 36ea 0E94 0000 		call _ZN7ITG320011readGyroRawEPiS0_S0_
 8622               	.LM1211:
 8623 36ee 8091 0000 		lds r24,gyRaw
 8624 36f2 9091 0000 		lds r25,(gyRaw)+1
 8625 36f6 9095      		com r25
 8626 36f8 8195      		neg r24
 8627 36fa 9F4F      		sbci r25,lo8(-1)
 8628 36fc 9093 0000 		sts (gyRaw)+1,r25
 8629 3700 8093 0000 		sts gyRaw,r24
 8630 3704 00C0      		rjmp .L506
 8631               	.L419:
 8632               	.LM1212:
 8633 3706 8730      		cpi r24,lo8(7)
 8634 3708 01F4      		brne .L413
 8635               	.L518:
 8636               	.LM1213:
 8637 370a 80E0      		ldi r24,lo8(gyro)
 8638 370c 90E0      		ldi r25,hi8(gyro)
 8639 370e 60E0      		ldi r22,lo8(gzRaw)
 8640 3710 70E0      		ldi r23,hi8(gzRaw)
 8641 3712 40E0      		ldi r20,lo8(gyRaw)
 8642 3714 50E0      		ldi r21,hi8(gyRaw)
 8643 3716 20E0      		ldi r18,lo8(gxRaw)
 8644 3718 30E0      		ldi r19,hi8(gxRaw)
 8645               	.L505:
 8646 371a 0E94 0000 		call _ZN7ITG320011readGyroRawEPiS0_S0_
 8647               	.L506:
 8648               	.LM1214:
 8649 371e 8091 0000 		lds r24,gzRaw
 8650 3722 9091 0000 		lds r25,(gzRaw)+1
 8651 3726 9095      		com r25
 8652 3728 8195      		neg r24
 8653 372a 9F4F      		sbci r25,lo8(-1)
 8654 372c 9093 0000 		sts (gzRaw)+1,r25
 8655 3730 8093 0000 		sts gzRaw,r24
 8656               	.L413:
 8657               	.LM1215:
 8658 3734 8091 0000 		lds r24,gyroMicros
 8659 3738 9091 0000 		lds r25,(gyroMicros)+1
 8660 373c A091 0000 		lds r26,(gyroMicros)+2
 8661 3740 B091 0000 		lds r27,(gyroMicros)+3
 8662 3744 0097      		sbiw r24,0
 8663 3746 A105      		cpc r26,__zero_reg__
 8664 3748 B105      		cpc r27,__zero_reg__
 8665 374a 01F4      		brne .L420
 8666 374c 21E0      		ldi r18,lo8(1)
 8667 374e 30E0      		ldi r19,hi8(1)
 8668 3750 40E0      		ldi r20,hlo8(1)
 8669 3752 50E0      		ldi r21,hhi8(1)
 8670 3754 00C0      		rjmp .L421
 8671               	.L420:
 8672 3756 0E94 0000 		call micros
 8673 375a 9B01      		movw r18,r22
 8674 375c AC01      		movw r20,r24
 8675 375e 8091 0000 		lds r24,gyroMicros
 8676 3762 9091 0000 		lds r25,(gyroMicros)+1
 8677 3766 A091 0000 		lds r26,(gyroMicros)+2
 8678 376a B091 0000 		lds r27,(gyroMicros)+3
 8679 376e 281B      		sub r18,r24
 8680 3770 390B      		sbc r19,r25
 8681 3772 4A0B      		sbc r20,r26
 8682 3774 5B0B      		sbc r21,r27
 8683               	.L421:
 8684 3776 2093 0000 		sts gyroDiff,r18
 8685 377a 3093 0000 		sts (gyroDiff)+1,r19
 8686 377e 4093 0000 		sts (gyroDiff)+2,r20
 8687 3782 5093 0000 		sts (gyroDiff)+3,r21
 8688               	.LM1216:
 8689 3786 0E94 0000 		call micros
 8690 378a 6093 0000 		sts gyroMicros,r22
 8691 378e 7093 0000 		sts (gyroMicros)+1,r23
 8692 3792 8093 0000 		sts (gyroMicros)+2,r24
 8693 3796 9093 0000 		sts (gyroMicros)+3,r25
 8694               	.LM1217:
 8695 379a 6091 0000 		lds r22,gxRaw
 8696 379e 7091 0000 		lds r23,(gxRaw)+1
 8697 37a2 2091 0000 		lds r18,opt_gyro_offset
 8698 37a6 3091 0000 		lds r19,(opt_gyro_offset)+1
 8699 37aa 620F      		add r22,r18
 8700 37ac 731F      		adc r23,r19
 8701               	.LM1218:
 8702 37ae E090 0000 		lds r14,gyRaw
 8703 37b2 F090 0000 		lds r15,(gyRaw)+1
 8704 37b6 2091 0000 		lds r18,opt_gyro_offset+2
 8705 37ba 3091 0000 		lds r19,(opt_gyro_offset+2)+1
 8706 37be E20E      		add r14,r18
 8707 37c0 F31E      		adc r15,r19
 8708               	.LM1219:
 8709 37c2 A090 0000 		lds r10,gzRaw
 8710 37c6 B090 0000 		lds r11,(gzRaw)+1
 8711 37ca 2091 0000 		lds r18,opt_gyro_offset+4
 8712 37ce 3091 0000 		lds r19,(opt_gyro_offset+4)+1
 8713 37d2 A20E      		add r10,r18
 8714 37d4 B31E      		adc r11,r19
 8715               	.LM1220:
 8716 37d6 8827      		clr r24
 8717 37d8 77FD      		sbrc r23,7
 8718 37da 8095      		com r24
 8719 37dc 982F      		mov r25,r24
 8720 37de 0E94 0000 		call __floatsisf
 8721 37e2 2091 0000 		lds r18,opt_gyro_calibrate
 8722 37e6 3091 0000 		lds r19,(opt_gyro_calibrate)+1
 8723 37ea 4091 0000 		lds r20,(opt_gyro_calibrate)+2
 8724 37ee 5091 0000 		lds r21,(opt_gyro_calibrate)+3
 8725 37f2 0E94 0000 		call __mulsf3
 8726 37f6 20E0      		ldi r18,lo8(0x41700000)
 8727 37f8 30E0      		ldi r19,hi8(0x41700000)
 8728 37fa 40E7      		ldi r20,hlo8(0x41700000)
 8729 37fc 51E4      		ldi r21,hhi8(0x41700000)
 8730 37fe 0E94 0000 		call __divsf3
 8731 3802 0E94 0000 		call __fixsfsi
 8732 3806 3B01      		movw r6,r22
 8733 3808 4C01      		movw r8,r24
 8734 380a 7093 0000 		sts (gxRaw)+1,r23
 8735 380e 6093 0000 		sts gxRaw,r22
 8736               	.LM1221:
 8737 3812 0027      		clr r16
 8738 3814 F7FC      		sbrc r15,7
 8739 3816 0095      		com r16
 8740 3818 102F      		mov r17,r16
 8741 381a C801      		movw r24,r16
 8742 381c B701      		movw r22,r14
 8743 381e 0E94 0000 		call __floatsisf
 8744 3822 2091 0000 		lds r18,opt_gyro_calibrate+4
 8745 3826 3091 0000 		lds r19,(opt_gyro_calibrate+4)+1
 8746 382a 4091 0000 		lds r20,(opt_gyro_calibrate+4)+2
 8747 382e 5091 0000 		lds r21,(opt_gyro_calibrate+4)+3
 8748 3832 0E94 0000 		call __mulsf3
 8749 3836 20E0      		ldi r18,lo8(0x41700000)
 8750 3838 30E0      		ldi r19,hi8(0x41700000)
 8751 383a 40E7      		ldi r20,hlo8(0x41700000)
 8752 383c 51E4      		ldi r21,hhi8(0x41700000)
 8753 383e 0E94 0000 		call __divsf3
 8754 3842 0E94 0000 		call __fixsfsi
 8755 3846 1B01      		movw r2,r22
 8756 3848 2C01      		movw r4,r24
 8757 384a 7093 0000 		sts (gyRaw)+1,r23
 8758 384e 6093 0000 		sts gyRaw,r22
 8759               	.LM1222:
 8760 3852 CC24      		clr r12
 8761 3854 B7FC      		sbrc r11,7
 8762 3856 C094      		com r12
 8763 3858 DC2C      		mov r13,r12
 8764 385a C601      		movw r24,r12
 8765 385c B501      		movw r22,r10
 8766 385e 0E94 0000 		call __floatsisf
 8767 3862 2091 0000 		lds r18,opt_gyro_calibrate+8
 8768 3866 3091 0000 		lds r19,(opt_gyro_calibrate+8)+1
 8769 386a 4091 0000 		lds r20,(opt_gyro_calibrate+8)+2
 8770 386e 5091 0000 		lds r21,(opt_gyro_calibrate+8)+3
 8771 3872 0E94 0000 		call __mulsf3
 8772 3876 20E0      		ldi r18,lo8(0x41700000)
 8773 3878 30E0      		ldi r19,hi8(0x41700000)
 8774 387a 40E7      		ldi r20,hlo8(0x41700000)
 8775 387c 51E4      		ldi r21,hhi8(0x41700000)
 8776 387e 0E94 0000 		call __divsf3
 8777 3882 0E94 0000 		call __fixsfsi
 8778 3886 4B01      		movw r8,r22
 8779 3888 5C01      		movw r10,r24
 8780 388a 7093 0000 		sts (gzRaw)+1,r23
 8781 388e 6093 0000 		sts gzRaw,r22
 8782               	.LM1223:
 8783 3892 0091 0000 		lds r16,gx0
 8784 3896 1091 0000 		lds r17,(gx0)+1
 8785 389a B801      		movw r22,r16
 8786 389c 8827      		clr r24
 8787 389e 77FD      		sbrc r23,7
 8788 38a0 8095      		com r24
 8789 38a2 982F      		mov r25,r24
 8790 38a4 0E94 0000 		call __floatsisf
 8791 38a8 6B01      		movw r12,r22
 8792 38aa 7C01      		movw r14,r24
 8793 38ac 601A      		sub r6,r16
 8794 38ae 710A      		sbc r7,r17
 8795 38b0 B301      		movw r22,r6
 8796 38b2 8827      		clr r24
 8797 38b4 77FD      		sbrc r23,7
 8798 38b6 8095      		com r24
 8799 38b8 982F      		mov r25,r24
 8800 38ba 0E94 0000 		call __floatsisf
 8801 38be 2091 0000 		lds r18,opt_gyro_kalman_constant
 8802 38c2 3091 0000 		lds r19,(opt_gyro_kalman_constant)+1
 8803 38c6 4091 0000 		lds r20,(opt_gyro_kalman_constant)+2
 8804 38ca 5091 0000 		lds r21,(opt_gyro_kalman_constant)+3
 8805 38ce 0E94 0000 		call __mulsf3
 8806 38d2 9B01      		movw r18,r22
 8807 38d4 AC01      		movw r20,r24
 8808 38d6 C701      		movw r24,r14
 8809 38d8 B601      		movw r22,r12
 8810 38da 0E94 0000 		call __addsf3
 8811 38de 0E94 0000 		call __fixsfsi
 8812 38e2 7093 0000 		sts (gx)+1,r23
 8813 38e6 6093 0000 		sts gx,r22
 8814               	.LM1224:
 8815 38ea 0091 0000 		lds r16,gy0
 8816 38ee 1091 0000 		lds r17,(gy0)+1
 8817 38f2 B801      		movw r22,r16
 8818 38f4 8827      		clr r24
 8819 38f6 77FD      		sbrc r23,7
 8820 38f8 8095      		com r24
 8821 38fa 982F      		mov r25,r24
 8822 38fc 0E94 0000 		call __floatsisf
 8823 3900 6B01      		movw r12,r22
 8824 3902 7C01      		movw r14,r24
 8825 3904 201A      		sub r2,r16
 8826 3906 310A      		sbc r3,r17
 8827 3908 B101      		movw r22,r2
 8828 390a 8827      		clr r24
 8829 390c 77FD      		sbrc r23,7
 8830 390e 8095      		com r24
 8831 3910 982F      		mov r25,r24
 8832 3912 0E94 0000 		call __floatsisf
 8833 3916 2091 0000 		lds r18,opt_gyro_kalman_constant
 8834 391a 3091 0000 		lds r19,(opt_gyro_kalman_constant)+1
 8835 391e 4091 0000 		lds r20,(opt_gyro_kalman_constant)+2
 8836 3922 5091 0000 		lds r21,(opt_gyro_kalman_constant)+3
 8837 3926 0E94 0000 		call __mulsf3
 8838 392a 9B01      		movw r18,r22
 8839 392c AC01      		movw r20,r24
 8840 392e C701      		movw r24,r14
 8841 3930 B601      		movw r22,r12
 8842 3932 0E94 0000 		call __addsf3
 8843 3936 0E94 0000 		call __fixsfsi
 8844 393a 7093 0000 		sts (gy)+1,r23
 8845 393e 6093 0000 		sts gy,r22
 8846               	.LM1225:
 8847 3942 0091 0000 		lds r16,gz0
 8848 3946 1091 0000 		lds r17,(gz0)+1
 8849 394a B801      		movw r22,r16
 8850 394c 8827      		clr r24
 8851 394e 77FD      		sbrc r23,7
 8852 3950 8095      		com r24
 8853 3952 982F      		mov r25,r24
 8854 3954 0E94 0000 		call __floatsisf
 8855 3958 6B01      		movw r12,r22
 8856 395a 7C01      		movw r14,r24
 8857 395c 9401      		movw r18,r8
 8858 395e 201B      		sub r18,r16
 8859 3960 310B      		sbc r19,r17
 8860 3962 B901      		movw r22,r18
 8861 3964 8827      		clr r24
 8862 3966 77FD      		sbrc r23,7
 8863 3968 8095      		com r24
 8864 396a 982F      		mov r25,r24
 8865 396c 0E94 0000 		call __floatsisf
 8866 3970 2091 0000 		lds r18,opt_gyro_kalman_constant
 8867 3974 3091 0000 		lds r19,(opt_gyro_kalman_constant)+1
 8868 3978 4091 0000 		lds r20,(opt_gyro_kalman_constant)+2
 8869 397c 5091 0000 		lds r21,(opt_gyro_kalman_constant)+3
 8870 3980 0E94 0000 		call __mulsf3
 8871 3984 9B01      		movw r18,r22
 8872 3986 AC01      		movw r20,r24
 8873 3988 C701      		movw r24,r14
 8874 398a B601      		movw r22,r12
 8875 398c 0E94 0000 		call __addsf3
 8876 3990 0E94 0000 		call __fixsfsi
 8877 3994 7093 0000 		sts (gz)+1,r23
 8878 3998 6093 0000 		sts gz,r22
 8879               	.LM1226:
 8880 399c 8091 0000 		lds r24,opt_gyro_smooth_average
 8881 39a0 8823      		tst r24
 8882 39a2 01F4      		brne .+2
 8883 39a4 00C0      		rjmp .L422
 8884               	.LM1227:
 8885 39a6 81E0      		ldi r24,lo8(1)
 8886 39a8 90E0      		ldi r25,hi8(1)
 8887 39aa A0E0      		ldi r26,hlo8(1)
 8888 39ac B0E0      		ldi r27,hhi8(1)
 8889 39ae 8093 0000 		sts i,r24
 8890 39b2 9093 0000 		sts (i)+1,r25
 8891 39b6 A093 0000 		sts (i)+2,r26
 8892 39ba B093 0000 		sts (i)+3,r27
 8893 39be 00C0      		rjmp .L423
 8894               	.L424:
 8895               	.LM1228:
 8896 39c0 B401      		movw r22,r8
 8897 39c2 8827      		clr r24
 8898 39c4 77FD      		sbrc r23,7
 8899 39c6 8095      		com r24
 8900 39c8 982F      		mov r25,r24
 8901 39ca 6E0D      		add r22,r14
 8902 39cc 7F1D      		adc r23,r15
 8903 39ce 801F      		adc r24,r16
 8904 39d0 911F      		adc r25,r17
 8905 39d2 0E94 0000 		call __divmodsi4
 8906 39d6 DC01      		movw r26,r24
 8907 39d8 CB01      		movw r24,r22
 8908 39da 880F      		lsl r24
 8909 39dc 991F      		rol r25
 8910 39de FC01      		movw r30,r24
 8911 39e0 E050      		subi r30,lo8(-(gxHist))
 8912 39e2 F040      		sbci r31,hi8(-(gxHist))
 8913 39e4 2081      		ld r18,Z
 8914 39e6 3181      		ldd r19,Z+1
 8915 39e8 420E      		add r4,r18
 8916 39ea 531E      		adc r5,r19
 8917 39ec 5092 0000 		sts (gx)+1,r5
 8918 39f0 4092 0000 		sts gx,r4
 8919               	.LM1229:
 8920 39f4 FC01      		movw r30,r24
 8921 39f6 E050      		subi r30,lo8(-(gyHist))
 8922 39f8 F040      		sbci r31,hi8(-(gyHist))
 8923 39fa 2081      		ld r18,Z
 8924 39fc 3181      		ldd r19,Z+1
 8925 39fe C20E      		add r12,r18
 8926 3a00 D31E      		adc r13,r19
 8927 3a02 D092 0000 		sts (gy)+1,r13
 8928 3a06 C092 0000 		sts gy,r12
 8929               	.LM1230:
 8930 3a0a 8050      		subi r24,lo8(-(gzHist))
 8931 3a0c 9040      		sbci r25,hi8(-(gzHist))
 8932 3a0e FC01      		movw r30,r24
 8933 3a10 8081      		ld r24,Z
 8934 3a12 9181      		ldd r25,Z+1
 8935 3a14 680E      		add r6,r24
 8936 3a16 791E      		adc r7,r25
 8937 3a18 7092 0000 		sts (gz)+1,r7
 8938 3a1c 6092 0000 		sts gz,r6
 8939               	.LM1231:
 8940 3a20 0894      		sec
 8941 3a22 E11C      		adc r14,__zero_reg__
 8942 3a24 F11C      		adc r15,__zero_reg__
 8943 3a26 011D      		adc r16,__zero_reg__
 8944 3a28 111D      		adc r17,__zero_reg__
 8945 3a2a E092 0000 		sts i,r14
 8946 3a2e F092 0000 		sts (i)+1,r15
 8947 3a32 0093 0000 		sts (i)+2,r16
 8948 3a36 1093 0000 		sts (i)+3,r17
 8949               	.L423:
 8950 3a3a E090 0000 		lds r14,i
 8951 3a3e F090 0000 		lds r15,(i)+1
 8952 3a42 0091 0000 		lds r16,(i)+2
 8953 3a46 1091 0000 		lds r17,(i)+3
 8954 3a4a B090 0000 		lds r11,opt_gyro_smooth_average
 8955 3a4e 2B2D      		mov r18,r11
 8956 3a50 30E0      		ldi r19,lo8(0)
 8957 3a52 40E0      		ldi r20,lo8(0)
 8958 3a54 50E0      		ldi r21,hi8(0)
 8959 3a56 4090 0000 		lds r4,gx
 8960 3a5a 5090 0000 		lds r5,(gx)+1
 8961 3a5e C090 0000 		lds r12,gy
 8962 3a62 D090 0000 		lds r13,(gy)+1
 8963 3a66 6090 0000 		lds r6,gz
 8964 3a6a 7090 0000 		lds r7,(gz)+1
 8965 3a6e 8090 0000 		lds r8,gyroTick
 8966 3a72 9090 0000 		lds r9,(gyroTick)+1
 8967 3a76 E216      		cp r14,r18
 8968 3a78 F306      		cpc r15,r19
 8969 3a7a 0407      		cpc r16,r20
 8970 3a7c 1507      		cpc r17,r21
 8971 3a7e 04F4      		brge .+2
 8972 3a80 00C0      		rjmp .L424
 8973               	.LM1232:
 8974 3a82 C201      		movw r24,r4
 8975 3a84 6B2D      		mov r22,r11
 8976 3a86 70E0      		ldi r23,lo8(0)
 8977 3a88 0E94 0000 		call __divmodhi4
 8978 3a8c 9B01      		movw r18,r22
 8979 3a8e 7093 0000 		sts (gx)+1,r23
 8980 3a92 6093 0000 		sts gx,r22
 8981               	.LM1233:
 8982 3a96 C601      		movw r24,r12
 8983 3a98 6B2D      		mov r22,r11
 8984 3a9a 70E0      		ldi r23,lo8(0)
 8985 3a9c 0E94 0000 		call __divmodhi4
 8986 3aa0 8B01      		movw r16,r22
 8987 3aa2 7093 0000 		sts (gy)+1,r23
 8988 3aa6 6093 0000 		sts gy,r22
 8989               	.LM1234:
 8990 3aaa C301      		movw r24,r6
 8991 3aac 6B2D      		mov r22,r11
 8992 3aae 70E0      		ldi r23,lo8(0)
 8993 3ab0 0E94 0000 		call __divmodhi4
 8994 3ab4 7B01      		movw r14,r22
 8995 3ab6 7093 0000 		sts (gz)+1,r23
 8996 3aba 6093 0000 		sts gz,r22
 8997               	.LM1235:
 8998 3abe C401      		movw r24,r8
 8999 3ac0 6B2D      		mov r22,r11
 9000 3ac2 70E0      		ldi r23,lo8(0)
 9001 3ac4 0E94 0000 		call __divmodhi4
 9002 3ac8 FC01      		movw r30,r24
 9003 3aca EE0F      		lsl r30
 9004 3acc FF1F      		rol r31
 9005 3ace E050      		subi r30,lo8(-(gxHist))
 9006 3ad0 F040      		sbci r31,hi8(-(gxHist))
 9007 3ad2 3183      		std Z+1,r19
 9008 3ad4 2083      		st Z,r18
 9009               	.LM1236:
 9010 3ad6 C401      		movw r24,r8
 9011 3ad8 6B2D      		mov r22,r11
 9012 3ada 70E0      		ldi r23,lo8(0)
 9013 3adc 0E94 0000 		call __divmodhi4
 9014 3ae0 FC01      		movw r30,r24
 9015 3ae2 EE0F      		lsl r30
 9016 3ae4 FF1F      		rol r31
 9017 3ae6 E050      		subi r30,lo8(-(gyHist))
 9018 3ae8 F040      		sbci r31,hi8(-(gyHist))
 9019 3aea 1183      		std Z+1,r17
 9020 3aec 0083      		st Z,r16
 9021               	.LM1237:
 9022 3aee C401      		movw r24,r8
 9023 3af0 6B2D      		mov r22,r11
 9024 3af2 70E0      		ldi r23,lo8(0)
 9025 3af4 0E94 0000 		call __divmodhi4
 9026 3af8 FC01      		movw r30,r24
 9027 3afa EE0F      		lsl r30
 9028 3afc FF1F      		rol r31
 9029 3afe E050      		subi r30,lo8(-(gzHist))
 9030 3b00 F040      		sbci r31,hi8(-(gzHist))
 9031 3b02 F182      		std Z+1,r15
 9032 3b04 E082      		st Z,r14
 9033               	.L422:
 9034               	.LM1238:
 9035 3b06 8091 0000 		lds r24,opt_enable_calibration
 9036 3b0a 9091 0000 		lds r25,(opt_enable_calibration)+1
 9037 3b0e 892B      		or r24,r25
 9038 3b10 01F4      		brne .+2
 9039 3b12 00C0      		rjmp .L425
 9040               	.LM1239:
 9041 3b14 2091 0000 		lds r18,gxMin
 9042 3b18 3091 0000 		lds r19,(gxMin)+1
 9043 3b1c 8091 0000 		lds r24,gx
 9044 3b20 9091 0000 		lds r25,(gx)+1
 9045 3b24 2817      		cp r18,r24
 9046 3b26 3907      		cpc r19,r25
 9047 3b28 04F4      		brge .L426
 9048 3b2a C901      		movw r24,r18
 9049               	.L426:
 9050 3b2c 9093 0000 		sts (gxMin)+1,r25
 9051 3b30 8093 0000 		sts gxMin,r24
 9052               	.LM1240:
 9053 3b34 2091 0000 		lds r18,gyMin
 9054 3b38 3091 0000 		lds r19,(gyMin)+1
 9055 3b3c 8091 0000 		lds r24,gy
 9056 3b40 9091 0000 		lds r25,(gy)+1
 9057 3b44 2817      		cp r18,r24
 9058 3b46 3907      		cpc r19,r25
 9059 3b48 04F4      		brge .L427
 9060 3b4a C901      		movw r24,r18
 9061               	.L427:
 9062 3b4c 9093 0000 		sts (gyMin)+1,r25
 9063 3b50 8093 0000 		sts gyMin,r24
 9064               	.LM1241:
 9065 3b54 2091 0000 		lds r18,gzMin
 9066 3b58 3091 0000 		lds r19,(gzMin)+1
 9067 3b5c 8091 0000 		lds r24,gz
 9068 3b60 9091 0000 		lds r25,(gz)+1
 9069 3b64 2817      		cp r18,r24
 9070 3b66 3907      		cpc r19,r25
 9071 3b68 04F4      		brge .L428
 9072 3b6a C901      		movw r24,r18
 9073               	.L428:
 9074 3b6c 9093 0000 		sts (gzMin)+1,r25
 9075 3b70 8093 0000 		sts gzMin,r24
 9076               	.LM1242:
 9077 3b74 2091 0000 		lds r18,gxMax
 9078 3b78 3091 0000 		lds r19,(gxMax)+1
 9079 3b7c 8091 0000 		lds r24,gx
 9080 3b80 9091 0000 		lds r25,(gx)+1
 9081 3b84 8217      		cp r24,r18
 9082 3b86 9307      		cpc r25,r19
 9083 3b88 04F4      		brge .L429
 9084 3b8a C901      		movw r24,r18
 9085               	.L429:
 9086 3b8c 9093 0000 		sts (gxMax)+1,r25
 9087 3b90 8093 0000 		sts gxMax,r24
 9088               	.LM1243:
 9089 3b94 2091 0000 		lds r18,gyMax
 9090 3b98 3091 0000 		lds r19,(gyMax)+1
 9091 3b9c 8091 0000 		lds r24,gy
 9092 3ba0 9091 0000 		lds r25,(gy)+1
 9093 3ba4 8217      		cp r24,r18
 9094 3ba6 9307      		cpc r25,r19
 9095 3ba8 04F4      		brge .L430
 9096 3baa C901      		movw r24,r18
 9097               	.L430:
 9098 3bac 9093 0000 		sts (gyMax)+1,r25
 9099 3bb0 8093 0000 		sts gyMax,r24
 9100               	.LM1244:
 9101 3bb4 2091 0000 		lds r18,gzMax
 9102 3bb8 3091 0000 		lds r19,(gzMax)+1
 9103 3bbc 8091 0000 		lds r24,gz
 9104 3bc0 9091 0000 		lds r25,(gz)+1
 9105 3bc4 8217      		cp r24,r18
 9106 3bc6 9307      		cpc r25,r19
 9107 3bc8 04F4      		brge .L431
 9108 3bca C901      		movw r24,r18
 9109               	.L431:
 9110 3bcc 9093 0000 		sts (gzMax)+1,r25
 9111 3bd0 8093 0000 		sts gzMax,r24
 9112               	.L425:
 9113               	.LM1245:
 9114 3bd4 8091 0000 		lds r24,gyroTick
 9115 3bd8 9091 0000 		lds r25,(gyroTick)+1
 9116 3bdc 0196      		adiw r24,1
 9117 3bde 9093 0000 		sts (gyroTick)+1,r25
 9118 3be2 8093 0000 		sts gyroTick,r24
 9119               	.L387:
 9120               	.LBE751:
 9121               	.LM1246:
 9122 3be6 9090 0000 		lds r9,opt_mouse_mode
 9123 3bea F2E0      		ldi r31,lo8(2)
 9124 3bec 9F16      		cp r9,r31
 9125 3bee 01F4      		brne .+2
 9126 3bf0 00C0      		rjmp .L434
 9127 3bf2 F915      		cp r31,r9
 9128 3bf4 00F0      		brlo .L437
 9129 3bf6 21E0      		ldi r18,lo8(1)
 9130 3bf8 9216      		cp r9,r18
 9131 3bfa 01F0      		breq .+2
 9132 3bfc 00C0      		rjmp .L432
 9133 3bfe 00C0      		rjmp .L520
 9134               	.L437:
 9135 3c00 33E0      		ldi r19,lo8(3)
 9136 3c02 9316      		cp r9,r19
 9137 3c04 01F4      		brne .+2
 9138 3c06 00C0      		rjmp .L435
 9139 3c08 84E0      		ldi r24,lo8(4)
 9140 3c0a 9816      		cp r9,r24
 9141 3c0c 01F0      		breq .+2
 9142 3c0e 00C0      		rjmp .L432
 9143 3c10 00C0      		rjmp .L521
 9144               	.L520:
 9145               	.LM1247:
 9146 3c12 8091 0000 		lds r24,aset
 9147 3c16 0091 0000 		lds r16,ax
 9148 3c1a 1091 0000 		lds r17,(ax)+1
 9149 3c1e 6090 0000 		lds r6,ay
 9150 3c22 7090 0000 		lds r7,(ay)+1
 9151 3c26 8823      		tst r24
 9152 3c28 01F4      		brne .+2
 9153 3c2a 00C0      		rjmp .L438
 9154               	.LM1248:
 9155 3c2c 6091 0000 		lds r22,mx
 9156 3c30 7091 0000 		lds r23,(mx)+1
 9157 3c34 7093 0000 		sts (mx0)+1,r23
 9158 3c38 6093 0000 		sts mx0,r22
 9159               	.LM1249:
 9160 3c3c E090 0000 		lds r14,my
 9161 3c40 F090 0000 		lds r15,(my)+1
 9162 3c44 F092 0000 		sts (my0)+1,r15
 9163 3c48 E092 0000 		sts my0,r14
 9164               	.LM1250:
 9165 3c4c 8827      		clr r24
 9166 3c4e 77FD      		sbrc r23,7
 9167 3c50 8095      		com r24
 9168 3c52 982F      		mov r25,r24
 9169 3c54 0E94 0000 		call __floatsisf
 9170 3c58 5B01      		movw r10,r22
 9171 3c5a 6C01      		movw r12,r24
 9172 3c5c 8091 0000 		lds r24,axBase
 9173 3c60 9091 0000 		lds r25,(axBase)+1
 9174 3c64 081B      		sub r16,r24
 9175 3c66 190B      		sbc r17,r25
 9176 3c68 B801      		movw r22,r16
 9177 3c6a 8827      		clr r24
 9178 3c6c 77FD      		sbrc r23,7
 9179 3c6e 8095      		com r24
 9180 3c70 982F      		mov r25,r24
 9181 3c72 0E94 0000 		call __floatsisf
 9182 3c76 2091 0000 		lds r18,opt_mouse_scale_mode1
 9183 3c7a 3091 0000 		lds r19,(opt_mouse_scale_mode1)+1
 9184 3c7e 4091 0000 		lds r20,(opt_mouse_scale_mode1)+2
 9185 3c82 5091 0000 		lds r21,(opt_mouse_scale_mode1)+3
 9186 3c86 0E94 0000 		call __divsf3
 9187 3c8a 9B01      		movw r18,r22
 9188 3c8c AC01      		movw r20,r24
 9189 3c8e C601      		movw r24,r12
 9190 3c90 B501      		movw r22,r10
 9191 3c92 0E94 0000 		call __subsf3
 9192 3c96 0E94 0000 		call __fixsfsi
 9193 3c9a 7093 0000 		sts (mx)+1,r23
 9194 3c9e 6093 0000 		sts mx,r22
 9195               	.LM1251:
 9196 3ca2 0027      		clr r16
 9197 3ca4 F7FC      		sbrc r15,7
 9198 3ca6 0095      		com r16
 9199 3ca8 102F      		mov r17,r16
 9200 3caa C801      		movw r24,r16
 9201 3cac B701      		movw r22,r14
 9202 3cae 0E94 0000 		call __floatsisf
 9203 3cb2 7B01      		movw r14,r22
 9204 3cb4 8C01      		movw r16,r24
 9205 3cb6 8091 0000 		lds r24,ayBase
 9206 3cba 9091 0000 		lds r25,(ayBase)+1
 9207 3cbe 681A      		sub r6,r24
 9208 3cc0 790A      		sbc r7,r25
 9209 3cc2 B301      		movw r22,r6
 9210 3cc4 8827      		clr r24
 9211 3cc6 77FD      		sbrc r23,7
 9212 3cc8 8095      		com r24
 9213 3cca 982F      		mov r25,r24
 9214 3ccc 0E94 0000 		call __floatsisf
 9215 3cd0 2091 0000 		lds r18,opt_mouse_scale_mode1+4
 9216 3cd4 3091 0000 		lds r19,(opt_mouse_scale_mode1+4)+1
 9217 3cd8 4091 0000 		lds r20,(opt_mouse_scale_mode1+4)+2
 9218 3cdc 5091 0000 		lds r21,(opt_mouse_scale_mode1+4)+3
 9219 3ce0 0E94 0000 		call __divsf3
 9220 3ce4 9B01      		movw r18,r22
 9221 3ce6 AC01      		movw r20,r24
 9222 3ce8 C801      		movw r24,r16
 9223 3cea B701      		movw r22,r14
 9224 3cec 0E94 0000 		call __subsf3
 9225 3cf0 0E94 0000 		call __fixsfsi
 9226 3cf4 7093 0000 		sts (my)+1,r23
 9227 3cf8 6093 0000 		sts my,r22
 9228               	.LM1252:
 9229 3cfc 9092 0000 		sts moveMouse,r9
 9230 3d00 00C0      		rjmp .L432
 9231               	.L438:
 9232               	.LM1253:
 9233 3d02 1093 0000 		sts (axBase)+1,r17
 9234 3d06 0093 0000 		sts axBase,r16
 9235               	.LM1254:
 9236 3d0a 7092 0000 		sts (ayBase)+1,r7
 9237 3d0e 6092 0000 		sts ayBase,r6
 9238               	.LM1255:
 9239 3d12 8091 0000 		lds r24,az
 9240 3d16 9091 0000 		lds r25,(az)+1
 9241 3d1a 9093 0000 		sts (azBase)+1,r25
 9242 3d1e 8093 0000 		sts azBase,r24
 9243               	.LM1256:
 9244 3d22 9092 0000 		sts aset,r9
 9245 3d26 00C0      		rjmp .L432
 9246               	.L434:
 9247               	.LM1257:
 9248 3d28 C090 0000 		lds r12,mx
 9249 3d2c D090 0000 		lds r13,(mx)+1
 9250 3d30 D092 0000 		sts (mx0)+1,r13
 9251 3d34 C092 0000 		sts mx0,r12
 9252               	.LM1258:
 9253 3d38 8091 0000 		lds r24,my
 9254 3d3c 9091 0000 		lds r25,(my)+1
 9255 3d40 9093 0000 		sts (my0)+1,r25
 9256 3d44 8093 0000 		sts my0,r24
 9257               	.LM1259:
 9258 3d48 2091 0000 		lds r18,gx
 9259 3d4c 3091 0000 		lds r19,(gx)+1
 9260 3d50 37FF      		sbrs r19,7
 9261 3d52 00C0      		rjmp .L439
 9262 3d54 6627      		clr r22
 9263 3d56 7727      		clr r23
 9264 3d58 621B      		sub r22,r18
 9265 3d5a 730B      		sbc r23,r19
 9266 3d5c 8827      		clr r24
 9267 3d5e 77FD      		sbrc r23,7
 9268 3d60 8095      		com r24
 9269 3d62 982F      		mov r25,r24
 9270 3d64 0E94 0000 		call __floatsisf
 9271 3d68 0E94 0000 		call sqrt
 9272 3d6c 7B01      		movw r14,r22
 9273 3d6e 8C01      		movw r16,r24
 9274 3d70 17FB      		bst r17,7
 9275 3d72 1095      		com r17
 9276 3d74 17F9      		bld r17,7
 9277 3d76 1095      		com r17
 9278 3d78 00C0      		rjmp .L440
 9279               	.L439:
 9280 3d7a B901      		movw r22,r18
 9281 3d7c 8827      		clr r24
 9282 3d7e 77FD      		sbrc r23,7
 9283 3d80 8095      		com r24
 9284 3d82 982F      		mov r25,r24
 9285 3d84 0E94 0000 		call __floatsisf
 9286 3d88 0E94 0000 		call sqrt
 9287 3d8c 7B01      		movw r14,r22
 9288 3d8e 8C01      		movw r16,r24
 9289               	.L440:
 9290 3d90 B601      		movw r22,r12
 9291 3d92 8827      		clr r24
 9292 3d94 77FD      		sbrc r23,7
 9293 3d96 8095      		com r24
 9294 3d98 982F      		mov r25,r24
 9295 3d9a 0E94 0000 		call __floatsisf
 9296 3d9e A801      		movw r20,r16
 9297 3da0 9701      		movw r18,r14
 9298 3da2 0E94 0000 		call __addsf3
 9299 3da6 0E94 0000 		call __fixsfsi
 9300 3daa 7093 0000 		sts (mx)+1,r23
 9301 3dae 6093 0000 		sts mx,r22
 9302               	.LM1260:
 9303 3db2 C090 0000 		lds r12,my
 9304 3db6 D090 0000 		lds r13,(my)+1
 9305 3dba 2091 0000 		lds r18,gy
 9306 3dbe 3091 0000 		lds r19,(gy)+1
 9307 3dc2 37FF      		sbrs r19,7
 9308 3dc4 00C0      		rjmp .L441
 9309 3dc6 6627      		clr r22
 9310 3dc8 7727      		clr r23
 9311 3dca 621B      		sub r22,r18
 9312 3dcc 730B      		sbc r23,r19
 9313 3dce 8827      		clr r24
 9314 3dd0 77FD      		sbrc r23,7
 9315 3dd2 8095      		com r24
 9316 3dd4 982F      		mov r25,r24
 9317 3dd6 0E94 0000 		call __floatsisf
 9318 3dda 0E94 0000 		call sqrt
 9319 3dde 7B01      		movw r14,r22
 9320 3de0 8C01      		movw r16,r24
 9321 3de2 17FB      		bst r17,7
 9322 3de4 1095      		com r17
 9323 3de6 17F9      		bld r17,7
 9324 3de8 1095      		com r17
 9325 3dea 00C0      		rjmp .L442
 9326               	.L441:
 9327 3dec B901      		movw r22,r18
 9328 3dee 8827      		clr r24
 9329 3df0 77FD      		sbrc r23,7
 9330 3df2 8095      		com r24
 9331 3df4 982F      		mov r25,r24
 9332 3df6 0E94 0000 		call __floatsisf
 9333 3dfa 0E94 0000 		call sqrt
 9334 3dfe 7B01      		movw r14,r22
 9335 3e00 8C01      		movw r16,r24
 9336               	.L442:
 9337 3e02 B601      		movw r22,r12
 9338 3e04 8827      		clr r24
 9339 3e06 77FD      		sbrc r23,7
 9340 3e08 8095      		com r24
 9341 3e0a 982F      		mov r25,r24
 9342 3e0c 0E94 0000 		call __floatsisf
 9343 3e10 A801      		movw r20,r16
 9344 3e12 9701      		movw r18,r14
 9345 3e14 0E94 0000 		call __addsf3
 9346 3e18 00C0      		rjmp .L514
 9347               	.L435:
 9348               	.LM1261:
 9349 3e1a 8091 0000 		lds r24,aset
 9350 3e1e 0091 0000 		lds r16,x
 9351 3e22 1091 0000 		lds r17,(x)+1
 9352 3e26 4090 0000 		lds r4,z
 9353 3e2a 5090 0000 		lds r5,(z)+1
 9354 3e2e 8823      		tst r24
 9355 3e30 01F4      		brne .+2
 9356 3e32 00C0      		rjmp .L443
 9357               	.LM1262:
 9358 3e34 6091 0000 		lds r22,mx
 9359 3e38 7091 0000 		lds r23,(mx)+1
 9360 3e3c 7093 0000 		sts (mx0)+1,r23
 9361 3e40 6093 0000 		sts mx0,r22
 9362               	.LM1263:
 9363 3e44 E090 0000 		lds r14,my
 9364 3e48 F090 0000 		lds r15,(my)+1
 9365 3e4c F092 0000 		sts (my0)+1,r15
 9366 3e50 E092 0000 		sts my0,r14
 9367               	.LM1264:
 9368 3e54 8827      		clr r24
 9369 3e56 77FD      		sbrc r23,7
 9370 3e58 8095      		com r24
 9371 3e5a 982F      		mov r25,r24
 9372 3e5c 0E94 0000 		call __floatsisf
 9373 3e60 5B01      		movw r10,r22
 9374 3e62 6C01      		movw r12,r24
 9375 3e64 8091 0000 		lds r24,xBase
 9376 3e68 9091 0000 		lds r25,(xBase)+1
 9377 3e6c 081B      		sub r16,r24
 9378 3e6e 190B      		sbc r17,r25
 9379 3e70 B801      		movw r22,r16
 9380 3e72 8827      		clr r24
 9381 3e74 77FD      		sbrc r23,7
 9382 3e76 8095      		com r24
 9383 3e78 982F      		mov r25,r24
 9384 3e7a 0E94 0000 		call __floatsisf
 9385 3e7e 2091 0000 		lds r18,opt_mouse_scale_mode3
 9386 3e82 3091 0000 		lds r19,(opt_mouse_scale_mode3)+1
 9387 3e86 4091 0000 		lds r20,(opt_mouse_scale_mode3)+2
 9388 3e8a 5091 0000 		lds r21,(opt_mouse_scale_mode3)+3
 9389 3e8e 0E94 0000 		call __divsf3
 9390 3e92 9B01      		movw r18,r22
 9391 3e94 AC01      		movw r20,r24
 9392 3e96 C601      		movw r24,r12
 9393 3e98 B501      		movw r22,r10
 9394 3e9a 0E94 0000 		call __subsf3
 9395 3e9e 0E94 0000 		call __fixsfsi
 9396 3ea2 7093 0000 		sts (mx)+1,r23
 9397 3ea6 6093 0000 		sts mx,r22
 9398               	.LM1265:
 9399 3eaa 0027      		clr r16
 9400 3eac F7FC      		sbrc r15,7
 9401 3eae 0095      		com r16
 9402 3eb0 102F      		mov r17,r16
 9403 3eb2 C801      		movw r24,r16
 9404 3eb4 B701      		movw r22,r14
 9405 3eb6 0E94 0000 		call __floatsisf
 9406 3eba 7B01      		movw r14,r22
 9407 3ebc 8C01      		movw r16,r24
 9408 3ebe A0E0      		ldi r26,lo8(-256)
 9409 3ec0 BFEF      		ldi r27,hi8(-256)
 9410 3ec2 4A0E      		add r4,r26
 9411 3ec4 5B1E      		adc r5,r27
 9412 3ec6 8091 0000 		lds r24,zBase
 9413 3eca 9091 0000 		lds r25,(zBase)+1
 9414 3ece 481A      		sub r4,r24
 9415 3ed0 590A      		sbc r5,r25
 9416 3ed2 B201      		movw r22,r4
 9417 3ed4 8827      		clr r24
 9418 3ed6 77FD      		sbrc r23,7
 9419 3ed8 8095      		com r24
 9420 3eda 982F      		mov r25,r24
 9421 3edc 0E94 0000 		call __floatsisf
 9422 3ee0 2091 0000 		lds r18,opt_mouse_scale_mode3+4
 9423 3ee4 3091 0000 		lds r19,(opt_mouse_scale_mode3+4)+1
 9424 3ee8 4091 0000 		lds r20,(opt_mouse_scale_mode3+4)+2
 9425 3eec 5091 0000 		lds r21,(opt_mouse_scale_mode3+4)+3
 9426 3ef0 0E94 0000 		call __divsf3
 9427 3ef4 9B01      		movw r18,r22
 9428 3ef6 AC01      		movw r20,r24
 9429 3ef8 C801      		movw r24,r16
 9430 3efa B701      		movw r22,r14
 9431 3efc 0E94 0000 		call __subsf3
 9432               	.L514:
 9433 3f00 0E94 0000 		call __fixsfsi
 9434 3f04 7093 0000 		sts (my)+1,r23
 9435 3f08 6093 0000 		sts my,r22
 9436 3f0c 00C0      		rjmp .L507
 9437               	.L443:
 9438               	.LM1266:
 9439 3f0e 1093 0000 		sts (xBase)+1,r17
 9440 3f12 0093 0000 		sts xBase,r16
 9441               	.LM1267:
 9442 3f16 8091 0000 		lds r24,y
 9443 3f1a 9091 0000 		lds r25,(y)+1
 9444 3f1e 9093 0000 		sts (yBase)+1,r25
 9445 3f22 8093 0000 		sts yBase,r24
 9446               	.LM1268:
 9447 3f26 E0E0      		ldi r30,lo8(-256)
 9448 3f28 FFEF      		ldi r31,hi8(-256)
 9449 3f2a 4E0E      		add r4,r30
 9450 3f2c 5F1E      		adc r5,r31
 9451 3f2e 5092 0000 		sts (zBase)+1,r5
 9452 3f32 4092 0000 		sts zBase,r4
 9453               	.LM1269:
 9454 3f36 81E0      		ldi r24,lo8(1)
 9455 3f38 8093 0000 		sts aset,r24
 9456 3f3c 00C0      		rjmp .L432
 9457               	.L521:
 9458               	.LM1270:
 9459 3f3e 6091 0000 		lds r22,mx
 9460 3f42 7091 0000 		lds r23,(mx)+1
 9461 3f46 7093 0000 		sts (mx0)+1,r23
 9462 3f4a 6093 0000 		sts mx0,r22
 9463               	.LM1271:
 9464 3f4e E090 0000 		lds r14,my
 9465 3f52 F090 0000 		lds r15,(my)+1
 9466 3f56 F092 0000 		sts (my0)+1,r15
 9467 3f5a E092 0000 		sts my0,r14
 9468               	.LM1272:
 9469 3f5e A090 0000 		lds r10,mz
 9470 3f62 B090 0000 		lds r11,(mz)+1
 9471 3f66 B092 0000 		sts (mz0)+1,r11
 9472 3f6a A092 0000 		sts mz0,r10
 9473               	.LM1273:
 9474 3f6e 8827      		clr r24
 9475 3f70 77FD      		sbrc r23,7
 9476 3f72 8095      		com r24
 9477 3f74 982F      		mov r25,r24
 9478 3f76 0E94 0000 		call __floatsisf
 9479 3f7a 3B01      		movw r6,r22
 9480 3f7c 4C01      		movw r8,r24
 9481 3f7e 6091 0000 		lds r22,xv
 9482 3f82 7091 0000 		lds r23,(xv)+1
 9483 3f86 8827      		clr r24
 9484 3f88 77FD      		sbrc r23,7
 9485 3f8a 8095      		com r24
 9486 3f8c 982F      		mov r25,r24
 9487 3f8e 0E94 0000 		call __floatsisf
 9488 3f92 2091 0000 		lds r18,opt_mouse_scale_mode4
 9489 3f96 3091 0000 		lds r19,(opt_mouse_scale_mode4)+1
 9490 3f9a 4091 0000 		lds r20,(opt_mouse_scale_mode4)+2
 9491 3f9e 5091 0000 		lds r21,(opt_mouse_scale_mode4)+3
 9492 3fa2 0E94 0000 		call __divsf3
 9493 3fa6 9B01      		movw r18,r22
 9494 3fa8 AC01      		movw r20,r24
 9495 3faa C401      		movw r24,r8
 9496 3fac B301      		movw r22,r6
 9497 3fae 0E94 0000 		call __subsf3
 9498 3fb2 0E94 0000 		call __fixsfsi
 9499 3fb6 7093 0000 		sts (mx)+1,r23
 9500 3fba 6093 0000 		sts mx,r22
 9501               	.LM1274:
 9502 3fbe 0027      		clr r16
 9503 3fc0 F7FC      		sbrc r15,7
 9504 3fc2 0095      		com r16
 9505 3fc4 102F      		mov r17,r16
 9506 3fc6 C801      		movw r24,r16
 9507 3fc8 B701      		movw r22,r14
 9508 3fca 0E94 0000 		call __floatsisf
 9509 3fce 7B01      		movw r14,r22
 9510 3fd0 8C01      		movw r16,r24
 9511 3fd2 6091 0000 		lds r22,zv
 9512 3fd6 7091 0000 		lds r23,(zv)+1
 9513 3fda 8827      		clr r24
 9514 3fdc 77FD      		sbrc r23,7
 9515 3fde 8095      		com r24
 9516 3fe0 982F      		mov r25,r24
 9517 3fe2 0E94 0000 		call __floatsisf
 9518 3fe6 2091 0000 		lds r18,opt_mouse_scale_mode4+4
 9519 3fea 3091 0000 		lds r19,(opt_mouse_scale_mode4+4)+1
 9520 3fee 4091 0000 		lds r20,(opt_mouse_scale_mode4+4)+2
 9521 3ff2 5091 0000 		lds r21,(opt_mouse_scale_mode4+4)+3
 9522 3ff6 0E94 0000 		call __divsf3
 9523 3ffa 9B01      		movw r18,r22
 9524 3ffc AC01      		movw r20,r24
 9525 3ffe C801      		movw r24,r16
 9526 4000 B701      		movw r22,r14
 9527 4002 0E94 0000 		call __subsf3
 9528 4006 0E94 0000 		call __fixsfsi
 9529 400a 7093 0000 		sts (my)+1,r23
 9530 400e 6093 0000 		sts my,r22
 9531               	.LM1275:
 9532 4012 CC24      		clr r12
 9533 4014 B7FC      		sbrc r11,7
 9534 4016 C094      		com r12
 9535 4018 DC2C      		mov r13,r12
 9536 401a C601      		movw r24,r12
 9537 401c B501      		movw r22,r10
 9538 401e 0E94 0000 		call __floatsisf
 9539 4022 7B01      		movw r14,r22
 9540 4024 8C01      		movw r16,r24
 9541 4026 6091 0000 		lds r22,yv
 9542 402a 7091 0000 		lds r23,(yv)+1
 9543 402e 8827      		clr r24
 9544 4030 77FD      		sbrc r23,7
 9545 4032 8095      		com r24
 9546 4034 982F      		mov r25,r24
 9547 4036 0E94 0000 		call __floatsisf
 9548 403a 2091 0000 		lds r18,opt_mouse_scale_mode4+8
 9549 403e 3091 0000 		lds r19,(opt_mouse_scale_mode4+8)+1
 9550 4042 4091 0000 		lds r20,(opt_mouse_scale_mode4+8)+2
 9551 4046 5091 0000 		lds r21,(opt_mouse_scale_mode4+8)+3
 9552 404a 0E94 0000 		call __divsf3
 9553 404e 9B01      		movw r18,r22
 9554 4050 AC01      		movw r20,r24
 9555 4052 C801      		movw r24,r16
 9556 4054 B701      		movw r22,r14
 9557 4056 0E94 0000 		call __subsf3
 9558 405a 0E94 0000 		call __fixsfsi
 9559 405e 7093 0000 		sts (mz)+1,r23
 9560 4062 6093 0000 		sts mz,r22
 9561               	.L507:
 9562               	.LM1276:
 9563 4066 81E0      		ldi r24,lo8(1)
 9564 4068 8093 0000 		sts moveMouse,r24
 9565               	.L432:
 9566               	.LM1277:
 9567 406c 9090 0000 		lds r9,opt_scroll_mode
 9568 4070 F2E0      		ldi r31,lo8(2)
 9569 4072 9F16      		cp r9,r31
 9570 4074 01F4      		brne .+2
 9571 4076 00C0      		rjmp .L446
 9572 4078 23E0      		ldi r18,lo8(3)
 9573 407a 9216      		cp r9,r18
 9574 407c 01F4      		brne .+2
 9575 407e 00C0      		rjmp .L447
 9576 4080 31E0      		ldi r19,lo8(1)
 9577 4082 9316      		cp r9,r19
 9578 4084 01F0      		breq .+2
 9579 4086 00C0      		rjmp .L444
 9580               	.LM1278:
 9581 4088 8091 0000 		lds r24,aset
 9582 408c 0091 0000 		lds r16,ax
 9583 4090 1091 0000 		lds r17,(ax)+1
 9584 4094 6090 0000 		lds r6,ay
 9585 4098 7090 0000 		lds r7,(ay)+1
 9586 409c 8823      		tst r24
 9587 409e 01F4      		brne .+2
 9588 40a0 00C0      		rjmp .L448
 9589               	.LM1279:
 9590 40a2 6091 0000 		lds r22,mx
 9591 40a6 7091 0000 		lds r23,(mx)+1
 9592 40aa 7093 0000 		sts (mx0)+1,r23
 9593 40ae 6093 0000 		sts mx0,r22
 9594               	.LM1280:
 9595 40b2 E090 0000 		lds r14,my
 9596 40b6 F090 0000 		lds r15,(my)+1
 9597 40ba F092 0000 		sts (my0)+1,r15
 9598 40be E092 0000 		sts my0,r14
 9599               	.LM1281:
 9600 40c2 8827      		clr r24
 9601 40c4 77FD      		sbrc r23,7
 9602 40c6 8095      		com r24
 9603 40c8 982F      		mov r25,r24
 9604 40ca 0E94 0000 		call __floatsisf
 9605 40ce 5B01      		movw r10,r22
 9606 40d0 6C01      		movw r12,r24
 9607 40d2 8091 0000 		lds r24,axBase
 9608 40d6 9091 0000 		lds r25,(axBase)+1
 9609 40da 081B      		sub r16,r24
 9610 40dc 190B      		sbc r17,r25
 9611 40de B801      		movw r22,r16
 9612 40e0 8827      		clr r24
 9613 40e2 77FD      		sbrc r23,7
 9614 40e4 8095      		com r24
 9615 40e6 982F      		mov r25,r24
 9616 40e8 0E94 0000 		call __floatsisf
 9617 40ec 2091 0000 		lds r18,opt_mouse_scale_mode1
 9618 40f0 3091 0000 		lds r19,(opt_mouse_scale_mode1)+1
 9619 40f4 4091 0000 		lds r20,(opt_mouse_scale_mode1)+2
 9620 40f8 5091 0000 		lds r21,(opt_mouse_scale_mode1)+3
 9621 40fc 0E94 0000 		call __divsf3
 9622 4100 9B01      		movw r18,r22
 9623 4102 AC01      		movw r20,r24
 9624 4104 C601      		movw r24,r12
 9625 4106 B501      		movw r22,r10
 9626 4108 0E94 0000 		call __subsf3
 9627 410c 0E94 0000 		call __fixsfsi
 9628 4110 7093 0000 		sts (mx)+1,r23
 9629 4114 6093 0000 		sts mx,r22
 9630               	.LM1282:
 9631 4118 0027      		clr r16
 9632 411a F7FC      		sbrc r15,7
 9633 411c 0095      		com r16
 9634 411e 102F      		mov r17,r16
 9635 4120 C801      		movw r24,r16
 9636 4122 B701      		movw r22,r14
 9637 4124 0E94 0000 		call __floatsisf
 9638 4128 7B01      		movw r14,r22
 9639 412a 8C01      		movw r16,r24
 9640 412c 8091 0000 		lds r24,ayBase
 9641 4130 9091 0000 		lds r25,(ayBase)+1
 9642 4134 681A      		sub r6,r24
 9643 4136 790A      		sbc r7,r25
 9644 4138 B301      		movw r22,r6
 9645 413a 8827      		clr r24
 9646 413c 77FD      		sbrc r23,7
 9647 413e 8095      		com r24
 9648 4140 982F      		mov r25,r24
 9649 4142 0E94 0000 		call __floatsisf
 9650 4146 2091 0000 		lds r18,opt_mouse_scale_mode1+4
 9651 414a 3091 0000 		lds r19,(opt_mouse_scale_mode1+4)+1
 9652 414e 4091 0000 		lds r20,(opt_mouse_scale_mode1+4)+2
 9653 4152 5091 0000 		lds r21,(opt_mouse_scale_mode1+4)+3
 9654 4156 0E94 0000 		call __divsf3
 9655 415a 9B01      		movw r18,r22
 9656 415c AC01      		movw r20,r24
 9657 415e C801      		movw r24,r16
 9658 4160 B701      		movw r22,r14
 9659 4162 0E94 0000 		call __subsf3
 9660 4166 0E94 0000 		call __fixsfsi
 9661 416a 7093 0000 		sts (my)+1,r23
 9662 416e 6093 0000 		sts my,r22
 9663               	.LM1283:
 9664 4172 9092 0000 		sts scrollMouse,r9
 9665 4176 00C0      		rjmp .L444
 9666               	.L448:
 9667               	.LM1284:
 9668 4178 1093 0000 		sts (axBase)+1,r17
 9669 417c 0093 0000 		sts axBase,r16
 9670               	.LM1285:
 9671 4180 7092 0000 		sts (ayBase)+1,r7
 9672 4184 6092 0000 		sts ayBase,r6
 9673               	.LM1286:
 9674 4188 8091 0000 		lds r24,az
 9675 418c 9091 0000 		lds r25,(az)+1
 9676 4190 9093 0000 		sts (azBase)+1,r25
 9677 4194 8093 0000 		sts azBase,r24
 9678               	.LM1287:
 9679 4198 9092 0000 		sts aset,r9
 9680 419c 00C0      		rjmp .L444
 9681               	.L446:
 9682               	.LM1288:
 9683 419e C090 0000 		lds r12,sy
 9684 41a2 D090 0000 		lds r13,(sy)+1
 9685 41a6 D092 0000 		sts (sy0)+1,r13
 9686 41aa C092 0000 		sts sy0,r12
 9687               	.LM1289:
 9688 41ae 8091 0000 		lds r24,gx
 9689 41b2 9091 0000 		lds r25,(gx)+1
 9690 41b6 97FF      		sbrs r25,7
 9691 41b8 00C0      		rjmp .L449
 9692 41ba 62EE      		ldi r22,lo8(-30)
 9693 41bc 7FEF      		ldi r23,hi8(-30)
 9694 41be 0E94 0000 		call __divmodhi4
 9695 41c2 8827      		clr r24
 9696 41c4 77FD      		sbrc r23,7
 9697 41c6 8095      		com r24
 9698 41c8 982F      		mov r25,r24
 9699 41ca 0E94 0000 		call __floatsisf
 9700 41ce 0E94 0000 		call sqrt
 9701 41d2 7B01      		movw r14,r22
 9702 41d4 8C01      		movw r16,r24
 9703 41d6 17FB      		bst r17,7
 9704 41d8 1095      		com r17
 9705 41da 17F9      		bld r17,7
 9706 41dc 1095      		com r17
 9707 41de 00C0      		rjmp .L450
 9708               	.L449:
 9709 41e0 6EE1      		ldi r22,lo8(30)
 9710 41e2 70E0      		ldi r23,hi8(30)
 9711 41e4 0E94 0000 		call __divmodhi4
 9712 41e8 8827      		clr r24
 9713 41ea 77FD      		sbrc r23,7
 9714 41ec 8095      		com r24
 9715 41ee 982F      		mov r25,r24
 9716 41f0 0E94 0000 		call __floatsisf
 9717 41f4 0E94 0000 		call sqrt
 9718 41f8 7B01      		movw r14,r22
 9719 41fa 8C01      		movw r16,r24
 9720               	.L450:
 9721 41fc B601      		movw r22,r12
 9722 41fe 8827      		clr r24
 9723 4200 77FD      		sbrc r23,7
 9724 4202 8095      		com r24
 9725 4204 982F      		mov r25,r24
 9726 4206 0E94 0000 		call __floatsisf
 9727 420a A801      		movw r20,r16
 9728 420c 9701      		movw r18,r14
 9729 420e 0E94 0000 		call __subsf3
 9730 4212 0E94 0000 		call __fixsfsi
 9731 4216 7093 0000 		sts (sy)+1,r23
 9732 421a 6093 0000 		sts sy,r22
 9733 421e 00C0      		rjmp .L508
 9734               	.L447:
 9735               	.LM1290:
 9736 4220 8091 0000 		lds r24,aset
 9737 4224 0091 0000 		lds r16,x
 9738 4228 1091 0000 		lds r17,(x)+1
 9739 422c 4090 0000 		lds r4,z
 9740 4230 5090 0000 		lds r5,(z)+1
 9741 4234 8823      		tst r24
 9742 4236 01F4      		brne .+2
 9743 4238 00C0      		rjmp .L451
 9744               	.LM1291:
 9745 423a 6091 0000 		lds r22,mx
 9746 423e 7091 0000 		lds r23,(mx)+1
 9747 4242 7093 0000 		sts (mx0)+1,r23
 9748 4246 6093 0000 		sts mx0,r22
 9749               	.LM1292:
 9750 424a E090 0000 		lds r14,my
 9751 424e F090 0000 		lds r15,(my)+1
 9752 4252 F092 0000 		sts (my0)+1,r15
 9753 4256 E092 0000 		sts my0,r14
 9754               	.LM1293:
 9755 425a 8827      		clr r24
 9756 425c 77FD      		sbrc r23,7
 9757 425e 8095      		com r24
 9758 4260 982F      		mov r25,r24
 9759 4262 0E94 0000 		call __floatsisf
 9760 4266 5B01      		movw r10,r22
 9761 4268 6C01      		movw r12,r24
 9762 426a 8091 0000 		lds r24,xBase
 9763 426e 9091 0000 		lds r25,(xBase)+1
 9764 4272 081B      		sub r16,r24
 9765 4274 190B      		sbc r17,r25
 9766 4276 B801      		movw r22,r16
 9767 4278 8827      		clr r24
 9768 427a 77FD      		sbrc r23,7
 9769 427c 8095      		com r24
 9770 427e 982F      		mov r25,r24
 9771 4280 0E94 0000 		call __floatsisf
 9772 4284 2091 0000 		lds r18,opt_mouse_scale_mode3
 9773 4288 3091 0000 		lds r19,(opt_mouse_scale_mode3)+1
 9774 428c 4091 0000 		lds r20,(opt_mouse_scale_mode3)+2
 9775 4290 5091 0000 		lds r21,(opt_mouse_scale_mode3)+3
 9776 4294 0E94 0000 		call __divsf3
 9777 4298 9B01      		movw r18,r22
 9778 429a AC01      		movw r20,r24
 9779 429c C601      		movw r24,r12
 9780 429e B501      		movw r22,r10
 9781 42a0 0E94 0000 		call __subsf3
 9782 42a4 0E94 0000 		call __fixsfsi
 9783 42a8 7093 0000 		sts (mx)+1,r23
 9784 42ac 6093 0000 		sts mx,r22
 9785               	.LM1294:
 9786 42b0 0027      		clr r16
 9787 42b2 F7FC      		sbrc r15,7
 9788 42b4 0095      		com r16
 9789 42b6 102F      		mov r17,r16
 9790 42b8 C801      		movw r24,r16
 9791 42ba B701      		movw r22,r14
 9792 42bc 0E94 0000 		call __floatsisf
 9793 42c0 7B01      		movw r14,r22
 9794 42c2 8C01      		movw r16,r24
 9795 42c4 80E0      		ldi r24,lo8(-256)
 9796 42c6 9FEF      		ldi r25,hi8(-256)
 9797 42c8 480E      		add r4,r24
 9798 42ca 591E      		adc r5,r25
 9799 42cc 8091 0000 		lds r24,zBase
 9800 42d0 9091 0000 		lds r25,(zBase)+1
 9801 42d4 481A      		sub r4,r24
 9802 42d6 590A      		sbc r5,r25
 9803 42d8 B201      		movw r22,r4
 9804 42da 8827      		clr r24
 9805 42dc 77FD      		sbrc r23,7
 9806 42de 8095      		com r24
 9807 42e0 982F      		mov r25,r24
 9808 42e2 0E94 0000 		call __floatsisf
 9809 42e6 2091 0000 		lds r18,opt_mouse_scale_mode3+4
 9810 42ea 3091 0000 		lds r19,(opt_mouse_scale_mode3+4)+1
 9811 42ee 4091 0000 		lds r20,(opt_mouse_scale_mode3+4)+2
 9812 42f2 5091 0000 		lds r21,(opt_mouse_scale_mode3+4)+3
 9813 42f6 0E94 0000 		call __divsf3
 9814 42fa 9B01      		movw r18,r22
 9815 42fc AC01      		movw r20,r24
 9816 42fe C801      		movw r24,r16
 9817 4300 B701      		movw r22,r14
 9818 4302 0E94 0000 		call __subsf3
 9819 4306 0E94 0000 		call __fixsfsi
 9820 430a 7093 0000 		sts (my)+1,r23
 9821 430e 6093 0000 		sts my,r22
 9822               	.L508:
 9823               	.LM1295:
 9824 4312 81E0      		ldi r24,lo8(1)
 9825 4314 8093 0000 		sts scrollMouse,r24
 9826 4318 00C0      		rjmp .L444
 9827               	.L451:
 9828               	.LM1296:
 9829 431a 1093 0000 		sts (xBase)+1,r17
 9830 431e 0093 0000 		sts xBase,r16
 9831               	.LM1297:
 9832 4322 8091 0000 		lds r24,y
 9833 4326 9091 0000 		lds r25,(y)+1
 9834 432a 9093 0000 		sts (yBase)+1,r25
 9835 432e 8093 0000 		sts yBase,r24
 9836               	.LM1298:
 9837 4332 A0E0      		ldi r26,lo8(-256)
 9838 4334 BFEF      		ldi r27,hi8(-256)
 9839 4336 4A0E      		add r4,r26
 9840 4338 5B1E      		adc r5,r27
 9841 433a 5092 0000 		sts (zBase)+1,r5
 9842 433e 4092 0000 		sts zBase,r4
 9843               	.LM1299:
 9844 4342 81E0      		ldi r24,lo8(1)
 9845 4344 8093 0000 		sts aset,r24
 9846               	.L444:
 9847               	.LM1300:
 9848 4348 4091 0000 		lds r20,mx
 9849 434c 5091 0000 		lds r21,(mx)+1
 9850 4350 8091 0000 		lds r24,mx0
 9851 4354 9091 0000 		lds r25,(mx0)+1
 9852 4358 481B      		sub r20,r24
 9853 435a 590B      		sbc r21,r25
 9854 435c 5093 0000 		sts (mdx)+1,r21
 9855 4360 4093 0000 		sts mdx,r20
 9856               	.LM1301:
 9857 4364 8091 0000 		lds r24,my
 9858 4368 9091 0000 		lds r25,(my)+1
 9859 436c 2091 0000 		lds r18,my0
 9860 4370 3091 0000 		lds r19,(my0)+1
 9861 4374 821B      		sub r24,r18
 9862 4376 930B      		sbc r25,r19
 9863 4378 9093 0000 		sts (mdy)+1,r25
 9864 437c 8093 0000 		sts mdy,r24
 9865               	.LM1302:
 9866 4380 8091 0000 		lds r24,mz
 9867 4384 9091 0000 		lds r25,(mz)+1
 9868 4388 2091 0000 		lds r18,mz0
 9869 438c 3091 0000 		lds r19,(mz0)+1
 9870 4390 821B      		sub r24,r18
 9871 4392 930B      		sbc r25,r19
 9872 4394 9093 0000 		sts (mdz)+1,r25
 9873 4398 8093 0000 		sts mdz,r24
 9874               	.LM1303:
 9875 439c 8091 0000 		lds r24,opt_mouse_invert_x
 9876 43a0 8130      		cpi r24,lo8(1)
 9877 43a2 01F4      		brne .L452
 9878 43a4 8827      		clr r24
 9879 43a6 9927      		clr r25
 9880 43a8 841B      		sub r24,r20
 9881 43aa 950B      		sbc r25,r21
 9882 43ac 9093 0000 		sts (mdx)+1,r25
 9883 43b0 8093 0000 		sts mdx,r24
 9884               	.L452:
 9885               	.LM1304:
 9886 43b4 8091 0000 		lds r24,opt_mouse_invert_y
 9887 43b8 8130      		cpi r24,lo8(1)
 9888 43ba 01F4      		brne .L453
 9889 43bc 8091 0000 		lds r24,mdy
 9890 43c0 9091 0000 		lds r25,(mdy)+1
 9891 43c4 9095      		com r25
 9892 43c6 8195      		neg r24
 9893 43c8 9F4F      		sbci r25,lo8(-1)
 9894 43ca 9093 0000 		sts (mdy)+1,r25
 9895 43ce 8093 0000 		sts mdy,r24
 9896               	.L453:
 9897               	.LM1305:
 9898 43d2 8091 0000 		lds r24,opt_mouse_invert_z
 9899 43d6 8130      		cpi r24,lo8(1)
 9900 43d8 01F4      		brne .L454
 9901 43da 8091 0000 		lds r24,mdz
 9902 43de 9091 0000 		lds r25,(mdz)+1
 9903 43e2 9095      		com r25
 9904 43e4 8195      		neg r24
 9905 43e6 9F4F      		sbci r25,lo8(-1)
 9906 43e8 9093 0000 		sts (mdz)+1,r25
 9907 43ec 8093 0000 		sts mdz,r24
 9908               	.L454:
 9909               	.LM1306:
 9910 43f0 8091 0000 		lds r24,moveMouse
 9911 43f4 8823      		tst r24
 9912 43f6 01F0      		breq .L455
 9913 43f8 8091 0000 		lds r24,opt_mouse_mode
 9914 43fc 8823      		tst r24
 9915 43fe 01F0      		breq .L455
 9916 4400 6091 0000 		lds r22,mdx
 9917 4404 7091 0000 		lds r23,(mdx)+1
 9918 4408 6115      		cp r22,__zero_reg__
 9919 440a 7105      		cpc r23,__zero_reg__
 9920 440c 01F4      		brne .L456
 9921 440e 8091 0000 		lds r24,mdy
 9922 4412 9091 0000 		lds r25,(mdy)+1
 9923 4416 892B      		or r24,r25
 9924 4418 01F4      		brne .L456
 9925 441a 8091 0000 		lds r24,mdz
 9926 441e 9091 0000 		lds r25,(mdz)+1
 9927 4422 892B      		or r24,r25
 9928 4424 01F0      		breq .L455
 9929               	.L456:
 9930               	.LM1307:
 9931 4426 2091 0000 		lds r18,mdz
 9932 442a 3091 0000 		lds r19,(mdz)+1
 9933 442e 1216      		cp __zero_reg__,r18
 9934 4430 1306      		cpc __zero_reg__,r19
 9935 4432 04F4      		brge .L457
 9936 4434 80E0      		ldi r24,lo8(Mouse)
 9937 4436 90E0      		ldi r25,hi8(Mouse)
 9938 4438 4091 0000 		lds r20,mdy
 9939 443c 0E94 0000 		call _ZN8USBMouse4moveEhhh
 9940 4440 00C0      		rjmp .L455
 9941               	.L457:
 9942               	.LM1308:
 9943 4442 80E0      		ldi r24,lo8(Mouse)
 9944 4444 90E0      		ldi r25,hi8(Mouse)
 9945 4446 4091 0000 		lds r20,mdy
 9946 444a 0E94 0000 		call _ZN8USBMouse4moveEhh
 9947               	.L455:
 9948               	.LM1309:
 9949 444e 8091 0000 		lds r24,scrollMouse
 9950 4452 8823      		tst r24
 9951 4454 01F0      		breq .L385
 9952 4456 8091 0000 		lds r24,opt_scroll_mode
 9953 445a 8823      		tst r24
 9954 445c 01F0      		breq .L385
 9955 445e 6091 0000 		lds r22,sdy
 9956 4462 7091 0000 		lds r23,(sdy)+1
 9957 4466 6115      		cp r22,__zero_reg__
 9958 4468 7105      		cpc r23,__zero_reg__
 9959 446a 01F0      		breq .L385
 9960               	.LM1310:
 9961 446c 80E0      		ldi r24,lo8(Mouse)
 9962 446e 90E0      		ldi r25,hi8(Mouse)
 9963 4470 0E94 0000 		call _ZN8USBMouse6scrollEh
 9964               	.L385:
 9965               	.LM1311:
 9966 4474 1092 0000 		sts detect1,__zero_reg__
 9967 4478 1092 0000 		sts (detect1)+1,__zero_reg__
 9968 447c 1092 0000 		sts (detect1)+2,__zero_reg__
 9969 4480 1092 0000 		sts (detect1)+3,__zero_reg__
 9970               	.LM1312:
 9971 4484 1092 0000 		sts detect2,__zero_reg__
 9972 4488 1092 0000 		sts (detect2)+1,__zero_reg__
 9973 448c 1092 0000 		sts (detect2)+2,__zero_reg__
 9974 4490 1092 0000 		sts (detect2)+3,__zero_reg__
 9975               	.LM1313:
 9976 4494 1092 0000 		sts removing,__zero_reg__
 9977               	.LM1314:
 9978 4498 1092 0000 		sts i,__zero_reg__
 9979 449c 1092 0000 		sts (i)+1,__zero_reg__
 9980 44a0 1092 0000 		sts (i)+2,__zero_reg__
 9981 44a4 1092 0000 		sts (i)+3,__zero_reg__
 9982               	.LBB752:
 9983               	.LM1315:
 9984 44a8 11E0      		ldi r17,lo8(1)
 9985 44aa C12E      		mov r12,r17
 9986 44ac D12C      		mov r13,__zero_reg__
 9987 44ae E12C      		mov r14,__zero_reg__
 9988 44b0 F12C      		mov r15,__zero_reg__
 9989 44b2 00C0      		rjmp .L458
 9990               	.LVL403:
 9991               	.L461:
 9992               	.LM1316:
 9993 44b4 FC01      		movw r30,r24
 9994 44b6 EE0F      		lsl r30
 9995 44b8 FF1F      		rol r31
 9996 44ba EE0F      		lsl r30
 9997 44bc FF1F      		rol r31
 9998 44be DF01      		movw r26,r30
 9999 44c0 A050      		subi r26,lo8(-(combinations+2))
 10000 44c2 B040      		sbci r27,hi8(-(combinations+2))
 10001 44c4 0C91      		ld r16,X
 10002               	.LM1317:
 10003 44c6 E050      		subi r30,lo8(-(combinations))
 10004 44c8 F040      		sbci r31,hi8(-(combinations))
 10005 44ca 1081      		ld r17,Z
 10006 44cc 812F      		mov r24,r17
 10007 44ce 61E0      		ldi r22,lo8(1)
 10008 44d0 0E94 0000 		call pinMode
 10009               	.LM1318:
 10010 44d4 812F      		mov r24,r17
 10011 44d6 60E0      		ldi r22,lo8(0)
 10012 44d8 0E94 0000 		call digitalWrite
 10013               	.LM1319:
 10014 44dc 8091 0000 		lds r24,i
 10015 44e0 9091 0000 		lds r25,(i)+1
 10016 44e4 A091 0000 		lds r26,(i)+2
 10017 44e8 B091 0000 		lds r27,(i)+3
 10018 44ec 8097      		sbiw r24,32
 10019 44ee A105      		cpc r26,__zero_reg__
 10020 44f0 B105      		cpc r27,__zero_reg__
 10021 44f2 04F4      		brge .L459
 10022               	.LM1320:
 10023 44f4 802F      		mov r24,r16
 10024 44f6 0E94 0000 		call digitalRead
 10025 44fa 892B      		or r24,r25
 10026 44fc 01F0      		breq .+2
 10027 44fe 00C0      		rjmp .L460
 10028 4500 A701      		movw r20,r14
 10029 4502 9601      		movw r18,r12
 10030 4504 0090 0000 		lds r0,i
 10031 4508 00C0      		rjmp 2f
 10032 450a 220F      	1:	lsl r18
 10033 450c 331F      		rol r19
 10034 450e 441F      		rol r20
 10035 4510 551F      		rol r21
 10036 4512 0A94      	2:	dec r0
 10037 4514 02F4      		brpl 1b
 10038 4516 8091 0000 		lds r24,detect1
 10039 451a 9091 0000 		lds r25,(detect1)+1
 10040 451e A091 0000 		lds r26,(detect1)+2
 10041 4522 B091 0000 		lds r27,(detect1)+3
 10042 4526 822B      		or r24,r18
 10043 4528 932B      		or r25,r19
 10044 452a A42B      		or r26,r20
 10045 452c B52B      		or r27,r21
 10046 452e 8093 0000 		sts detect1,r24
 10047 4532 9093 0000 		sts (detect1)+1,r25
 10048 4536 A093 0000 		sts (detect1)+2,r26
 10049 453a B093 0000 		sts (detect1)+3,r27
 10050 453e 00C0      		rjmp .L460
 10051               	.L459:
 10052               	.LM1321:
 10053 4540 802F      		mov r24,r16
 10054 4542 0E94 0000 		call digitalRead
 10055 4546 892B      		or r24,r25
 10056 4548 01F4      		brne .L460
 10057 454a 2091 0000 		lds r18,i
 10058 454e 3091 0000 		lds r19,(i)+1
 10059 4552 2052      		subi r18,lo8(-(-32))
 10060 4554 3040      		sbci r19,hi8(-(-32))
 10061 4556 D701      		movw r26,r14
 10062 4558 C601      		movw r24,r12
 10063 455a 00C0      		rjmp 2f
 10064 455c 880F      	1:	lsl r24
 10065 455e 991F      		rol r25
 10066 4560 AA1F      		rol r26
 10067 4562 BB1F      		rol r27
 10068 4564 2A95      	2:	dec r18
 10069 4566 02F4      		brpl 1b
 10070 4568 9C01      		movw r18,r24
 10071 456a AD01      		movw r20,r26
 10072 456c 8091 0000 		lds r24,detect2
 10073 4570 9091 0000 		lds r25,(detect2)+1
 10074 4574 A091 0000 		lds r26,(detect2)+2
 10075 4578 B091 0000 		lds r27,(detect2)+3
 10076 457c 822B      		or r24,r18
 10077 457e 932B      		or r25,r19
 10078 4580 A42B      		or r26,r20
 10079 4582 B52B      		or r27,r21
 10080 4584 8093 0000 		sts detect2,r24
 10081 4588 9093 0000 		sts (detect2)+1,r25
 10082 458c A093 0000 		sts (detect2)+2,r26
 10083 4590 B093 0000 		sts (detect2)+3,r27
 10084               	.L460:
 10085               	.LM1322:
 10086 4594 812F      		mov r24,r17
 10087 4596 60E0      		ldi r22,lo8(0)
 10088 4598 0E94 0000 		call pinMode
 10089               	.LM1323:
 10090 459c 812F      		mov r24,r17
 10091 459e 61E0      		ldi r22,lo8(1)
 10092 45a0 0E94 0000 		call digitalWrite
 10093               	.LBE752:
 10094               	.LM1324:
 10095 45a4 8091 0000 		lds r24,i
 10096 45a8 9091 0000 		lds r25,(i)+1
 10097 45ac A091 0000 		lds r26,(i)+2
 10098 45b0 B091 0000 		lds r27,(i)+3
 10099 45b4 0196      		adiw r24,1
 10100 45b6 A11D      		adc r26,__zero_reg__
 10101 45b8 B11D      		adc r27,__zero_reg__
 10102 45ba 8093 0000 		sts i,r24
 10103 45be 9093 0000 		sts (i)+1,r25
 10104 45c2 A093 0000 		sts (i)+2,r26
 10105 45c6 B093 0000 		sts (i)+3,r27
 10106               	.L458:
 10107 45ca 8091 0000 		lds r24,i
 10108 45ce 9091 0000 		lds r25,(i)+1
 10109 45d2 A091 0000 		lds r26,(i)+2
 10110 45d6 B091 0000 		lds r27,(i)+3
 10111 45da 8C33      		cpi r24,lo8(60)
 10112 45dc 9105      		cpc r25,__zero_reg__
 10113 45de A105      		cpc r26,__zero_reg__
 10114 45e0 B105      		cpc r27,__zero_reg__
 10115 45e2 04F4      		brge .+2
 10116 45e4 00C0      		rjmp .L461
 10117               	.LM1325:
 10118 45e6 E090 0000 		lds r14,verify1
 10119 45ea F090 0000 		lds r15,(verify1)+1
 10120 45ee 0091 0000 		lds r16,(verify1)+2
 10121 45f2 1091 0000 		lds r17,(verify1)+3
 10122 45f6 8091 0000 		lds r24,detect1
 10123 45fa 9091 0000 		lds r25,(detect1)+1
 10124 45fe A091 0000 		lds r26,(detect1)+2
 10125 4602 B091 0000 		lds r27,(detect1)+3
 10126 4606 E816      		cp r14,r24
 10127 4608 F906      		cpc r15,r25
 10128 460a 0A07      		cpc r16,r26
 10129 460c 1B07      		cpc r17,r27
 10130 460e 01F4      		brne .L462
 10131 4610 2091 0000 		lds r18,verify2
 10132 4614 3091 0000 		lds r19,(verify2)+1
 10133 4618 4091 0000 		lds r20,(verify2)+2
 10134 461c 5091 0000 		lds r21,(verify2)+3
 10135 4620 8091 0000 		lds r24,detect2
 10136 4624 9091 0000 		lds r25,(detect2)+1
 10137 4628 A091 0000 		lds r26,(detect2)+2
 10138 462c B091 0000 		lds r27,(detect2)+3
 10139 4630 2817      		cp r18,r24
 10140 4632 3907      		cpc r19,r25
 10141 4634 4A07      		cpc r20,r26
 10142 4636 5B07      		cpc r21,r27
 10143 4638 01F0      		breq .L463
 10144               	.L462:
 10145               	.LM1326:
 10146 463a 0E94 0000 		call millis
 10147 463e 6093 0000 		sts touchTime,r22
 10148 4642 7093 0000 		sts (touchTime)+1,r23
 10149 4646 8093 0000 		sts (touchTime)+2,r24
 10150 464a 9093 0000 		sts (touchTime)+3,r25
 10151 464e 00C0      		rjmp .L464
 10152               	.L463:
 10153               	.LM1327:
 10154 4650 8091 0000 		lds r24,sensors1
 10155 4654 9091 0000 		lds r25,(sensors1)+1
 10156 4658 A091 0000 		lds r26,(sensors1)+2
 10157 465c B091 0000 		lds r27,(sensors1)+3
 10158 4660 E816      		cp r14,r24
 10159 4662 F906      		cpc r15,r25
 10160 4664 0A07      		cpc r16,r26
 10161 4666 1B07      		cpc r17,r27
 10162 4668 01F4      		brne .L465
 10163 466a 8091 0000 		lds r24,sensors2
 10164 466e 9091 0000 		lds r25,(sensors2)+1
 10165 4672 A091 0000 		lds r26,(sensors2)+2
 10166 4676 B091 0000 		lds r27,(sensors2)+3
 10167 467a 2817      		cp r18,r24
 10168 467c 3907      		cpc r19,r25
 10169 467e 4A07      		cpc r20,r26
 10170 4680 5B07      		cpc r21,r27
 10171 4682 01F4      		brne .+2
 10172 4684 00C0      		rjmp .L464
 10173               	.L465:
 10174 4686 0E94 0000 		call millis
 10175 468a 2091 0000 		lds r18,touchTime
 10176 468e 3091 0000 		lds r19,(touchTime)+1
 10177 4692 4091 0000 		lds r20,(touchTime)+2
 10178 4696 5091 0000 		lds r21,(touchTime)+3
 10179 469a 621B      		sub r22,r18
 10180 469c 730B      		sbc r23,r19
 10181 469e 840B      		sbc r24,r20
 10182 46a0 950B      		sbc r25,r21
 10183 46a2 2091 0000 		lds r18,opt_touch_detect_threshold
 10184 46a6 3091 0000 		lds r19,(opt_touch_detect_threshold)+1
 10185 46aa 40E0      		ldi r20,lo8(0)
 10186 46ac 50E0      		ldi r21,hi8(0)
 10187 46ae 6217      		cp r22,r18
 10188 46b0 7307      		cpc r23,r19
 10189 46b2 8407      		cpc r24,r20
 10190 46b4 9507      		cpc r25,r21
 10191 46b6 00F4      		brsh .+2
 10192 46b8 00C0      		rjmp .L464
 10193               	.LM1328:
 10194 46ba 80E0      		ldi r24,lo8(Serial)
 10195 46bc 90E0      		ldi r25,hi8(Serial)
 10196 46be 60E0      		ldi r22,lo8(.LC22)
 10197 46c0 70E0      		ldi r23,hi8(.LC22)
 10198 46c2 0E94 0000 		call _ZN16USBVirtualSerial5printEPKc
 10199               	.LM1329:
 10200 46c6 1092 0000 		sts i,__zero_reg__
 10201 46ca 1092 0000 		sts (i)+1,__zero_reg__
 10202 46ce 1092 0000 		sts (i)+2,__zero_reg__
 10203 46d2 1092 0000 		sts (i)+3,__zero_reg__
 10204 46d6 00C0      		rjmp .L466
 10205               	.L469:
 10206               	.LM1330:
 10207 46d8 8032      		cpi r24,lo8(32)
 10208 46da 9105      		cpc r25,__zero_reg__
 10209 46dc A105      		cpc r26,__zero_reg__
 10210 46de B105      		cpc r27,__zero_reg__
 10211 46e0 04F4      		brge .L467
 10212 46e2 4091 0000 		lds r20,detect1
 10213 46e6 5091 0000 		lds r21,(detect1)+1
 10214 46ea 6091 0000 		lds r22,(detect1)+2
 10215 46ee 7091 0000 		lds r23,(detect1)+3
 10216 46f2 00C0      		rjmp .L509
 10217               	.L467:
 10218               	.LM1331:
 10219 46f4 8097      		sbiw r24,32
 10220 46f6 4091 0000 		lds r20,detect2
 10221 46fa 5091 0000 		lds r21,(detect2)+1
 10222 46fe 6091 0000 		lds r22,(detect2)+2
 10223 4702 7091 0000 		lds r23,(detect2)+3
 10224               	.L509:
 10225 4706 00C0      		rjmp 2f
 10226 4708 7695      	1:	lsr r23
 10227 470a 6795      		ror r22
 10228 470c 5795      		ror r21
 10229 470e 4795      		ror r20
 10230 4710 8A95      	2:	dec r24
 10231 4712 02F4      		brpl 1b
 10232 4714 4170      		andi r20,lo8(1)
 10233 4716 5070      		andi r21,hi8(1)
 10234 4718 6070      		andi r22,hlo8(1)
 10235 471a 7070      		andi r23,hhi8(1)
 10236 471c 80E0      		ldi r24,lo8(Serial)
 10237 471e 90E0      		ldi r25,hi8(Serial)
 10238 4720 0E94 0000 		call _ZN16USBVirtualSerial5printEm
 10239               	.LM1332:
 10240 4724 8091 0000 		lds r24,i
 10241 4728 9091 0000 		lds r25,(i)+1
 10242 472c A091 0000 		lds r26,(i)+2
 10243 4730 B091 0000 		lds r27,(i)+3
 10244 4734 0196      		adiw r24,1
 10245 4736 A11D      		adc r26,__zero_reg__
 10246 4738 B11D      		adc r27,__zero_reg__
 10247 473a 8093 0000 		sts i,r24
 10248 473e 9093 0000 		sts (i)+1,r25
 10249 4742 A093 0000 		sts (i)+2,r26
 10250 4746 B093 0000 		sts (i)+3,r27
 10251               	.L466:
 10252 474a 8091 0000 		lds r24,i
 10253 474e 9091 0000 		lds r25,(i)+1
 10254 4752 A091 0000 		lds r26,(i)+2
 10255 4756 B091 0000 		lds r27,(i)+3
 10256 475a 8C33      		cpi r24,lo8(60)
 10257 475c 9105      		cpc r25,__zero_reg__
 10258 475e A105      		cpc r26,__zero_reg__
 10259 4760 B105      		cpc r27,__zero_reg__
 10260 4762 04F4      		brge .+2
 10261 4764 00C0      		rjmp .L469
 10262               	.LM1333:
 10263 4766 80E0      		ldi r24,lo8(Serial)
 10264 4768 90E0      		ldi r25,hi8(Serial)
 10265 476a 60E0      		ldi r22,lo8(.LC23)
 10266 476c 70E0      		ldi r23,hi8(.LC23)
 10267 476e 0E94 0000 		call _ZN16USBVirtualSerial5printEPKc
 10268               	.LM1334:
 10269 4772 6090 0000 		lds r6,verify1
 10270 4776 7090 0000 		lds r7,(verify1)+1
 10271 477a 8090 0000 		lds r8,(verify1)+2
 10272 477e 9090 0000 		lds r9,(verify1)+3
 10273 4782 A090 0000 		lds r10,sensors1
 10274 4786 B090 0000 		lds r11,(sensors1)+1
 10275 478a C090 0000 		lds r12,(sensors1)+2
 10276 478e D090 0000 		lds r13,(sensors1)+3
 10277 4792 A614      		cp r10,r6
 10278 4794 B704      		cpc r11,r7
 10279 4796 C804      		cpc r12,r8
 10280 4798 D904      		cpc r13,r9
 10281 479a 00F0      		brlo .L470
 10282 479c E090 0000 		lds r14,verify2
 10283 47a0 F090 0000 		lds r15,(verify2)+1
 10284 47a4 0091 0000 		lds r16,(verify2)+2
 10285 47a8 1091 0000 		lds r17,(verify2)+3
 10286 47ac 2091 0000 		lds r18,sensors2
 10287 47b0 3091 0000 		lds r19,(sensors2)+1
 10288 47b4 4091 0000 		lds r20,(sensors2)+2
 10289 47b8 5091 0000 		lds r21,(sensors2)+3
 10290 47bc 2E15      		cp r18,r14
 10291 47be 3F05      		cpc r19,r15
 10292 47c0 4007      		cpc r20,r16
 10293 47c2 5107      		cpc r21,r17
 10294 47c4 00F4      		brsh .L471
 10295               	.L470:
 10296               	.LM1335:
 10297 47c6 81E0      		ldi r24,lo8(1)
 10298 47c8 8093 0000 		sts adding,r24
 10299               	.LM1336:
 10300 47cc 6091 0000 		lds r22,verify1
 10301 47d0 7091 0000 		lds r23,(verify1)+1
 10302 47d4 8091 0000 		lds r24,(verify1)+2
 10303 47d8 9091 0000 		lds r25,(verify1)+3
 10304 47dc 2091 0000 		lds r18,verify2
 10305 47e0 3091 0000 		lds r19,(verify2)+1
 10306 47e4 4091 0000 		lds r20,(verify2)+2
 10307 47e8 5091 0000 		lds r21,(verify2)+3
 10308 47ec 01E0      		ldi r16,lo8(1)
 10309 47ee 10E0      		ldi r17,hi8(1)
 10310               	.LVL404:
 10311 47f0 0E94 0000 		call _Z19check_sensors_touchmmi
 10312 47f4 00C0      		rjmp .L472
 10313               	.LVL405:
 10314               	.L471:
 10315               	.LM1337:
 10316 47f6 8091 0000 		lds r24,adding
 10317 47fa 8823      		tst r24
 10318 47fc 01F0      		breq .L472
 10319 47fe 6A14      		cp r6,r10
 10320 4800 7B04      		cpc r7,r11
 10321 4802 8C04      		cpc r8,r12
 10322 4804 9D04      		cpc r9,r13
 10323 4806 00F0      		brlo .L473
 10324 4808 E216      		cp r14,r18
 10325 480a F306      		cpc r15,r19
 10326 480c 0407      		cpc r16,r20
 10327 480e 1507      		cpc r17,r21
 10328 4810 00F4      		brsh .L472
 10329               	.L473:
 10330               	.LM1338:
 10331 4812 1092 0000 		sts adding,__zero_reg__
 10332               	.LM1339:
 10333 4816 81E0      		ldi r24,lo8(1)
 10334 4818 8093 0000 		sts removing,r24
 10335               	.LM1340:
 10336 481c 6091 0000 		lds r22,sensors1
 10337 4820 7091 0000 		lds r23,(sensors1)+1
 10338 4824 8091 0000 		lds r24,(sensors1)+2
 10339 4828 9091 0000 		lds r25,(sensors1)+3
 10340 482c 2091 0000 		lds r18,sensors2
 10341 4830 3091 0000 		lds r19,(sensors2)+1
 10342 4834 4091 0000 		lds r20,(sensors2)+2
 10343 4838 5091 0000 		lds r21,(sensors2)+3
 10344 483c 01E0      		ldi r16,lo8(1)
 10345 483e 10E0      		ldi r17,hi8(1)
 10346               	.LVL406:
 10347 4840 0E94 0000 		call _Z21check_sensors_releasemmi
 10348               	.LVL407:
 10349               	.L472:
 10350               	.LM1341:
 10351 4844 8091 0000 		lds r24,verify1
 10352 4848 9091 0000 		lds r25,(verify1)+1
 10353 484c A091 0000 		lds r26,(verify1)+2
 10354 4850 B091 0000 		lds r27,(verify1)+3
 10355 4854 8093 0000 		sts sensors1,r24
 10356 4858 9093 0000 		sts (sensors1)+1,r25
 10357 485c A093 0000 		sts (sensors1)+2,r26
 10358 4860 B093 0000 		sts (sensors1)+3,r27
 10359               	.LM1342:
 10360 4864 8091 0000 		lds r24,verify2
 10361 4868 9091 0000 		lds r25,(verify2)+1
 10362 486c A091 0000 		lds r26,(verify2)+2
 10363 4870 B091 0000 		lds r27,(verify2)+3
 10364 4874 8093 0000 		sts sensors2,r24
 10365 4878 9093 0000 		sts (sensors2)+1,r25
 10366 487c A093 0000 		sts (sensors2)+2,r26
 10367 4880 B093 0000 		sts (sensors2)+3,r27
 10368               	.L464:
 10369               	.LM1343:
 10370 4884 8091 0000 		lds r24,detect1
 10371 4888 9091 0000 		lds r25,(detect1)+1
 10372 488c A091 0000 		lds r26,(detect1)+2
 10373 4890 B091 0000 		lds r27,(detect1)+3
 10374 4894 8093 0000 		sts verify1,r24
 10375 4898 9093 0000 		sts (verify1)+1,r25
 10376 489c A093 0000 		sts (verify1)+2,r26
 10377 48a0 B093 0000 		sts (verify1)+3,r27
 10378               	.LM1344:
 10379 48a4 8091 0000 		lds r24,detect2
 10380 48a8 9091 0000 		lds r25,(detect2)+1
 10381 48ac A091 0000 		lds r26,(detect2)+2
 10382 48b0 B091 0000 		lds r27,(detect2)+3
 10383 48b4 8093 0000 		sts verify2,r24
 10384 48b8 9093 0000 		sts (verify2)+1,r25
 10385 48bc A093 0000 		sts (verify2)+2,r26
 10386 48c0 B093 0000 		sts (verify2)+3,r27
 10387               	.LM1345:
 10388 48c4 2091 0000 		lds r18,counter
 10389 48c8 3091 0000 		lds r19,(counter)+1
 10390 48cc 2F5F      		subi r18,lo8(-(1))
 10391 48ce 3F4F      		sbci r19,hi8(-(1))
 10392 48d0 3093 0000 		sts (counter)+1,r19
 10393 48d4 2093 0000 		sts counter,r18
 10394               	.LM1346:
 10395 48d8 E091 0000 		lds r30,tricolorBlinkRed
 10396 48dc F091 0000 		lds r31,(tricolorBlinkRed)+1
 10397 48e0 E130      		cpi r30,1
 10398 48e2 F105      		cpc r31,__zero_reg__
 10399 48e4 01F4      		brne .L474
 10400 48e6 C901      		movw r24,r18
 10401 48e8 64EF      		ldi r22,lo8(500)
 10402 48ea 71E0      		ldi r23,hi8(500)
 10403 48ec 0E94 0000 		call __divmodhi4
 10404 48f0 892B      		or r24,r25
 10405 48f2 01F4      		brne .L474
 10406 48f4 40E0      		ldi r20,lo8(0)
 10407 48f6 C901      		movw r24,r18
 10408 48f8 68EE      		ldi r22,lo8(1000)
 10409 48fa 73E0      		ldi r23,hi8(1000)
 10410 48fc 0E94 0000 		call __divmodhi4
 10411 4900 845F      		subi r24,lo8(500)
 10412 4902 9140      		sbci r25,hi8(500)
 10413 4904 04F4      		brge .L481
 10414 4906 00C0      		rjmp .L515
 10415               	.L474:
 10416               	.LM1347:
 10417 4908 E230      		cpi r30,2
 10418 490a F105      		cpc r31,__zero_reg__
 10419 490c 01F4      		brne .L477
 10420 490e C901      		movw r24,r18
 10421 4910 64E6      		ldi r22,lo8(100)
 10422 4912 70E0      		ldi r23,hi8(100)
 10423 4914 0E94 0000 		call __divmodhi4
 10424 4918 892B      		or r24,r25
 10425 491a 01F4      		brne .L477
 10426 491c 40E0      		ldi r20,lo8(0)
 10427 491e C901      		movw r24,r18
 10428 4920 68EE      		ldi r22,lo8(1000)
 10429 4922 73E0      		ldi r23,hi8(1000)
 10430 4924 0E94 0000 		call __divmodhi4
 10431 4928 8436      		cpi r24,100
 10432 492a 9105      		cpc r25,__zero_reg__
 10433 492c 04F4      		brge .L481
 10434 492e 00C0      		rjmp .L515
 10435               	.L477:
 10436               	.LM1348:
 10437 4930 E330      		cpi r30,3
 10438 4932 F105      		cpc r31,__zero_reg__
 10439 4934 01F4      		brne .L479
 10440 4936 C901      		movw r24,r18
 10441 4938 62E3      		ldi r22,lo8(50)
 10442 493a 70E0      		ldi r23,hi8(50)
 10443 493c 0E94 0000 		call __divmodhi4
 10444 4940 892B      		or r24,r25
 10445 4942 01F4      		brne .L479
 10446 4944 40E0      		ldi r20,lo8(0)
 10447 4946 C901      		movw r24,r18
 10448 4948 64E6      		ldi r22,lo8(100)
 10449 494a 70E0      		ldi r23,hi8(100)
 10450 494c 0E94 0000 		call __divmodhi4
 10451 4950 C297      		sbiw r24,50
 10452 4952 04F4      		brge .L481
 10453 4954 00C0      		rjmp .L515
 10454               	.L479:
 10455               	.LM1349:
 10456 4956 3497      		sbiw r30,4
 10457 4958 01F4      		brne .L476
 10458 495a C901      		movw r24,r18
 10459 495c 6AE0      		ldi r22,lo8(10)
 10460 495e 70E0      		ldi r23,hi8(10)
 10461 4960 0E94 0000 		call __divmodhi4
 10462 4964 892B      		or r24,r25
 10463 4966 01F4      		brne .L476
 10464 4968 40E0      		ldi r20,lo8(0)
 10465 496a C901      		movw r24,r18
 10466 496c 64E6      		ldi r22,lo8(100)
 10467 496e 70E0      		ldi r23,hi8(100)
 10468 4970 0E94 0000 		call __divmodhi4
 10469 4974 0A97      		sbiw r24,10
 10470 4976 04F4      		brge .L481
 10471               	.L515:
 10472 4978 41E0      		ldi r20,lo8(1)
 10473               	.L481:
 10474 497a 842F      		mov r24,r20
 10475 497c 6FEF      		ldi r22,lo8(-1)
 10476 497e 4FEF      		ldi r20,lo8(-1)
 10477 4980 0E94 0000 		call _Z8tricolorhhh
 10478               	.L476:
 10479               	.LM1350:
 10480 4984 2091 0000 		lds r18,tricolorBlinkGreen
 10481 4988 3091 0000 		lds r19,(tricolorBlinkGreen)+1
 10482 498c 2130      		cpi r18,1
 10483 498e 3105      		cpc r19,__zero_reg__
 10484 4990 01F4      		brne .L482
 10485 4992 E091 0000 		lds r30,counter
 10486 4996 F091 0000 		lds r31,(counter)+1
 10487 499a CF01      		movw r24,r30
 10488 499c 64EF      		ldi r22,lo8(500)
 10489 499e 71E0      		ldi r23,hi8(500)
 10490 49a0 0E94 0000 		call __divmodhi4
 10491 49a4 892B      		or r24,r25
 10492 49a6 01F4      		brne .L482
 10493 49a8 20E0      		ldi r18,lo8(0)
 10494 49aa CF01      		movw r24,r30
 10495 49ac 68EE      		ldi r22,lo8(1000)
 10496 49ae 73E0      		ldi r23,hi8(1000)
 10497 49b0 0E94 0000 		call __divmodhi4
 10498 49b4 845F      		subi r24,lo8(500)
 10499 49b6 9140      		sbci r25,hi8(500)
 10500 49b8 04F4      		brge .L488
 10501 49ba 00C0      		rjmp .L519
 10502               	.L482:
 10503               	.LM1351:
 10504 49bc 2330      		cpi r18,3
 10505 49be 3105      		cpc r19,__zero_reg__
 10506 49c0 01F4      		brne .L485
 10507 49c2 E091 0000 		lds r30,counter
 10508 49c6 F091 0000 		lds r31,(counter)+1
 10509 49ca CF01      		movw r24,r30
 10510 49cc 64E6      		ldi r22,lo8(100)
 10511 49ce 70E0      		ldi r23,hi8(100)
 10512 49d0 0E94 0000 		call __divmodhi4
 10513 49d4 892B      		or r24,r25
 10514 49d6 01F4      		brne .L485
 10515 49d8 20E0      		ldi r18,lo8(0)
 10516 49da CF01      		movw r24,r30
 10517 49dc 68EE      		ldi r22,lo8(1000)
 10518 49de 73E0      		ldi r23,hi8(1000)
 10519 49e0 0E94 0000 		call __divmodhi4
 10520 49e4 8436      		cpi r24,100
 10521 49e6 9105      		cpc r25,__zero_reg__
 10522 49e8 04F4      		brge .L488
 10523 49ea 00C0      		rjmp .L519
 10524               	.L485:
 10525               	.LM1352:
 10526 49ec 2230      		cpi r18,2
 10527 49ee 3105      		cpc r19,__zero_reg__
 10528 49f0 01F4      		brne .L487
 10529 49f2 E091 0000 		lds r30,counter
 10530 49f6 F091 0000 		lds r31,(counter)+1
 10531 49fa CF01      		movw r24,r30
 10532 49fc 62E3      		ldi r22,lo8(50)
 10533 49fe 70E0      		ldi r23,hi8(50)
 10534 4a00 0E94 0000 		call __divmodhi4
 10535 4a04 892B      		or r24,r25
 10536 4a06 01F4      		brne .L487
 10537 4a08 20E0      		ldi r18,lo8(0)
 10538 4a0a CF01      		movw r24,r30
 10539 4a0c 64E6      		ldi r22,lo8(100)
 10540 4a0e 70E0      		ldi r23,hi8(100)
 10541 4a10 0E94 0000 		call __divmodhi4
 10542 4a14 C297      		sbiw r24,50
 10543 4a16 04F4      		brge .L488
 10544               	.L519:
 10545 4a18 21E0      		ldi r18,lo8(1)
 10546               	.L488:
 10547 4a1a 8FEF      		ldi r24,lo8(-1)
 10548 4a1c 622F      		mov r22,r18
 10549 4a1e 00C0      		rjmp .L510
 10550               	.L487:
 10551               	.LM1353:
 10552 4a20 2430      		cpi r18,4
 10553 4a22 3105      		cpc r19,__zero_reg__
 10554 4a24 01F4      		brne .L484
 10555 4a26 2091 0000 		lds r18,counter
 10556 4a2a 3091 0000 		lds r19,(counter)+1
 10557 4a2e C901      		movw r24,r18
 10558 4a30 6AE0      		ldi r22,lo8(10)
 10559 4a32 70E0      		ldi r23,hi8(10)
 10560 4a34 0E94 0000 		call __divmodhi4
 10561 4a38 892B      		or r24,r25
 10562 4a3a 01F4      		brne .L484
 10563 4a3c 40E0      		ldi r20,lo8(0)
 10564 4a3e C901      		movw r24,r18
 10565 4a40 64E6      		ldi r22,lo8(100)
 10566 4a42 70E0      		ldi r23,hi8(100)
 10567 4a44 0E94 0000 		call __divmodhi4
 10568 4a48 0A97      		sbiw r24,10
 10569 4a4a 04F4      		brge .L489
 10570 4a4c 41E0      		ldi r20,lo8(1)
 10571               	.L489:
 10572 4a4e 8FEF      		ldi r24,lo8(-1)
 10573 4a50 642F      		mov r22,r20
 10574               	.L510:
 10575 4a52 4FEF      		ldi r20,lo8(-1)
 10576 4a54 0E94 0000 		call _Z8tricolorhhh
 10577               	.L484:
 10578               	.LM1354:
 10579 4a58 2091 0000 		lds r18,tricolorBlinkBlue
 10580 4a5c 3091 0000 		lds r19,(tricolorBlinkBlue)+1
 10581 4a60 2130      		cpi r18,1
 10582 4a62 3105      		cpc r19,__zero_reg__
 10583 4a64 01F4      		brne .L490
 10584 4a66 E091 0000 		lds r30,counter
 10585 4a6a F091 0000 		lds r31,(counter)+1
 10586 4a6e CF01      		movw r24,r30
 10587 4a70 64EF      		ldi r22,lo8(500)
 10588 4a72 71E0      		ldi r23,hi8(500)
 10589 4a74 0E94 0000 		call __divmodhi4
 10590 4a78 892B      		or r24,r25
 10591 4a7a 01F4      		brne .L490
 10592 4a7c 40E0      		ldi r20,lo8(0)
 10593 4a7e CF01      		movw r24,r30
 10594 4a80 68EE      		ldi r22,lo8(1000)
 10595 4a82 73E0      		ldi r23,hi8(1000)
 10596 4a84 0E94 0000 		call __divmodhi4
 10597 4a88 845F      		subi r24,lo8(500)
 10598 4a8a 9140      		sbci r25,hi8(500)
 10599 4a8c 04F0      		brlt .+2
 10600 4a8e 00C0      		rjmp .L497
 10601 4a90 00C0      		rjmp .L516
 10602               	.L490:
 10603               	.LM1355:
 10604 4a92 2230      		cpi r18,2
 10605 4a94 3105      		cpc r19,__zero_reg__
 10606 4a96 01F4      		brne .L493
 10607 4a98 E091 0000 		lds r30,counter
 10608 4a9c F091 0000 		lds r31,(counter)+1
 10609 4aa0 CF01      		movw r24,r30
 10610 4aa2 64E6      		ldi r22,lo8(100)
 10611 4aa4 70E0      		ldi r23,hi8(100)
 10612 4aa6 0E94 0000 		call __divmodhi4
 10613 4aaa 892B      		or r24,r25
 10614 4aac 01F4      		brne .L493
 10615 4aae 40E0      		ldi r20,lo8(0)
 10616 4ab0 CF01      		movw r24,r30
 10617 4ab2 68EE      		ldi r22,lo8(1000)
 10618 4ab4 73E0      		ldi r23,hi8(1000)
 10619 4ab6 0E94 0000 		call __divmodhi4
 10620 4aba 8436      		cpi r24,100
 10621 4abc 9105      		cpc r25,__zero_reg__
 10622 4abe 04F4      		brge .L497
 10623 4ac0 00C0      		rjmp .L516
 10624               	.L493:
 10625               	.LM1356:
 10626 4ac2 2330      		cpi r18,3
 10627 4ac4 3105      		cpc r19,__zero_reg__
 10628 4ac6 01F4      		brne .L495
 10629 4ac8 E091 0000 		lds r30,counter
 10630 4acc F091 0000 		lds r31,(counter)+1
 10631 4ad0 CF01      		movw r24,r30
 10632 4ad2 62E3      		ldi r22,lo8(50)
 10633 4ad4 70E0      		ldi r23,hi8(50)
 10634 4ad6 0E94 0000 		call __divmodhi4
 10635 4ada 892B      		or r24,r25
 10636 4adc 01F4      		brne .L495
 10637 4ade 40E0      		ldi r20,lo8(0)
 10638 4ae0 CF01      		movw r24,r30
 10639 4ae2 64E6      		ldi r22,lo8(100)
 10640 4ae4 70E0      		ldi r23,hi8(100)
 10641 4ae6 0E94 0000 		call __divmodhi4
 10642 4aea C297      		sbiw r24,50
 10643 4aec 04F4      		brge .L497
 10644 4aee 00C0      		rjmp .L516
 10645               	.L495:
 10646               	.LM1357:
 10647 4af0 2430      		cpi r18,4
 10648 4af2 3105      		cpc r19,__zero_reg__
 10649 4af4 01F4      		brne .L492
 10650 4af6 2091 0000 		lds r18,counter
 10651 4afa 3091 0000 		lds r19,(counter)+1
 10652 4afe C901      		movw r24,r18
 10653 4b00 6AE0      		ldi r22,lo8(10)
 10654 4b02 70E0      		ldi r23,hi8(10)
 10655 4b04 0E94 0000 		call __divmodhi4
 10656 4b08 892B      		or r24,r25
 10657 4b0a 01F4      		brne .L492
 10658 4b0c 40E0      		ldi r20,lo8(0)
 10659 4b0e C901      		movw r24,r18
 10660 4b10 64E6      		ldi r22,lo8(100)
 10661 4b12 70E0      		ldi r23,hi8(100)
 10662 4b14 0E94 0000 		call __divmodhi4
 10663 4b18 0A97      		sbiw r24,10
 10664 4b1a 04F4      		brge .L497
 10665               	.L516:
 10666 4b1c 41E0      		ldi r20,lo8(1)
 10667               	.L497:
 10668 4b1e 8FEF      		ldi r24,lo8(-1)
 10669 4b20 6FEF      		ldi r22,lo8(-1)
 10670 4b22 0E94 0000 		call _Z8tricolorhhh
 10671               	.L492:
 10672               	.LM1358:
 10673 4b26 8091 0000 		lds r24,counter
 10674 4b2a 9091 0000 		lds r25,(counter)+1
 10675 4b2e 885E      		subi r24,lo8(1000)
 10676 4b30 9340      		sbci r25,hi8(1000)
 10677 4b32 01F0      		breq .+2
 10678 4b34 00C0      		rjmp .L502
 10679               	.LM1359:
 10680 4b36 1092 0000 		sts (counter)+1,__zero_reg__
 10681 4b3a 1092 0000 		sts counter,__zero_reg__
 10682               	.LM1360:
 10683 4b3e 8091 0000 		lds r24,ticks
 10684 4b42 9091 0000 		lds r25,(ticks)+1
 10685 4b46 0196      		adiw r24,1
 10686 4b48 9093 0000 		sts (ticks)+1,r25
 10687 4b4c 8093 0000 		sts ticks,r24
 10688               	.LM1361:
 10689 4b50 90E0      		ldi r25,lo8(0)
 10690 4b52 8091 0000 		lds r24,blink_led
 10691 4b56 8823      		tst r24
 10692 4b58 01F4      		brne .L499
 10693 4b5a 91E0      		ldi r25,lo8(1)
 10694               	.L499:
 10695 4b5c 9093 0000 		sts blink_led,r25
 10696               	.LM1362:
 10697 4b60 9923      		tst r25
 10698 4b62 01F0      		breq .L500
 10699 4b64 86E0      		ldi r24,lo8(6)
 10700 4b66 61E0      		ldi r22,lo8(1)
 10701 4b68 00C0      		rjmp .L511
 10702               	.L500:
 10703               	.LM1363:
 10704 4b6a 86E0      		ldi r24,lo8(6)
 10705 4b6c 60E0      		ldi r22,lo8(0)
 10706               	.L511:
 10707 4b6e 0E94 0000 		call digitalWrite
 10708               	.LM1364:
 10709 4b72 80E0      		ldi r24,lo8(Serial)
 10710 4b74 90E0      		ldi r25,hi8(Serial)
 10711 4b76 60E0      		ldi r22,lo8(.LC24)
 10712 4b78 70E0      		ldi r23,hi8(.LC24)
 10713 4b7a 0E94 0000 		call _ZN16USBVirtualSerial5printEPKc
 10714               	.LM1365:
 10715 4b7e 0E94 0000 		call millis
 10716 4b82 AB01      		movw r20,r22
 10717 4b84 BC01      		movw r22,r24
 10718 4b86 8091 0000 		lds r24,t
 10719 4b8a 9091 0000 		lds r25,(t)+1
 10720 4b8e A091 0000 		lds r26,(t)+2
 10721 4b92 B091 0000 		lds r27,(t)+3
 10722 4b96 481B      		sub r20,r24
 10723 4b98 590B      		sbc r21,r25
 10724 4b9a 6A0B      		sbc r22,r26
 10725 4b9c 7B0B      		sbc r23,r27
 10726 4b9e 80E0      		ldi r24,lo8(Serial)
 10727 4ba0 90E0      		ldi r25,hi8(Serial)
 10728 4ba2 0E94 0000 		call _ZN16USBVirtualSerial5printEm
 10729               	.LM1366:
 10730 4ba6 80E0      		ldi r24,lo8(Serial)
 10731 4ba8 90E0      		ldi r25,hi8(Serial)
 10732 4baa 60E0      		ldi r22,lo8(.LC3)
 10733 4bac 70E0      		ldi r23,hi8(.LC3)
 10734 4bae 0E94 0000 		call _ZN16USBVirtualSerial5printEPKc
 10735               	.LM1367:
 10736 4bb2 6091 0000 		lds r22,ticks
 10737 4bb6 7091 0000 		lds r23,(ticks)+1
 10738 4bba 80E0      		ldi r24,lo8(Serial)
 10739 4bbc 90E0      		ldi r25,hi8(Serial)
 10740 4bbe 0E94 0000 		call _ZN16USBVirtualSerial7printlnEi
 10741               	.LM1368:
 10742 4bc2 0E94 0000 		call millis
 10743 4bc6 6093 0000 		sts t,r22
 10744 4bca 7093 0000 		sts (t)+1,r23
 10745 4bce 8093 0000 		sts (t)+2,r24
 10746 4bd2 9093 0000 		sts (t)+3,r25
 10747               	.L502:
 10748               	/* epilogue start */
 10749               	.LBE750:
 10750               	.LM1369:
 10751 4bd6 2896      		adiw r28,8
 10752 4bd8 0FB6      		in __tmp_reg__,__SREG__
 10753 4bda F894      		cli
 10754 4bdc DEBF      		out __SP_H__,r29
 10755 4bde 0FBE      		out __SREG__,__tmp_reg__
 10756 4be0 CDBF      		out __SP_L__,r28
 10757 4be2 CF91      		pop r28
 10758 4be4 DF91      		pop r29
 10759 4be6 1F91      		pop r17
 10760 4be8 0F91      		pop r16
 10761               	.LVL408:
 10762 4bea FF90      		pop r15
 10763 4bec EF90      		pop r14
 10764 4bee DF90      		pop r13
 10765 4bf0 CF90      		pop r12
 10766 4bf2 BF90      		pop r11
 10767 4bf4 AF90      		pop r10
 10768 4bf6 9F90      		pop r9
 10769 4bf8 8F90      		pop r8
 10770 4bfa 7F90      		pop r7
 10771 4bfc 6F90      		pop r6
 10772 4bfe 5F90      		pop r5
 10773 4c00 4F90      		pop r4
 10774 4c02 3F90      		pop r3
 10775 4c04 2F90      		pop r2
 10776 4c06 0895      		ret
 10777               	.LFE154:
 10779               	.global	main
 10781               	main:
 10782               	.LFB155:
 10783               	.LM1370:
 10784               	/* prologue: function */
 10785               	/* frame size = 0 */
 10786               	.LBB753:
 10787               	.LBB754:
 10788               	.LBB755:
 10789               	.LM1371:
 10790 4c08 E0E0      		ldi r30,lo8(_ZL19HostRXSerial_Buffer)
 10791 4c0a F0E0      		ldi r31,hi8(_ZL19HostRXSerial_Buffer)
 10792               	.LVL409:
 10793               	.LBB756:
 10794               	.LBB757:
 10795               	.LM1372:
 10796               	.LM1373:
 10797 4c0c 2FB7      		in r18,__SREG__
 10798               	.LVL410:
 10799               	.LBE757:
 10800               	.LBE756:
 10801               	.LBB758:
 10802               	.LBB759:
 10803               	.LM1374:
 10804               	.LM1375:
 10805               	/* #APP */
 10806               	 ;  370 "./LUFA/Drivers/USB/../../Common/Common.h" 1
 10807 4c0e F894      		cli
 10808               	 ;  0 "" 2
 10809               	.LM1376:
 10810               	/* #NOAPP */
 10811               	.LBE759:
 10812               	.LBE758:
 10813               	.LM1377:
 10814 4c10 80E0      		ldi r24,lo8(_ZL24HostRXSerial_Buffer_Data)
 10815 4c12 90E0      		ldi r25,hi8(_ZL24HostRXSerial_Buffer_Data)
 10816 4c14 9183      		std Z+1,r25
 10817 4c16 8083      		st Z,r24
 10818               	.LM1378:
 10819 4c18 9383      		std Z+3,r25
 10820 4c1a 8283      		std Z+2,r24
 10821               	.LM1379:
 10822 4c1c 9583      		std Z+5,r25
 10823 4c1e 8483      		std Z+4,r24
 10824               	.LM1380:
 10825 4c20 80E0      		ldi r24,lo8(_ZL24HostRXSerial_Buffer_Data+128)
 10826 4c22 90E0      		ldi r25,hi8(_ZL24HostRXSerial_Buffer_Data+128)
 10827 4c24 9783      		std Z+7,r25
 10828 4c26 8683      		std Z+6,r24
 10829               	.LM1381:
 10830 4c28 80E8      		ldi r24,lo8(-128)
 10831 4c2a 8087      		std Z+8,r24
 10832               	.LM1382:
 10833 4c2c 1286      		std Z+10,__zero_reg__
 10834 4c2e 1186      		std Z+9,__zero_reg__
 10835               	.LBB760:
 10836               	.LBB761:
 10837               	.LM1383:
 10838               	.LM1384:
 10839 4c30 2FBF      		out __SREG__,r18
 10840               	.LM1385:
 10841               	.LBE761:
 10842               	.LBE760:
 10843               	.LBE755:
 10844               	.LBE754:
 10845               	.LBE753:
 10846               	.LBB762:
 10847               	.LBB763:
 10848               	.LBB764:
 10849               	.LM1386:
 10850 4c32 E0E0      		ldi r30,lo8(_ZL19HostTXSerial_Buffer)
 10851 4c34 F0E0      		ldi r31,hi8(_ZL19HostTXSerial_Buffer)
 10852               	.LVL411:
 10853               	.LBB765:
 10854               	.LBB766:
 10855               	.LM1387:
 10856               	.LM1388:
 10857 4c36 2FB7      		in r18,__SREG__
 10858               	.LVL412:
 10859               	.LBE766:
 10860               	.LBE765:
 10861               	.LBB767:
 10862               	.LBB768:
 10863               	.LM1389:
 10864               	.LM1390:
 10865               	/* #APP */
 10866               	 ;  370 "./LUFA/Drivers/USB/../../Common/Common.h" 1
 10867 4c38 F894      		cli
 10868               	 ;  0 "" 2
 10869               	.LM1391:
 10870               	/* #NOAPP */
 10871               	.LBE768:
 10872               	.LBE767:
 10873               	.LM1392:
 10874 4c3a 80E0      		ldi r24,lo8(_ZL24HostTXSerial_Buffer_Data)
 10875 4c3c 90E0      		ldi r25,hi8(_ZL24HostTXSerial_Buffer_Data)
 10876 4c3e 9183      		std Z+1,r25
 10877 4c40 8083      		st Z,r24
 10878               	.LM1393:
 10879 4c42 9383      		std Z+3,r25
 10880 4c44 8283      		std Z+2,r24
 10881               	.LM1394:
 10882 4c46 9583      		std Z+5,r25
 10883 4c48 8483      		std Z+4,r24
 10884               	.LM1395:
 10885 4c4a 80E0      		ldi r24,lo8(_ZL24HostTXSerial_Buffer_Data+128)
 10886 4c4c 90E0      		ldi r25,hi8(_ZL24HostTXSerial_Buffer_Data+128)
 10887 4c4e 9783      		std Z+7,r25
 10888 4c50 8683      		std Z+6,r24
 10889               	.LM1396:
 10890 4c52 80E8      		ldi r24,lo8(-128)
 10891 4c54 8087      		std Z+8,r24
 10892               	.LM1397:
 10893 4c56 1286      		std Z+10,__zero_reg__
 10894 4c58 1186      		std Z+9,__zero_reg__
 10895               	.LBB769:
 10896               	.LBB770:
 10897               	.LM1398:
 10898               	.LM1399:
 10899 4c5a 2FBF      		out __SREG__,r18
 10900               	.LM1400:
 10901               	.LBE770:
 10902               	.LBE769:
 10903               	.LBE764:
 10904               	.LBE763:
 10905               	.LBE762:
 10906               	.LM1401:
 10907 4c5c 0E94 0000 		call SetupHardware
 10908               	.LVL413:
 10909               	.LM1402:
 10910 4c60 0E94 0000 		call init
 10911               	.LM1403:
 10912 4c64 0E94 0000 		call setup
 10913               	.L527:
 10914               	.LM1404:
 10915 4c68 0E94 0000 		call loop
 10916               	.LM1405:
 10917 4c6c 8091 0000 		lds r24,_ZL10CDCTaskRun
 10918 4c70 8823      		tst r24
 10919 4c72 01F4      		brne .L523
 10920 4c74 0E94 0000 		call CDC_Task
 10921 4c78 00C0      		rjmp .L524
 10922               	.L523:
 10923 4c7a 1092 0000 		sts _ZL10CDCTaskRun,__zero_reg__
 10924               	.L524:
 10925               	.LM1406:
 10926 4c7e 8091 0000 		lds r24,_ZL10HIDTaskRun
 10927 4c82 8823      		tst r24
 10928 4c84 01F4      		brne .L525
 10929 4c86 0E94 0000 		call HID_Task
 10930 4c8a 00C0      		rjmp .L526
 10931               	.L525:
 10932 4c8c 1092 0000 		sts _ZL10HIDTaskRun,__zero_reg__
 10933               	.L526:
 10934               	.LM1407:
 10935 4c90 0E94 0000 		call USB_USBTask
 10936 4c94 00C0      		rjmp .L527
 10937               	.LFE155:
 10939               		.data
 10940               	.LC25:
 10941 01b9 746F 7563 		.string	"touchset mouseclick "
 10941      6873 6574 
 10941      206D 6F75 
 10941      7365 636C 
 10941      6963 6B20 
 10942               		.text
 10943               	.global	_Z10mouseclicki
 10945               	_Z10mouseclicki:
 10946               	.LFB136:
 10947               	.LM1408:
 10948               	.LVL414:
 10949 4c96 EF92      		push r14
 10950 4c98 FF92      		push r15
 10951 4c9a 0F93      		push r16
 10952 4c9c 1F93      		push r17
 10953               	/* prologue: function */
 10954               	/* frame size = 0 */
 10955 4c9e 7C01      		movw r14,r24
 10956               	.LM1409:
 10957 4ca0 00E0      		ldi r16,lo8(Serial)
 10958 4ca2 10E0      		ldi r17,hi8(Serial)
 10959 4ca4 C801      		movw r24,r16
 10960               	.LVL415:
 10961 4ca6 60E0      		ldi r22,lo8(.LC25)
 10962 4ca8 70E0      		ldi r23,hi8(.LC25)
 10963 4caa 0E94 0000 		call _ZN16USBVirtualSerial5printEPKc
 10964               	.LM1410:
 10965 4cae C801      		movw r24,r16
 10966 4cb0 B701      		movw r22,r14
 10967 4cb2 0E94 0000 		call _ZN16USBVirtualSerial7printlnEi
 10968               	.LM1411:
 10969 4cb6 C701      		movw r24,r14
 10970 4cb8 0E94 0000 		call _Z9mousedowni
 10971               	.LM1412:
 10972 4cbc 65E0      		ldi r22,lo8(5)
 10973 4cbe 70E0      		ldi r23,hi8(5)
 10974 4cc0 80E0      		ldi r24,hlo8(5)
 10975 4cc2 90E0      		ldi r25,hhi8(5)
 10976 4cc4 0E94 0000 		call delay
 10977               	.LM1413:
 10978 4cc8 C701      		movw r24,r14
 10979 4cca 0E94 0000 		call _Z7mouseupi
 10980               	/* epilogue start */
 10981               	.LM1414:
 10982 4cce 1F91      		pop r17
 10983 4cd0 0F91      		pop r16
 10984 4cd2 FF90      		pop r15
 10985 4cd4 EF90      		pop r14
 10986               	.LVL416:
 10987 4cd6 0895      		ret
 10988               	.LFE136:
 10990               	.global	HIDReportInData
 10991               	.global	HIDReportInData
 10992               		.section .bss
 10995               	HIDReportInData:
 10996 0000 0000 0000 		.skip 9,0
 10996      0000 0000 
 10996      00
 10997               	.global	HIDReportOutData
 10998               	.global	HIDReportOutData
 11001               	HIDReportOutData:
 11002 0009 0000 0000 		.skip 9,0
 11002      0000 0000 
 11002      00
 11003               	.global	ide_workaround
 11004               	.global	ide_workaround
 11007               	ide_workaround:
 11008 0012 00        		.skip 1,0
 11009               	.global	pins
 11010               		.data
 11013               	pins:
 11014 01ce 0400      		.word	4
 11015 01d0 0500      		.word	5
 11016 01d2 0700      		.word	7
 11017 01d4 0800      		.word	8
 11018 01d6 0900      		.word	9
 11019 01d8 0A00      		.word	10
 11020 01da 0B00      		.word	11
 11021 01dc 0C00      		.word	12
 11022 01de 0D00      		.word	13
 11023 01e0 0E00      		.word	14
 11024 01e2 0F00      		.word	15
 11025 01e4 1000      		.word	16
 11026 01e6 1100      		.word	17
 11027 01e8 1200      		.word	18
 11028 01ea 1300      		.word	19
 11029 01ec 1400      		.word	20
 11030 01ee 1500      		.word	21
 11031 01f0 1600      		.word	22
 11032 01f2 1700      		.word	23
 11033 01f4 1800      		.word	24
 11034 01f6 1900      		.word	25
 11035 01f8 1A00      		.word	26
 11036 01fa 1B00      		.word	27
 11037 01fc 1C00      		.word	28
 11038 01fe 1D00      		.word	29
 11039 0200 1E00      		.word	30
 11040 0202 1F00      		.word	31
 11041 0204 2000      		.word	32
 11042 0206 2100      		.word	33
 11043 0208 2200      		.word	34
 11044 020a 2300      		.word	35
 11045 020c 2600      		.word	38
 11046 020e 2700      		.word	39
 11047 0210 2800      		.word	40
 11048               	.global	combinations
 11051               	combinations:
 11052 0212 1E00      		.word	30
 11053 0214 2700      		.word	39
 11054 0216 1D00      		.word	29
 11055 0218 2700      		.word	39
 11056 021a 0E00      		.word	14
 11057 021c 2800      		.word	40
 11058 021e 0E00      		.word	14
 11059 0220 1D00      		.word	29
 11060 0222 0F00      		.word	15
 11061 0224 1D00      		.word	29
 11062 0226 1000      		.word	16
 11063 0228 1D00      		.word	29
 11064 022a 0C00      		.word	12
 11065 022c 1D00      		.word	29
 11066 022e 1A00      		.word	26
 11067 0230 1D00      		.word	29
 11068 0232 1B00      		.word	27
 11069 0234 1D00      		.word	29
 11070 0236 1C00      		.word	28
 11071 0238 1D00      		.word	29
 11072 023a 1E00      		.word	30
 11073 023c 2600      		.word	38
 11074 023e 1D00      		.word	29
 11075 0240 2600      		.word	38
 11076 0242 0B00      		.word	11
 11077 0244 2800      		.word	40
 11078 0246 0B00      		.word	11
 11079 0248 1D00      		.word	29
 11080 024a 0D00      		.word	13
 11081 024c 1D00      		.word	29
 11082 024e 1700      		.word	23
 11083 0250 1D00      		.word	29
 11084 0252 1800      		.word	24
 11085 0254 1D00      		.word	29
 11086 0256 1900      		.word	25
 11087 0258 1D00      		.word	29
 11088 025a 0B00      		.word	11
 11089 025c 2700      		.word	39
 11090 025e 1E00      		.word	30
 11091 0260 2300      		.word	35
 11092 0262 1D00      		.word	29
 11093 0264 2300      		.word	35
 11094 0266 0800      		.word	8
 11095 0268 2800      		.word	40
 11096 026a 0800      		.word	8
 11097 026c 1D00      		.word	29
 11098 026e 0900      		.word	9
 11099 0270 1D00      		.word	29
 11100 0272 0A00      		.word	10
 11101 0274 1D00      		.word	29
 11102 0276 1400      		.word	20
 11103 0278 1E00      		.word	30
 11104 027a 1400      		.word	20
 11105 027c 1D00      		.word	29
 11106 027e 1500      		.word	21
 11107 0280 1E00      		.word	30
 11108 0282 1500      		.word	21
 11109 0284 1D00      		.word	29
 11110 0286 1600      		.word	22
 11111 0288 1E00      		.word	30
 11112 028a 1600      		.word	22
 11113 028c 1D00      		.word	29
 11114 028e 0800      		.word	8
 11115 0290 2200      		.word	34
 11116 0292 0800      		.word	8
 11117 0294 2600      		.word	38
 11118 0296 0800      		.word	8
 11119 0298 2700      		.word	39
 11120 029a 0800      		.word	8
 11121 029c 1100      		.word	17
 11122 029e 1E00      		.word	30
 11123 02a0 2200      		.word	34
 11124 02a2 1D00      		.word	29
 11125 02a4 2200      		.word	34
 11126 02a6 0400      		.word	4
 11127 02a8 2800      		.word	40
 11128 02aa 1100      		.word	17
 11129 02ac 1D00      		.word	29
 11130 02ae 0400      		.word	4
 11131 02b0 1D00      		.word	29
 11132 02b2 0500      		.word	5
 11133 02b4 1D00      		.word	29
 11134 02b6 0700      		.word	7
 11135 02b8 1D00      		.word	29
 11136 02ba 1100      		.word	17
 11137 02bc 1E00      		.word	30
 11138 02be 1200      		.word	18
 11139 02c0 1E00      		.word	30
 11140 02c2 1200      		.word	18
 11141 02c4 1D00      		.word	29
 11142 02c6 1300      		.word	19
 11143 02c8 1E00      		.word	30
 11144 02ca 1300      		.word	19
 11145 02cc 1D00      		.word	29
 11146 02ce 0400      		.word	4
 11147 02d0 2100      		.word	33
 11148 02d2 0400      		.word	4
 11149 02d4 2000      		.word	32
 11150 02d6 0400      		.word	4
 11151 02d8 1F00      		.word	31
 11152 02da 0800      		.word	8
 11153 02dc 2100      		.word	33
 11154 02de 0800      		.word	8
 11155 02e0 2000      		.word	32
 11156 02e2 0800      		.word	8
 11157 02e4 1F00      		.word	31
 11158 02e6 0B00      		.word	11
 11159 02e8 2100      		.word	33
 11160 02ea 0B00      		.word	11
 11161 02ec 2000      		.word	32
 11162 02ee 0B00      		.word	11
 11163 02f0 1F00      		.word	31
 11164 02f2 0E00      		.word	14
 11165 02f4 2100      		.word	33
 11166 02f6 0E00      		.word	14
 11167 02f8 2000      		.word	32
 11168 02fa 0E00      		.word	14
 11169 02fc 1F00      		.word	31
 11170 02fe 1D00      		.word	29
 11171 0300 1F00      		.word	31
 11172               	.global	counter
 11173               	.global	counter
 11174               		.section .bss
 11177               	counter:
 11178 0013 0000      		.skip 2,0
 11179               	.global	ticks
 11180               	.global	ticks
 11183               	ticks:
 11184 0015 0000      		.skip 2,0
 11185               	.global	t
 11186               	.global	t
 11189               	t:
 11190 0017 0000 0000 		.skip 4,0
 11191               	.global	i
 11192               	.global	i
 11195               	i:
 11196 001b 0000 0000 		.skip 4,0
 11197               	.global	moveMouse
 11198               	.global	moveMouse
 11201               	moveMouse:
 11202 001f 00        		.skip 1,0
 11203               	.global	scrollMouse
 11204               	.global	scrollMouse
 11207               	scrollMouse:
 11208 0020 00        		.skip 1,0
 11209               	.global	mx
 11210               	.global	mx
 11213               	mx:
 11214 0021 0000      		.skip 2,0
 11215               	.global	my
 11216               	.global	my
 11219               	my:
 11220 0023 0000      		.skip 2,0
 11221               	.global	mz
 11222               	.global	mz
 11225               	mz:
 11226 0025 0000      		.skip 2,0
 11227               	.global	sy
 11228               	.global	sy
 11231               	sy:
 11232 0027 0000      		.skip 2,0
 11233               	.global	mx0
 11234               	.global	mx0
 11237               	mx0:
 11238 0029 0000      		.skip 2,0
 11239               	.global	my0
 11240               	.global	my0
 11243               	my0:
 11244 002b 0000      		.skip 2,0
 11245               	.global	mz0
 11246               	.global	mz0
 11249               	mz0:
 11250 002d 0000      		.skip 2,0
 11251               	.global	sy0
 11252               	.global	sy0
 11255               	sy0:
 11256 002f 0000      		.skip 2,0
 11257               	.global	mdx
 11258               	.global	mdx
 11261               	mdx:
 11262 0031 0000      		.skip 2,0
 11263               	.global	mdy
 11264               	.global	mdy
 11267               	mdy:
 11268 0033 0000      		.skip 2,0
 11269               	.global	mdz
 11270               	.global	mdz
 11273               	mdz:
 11274 0035 0000      		.skip 2,0
 11275               	.global	sdy
 11276               	.global	sdy
 11279               	sdy:
 11280 0037 0000      		.skip 2,0
 11281               	.global	opt_touch_detect_threshold
 11282               		.data
 11285               	opt_touch_detect_threshold:
 11286 0302 1400      		.word	20
 11287               	.global	opt_enable_calibration
 11288               	.global	opt_enable_calibration
 11289               		.section .bss
 11292               	opt_enable_calibration:
 11293 0039 0000      		.skip 2,0
 11294               	.global	opt_accel_offset
 11295               		.data
 11298               	opt_accel_offset:
 11299 0304 0700      		.word	7
 11300 0306 F0FF      		.word	-16
 11301 0308 0100      		.word	1
 11302               	.global	opt_accel_calibrate
 11305               	opt_accel_calibrate:
 11306 030a 00        		.byte	0
 11307 030b 00        		.byte	0
 11308 030c 80        		.byte	-128
 11309 030d 3F        		.byte	63
 11310 030e 00        		.byte	0
 11311 030f 00        		.byte	0
 11312 0310 80        		.byte	-128
 11313 0311 3F        		.byte	63
 11314 0312 00        		.byte	0
 11315 0313 00        		.byte	0
 11316 0314 80        		.byte	-128
 11317 0315 3F        		.byte	63
 11318               	.global	opt_gyro_offset
 11319               	.global	opt_gyro_offset
 11320               		.section .bss
 11323               	opt_gyro_offset:
 11324 003b 0000 0000 		.skip 6,0
 11324      0000 
 11325               	.global	opt_gyro_calibrate
 11326               		.data
 11329               	opt_gyro_calibrate:
 11330 0316 00        		.byte	0
 11331 0317 00        		.byte	0
 11332 0318 80        		.byte	-128
 11333 0319 3F        		.byte	63
 11334 031a 00        		.byte	0
 11335 031b 00        		.byte	0
 11336 031c 80        		.byte	-128
 11337 031d 3F        		.byte	63
 11338 031e 00        		.byte	0
 11339 031f 00        		.byte	0
 11340 0320 80        		.byte	-128
 11341 0321 3F        		.byte	63
 11342               	.global	opt_motion_sampling_div
 11345               	opt_motion_sampling_div:
 11346 0322 0C00      		.word	12
 11347               	.global	opt_accel_kalman_constant
 11350               	opt_accel_kalman_constant:
 11351 0324 9A        		.byte	-102
 11352 0325 99        		.byte	-103
 11353 0326 19        		.byte	25
 11354 0327 3F        		.byte	63
 11355               	.global	opt_gyro_kalman_constant
 11358               	opt_gyro_kalman_constant:
 11359 0328 9A        		.byte	-102
 11360 0329 99        		.byte	-103
 11361 032a 99        		.byte	-103
 11362 032b 3E        		.byte	62
 11363               	.global	opt_accel_smooth_average
 11366               	opt_accel_smooth_average:
 11367 032c 04        		.byte	4
 11368               	.global	opt_gyro_smooth_average
 11369               	.global	opt_gyro_smooth_average
 11370               		.section .bss
 11373               	opt_gyro_smooth_average:
 11374 0041 00        		.skip 1,0
 11375               	.global	opt_accel_rot90
 11376               	.global	opt_accel_rot90
 11379               	opt_accel_rot90:
 11380 0042 00        		.skip 1,0
 11381               	.global	opt_gyro_rot90
 11382               		.data
 11385               	opt_gyro_rot90:
 11386 032d 04        		.byte	4
 11387               	.global	opt_mouse_invert_x
 11390               	opt_mouse_invert_x:
 11391 032e 01        		.byte	1
 11392               	.global	opt_mouse_invert_y
 11395               	opt_mouse_invert_y:
 11396 032f 01        		.byte	1
 11397               	.global	opt_mouse_invert_z
 11398               	.global	opt_mouse_invert_z
 11399               		.section .bss
 11402               	opt_mouse_invert_z:
 11403 0043 00        		.skip 1,0
 11404               	.global	opt_mouse_mode
 11405               	.global	opt_mouse_mode
 11408               	opt_mouse_mode:
 11409 0044 00        		.skip 1,0
 11410               	.global	opt_scroll_mode
 11411               	.global	opt_scroll_mode
 11414               	opt_scroll_mode:
 11415 0045 00        		.skip 1,0
 11416               	.global	opt_mouse_scale_mode1
 11417               		.data
 11420               	opt_mouse_scale_mode1:
 11421 0330 00        		.byte	0
 11422 0331 00        		.byte	0
 11423 0332 80        		.byte	-128
 11424 0333 3F        		.byte	63
 11425 0334 00        		.byte	0
 11426 0335 00        		.byte	0
 11427 0336 80        		.byte	-128
 11428 0337 3F        		.byte	63
 11429               	.global	opt_mouse_scale_mode2
 11432               	opt_mouse_scale_mode2:
 11433 0338 00        		.byte	0
 11434 0339 00        		.byte	0
 11435 033a 80        		.byte	-128
 11436 033b 3F        		.byte	63
 11437 033c 00        		.byte	0
 11438 033d 00        		.byte	0
 11439 033e 80        		.byte	-128
 11440 033f 3F        		.byte	63
 11441               	.global	opt_mouse_scale_mode3
 11444               	opt_mouse_scale_mode3:
 11445 0340 00        		.byte	0
 11446 0341 00        		.byte	0
 11447 0342 80        		.byte	-128
 11448 0343 3F        		.byte	63
 11449 0344 00        		.byte	0
 11450 0345 00        		.byte	0
 11451 0346 80        		.byte	-128
 11452 0347 3F        		.byte	63
 11453               	.global	opt_mouse_scale_mode4
 11456               	opt_mouse_scale_mode4:
 11457 0348 00        		.byte	0
 11458 0349 00        		.byte	0
 11459 034a 80        		.byte	-128
 11460 034b 3F        		.byte	63
 11461 034c 00        		.byte	0
 11462 034d 00        		.byte	0
 11463 034e 80        		.byte	-128
 11464 034f 3F        		.byte	63
 11465 0350 00        		.byte	0
 11466 0351 00        		.byte	0
 11467 0352 80        		.byte	-128
 11468 0353 3F        		.byte	63
 11469               	.global	accel
 11470               	.global	accel
 11471               		.section .bss
 11474               	accel:
 11475 0046 0000 0000 		.skip 6,0
 11475      0000 
 11476               	.global	accelMicros
 11477               	.global	accelMicros
 11480               	accelMicros:
 11481 004c 0000 0000 		.skip 4,0
 11482               	.global	accelDiff
 11483               	.global	accelDiff
 11486               	accelDiff:
 11487 0050 0000 0000 		.skip 4,0
 11488               	.global	accelTick
 11489               	.global	accelTick
 11492               	accelTick:
 11493 0054 0000      		.skip 2,0
 11494               	.global	xRaw
 11495               	.global	xRaw
 11498               	xRaw:
 11499 0056 0000      		.skip 2,0
 11500               	.global	yRaw
 11501               	.global	yRaw
 11504               	yRaw:
 11505 0058 0000      		.skip 2,0
 11506               	.global	zRaw
 11507               	.global	zRaw
 11510               	zRaw:
 11511 005a 0000      		.skip 2,0
 11512               	.global	x
 11513               	.global	x
 11516               	x:
 11517 005c 0000      		.skip 2,0
 11518               	.global	y
 11519               	.global	y
 11522               	y:
 11523 005e 0000      		.skip 2,0
 11524               	.global	z
 11525               	.global	z
 11528               	z:
 11529 0060 0000      		.skip 2,0
 11530               	.global	x0
 11531               	.global	x0
 11534               	x0:
 11535 0062 0000      		.skip 2,0
 11536               	.global	y0
 11537               	.global	y0
 11540               	y0:
 11541 0064 0000      		.skip 2,0
 11542               	.global	z0
 11543               	.global	z0
 11546               	z0:
 11547 0066 0000      		.skip 2,0
 11548               	.global	x00
 11549               	.global	x00
 11552               	x00:
 11553 0068 0000      		.skip 2,0
 11554               	.global	y00
 11555               	.global	y00
 11558               	y00:
 11559 006a 0000      		.skip 2,0
 11560               	.global	z00
 11561               	.global	z00
 11564               	z00:
 11565 006c 0000      		.skip 2,0
 11566               	.global	xv
 11567               	.global	xv
 11570               	xv:
 11571 006e 0000      		.skip 2,0
 11572               	.global	yv
 11573               	.global	yv
 11576               	yv:
 11577 0070 0000      		.skip 2,0
 11578               	.global	zv
 11579               	.global	zv
 11582               	zv:
 11583 0072 0000      		.skip 2,0
 11584               	.global	cx
 11585               	.global	cx
 11588               	cx:
 11589 0074 0000 0000 		.skip 4,0
 11590               	.global	cy
 11591               	.global	cy
 11594               	cy:
 11595 0078 0000 0000 		.skip 4,0
 11596               	.global	cz
 11597               	.global	cz
 11600               	cz:
 11601 007c 0000 0000 		.skip 4,0
 11602               	.global	xBase
 11603               	.global	xBase
 11606               	xBase:
 11607 0080 0000      		.skip 2,0
 11608               	.global	yBase
 11609               	.global	yBase
 11612               	yBase:
 11613 0082 0000      		.skip 2,0
 11614               	.global	zBase
 11615               	.global	zBase
 11618               	zBase:
 11619 0084 0000      		.skip 2,0
 11620               	.global	xHist
 11621               	.global	xHist
 11624               	xHist:
 11625 0086 0000 0000 		.skip 40,0
 11625      0000 0000 
 11625      0000 0000 
 11625      0000 0000 
 11625      0000 0000 
 11626               	.global	yHist
 11627               	.global	yHist
 11630               	yHist:
 11631 00ae 0000 0000 		.skip 40,0
 11631      0000 0000 
 11631      0000 0000 
 11631      0000 0000 
 11631      0000 0000 
 11632               	.global	zHist
 11633               	.global	zHist
 11636               	zHist:
 11637 00d6 0000 0000 		.skip 40,0
 11637      0000 0000 
 11637      0000 0000 
 11637      0000 0000 
 11637      0000 0000 
 11638               	.global	xMin
 11639               	.global	xMin
 11642               	xMin:
 11643 00fe 0000      		.skip 2,0
 11644               	.global	yMin
 11645               	.global	yMin
 11648               	yMin:
 11649 0100 0000      		.skip 2,0
 11650               	.global	zMin
 11651               	.global	zMin
 11654               	zMin:
 11655 0102 0000      		.skip 2,0
 11656               	.global	xMax
 11657               	.global	xMax
 11660               	xMax:
 11661 0104 0000      		.skip 2,0
 11662               	.global	yMax
 11663               	.global	yMax
 11666               	yMax:
 11667 0106 0000      		.skip 2,0
 11668               	.global	zMax
 11669               	.global	zMax
 11672               	zMax:
 11673 0108 0000      		.skip 2,0
 11674               	.global	ax
 11675               	.global	ax
 11678               	ax:
 11679 010a 0000      		.skip 2,0
 11680               	.global	ay
 11681               	.global	ay
 11684               	ay:
 11685 010c 0000      		.skip 2,0
 11686               	.global	az
 11687               	.global	az
 11690               	az:
 11691 010e 0000      		.skip 2,0
 11692               	.global	ax0
 11693               	.global	ax0
 11696               	ax0:
 11697 0110 0000      		.skip 2,0
 11698               	.global	ay0
 11699               	.global	ay0
 11702               	ay0:
 11703 0112 0000      		.skip 2,0
 11704               	.global	az0
 11705               	.global	az0
 11708               	az0:
 11709 0114 0000      		.skip 2,0
 11710               	.global	ax00
 11711               	.global	ax00
 11714               	ax00:
 11715 0116 0000      		.skip 2,0
 11716               	.global	ay00
 11717               	.global	ay00
 11720               	ay00:
 11721 0118 0000      		.skip 2,0
 11722               	.global	az00
 11723               	.global	az00
 11726               	az00:
 11727 011a 0000      		.skip 2,0
 11728               	.global	axBase
 11729               	.global	axBase
 11732               	axBase:
 11733 011c 0000      		.skip 2,0
 11734               	.global	ayBase
 11735               	.global	ayBase
 11738               	ayBase:
 11739 011e 0000      		.skip 2,0
 11740               	.global	azBase
 11741               	.global	azBase
 11744               	azBase:
 11745 0120 0000      		.skip 2,0
 11746               	.global	aset
 11747               	.global	aset
 11750               	aset:
 11751 0122 00        		.skip 1,0
 11752               	.global	calAccel
 11753               	.global	calAccel
 11756               	calAccel:
 11757 0123 0000      		.skip 2,0
 11758               	.global	accelCalibrated
 11759               	.global	accelCalibrated
 11762               	accelCalibrated:
 11763 0125 00        		.skip 1,0
 11764               	.global	gyro
 11765               	.global	gyro
 11768               	gyro:
 11769 0126 0000 0000 		.skip 25,0
 11769      0000 0000 
 11769      0000 0000 
 11769      0000 0000 
 11769      0000 0000 
 11770               	.global	gyroMicros
 11771               	.global	gyroMicros
 11774               	gyroMicros:
 11775 013f 0000 0000 		.skip 4,0
 11776               	.global	gyroDiff
 11777               	.global	gyroDiff
 11780               	gyroDiff:
 11781 0143 0000 0000 		.skip 4,0
 11782               	.global	gyroTick
 11783               	.global	gyroTick
 11786               	gyroTick:
 11787 0147 0000      		.skip 2,0
 11788               	.global	gxRaw
 11789               	.global	gxRaw
 11792               	gxRaw:
 11793 0149 0000      		.skip 2,0
 11794               	.global	gyRaw
 11795               	.global	gyRaw
 11798               	gyRaw:
 11799 014b 0000      		.skip 2,0
 11800               	.global	gzRaw
 11801               	.global	gzRaw
 11804               	gzRaw:
 11805 014d 0000      		.skip 2,0
 11806               	.global	gx
 11807               	.global	gx
 11810               	gx:
 11811 014f 0000      		.skip 2,0
 11812               	.global	gy
 11813               	.global	gy
 11816               	gy:
 11817 0151 0000      		.skip 2,0
 11818               	.global	gz
 11819               	.global	gz
 11822               	gz:
 11823 0153 0000      		.skip 2,0
 11824               	.global	gx0
 11825               	.global	gx0
 11828               	gx0:
 11829 0155 0000      		.skip 2,0
 11830               	.global	gy0
 11831               	.global	gy0
 11834               	gy0:
 11835 0157 0000      		.skip 2,0
 11836               	.global	gz0
 11837               	.global	gz0
 11840               	gz0:
 11841 0159 0000      		.skip 2,0
 11842               	.global	gx00
 11843               	.global	gx00
 11846               	gx00:
 11847 015b 0000      		.skip 2,0
 11848               	.global	gy00
 11849               	.global	gy00
 11852               	gy00:
 11853 015d 0000      		.skip 2,0
 11854               	.global	gz00
 11855               	.global	gz00
 11858               	gz00:
 11859 015f 0000      		.skip 2,0
 11860               	.global	cgx
 11861               	.global	cgx
 11864               	cgx:
 11865 0161 0000 0000 		.skip 4,0
 11866               	.global	cgy
 11867               	.global	cgy
 11870               	cgy:
 11871 0165 0000 0000 		.skip 4,0
 11872               	.global	cgz
 11873               	.global	cgz
 11876               	cgz:
 11877 0169 0000 0000 		.skip 4,0
 11878               	.global	gxBase
 11879               	.global	gxBase
 11882               	gxBase:
 11883 016d 0000      		.skip 2,0
 11884               	.global	gyBase
 11885               	.global	gyBase
 11888               	gyBase:
 11889 016f 0000      		.skip 2,0
 11890               	.global	gzBase
 11891               	.global	gzBase
 11894               	gzBase:
 11895 0171 0000      		.skip 2,0
 11896               	.global	gxHist
 11897               	.global	gxHist
 11900               	gxHist:
 11901 0173 0000 0000 		.skip 40,0
 11901      0000 0000 
 11901      0000 0000 
 11901      0000 0000 
 11901      0000 0000 
 11902               	.global	gyHist
 11903               	.global	gyHist
 11906               	gyHist:
 11907 019b 0000 0000 		.skip 40,0
 11907      0000 0000 
 11907      0000 0000 
 11907      0000 0000 
 11907      0000 0000 
 11908               	.global	gzHist
 11909               	.global	gzHist
 11912               	gzHist:
 11913 01c3 0000 0000 		.skip 40,0
 11913      0000 0000 
 11913      0000 0000 
 11913      0000 0000 
 11913      0000 0000 
 11914               	.global	gxMin
 11915               	.global	gxMin
 11918               	gxMin:
 11919 01eb 0000      		.skip 2,0
 11920               	.global	gyMin
 11921               	.global	gyMin
 11924               	gyMin:
 11925 01ed 0000      		.skip 2,0
 11926               	.global	gzMin
 11927               	.global	gzMin
 11930               	gzMin:
 11931 01ef 0000      		.skip 2,0
 11932               	.global	gxMax
 11933               	.global	gxMax
 11936               	gxMax:
 11937 01f1 0000      		.skip 2,0
 11938               	.global	gyMax
 11939               	.global	gyMax
 11942               	gyMax:
 11943 01f3 0000      		.skip 2,0
 11944               	.global	gzMax
 11945               	.global	gzMax
 11948               	gzMax:
 11949 01f5 0000      		.skip 2,0
 11950               	.global	gset
 11951               	.global	gset
 11954               	gset:
 11955 01f7 00        		.skip 1,0
 11956               	.global	calGyro
 11957               	.global	calGyro
 11960               	calGyro:
 11961 01f8 0000      		.skip 2,0
 11962               	.global	gyroCalibrated
 11963               	.global	gyroCalibrated
 11966               	gyroCalibrated:
 11967 01fa 00        		.skip 1,0
 11968               	.global	tricolorBlinkRed
 11969               	.global	tricolorBlinkRed
 11972               	tricolorBlinkRed:
 11973 01fb 0000      		.skip 2,0
 11974               	.global	tricolorBlinkGreen
 11975               	.global	tricolorBlinkGreen
 11978               	tricolorBlinkGreen:
 11979 01fd 0000      		.skip 2,0
 11980               	.global	tricolorBlinkBlue
 11981               	.global	tricolorBlinkBlue
 11984               	tricolorBlinkBlue:
 11985 01ff 0000      		.skip 2,0
 11986               	.global	blink_led
 11987               	.global	blink_led
 11990               	blink_led:
 11991 0201 00        		.skip 1,0
 11992               	.global	modifiersDown
 11993               	.global	modifiersDown
 11996               	modifiersDown:
 11997 0202 0000      		.skip 2,0
 11998               	.global	keysDown
 11999               	.global	keysDown
 12002               	keysDown:
 12003 0204 0000 0000 		.skip 12,0
 12003      0000 0000 
 12003      0000 0000 
 12004               	.global	mouseDown
 12005               	.global	mouseDown
 12008               	mouseDown:
 12009 0210 0000      		.skip 2,0
 12010               	.global	modeStack
 12011               	.global	modeStack
 12014               	modeStack:
 12015 0212 0000 0000 		.skip 20,0
 12015      0000 0000 
 12015      0000 0000 
 12015      0000 0000 
 12015      0000 0000 
 12016               	.global	modeStackPos
 12017               	.global	modeStackPos
 12020               	modeStackPos:
 12021 0226 0000      		.skip 2,0
 12022               	.global	touchTime
 12023               	.global	touchTime
 12026               	touchTime:
 12027 0228 0000 0000 		.skip 4,0
 12028               	.global	adding
 12029               	.global	adding
 12032               	adding:
 12033 022c 00        		.skip 1,0
 12034               	.global	removing
 12035               	.global	removing
 12038               	removing:
 12039 022d 00        		.skip 1,0
 12040               	.global	detect1
 12041               	.global	detect1
 12044               	detect1:
 12045 022e 0000 0000 		.skip 4,0
 12046               	.global	detect2
 12047               	.global	detect2
 12050               	detect2:
 12051 0232 0000 0000 		.skip 4,0
 12052               	.global	verify1
 12053               	.global	verify1
 12056               	verify1:
 12057 0236 0000 0000 		.skip 4,0
 12058               	.global	verify2
 12059               	.global	verify2
 12062               	verify2:
 12063 023a 0000 0000 		.skip 4,0
 12064               	.global	sensors1
 12065               	.global	sensors1
 12068               	sensors1:
 12069 023e 0000 0000 		.skip 4,0
 12070               	.global	sensors2
 12071               	.global	sensors2
 12074               	sensors2:
 12075 0242 0000 0000 		.skip 4,0
 12076               	.global	mode
 12077               	.global	mode
 12080               	mode:
 12081 0246 00        		.skip 1,0
 12082               		.lcomm _ZL19HostTXSerial_Buffer,11
 12083               		.data
 12086               	_ZL16LineEncodingData:
 12087 0354 00        		.byte	0
 12088 0355 00        		.byte	0
 12089 0356 00        		.byte	0
 12090 0357 00        		.byte	0
 12091 0358 00        		.byte	0
 12092 0359 00        		.byte	0
 12093 035a 08        		.byte	8
 12094               		.lcomm _ZL19HostRXSerial_Buffer,11
 12095               		.lcomm _ZL24HostRXSerial_Buffer_Data,128
 12096               		.lcomm _ZL24HostTXSerial_Buffer_Data,128
 12097               		.lcomm _ZL10CDCTaskRun,1
 12098               		.lcomm _ZL10HIDTaskRun,1
 12435               	.Letext0:
DEFINED SYMBOLS
                            *ABS*:00000000 Keyglove.cpp
C:\Users\JEFFRO~1\AppData\Local\Temp/ccBdwlY2.s:2      *ABS*:0000003f __SREG__
C:\Users\JEFFRO~1\AppData\Local\Temp/ccBdwlY2.s:3      *ABS*:0000003e __SP_H__
C:\Users\JEFFRO~1\AppData\Local\Temp/ccBdwlY2.s:4      *ABS*:0000003d __SP_L__
C:\Users\JEFFRO~1\AppData\Local\Temp/ccBdwlY2.s:5      *ABS*:00000034 __CCP__
C:\Users\JEFFRO~1\AppData\Local\Temp/ccBdwlY2.s:6      *ABS*:00000000 __tmp_reg__
C:\Users\JEFFRO~1\AppData\Local\Temp/ccBdwlY2.s:7      *ABS*:00000001 __zero_reg__
C:\Users\JEFFRO~1\AppData\Local\Temp/ccBdwlY2.s:18     .text:00000000 _Z9modeCheckii
C:\Users\JEFFRO~1\AppData\Local\Temp/ccBdwlY2.s:12020  .bss:00000226 modeStackPos
C:\Users\JEFFRO~1\AppData\Local\Temp/ccBdwlY2.s:12014  .bss:00000212 modeStack
C:\Users\JEFFRO~1\AppData\Local\Temp/ccBdwlY2.s:59     .text:00000032 EVENT_USB_Device_Connect
C:\Users\JEFFRO~1\AppData\Local\Temp/ccBdwlY2.s:80     .text:0000003c EVENT_USB_Device_Disconnect
C:\Users\JEFFRO~1\AppData\Local\Temp/ccBdwlY2.s:101    .text:00000046 ProcessHIDReport
C:\Users\JEFFRO~1\AppData\Local\Temp/ccBdwlY2.s:114    .text:00000048 _Z25Keyboard_ProcessLEDReporth
C:\Users\JEFFRO~1\AppData\Local\Temp/ccBdwlY2.s:156    .text:00000062 _GLOBAL__I_HIDReportInData
C:\Users\JEFFRO~1\AppData\Local\Temp/ccBdwlY2.s:11474  .bss:00000046 accel
C:\Users\JEFFRO~1\AppData\Local\Temp/ccBdwlY2.s:11768  .bss:00000126 gyro
C:\Users\JEFFRO~1\AppData\Local\Temp/ccBdwlY2.s:184    .text:00000074 HID_Task
C:\Users\JEFFRO~1\AppData\Local\Temp/ccBdwlY2.s:11001  .bss:00000009 HIDReportOutData
C:\Users\JEFFRO~1\AppData\Local\Temp/ccBdwlY2.s:10995  .bss:00000000 HIDReportInData
C:\Users\JEFFRO~1\AppData\Local\Temp/ccBdwlY2.s:287    .text:000000ea CDC_Task
                             .bss:00000247 _ZL19HostTXSerial_Buffer
C:\Users\JEFFRO~1\AppData\Local\Temp/ccBdwlY2.s:12086  .data:00000354 _ZL16LineEncodingData
C:\Users\JEFFRO~1\AppData\Local\Temp/ccBdwlY2.s:12082  .bss:00000252 _ZL19HostRXSerial_Buffer
C:\Users\JEFFRO~1\AppData\Local\Temp/ccBdwlY2.s:626    .text:00000210 EVENT_USB_Device_ControlRequest
C:\Users\JEFFRO~1\AppData\Local\Temp/ccBdwlY2.s:783    .text:000002f0 EVENT_USB_Device_ConfigurationChanged
C:\Users\JEFFRO~1\AppData\Local\Temp/ccBdwlY2.s:903    .text:000003a6 SetupHardware
C:\Users\JEFFRO~1\AppData\Local\Temp/ccBdwlY2.s:954    .text:000003dc _Z8tricolorhhh
C:\Users\JEFFRO~1\AppData\Local\Temp/ccBdwlY2.s:1008   .text:00000410 _Z8mouseoffi
C:\Users\JEFFRO~1\AppData\Local\Temp/ccBdwlY2.s:11408  .bss:00000044 opt_mouse_mode
C:\Users\JEFFRO~1\AppData\Local\Temp/ccBdwlY2.s:11414  .bss:00000045 opt_scroll_mode
C:\Users\JEFFRO~1\AppData\Local\Temp/ccBdwlY2.s:1056   .text:00000444 _Z7mouseoni
C:\Users\JEFFRO~1\AppData\Local\Temp/ccBdwlY2.s:1108   .text:0000047c _Z7vibrateii
C:\Users\JEFFRO~1\AppData\Local\Temp/ccBdwlY2.s:1165   .text:000004c6 _Z7blueledii
C:\Users\JEFFRO~1\AppData\Local\Temp/ccBdwlY2.s:11984  .bss:000001ff tricolorBlinkBlue
C:\Users\JEFFRO~1\AppData\Local\Temp/ccBdwlY2.s:1272   .text:0000056c _Z8greenledii
C:\Users\JEFFRO~1\AppData\Local\Temp/ccBdwlY2.s:11978  .bss:000001fd tricolorBlinkGreen
C:\Users\JEFFRO~1\AppData\Local\Temp/ccBdwlY2.s:1378   .text:00000610 _Z6redledii
C:\Users\JEFFRO~1\AppData\Local\Temp/ccBdwlY2.s:11972  .bss:000001fb tricolorBlinkRed
C:\Users\JEFFRO~1\AppData\Local\Temp/ccBdwlY2.s:1483   .text:000006b2 _Z4beepiii
C:\Users\JEFFRO~1\AppData\Local\Temp/ccBdwlY2.s:1623   .text:0000076c _Z10modifierupi
C:\Users\JEFFRO~1\AppData\Local\Temp/ccBdwlY2.s:11996  .bss:00000202 modifiersDown
C:\Users\JEFFRO~1\AppData\Local\Temp/ccBdwlY2.s:1677   .text:000007be _Z15deactivate_modei
C:\Users\JEFFRO~1\AppData\Local\Temp/ccBdwlY2.s:1702   .text:000007cc _Z12modifierdowni
C:\Users\JEFFRO~1\AppData\Local\Temp/ccBdwlY2.s:1752   .text:0000081a _Z13activate_modei
C:\Users\JEFFRO~1\AppData\Local\Temp/ccBdwlY2.s:1912   .text:0000090e _Z7popmodev
C:\Users\JEFFRO~1\AppData\Local\Temp/ccBdwlY2.s:1973   .text:0000097c _Z8pushmodei
C:\Users\JEFFRO~1\AppData\Local\Temp/ccBdwlY2.s:2030   .text:000009ca _Z10togglemodei
C:\Users\JEFFRO~1\AppData\Local\Temp/ccBdwlY2.s:2135   .text:00000a5e _Z7setmodei
C:\Users\JEFFRO~1\AppData\Local\Temp/ccBdwlY2.s:2202   .text:00000acc setup
C:\Users\JEFFRO~1\AppData\Local\Temp/ccBdwlY2.s:11990  .bss:00000201 blink_led
C:\Users\JEFFRO~1\AppData\Local\Temp/ccBdwlY2.s:11195  .bss:0000001b i
C:\Users\JEFFRO~1\AppData\Local\Temp/ccBdwlY2.s:11013  .data:000001ce pins
C:\Users\JEFFRO~1\AppData\Local\Temp/ccBdwlY2.s:12080  .bss:00000246 mode
C:\Users\JEFFRO~1\AppData\Local\Temp/ccBdwlY2.s:11528  .bss:00000060 z
C:\Users\JEFFRO~1\AppData\Local\Temp/ccBdwlY2.s:11522  .bss:0000005e y
C:\Users\JEFFRO~1\AppData\Local\Temp/ccBdwlY2.s:11516  .bss:0000005c x
C:\Users\JEFFRO~1\AppData\Local\Temp/ccBdwlY2.s:11600  .bss:0000007c cz
C:\Users\JEFFRO~1\AppData\Local\Temp/ccBdwlY2.s:11594  .bss:00000078 cy
C:\Users\JEFFRO~1\AppData\Local\Temp/ccBdwlY2.s:11588  .bss:00000074 cx
C:\Users\JEFFRO~1\AppData\Local\Temp/ccBdwlY2.s:11690  .bss:0000010e az
C:\Users\JEFFRO~1\AppData\Local\Temp/ccBdwlY2.s:11684  .bss:0000010c ay
C:\Users\JEFFRO~1\AppData\Local\Temp/ccBdwlY2.s:11678  .bss:0000010a ax
C:\Users\JEFFRO~1\AppData\Local\Temp/ccBdwlY2.s:11480  .bss:0000004c accelMicros
C:\Users\JEFFRO~1\AppData\Local\Temp/ccBdwlY2.s:11492  .bss:00000054 accelTick
C:\Users\JEFFRO~1\AppData\Local\Temp/ccBdwlY2.s:11762  .bss:00000125 accelCalibrated
C:\Users\JEFFRO~1\AppData\Local\Temp/ccBdwlY2.s:11654  .bss:00000102 zMin
C:\Users\JEFFRO~1\AppData\Local\Temp/ccBdwlY2.s:11648  .bss:00000100 yMin
C:\Users\JEFFRO~1\AppData\Local\Temp/ccBdwlY2.s:11642  .bss:000000fe xMin
C:\Users\JEFFRO~1\AppData\Local\Temp/ccBdwlY2.s:11672  .bss:00000108 zMax
C:\Users\JEFFRO~1\AppData\Local\Temp/ccBdwlY2.s:11666  .bss:00000106 yMax
C:\Users\JEFFRO~1\AppData\Local\Temp/ccBdwlY2.s:11660  .bss:00000104 xMax
C:\Users\JEFFRO~1\AppData\Local\Temp/ccBdwlY2.s:11822  .bss:00000153 gz
C:\Users\JEFFRO~1\AppData\Local\Temp/ccBdwlY2.s:11816  .bss:00000151 gy
C:\Users\JEFFRO~1\AppData\Local\Temp/ccBdwlY2.s:11810  .bss:0000014f gx
C:\Users\JEFFRO~1\AppData\Local\Temp/ccBdwlY2.s:11774  .bss:0000013f gyroMicros
C:\Users\JEFFRO~1\AppData\Local\Temp/ccBdwlY2.s:11786  .bss:00000147 gyroTick
C:\Users\JEFFRO~1\AppData\Local\Temp/ccBdwlY2.s:11966  .bss:000001fa gyroCalibrated
C:\Users\JEFFRO~1\AppData\Local\Temp/ccBdwlY2.s:11930  .bss:000001ef gzMin
C:\Users\JEFFRO~1\AppData\Local\Temp/ccBdwlY2.s:11924  .bss:000001ed gyMin
C:\Users\JEFFRO~1\AppData\Local\Temp/ccBdwlY2.s:11918  .bss:000001eb gxMin
C:\Users\JEFFRO~1\AppData\Local\Temp/ccBdwlY2.s:11948  .bss:000001f5 gzMax
C:\Users\JEFFRO~1\AppData\Local\Temp/ccBdwlY2.s:11942  .bss:000001f3 gyMax
C:\Users\JEFFRO~1\AppData\Local\Temp/ccBdwlY2.s:11936  .bss:000001f1 gxMax
C:\Users\JEFFRO~1\AppData\Local\Temp/ccBdwlY2.s:11249  .bss:0000002d mz0
C:\Users\JEFFRO~1\AppData\Local\Temp/ccBdwlY2.s:11243  .bss:0000002b my0
C:\Users\JEFFRO~1\AppData\Local\Temp/ccBdwlY2.s:11237  .bss:00000029 mx0
C:\Users\JEFFRO~1\AppData\Local\Temp/ccBdwlY2.s:11225  .bss:00000025 mz
C:\Users\JEFFRO~1\AppData\Local\Temp/ccBdwlY2.s:11219  .bss:00000023 my
C:\Users\JEFFRO~1\AppData\Local\Temp/ccBdwlY2.s:11213  .bss:00000021 mx
C:\Users\JEFFRO~1\AppData\Local\Temp/ccBdwlY2.s:11255  .bss:0000002f sy0
C:\Users\JEFFRO~1\AppData\Local\Temp/ccBdwlY2.s:11231  .bss:00000027 sy
C:\Users\JEFFRO~1\AppData\Local\Temp/ccBdwlY2.s:11189  .bss:00000017 t
C:\Users\JEFFRO~1\AppData\Local\Temp/ccBdwlY2.s:2486   .text:00000d92 _Z13modifierpressi
C:\Users\JEFFRO~1\AppData\Local\Temp/ccBdwlY2.s:2537   .text:00000dd4 _Z14togglemodifieri
C:\Users\JEFFRO~1\AppData\Local\Temp/ccBdwlY2.s:2589   .text:00000e16 _Z5keyupi
C:\Users\JEFFRO~1\AppData\Local\Temp/ccBdwlY2.s:12002  .bss:00000204 keysDown
C:\Users\JEFFRO~1\AppData\Local\Temp/ccBdwlY2.s:2739   .text:00000ee4 _Z7keydowni
C:\Users\JEFFRO~1\AppData\Local\Temp/ccBdwlY2.s:2893   .text:00000fb4 _Z8keypressi
C:\Users\JEFFRO~1\AppData\Local\Temp/ccBdwlY2.s:2944   .text:00000ff6 _Z7mouseupi
C:\Users\JEFFRO~1\AppData\Local\Temp/ccBdwlY2.s:12008  .bss:00000210 mouseDown
C:\Users\JEFFRO~1\AppData\Local\Temp/ccBdwlY2.s:3005   .text:00001054 _Z21check_sensors_releasemmi
C:\Users\JEFFRO~1\AppData\Local\Temp/ccBdwlY2.s:7058   .text:000029dc _Z9mousedowni
C:\Users\JEFFRO~1\AppData\Local\Temp/ccBdwlY2.s:7111   .text:00002a2e _Z19check_sensors_touchmmi
C:\Users\JEFFRO~1\AppData\Local\Temp/ccBdwlY2.s:7552   .text:00002cca loop
C:\Users\JEFFRO~1\AppData\Local\Temp/ccBdwlY2.s:11201  .bss:0000001f moveMouse
C:\Users\JEFFRO~1\AppData\Local\Temp/ccBdwlY2.s:11207  .bss:00000020 scrollMouse
C:\Users\JEFFRO~1\AppData\Local\Temp/ccBdwlY2.s:11345  .data:00000322 opt_motion_sampling_div
C:\Users\JEFFRO~1\AppData\Local\Temp/ccBdwlY2.s:11177  .bss:00000013 counter
C:\Users\JEFFRO~1\AppData\Local\Temp/ccBdwlY2.s:11534  .bss:00000062 x0
C:\Users\JEFFRO~1\AppData\Local\Temp/ccBdwlY2.s:11552  .bss:00000068 x00
C:\Users\JEFFRO~1\AppData\Local\Temp/ccBdwlY2.s:11540  .bss:00000064 y0
C:\Users\JEFFRO~1\AppData\Local\Temp/ccBdwlY2.s:11558  .bss:0000006a y00
C:\Users\JEFFRO~1\AppData\Local\Temp/ccBdwlY2.s:11546  .bss:00000066 z0
C:\Users\JEFFRO~1\AppData\Local\Temp/ccBdwlY2.s:11564  .bss:0000006c z00
C:\Users\JEFFRO~1\AppData\Local\Temp/ccBdwlY2.s:11379  .bss:00000042 opt_accel_rot90
C:\Users\JEFFRO~1\AppData\Local\Temp/ccBdwlY2.s:11498  .bss:00000056 xRaw
C:\Users\JEFFRO~1\AppData\Local\Temp/ccBdwlY2.s:11504  .bss:00000058 yRaw
C:\Users\JEFFRO~1\AppData\Local\Temp/ccBdwlY2.s:11510  .bss:0000005a zRaw
C:\Users\JEFFRO~1\AppData\Local\Temp/ccBdwlY2.s:11486  .bss:00000050 accelDiff
C:\Users\JEFFRO~1\AppData\Local\Temp/ccBdwlY2.s:11298  .data:00000304 opt_accel_offset
C:\Users\JEFFRO~1\AppData\Local\Temp/ccBdwlY2.s:11305  .data:0000030a opt_accel_calibrate
C:\Users\JEFFRO~1\AppData\Local\Temp/ccBdwlY2.s:11350  .data:00000324 opt_accel_kalman_constant
C:\Users\JEFFRO~1\AppData\Local\Temp/ccBdwlY2.s:11366  .data:0000032c opt_accel_smooth_average
C:\Users\JEFFRO~1\AppData\Local\Temp/ccBdwlY2.s:11624  .bss:00000086 xHist
C:\Users\JEFFRO~1\AppData\Local\Temp/ccBdwlY2.s:11630  .bss:000000ae yHist
C:\Users\JEFFRO~1\AppData\Local\Temp/ccBdwlY2.s:11636  .bss:000000d6 zHist
C:\Users\JEFFRO~1\AppData\Local\Temp/ccBdwlY2.s:11570  .bss:0000006e xv
C:\Users\JEFFRO~1\AppData\Local\Temp/ccBdwlY2.s:11576  .bss:00000070 yv
C:\Users\JEFFRO~1\AppData\Local\Temp/ccBdwlY2.s:11582  .bss:00000072 zv
C:\Users\JEFFRO~1\AppData\Local\Temp/ccBdwlY2.s:11292  .bss:00000039 opt_enable_calibration
C:\Users\JEFFRO~1\AppData\Local\Temp/ccBdwlY2.s:11696  .bss:00000110 ax0
C:\Users\JEFFRO~1\AppData\Local\Temp/ccBdwlY2.s:11714  .bss:00000116 ax00
C:\Users\JEFFRO~1\AppData\Local\Temp/ccBdwlY2.s:11702  .bss:00000112 ay0
C:\Users\JEFFRO~1\AppData\Local\Temp/ccBdwlY2.s:11720  .bss:00000118 ay00
C:\Users\JEFFRO~1\AppData\Local\Temp/ccBdwlY2.s:11708  .bss:00000114 az0
C:\Users\JEFFRO~1\AppData\Local\Temp/ccBdwlY2.s:11726  .bss:0000011a az00
C:\Users\JEFFRO~1\AppData\Local\Temp/ccBdwlY2.s:11828  .bss:00000155 gx0
C:\Users\JEFFRO~1\AppData\Local\Temp/ccBdwlY2.s:11846  .bss:0000015b gx00
C:\Users\JEFFRO~1\AppData\Local\Temp/ccBdwlY2.s:11834  .bss:00000157 gy0
C:\Users\JEFFRO~1\AppData\Local\Temp/ccBdwlY2.s:11852  .bss:0000015d gy00
C:\Users\JEFFRO~1\AppData\Local\Temp/ccBdwlY2.s:11840  .bss:00000159 gz0
C:\Users\JEFFRO~1\AppData\Local\Temp/ccBdwlY2.s:11858  .bss:0000015f gz00
C:\Users\JEFFRO~1\AppData\Local\Temp/ccBdwlY2.s:11385  .data:0000032d opt_gyro_rot90
C:\Users\JEFFRO~1\AppData\Local\Temp/ccBdwlY2.s:11792  .bss:00000149 gxRaw
C:\Users\JEFFRO~1\AppData\Local\Temp/ccBdwlY2.s:11798  .bss:0000014b gyRaw
C:\Users\JEFFRO~1\AppData\Local\Temp/ccBdwlY2.s:11804  .bss:0000014d gzRaw
C:\Users\JEFFRO~1\AppData\Local\Temp/ccBdwlY2.s:11780  .bss:00000143 gyroDiff
C:\Users\JEFFRO~1\AppData\Local\Temp/ccBdwlY2.s:11323  .bss:0000003b opt_gyro_offset
C:\Users\JEFFRO~1\AppData\Local\Temp/ccBdwlY2.s:11329  .data:00000316 opt_gyro_calibrate
C:\Users\JEFFRO~1\AppData\Local\Temp/ccBdwlY2.s:11358  .data:00000328 opt_gyro_kalman_constant
C:\Users\JEFFRO~1\AppData\Local\Temp/ccBdwlY2.s:11373  .bss:00000041 opt_gyro_smooth_average
C:\Users\JEFFRO~1\AppData\Local\Temp/ccBdwlY2.s:11900  .bss:00000173 gxHist
C:\Users\JEFFRO~1\AppData\Local\Temp/ccBdwlY2.s:11906  .bss:0000019b gyHist
C:\Users\JEFFRO~1\AppData\Local\Temp/ccBdwlY2.s:11912  .bss:000001c3 gzHist
C:\Users\JEFFRO~1\AppData\Local\Temp/ccBdwlY2.s:11750  .bss:00000122 aset
C:\Users\JEFFRO~1\AppData\Local\Temp/ccBdwlY2.s:11732  .bss:0000011c axBase
C:\Users\JEFFRO~1\AppData\Local\Temp/ccBdwlY2.s:11420  .data:00000330 opt_mouse_scale_mode1
C:\Users\JEFFRO~1\AppData\Local\Temp/ccBdwlY2.s:11738  .bss:0000011e ayBase
C:\Users\JEFFRO~1\AppData\Local\Temp/ccBdwlY2.s:11744  .bss:00000120 azBase
C:\Users\JEFFRO~1\AppData\Local\Temp/ccBdwlY2.s:11606  .bss:00000080 xBase
C:\Users\JEFFRO~1\AppData\Local\Temp/ccBdwlY2.s:11444  .data:00000340 opt_mouse_scale_mode3
C:\Users\JEFFRO~1\AppData\Local\Temp/ccBdwlY2.s:11618  .bss:00000084 zBase
C:\Users\JEFFRO~1\AppData\Local\Temp/ccBdwlY2.s:11612  .bss:00000082 yBase
C:\Users\JEFFRO~1\AppData\Local\Temp/ccBdwlY2.s:11456  .data:00000348 opt_mouse_scale_mode4
C:\Users\JEFFRO~1\AppData\Local\Temp/ccBdwlY2.s:11261  .bss:00000031 mdx
C:\Users\JEFFRO~1\AppData\Local\Temp/ccBdwlY2.s:11267  .bss:00000033 mdy
C:\Users\JEFFRO~1\AppData\Local\Temp/ccBdwlY2.s:11273  .bss:00000035 mdz
C:\Users\JEFFRO~1\AppData\Local\Temp/ccBdwlY2.s:11390  .data:0000032e opt_mouse_invert_x
C:\Users\JEFFRO~1\AppData\Local\Temp/ccBdwlY2.s:11395  .data:0000032f opt_mouse_invert_y
C:\Users\JEFFRO~1\AppData\Local\Temp/ccBdwlY2.s:11402  .bss:00000043 opt_mouse_invert_z
C:\Users\JEFFRO~1\AppData\Local\Temp/ccBdwlY2.s:11279  .bss:00000037 sdy
C:\Users\JEFFRO~1\AppData\Local\Temp/ccBdwlY2.s:12044  .bss:0000022e detect1
C:\Users\JEFFRO~1\AppData\Local\Temp/ccBdwlY2.s:12050  .bss:00000232 detect2
C:\Users\JEFFRO~1\AppData\Local\Temp/ccBdwlY2.s:12038  .bss:0000022d removing
C:\Users\JEFFRO~1\AppData\Local\Temp/ccBdwlY2.s:11051  .data:00000212 combinations
C:\Users\JEFFRO~1\AppData\Local\Temp/ccBdwlY2.s:12056  .bss:00000236 verify1
C:\Users\JEFFRO~1\AppData\Local\Temp/ccBdwlY2.s:12062  .bss:0000023a verify2
C:\Users\JEFFRO~1\AppData\Local\Temp/ccBdwlY2.s:12026  .bss:00000228 touchTime
C:\Users\JEFFRO~1\AppData\Local\Temp/ccBdwlY2.s:12068  .bss:0000023e sensors1
C:\Users\JEFFRO~1\AppData\Local\Temp/ccBdwlY2.s:12074  .bss:00000242 sensors2
C:\Users\JEFFRO~1\AppData\Local\Temp/ccBdwlY2.s:11285  .data:00000302 opt_touch_detect_threshold
C:\Users\JEFFRO~1\AppData\Local\Temp/ccBdwlY2.s:12032  .bss:0000022c adding
C:\Users\JEFFRO~1\AppData\Local\Temp/ccBdwlY2.s:11183  .bss:00000015 ticks
C:\Users\JEFFRO~1\AppData\Local\Temp/ccBdwlY2.s:10781  .text:00004c08 main
C:\Users\JEFFRO~1\AppData\Local\Temp/ccBdwlY2.s:12094  .bss:0000025d _ZL24HostRXSerial_Buffer_Data
C:\Users\JEFFRO~1\AppData\Local\Temp/ccBdwlY2.s:12095  .bss:000002dd _ZL24HostTXSerial_Buffer_Data
C:\Users\JEFFRO~1\AppData\Local\Temp/ccBdwlY2.s:12096  .bss:0000035d _ZL10CDCTaskRun
C:\Users\JEFFRO~1\AppData\Local\Temp/ccBdwlY2.s:12097  .bss:0000035e _ZL10HIDTaskRun
C:\Users\JEFFRO~1\AppData\Local\Temp/ccBdwlY2.s:10945  .text:00004c96 _Z10mouseclicki
C:\Users\JEFFRO~1\AppData\Local\Temp/ccBdwlY2.s:11007  .bss:00000012 ide_workaround
C:\Users\JEFFRO~1\AppData\Local\Temp/ccBdwlY2.s:11432  .data:00000338 opt_mouse_scale_mode2
C:\Users\JEFFRO~1\AppData\Local\Temp/ccBdwlY2.s:11756  .bss:00000123 calAccel
C:\Users\JEFFRO~1\AppData\Local\Temp/ccBdwlY2.s:11864  .bss:00000161 cgx
C:\Users\JEFFRO~1\AppData\Local\Temp/ccBdwlY2.s:11870  .bss:00000165 cgy
C:\Users\JEFFRO~1\AppData\Local\Temp/ccBdwlY2.s:11876  .bss:00000169 cgz
C:\Users\JEFFRO~1\AppData\Local\Temp/ccBdwlY2.s:11882  .bss:0000016d gxBase
C:\Users\JEFFRO~1\AppData\Local\Temp/ccBdwlY2.s:11888  .bss:0000016f gyBase
C:\Users\JEFFRO~1\AppData\Local\Temp/ccBdwlY2.s:11894  .bss:00000171 gzBase
C:\Users\JEFFRO~1\AppData\Local\Temp/ccBdwlY2.s:11954  .bss:000001f7 gset
C:\Users\JEFFRO~1\AppData\Local\Temp/ccBdwlY2.s:11960  .bss:000001f8 calGyro

UNDEFINED SYMBOLS
_ZN13AccelerometerC1Ev
_ZN7ITG3200C1Ev
__do_global_ctors
USB_DeviceState
Endpoint_Read_Stream_LE
Endpoint_Write_Stream_LE
Endpoint_WaitUntilReady
USB_ControlRequest
Endpoint_Write_Control_Stream_LE
Endpoint_Read_Control_Stream_LE
Endpoint_ClearStatusStage
Endpoint_ConfigureEndpoint_Prv
USB_Init
digitalWrite
Serial
_ZN16USBVirtualSerial5printEPKc
_ZN16USBVirtualSerial7printlnEi
_ZN16USBVirtualSerial5printEi
_Z6noToneh
delay
_Z4tonehjj
Keyboard
_ZN11USBKeyboard12set_modifierEh
_ZN11USBKeyboard8send_nowEv
_ZN16USBVirtualSerial7printlnEPKc
_ZN16USBVirtualSerial5beginEm
pinMode
_ZN13Accelerometer7powerOnEv
_ZN13Accelerometer7setRateEf
_ZN7ITG32004initEj
millis
_ZN11USBKeyboard8set_key1Eh
_ZN11USBKeyboard8set_key2Eh
_ZN11USBKeyboard8set_key3Eh
_ZN11USBKeyboard8set_key4Eh
_ZN11USBKeyboard8set_key5Eh
_ZN11USBKeyboard8set_key6Eh
Mouse
_ZN8USBMouse11set_buttonsEhhh
__divmodhi4
_ZN13Accelerometer9readAccelEPiS0_S0_
micros
__floatsisf
__mulsf3
__fixsfsi
__addsf3
__divmodsi4
sqrt
__divsf3
atan
_ZN7ITG320011readGyroRawEPiS0_S0_
__subsf3
_ZN8USBMouse4moveEhhh
_ZN8USBMouse4moveEhh
_ZN8USBMouse6scrollEh
digitalRead
_ZN16USBVirtualSerial5printEm
init
USB_USBTask
__do_copy_data
__do_clear_bss
