   1               		.file	"Keyglove.cpp"
   2               	__SREG__ = 0x3f
   3               	__SP_H__ = 0x3e
   4               	__SP_L__ = 0x3d
   5               	__CCP__  = 0x34
   6               	__tmp_reg__ = 0
   7               	__zero_reg__ = 1
  15               	.Ltext0:
  16               	.global	_Z9modeCheckii
  18               	_Z9modeCheckii:
  19               	.LFB127:
  20               	.LM1:
  21               	.LVL0:
  22               	/* prologue: function */
  23               	/* frame size = 0 */
  24 0000 AC01      		movw r20,r24
  25               	.LM2:
  26 0002 E091 0000 		lds r30,modeStackPos
  27 0006 F091 0000 		lds r31,(modeStackPos)+1
  28 000a E617      		cp r30,r22
  29 000c F707      		cpc r31,r23
  30 000e 04F4      		brge .L2
  31               	.LVL1:
  32 0010 20E0      		ldi r18,lo8(0)
  33 0012 00C0      		rjmp .L3
  34               	.L2:
  35               	.LM3:
  36 0014 20E0      		ldi r18,lo8(0)
  37 0016 E61B      		sub r30,r22
  38 0018 F70B      		sbc r31,r23
  39 001a EE0F      		lsl r30
  40 001c FF1F      		rol r31
  41 001e E050      		subi r30,lo8(-(modeStack))
  42 0020 F040      		sbci r31,hi8(-(modeStack))
  43 0022 8081      		ld r24,Z
  44 0024 9181      		ldd r25,Z+1
  45 0026 8417      		cp r24,r20
  46 0028 9507      		cpc r25,r21
  47 002a 01F4      		brne .L3
  48 002c 21E0      		ldi r18,lo8(1)
  49               	.LVL2:
  50               	.L3:
  51               	.LM4:
  52 002e 822F      		mov r24,r18
  53               	/* epilogue start */
  54 0030 0895      		ret
  55               	.LFE127:
  57               	.global	EVENT_USB_Device_Connect
  59               	EVENT_USB_Device_Connect:
  60               	.LFB157:
  61               	.LM5:
  62               	/* prologue: function */
  63               	/* frame size = 0 */
  64               	.LBB532:
  65               	.LBB533:
  66               	.LM6:
  67 0032 81B3      		in r24,49-32
  68 0034 8F71      		andi r24,lo8(31)
  69 0036 806C      		ori r24,lo8(-64)
  70 0038 81BB      		out 49-32,r24
  71               	/* epilogue start */
  72               	.LBE533:
  73               	.LBE532:
  74               	.LM7:
  75 003a 0895      		ret
  76               	.LFE157:
  78               	.global	EVENT_USB_Device_Disconnect
  80               	EVENT_USB_Device_Disconnect:
  81               	.LFB158:
  82               	.LM8:
  83               	/* prologue: function */
  84               	/* frame size = 0 */
  85               	.LBB534:
  86               	.LBB535:
  87               	.LM9:
  88 003c 81B3      		in r24,49-32
  89 003e 8F71      		andi r24,lo8(31)
  90 0040 8066      		ori r24,lo8(96)
  91 0042 81BB      		out 49-32,r24
  92               	/* epilogue start */
  93               	.LBE535:
  94               	.LBE534:
  95               	.LM10:
  96 0044 0895      		ret
  97               	.LFE158:
  99               	.global	ProcessHIDReport
 101               	ProcessHIDReport:
 102               	.LFB163:
 103               	.LM11:
 104               	.LVL3:
 105               	/* prologue: function */
 106               	/* frame size = 0 */
 107               	/* epilogue start */
 108               	.LM12:
 109 0046 0895      		ret
 110               	.LFE163:
 112               	.global	_Z25Keyboard_ProcessLEDReporth
 114               	_Z25Keyboard_ProcessLEDReporth:
 115               	.LFB164:
 116               	.LM13:
 117               	.LVL4:
 118               	/* prologue: function */
 119               	/* frame size = 0 */
 120               	.LBB536:
 121               	.LM14:
 122 0048 282F      		mov r18,r24
 123               	.LM15:
 124 004a 81FD      		sbrc r24,1
 125 004c 00C0      		rjmp .L13
 126               	.LVL5:
 127 004e 90E4      		ldi r25,lo8(64)
 128               	.LVL6:
 129 0050 00C0      		rjmp .L14
 130               	.LVL7:
 131               	.L13:
 132 0052 90EC      		ldi r25,lo8(-64)
 133               	.LVL8:
 134               	.L14:
 135               	.LM16:
 136 0054 22FD      		sbrc r18,2
 137               	.LM17:
 138 0056 9064      		ori r25,lo8(64)
 139               	.L15:
 140               	.LBB537:
 141               	.LBB538:
 142               	.LM18:
 143 0058 81B3      		in r24,49-32
 144 005a 8F71      		andi r24,lo8(31)
 145 005c 982B      		or r25,r24
 146 005e 91BB      		out 49-32,r25
 147               	/* epilogue start */
 148               	.LBE538:
 149               	.LBE537:
 150               	.LBE536:
 151               	.LM19:
 152 0060 0895      		ret
 153               	.LFE164:
 156               	_GLOBAL__I_HIDReportInData:
 157               	.LFB166:
 158               	.LM20:
 159               	/* prologue: function */
 160               	/* frame size = 0 */
 161               	.LBB539:
 162               	.LBB540:
 163               	.LM21:
 164 0062 80E0      		ldi r24,lo8(accel)
 165 0064 90E0      		ldi r25,hi8(accel)
 166 0066 0E94 0000 		call _ZN13AccelerometerC1Ev
 167               	.LM22:
 168 006a 80E0      		ldi r24,lo8(gyro)
 169 006c 90E0      		ldi r25,hi8(gyro)
 170 006e 0E94 0000 		call _ZN7ITG3200C1Ev
 171               	/* epilogue start */
 172               	.LBE540:
 173               	.LBE539:
 174               	.LM23:
 175 0072 0895      		ret
 176               	.LFE166:
 178               		.global __do_global_ctors
 179               		.section .ctors,"a",@progbits
 180 0000 0000      		.word	gs(_GLOBAL__I_HIDReportInData)
 181               		.text
 182               	.global	HID_Task
 184               	HID_Task:
 185               	.LFB162:
 186               	.LM24:
 187 0074 0F93      		push r16
 188 0076 1F93      		push r17
 189               	/* prologue: function */
 190               	/* frame size = 0 */
 191               	.LM25:
 192 0078 8091 0000 		lds r24,USB_DeviceState
 193 007c 8430      		cpi r24,lo8(4)
 194 007e 01F4      		brne .L23
 195               	.LBB541:
 196               	.LBB542:
 197               	.LM26:
 198 0080 85E0      		ldi r24,lo8(5)
 199 0082 8093 E900 		sts 233,r24
 200               	.LBE542:
 201               	.LBE541:
 202               	.LBB543:
 203               	.LBB544:
 204               	.LM27:
 205 0086 8091 E800 		lds r24,232
 206               	.LBE544:
 207               	.LBE543:
 208               	.LM28:
 209 008a 82FF      		sbrs r24,2
 210 008c 00C0      		rjmp .L21
 211               	.LBB545:
 212               	.LBB546:
 213               	.LM29:
 214 008e 8091 E800 		lds r24,232
 215               	.LBE546:
 216               	.LBE545:
 217               	.LM30:
 218 0092 85FF      		sbrs r24,5
 219 0094 00C0      		rjmp .L22
 220               	.LM31:
 221 0096 80E0      		ldi r24,lo8(HIDReportOutData)
 222 0098 90E0      		ldi r25,hi8(HIDReportOutData)
 223 009a 69E0      		ldi r22,lo8(9)
 224 009c 70E0      		ldi r23,hi8(9)
 225 009e 40E0      		ldi r20,lo8(0)
 226 00a0 50E0      		ldi r21,hi8(0)
 227 00a2 0E94 0000 		call Endpoint_Read_Stream_LE
 228               	.L22:
 229               	.LBB547:
 230               	.LBB548:
 231               	.LM32:
 232 00a6 8091 E800 		lds r24,232
 233 00aa 8B77      		andi r24,lo8(123)
 234 00ac 8093 E800 		sts 232,r24
 235               	.L21:
 236               	.LBE548:
 237               	.LBE547:
 238               	.LBB549:
 239               	.LBB550:
 240               	.LM33:
 241 00b0 84E0      		ldi r24,lo8(4)
 242 00b2 8093 E900 		sts 233,r24
 243               	.LBE550:
 244               	.LBE549:
 245               	.LBB551:
 246               	.LBB552:
 247               	.LM34:
 248 00b6 8091 E800 		lds r24,232
 249               	.LBE552:
 250               	.LBE551:
 251               	.LM35:
 252 00ba 80FF      		sbrs r24,0
 253 00bc 00C0      		rjmp .L23
 254               	.LM36:
 255 00be 00E0      		ldi r16,lo8(HIDReportInData)
 256 00c0 10E0      		ldi r17,hi8(HIDReportInData)
 257 00c2 C801      		movw r24,r16
 258 00c4 69E0      		ldi r22,lo8(9)
 259 00c6 70E0      		ldi r23,hi8(9)
 260 00c8 40E0      		ldi r20,lo8(0)
 261 00ca 50E0      		ldi r21,hi8(0)
 262 00cc 0E94 0000 		call Endpoint_Write_Stream_LE
 263               	.LM37:
 264 00d0 89E0      		ldi r24,lo8(9)
 265 00d2 F801      		movw r30,r16
 266 00d4 1192      		st Z+,__zero_reg__
 267 00d6 8A95      	        dec r24
 268 00d8 01F4      		brne .-6
 269               	.LBB553:
 270               	.LBB554:
 271               	.LM38:
 272 00da 8091 E800 		lds r24,232
 273 00de 8E77      		andi r24,lo8(126)
 274 00e0 8093 E800 		sts 232,r24
 275               	.L23:
 276               	/* epilogue start */
 277               	.LBE554:
 278               	.LBE553:
 279               	.LM39:
 280 00e4 1F91      		pop r17
 281 00e6 0F91      		pop r16
 282 00e8 0895      		ret
 283               	.LFE162:
 285               	.global	CDC_Task
 287               	CDC_Task:
 288               	.LFB161:
 289               	.LM40:
 290 00ea CF93      		push r28
 291 00ec DF93      		push r29
 292               	/* prologue: function */
 293               	/* frame size = 0 */
 294               	.LBB555:
 295               	.LM41:
 296 00ee 8091 0000 		lds r24,USB_DeviceState
 297 00f2 8430      		cpi r24,lo8(4)
 298 00f4 01F0      		breq .+2
 299 00f6 00C0      		rjmp .L33
 300               	.LBB556:
 301               	.LBB557:
 302               	.LBB558:
 303               	.LBB559:
 304               	.LBB560:
 305               	.LM42:
 306               	.LM43:
 307 00f8 8FB7      		in r24,__SREG__
 308               	.LVL9:
 309               	.LBE560:
 310               	.LBE559:
 311               	.LBB561:
 312               	.LBB562:
 313               	.LM44:
 314               	.LM45:
 315               	/* #APP */
 316               	 ;  370 "./LUFA/Drivers/USB/../../Common/Common.h" 1
 317 00fa F894      		cli
 318               	 ;  0 "" 2
 319               	.LM46:
 320               	/* #NOAPP */
 321               	.LBE562:
 322               	.LBE561:
 323               	.LM47:
 324 00fc 2091 0000 		lds r18,HostTXSerial_Buffer+9
 325 0100 3091 0000 		lds r19,(HostTXSerial_Buffer+9)+1
 326               	.LVL10:
 327               	.LBB563:
 328               	.LBB564:
 329               	.LM48:
 330               	.LM49:
 331 0104 8FBF      		out __SREG__,r24
 332               	.LM50:
 333               	.LBE564:
 334               	.LBE563:
 335               	.LBE558:
 336               	.LBE557:
 337               	.LBE556:
 338               	.LM51:
 339 0106 2115      		cp r18,__zero_reg__
 340 0108 3105      		cpc r19,__zero_reg__
 341 010a 01F4      		brne .+2
 342 010c 00C0      		rjmp .L26
 343 010e 8091 0000 		lds r24,LineEncodingData
 344 0112 9091 0000 		lds r25,(LineEncodingData)+1
 345 0116 A091 0000 		lds r26,(LineEncodingData)+2
 346 011a B091 0000 		lds r27,(LineEncodingData)+3
 347               	.LVL11:
 348 011e 0097      		sbiw r24,0
 349 0120 A105      		cpc r26,__zero_reg__
 350 0122 B105      		cpc r27,__zero_reg__
 351 0124 01F4      		brne .+2
 352 0126 00C0      		rjmp .L26
 353               	.LBB565:
 354               	.LBB566:
 355               	.LBB567:
 356               	.LM52:
 357 0128 82E0      		ldi r24,lo8(2)
 358 012a 8093 E900 		sts 233,r24
 359 012e A901      		movw r20,r18
 360               	.LBE567:
 361               	.LBE566:
 362               	.LBB568:
 363               	.LBB569:
 364               	.LBB570:
 365               	.LBB571:
 366               	.LM53:
 367 0130 A0E0      		ldi r26,lo8(HostTXSerial_Buffer)
 368 0132 B0E0      		ldi r27,hi8(HostTXSerial_Buffer)
 369               	.LBE571:
 370               	.LBE570:
 371               	.LBE569:
 372               	.LM54:
 373 0134 B901      		movw r22,r18
 374 0136 6F50      		subi r22,lo8(-(-15))
 375 0138 7040      		sbci r23,hi8(-(-15))
 376               	.LVL12:
 377               	.L29:
 378               	.LBB580:
 379               	.LBB579:
 380               	.LBB578:
 381               	.LM55:
 382 013a ED01      		movw r28,r26
 383               	.LM56:
 384 013c EA81      		ldd r30,Y+2
 385 013e FB81      		ldd r31,Y+3
 386 0140 3191      		ld r19,Z+
 387               	.LM57:
 388 0142 FB83      		std Y+3,r31
 389 0144 EA83      		std Y+2,r30
 390 0146 8E81      		ldd r24,Y+6
 391 0148 9F81      		ldd r25,Y+7
 392 014a E817      		cp r30,r24
 393 014c F907      		cpc r31,r25
 394 014e 01F4      		brne .L27
 395               	.LM58:
 396 0150 8C81      		ldd r24,Y+4
 397 0152 9D81      		ldd r25,Y+5
 398 0154 9B83      		std Y+3,r25
 399 0156 8A83      		std Y+2,r24
 400               	.L27:
 401               	.LBB572:
 402               	.LBB573:
 403               	.LM59:
 404               	.LM60:
 405 0158 2FB7      		in r18,__SREG__
 406               	.LBE573:
 407               	.LBE572:
 408               	.LBB574:
 409               	.LBB575:
 410               	.LM61:
 411               	.LM62:
 412               	/* #APP */
 413               	 ;  370 "./LUFA/Drivers/USB/../../Common/Common.h" 1
 414 015a F894      		cli
 415               	 ;  0 "" 2
 416               	.LM63:
 417               	/* #NOAPP */
 418               	.LBE575:
 419               	.LBE574:
 420               	.LM64:
 421 015c 8985      		ldd r24,Y+9
 422 015e 9A85      		ldd r25,Y+10
 423 0160 0197      		sbiw r24,1
 424 0162 9A87      		std Y+10,r25
 425 0164 8987      		std Y+9,r24
 426               	.LBB576:
 427               	.LBB577:
 428               	.LM65:
 429               	.LM66:
 430 0166 2FBF      		out __SREG__,r18
 431               	.LM67:
 432               	.LBE577:
 433               	.LBE576:
 434               	.LBE578:
 435               	.LBE579:
 436               	.LBE580:
 437               	.LM68:
 438 0168 3093 F100 		sts 241,r19
 439               	.LM69:
 440 016c 4617      		cp r20,r22
 441 016e 5707      		cpc r21,r23
 442 0170 01F0      		breq .L28
 443 0172 4150      		subi r20,lo8(-(-1))
 444 0174 5040      		sbci r21,hi8(-(-1))
 445 0176 01F4      		brne .L29
 446               	.L28:
 447               	.LBE568:
 448               	.LBB581:
 449               	.LBB582:
 450               	.LM70:
 451 0178 2091 F200 		lds r18,242
 452 017c 3091 F300 		lds r19,(242)+1
 453               	.LVL13:
 454               	.LBE582:
 455               	.LBE581:
 456               	.LBB583:
 457               	.LBB584:
 458               	.LM71:
 459 0180 8091 E800 		lds r24,232
 460 0184 8E77      		andi r24,lo8(126)
 461 0186 8093 E800 		sts 232,r24
 462               	.LBE584:
 463               	.LBE583:
 464               	.LM72:
 465 018a 2031      		cpi r18,16
 466 018c 3105      		cpc r19,__zero_reg__
 467 018e 01F4      		brne .L26
 468               	.LM73:
 469 0190 0E94 0000 		call Endpoint_WaitUntilReady
 470               	.LVL14:
 471               	.LBB585:
 472               	.LBB586:
 473               	.LM74:
 474 0194 8091 E800 		lds r24,232
 475 0198 8E77      		andi r24,lo8(126)
 476 019a 8093 E800 		sts 232,r24
 477               	.LVL15:
 478               	.L26:
 479               	.LBE586:
 480               	.LBE585:
 481               	.LBE565:
 482               	.LBB587:
 483               	.LBB588:
 484               	.LM75:
 485 019e 83E0      		ldi r24,lo8(3)
 486               	.LVL16:
 487 01a0 8093 E900 		sts 233,r24
 488               	.LBE588:
 489               	.LBE587:
 490               	.LBB589:
 491               	.LBB590:
 492               	.LM76:
 493 01a4 8091 E800 		lds r24,232
 494               	.LBE590:
 495               	.LBE589:
 496               	.LM77:
 497 01a8 82FF      		sbrs r24,2
 498 01aa 00C0      		rjmp .L33
 499               	.LBB591:
 500               	.LBB592:
 501               	.LM78:
 502 01ac 6091 F200 		lds r22,242
 503 01b0 7091 F300 		lds r23,(242)+1
 504               	.LVL17:
 505 01b4 40E0      		ldi r20,lo8(0)
 506               	.LVL18:
 507               	.LBE592:
 508               	.LBE591:
 509               	.LBB593:
 510               	.LBB594:
 511               	.LBB595:
 512               	.LBB596:
 513               	.LBB597:
 514               	.LM79:
 515 01b6 A0E0      		ldi r26,lo8(HostRXSerial_Buffer)
 516 01b8 B0E0      		ldi r27,hi8(HostRXSerial_Buffer)
 517 01ba 00C0      		rjmp .L30
 518               	.LVL19:
 519               	.L32:
 520               	.LBE597:
 521               	.LBE596:
 522               	.LBE595:
 523               	.LM80:
 524 01bc 8091 F100 		lds r24,241
 525               	.LVL20:
 526               	.LBB606:
 527               	.LBB605:
 528               	.LBB604:
 529               	.LM81:
 530 01c0 ED01      		movw r28,r26
 531               	.LVL21:
 532               	.LM82:
 533 01c2 E881      		ld r30,Y
 534 01c4 F981      		ldd r31,Y+1
 535 01c6 8083      		st Z,r24
 536               	.LM83:
 537 01c8 8881      		ld r24,Y
 538 01ca 9981      		ldd r25,Y+1
 539               	.LVL22:
 540 01cc 0196      		adiw r24,1
 541 01ce 9983      		std Y+1,r25
 542 01d0 8883      		st Y,r24
 543 01d2 2E81      		ldd r18,Y+6
 544 01d4 3F81      		ldd r19,Y+7
 545               	.LVL23:
 546 01d6 8217      		cp r24,r18
 547 01d8 9307      		cpc r25,r19
 548 01da 01F4      		brne .L31
 549               	.LM84:
 550 01dc 8C81      		ldd r24,Y+4
 551 01de 9D81      		ldd r25,Y+5
 552 01e0 9983      		std Y+1,r25
 553 01e2 8883      		st Y,r24
 554               	.L31:
 555               	.LBB598:
 556               	.LBB599:
 557               	.LM85:
 558               	.LM86:
 559 01e4 2FB7      		in r18,__SREG__
 560               	.LVL24:
 561               	.LBE599:
 562               	.LBE598:
 563               	.LBB600:
 564               	.LBB601:
 565               	.LM87:
 566               	.LM88:
 567               	/* #APP */
 568               	 ;  370 "./LUFA/Drivers/USB/../../Common/Common.h" 1
 569 01e6 F894      		cli
 570               	 ;  0 "" 2
 571               	.LM89:
 572               	/* #NOAPP */
 573               	.LBE601:
 574               	.LBE600:
 575               	.LM90:
 576 01e8 8985      		ldd r24,Y+9
 577 01ea 9A85      		ldd r25,Y+10
 578 01ec 0196      		adiw r24,1
 579 01ee 9A87      		std Y+10,r25
 580 01f0 8987      		std Y+9,r24
 581               	.LBB602:
 582               	.LBB603:
 583               	.LM91:
 584               	.LM92:
 585 01f2 2FBF      		out __SREG__,r18
 586               	.LM93:
 587               	.LBE603:
 588               	.LBE602:
 589               	.LBE604:
 590               	.LBE605:
 591               	.LBE606:
 592               	.LBE594:
 593               	.LM94:
 594 01f4 4F5F      		subi r20,lo8(-(1))
 595               	.LVL25:
 596               	.L30:
 597 01f6 842F      		mov r24,r20
 598 01f8 90E0      		ldi r25,lo8(0)
 599 01fa 8617      		cp r24,r22
 600 01fc 9707      		cpc r25,r23
 601 01fe 00F0      		brlo .L32
 602               	.LVL26:
 603               	.LBE593:
 604               	.LBB607:
 605               	.LBB608:
 606               	.LM95:
 607 0200 8091 E800 		lds r24,232
 608               	.LVL27:
 609 0204 8B77      		andi r24,lo8(123)
 610 0206 8093 E800 		sts 232,r24
 611               	.LVL28:
 612               	.L33:
 613               	/* epilogue start */
 614               	.LBE608:
 615               	.LBE607:
 616               	.LBE555:
 617               	.LM96:
 618 020a DF91      		pop r29
 619 020c CF91      		pop r28
 620               	.LVL29:
 621 020e 0895      		ret
 622               	.LFE161:
 624               	.global	EVENT_USB_Device_ControlRequest
 626               	EVENT_USB_Device_ControlRequest:
 627               	.LFB160:
 628               	.LM97:
 629 0210 0F93      		push r16
 630 0212 1F93      		push r17
 631               	/* prologue: function */
 632               	/* frame size = 0 */
 633               	.LM98:
 634 0214 8091 0000 		lds r24,USB_ControlRequest+1
 635 0218 8032      		cpi r24,lo8(32)
 636 021a 01F4      		brne .+2
 637 021c 00C0      		rjmp .L39
 638 021e 8132      		cpi r24,lo8(33)
 639 0220 00F4      		brsh .L42
 640 0222 8130      		cpi r24,lo8(1)
 641 0224 01F0      		breq .L37
 642 0226 8930      		cpi r24,lo8(9)
 643 0228 01F0      		breq .+2
 644 022a 00C0      		rjmp .L43
 645 022c 00C0      		rjmp .L47
 646               	.L42:
 647 022e 8132      		cpi r24,lo8(33)
 648 0230 01F0      		breq .L40
 649 0232 8232      		cpi r24,lo8(34)
 650 0234 01F0      		breq .+2
 651 0236 00C0      		rjmp .L43
 652 0238 00C0      		rjmp .L48
 653               	.L37:
 654               	.LM99:
 655 023a 8091 0000 		lds r24,USB_ControlRequest
 656 023e 813A      		cpi r24,lo8(-95)
 657 0240 01F0      		breq .+2
 658 0242 00C0      		rjmp .L43
 659               	.LBB609:
 660               	.LBB610:
 661               	.LM100:
 662 0244 8091 E800 		lds r24,232
 663 0248 877F      		andi r24,lo8(-9)
 664 024a 8093 E800 		sts 232,r24
 665               	.LBE610:
 666               	.LBE609:
 667               	.LM101:
 668 024e 00E0      		ldi r16,lo8(HIDReportInData)
 669 0250 10E0      		ldi r17,hi8(HIDReportInData)
 670 0252 C801      		movw r24,r16
 671 0254 69E0      		ldi r22,lo8(9)
 672 0256 70E0      		ldi r23,hi8(9)
 673 0258 0E94 0000 		call Endpoint_Write_Control_Stream_LE
 674               	.LM102:
 675 025c 89E0      		ldi r24,lo8(9)
 676 025e F801      		movw r30,r16
 677 0260 1192      		st Z+,__zero_reg__
 678 0262 8A95      	        dec r24
 679 0264 01F4      		brne .-6
 680 0266 00C0      		rjmp .L45
 681               	.L47:
 682               	.LM103:
 683 0268 8091 0000 		lds r24,USB_ControlRequest
 684 026c 8132      		cpi r24,lo8(33)
 685 026e 01F4      		brne .L43
 686               	.LBB611:
 687               	.LBB612:
 688               	.LM104:
 689 0270 8091 E800 		lds r24,232
 690 0274 877F      		andi r24,lo8(-9)
 691 0276 8093 E800 		sts 232,r24
 692               	.LBE612:
 693               	.LBE611:
 694               	.LM105:
 695 027a 80E0      		ldi r24,lo8(HIDReportOutData)
 696 027c 90E0      		ldi r25,hi8(HIDReportOutData)
 697 027e 69E0      		ldi r22,lo8(9)
 698 0280 70E0      		ldi r23,hi8(9)
 699               	.L46:
 700 0282 0E94 0000 		call Endpoint_Read_Control_Stream_LE
 701               	.LBB613:
 702               	.LBB614:
 703               	.LM106:
 704 0286 8091 E800 		lds r24,232
 705 028a 8E77      		andi r24,lo8(126)
 706               	.L44:
 707 028c 8093 E800 		sts 232,r24
 708 0290 00C0      		rjmp .L43
 709               	.L40:
 710               	.LBE614:
 711               	.LBE613:
 712               	.LM107:
 713 0292 8091 0000 		lds r24,USB_ControlRequest
 714 0296 813A      		cpi r24,lo8(-95)
 715 0298 01F4      		brne .L43
 716               	.LBB615:
 717               	.LBB616:
 718               	.LM108:
 719 029a 8091 E800 		lds r24,232
 720 029e 877F      		andi r24,lo8(-9)
 721 02a0 8093 E800 		sts 232,r24
 722               	.LBE616:
 723               	.LBE615:
 724               	.LM109:
 725 02a4 80E0      		ldi r24,lo8(LineEncodingData)
 726 02a6 90E0      		ldi r25,hi8(LineEncodingData)
 727 02a8 67E0      		ldi r22,lo8(7)
 728 02aa 70E0      		ldi r23,hi8(7)
 729 02ac 0E94 0000 		call Endpoint_Write_Control_Stream_LE
 730               	.L45:
 731               	.LBB617:
 732               	.LBB618:
 733               	.LM110:
 734 02b0 8091 E800 		lds r24,232
 735 02b4 8B77      		andi r24,lo8(123)
 736 02b6 00C0      		rjmp .L44
 737               	.L39:
 738               	.LBE618:
 739               	.LBE617:
 740               	.LM111:
 741 02b8 8091 0000 		lds r24,USB_ControlRequest
 742 02bc 8132      		cpi r24,lo8(33)
 743 02be 01F4      		brne .L43
 744               	.LBB619:
 745               	.LBB620:
 746               	.LM112:
 747 02c0 8091 E800 		lds r24,232
 748 02c4 877F      		andi r24,lo8(-9)
 749 02c6 8093 E800 		sts 232,r24
 750               	.LBE620:
 751               	.LBE619:
 752               	.LM113:
 753 02ca 80E0      		ldi r24,lo8(LineEncodingData)
 754 02cc 90E0      		ldi r25,hi8(LineEncodingData)
 755 02ce 67E0      		ldi r22,lo8(7)
 756 02d0 70E0      		ldi r23,hi8(7)
 757 02d2 00C0      		rjmp .L46
 758               	.L48:
 759               	.LM114:
 760 02d4 8091 0000 		lds r24,USB_ControlRequest
 761 02d8 8132      		cpi r24,lo8(33)
 762 02da 01F4      		brne .L43
 763               	.LBB621:
 764               	.LBB622:
 765               	.LM115:
 766 02dc 8091 E800 		lds r24,232
 767 02e0 877F      		andi r24,lo8(-9)
 768 02e2 8093 E800 		sts 232,r24
 769               	.LBE622:
 770               	.LBE621:
 771               	.LM116:
 772 02e6 0E94 0000 		call Endpoint_ClearStatusStage
 773               	.L43:
 774               	/* epilogue start */
 775               	.LM117:
 776 02ea 1F91      		pop r17
 777 02ec 0F91      		pop r16
 778 02ee 0895      		ret
 779               	.LFE160:
 781               	.global	EVENT_USB_Device_ConfigurationChanged
 783               	EVENT_USB_Device_ConfigurationChanged:
 784               	.LFB159:
 785               	.LM118:
 786 02f0 BF92      		push r11
 787 02f2 CF92      		push r12
 788 02f4 DF92      		push r13
 789 02f6 EF92      		push r14
 790 02f8 FF92      		push r15
 791 02fa 0F93      		push r16
 792 02fc 1F93      		push r17
 793               	/* prologue: function */
 794               	/* frame size = 0 */
 795               	.LBB623:
 796               	.LBB624:
 797               	.LM119:
 798 02fe 81E0      		ldi r24,lo8(1)
 799 0300 61EC      		ldi r22,lo8(-63)
 800 0302 42E0      		ldi r20,lo8(2)
 801 0304 0E94 0000 		call Endpoint_ConfigureEndpoint_Prv
 802 0308 082F      		mov r16,r24
 803               	.LBE624:
 804               	.LBB625:
 805 030a 82E0      		ldi r24,lo8(2)
 806 030c 61E8      		ldi r22,lo8(-127)
 807 030e 42E1      		ldi r20,lo8(18)
 808 0310 0E94 0000 		call Endpoint_ConfigureEndpoint_Prv
 809 0314 C82E      		mov r12,r24
 810               	.LBE625:
 811               	.LBB626:
 812 0316 83E0      		ldi r24,lo8(3)
 813 0318 60E8      		ldi r22,lo8(-128)
 814 031a 42E1      		ldi r20,lo8(18)
 815 031c 0E94 0000 		call Endpoint_ConfigureEndpoint_Prv
 816 0320 E82E      		mov r14,r24
 817               	.LBE626:
 818               	.LM120:
 819 0322 1092 0000 		sts LineEncodingData,__zero_reg__
 820 0326 1092 0000 		sts (LineEncodingData)+1,__zero_reg__
 821 032a 1092 0000 		sts (LineEncodingData)+2,__zero_reg__
 822 032e 1092 0000 		sts (LineEncodingData)+3,__zero_reg__
 823               	.LBB627:
 824               	.LM121:
 825 0332 84E0      		ldi r24,lo8(4)
 826 0334 61EC      		ldi r22,lo8(-63)
 827 0336 42E1      		ldi r20,lo8(18)
 828 0338 0E94 0000 		call Endpoint_ConfigureEndpoint_Prv
 829 033c B82E      		mov r11,r24
 830               	.LBE627:
 831               	.LBB628:
 832 033e 85E0      		ldi r24,lo8(5)
 833 0340 60EC      		ldi r22,lo8(-64)
 834 0342 42E1      		ldi r20,lo8(18)
 835 0344 0E94 0000 		call Endpoint_ConfigureEndpoint_Prv
 836 0348 682F      		mov r22,r24
 837               	.LBE628:
 838               	.LM122:
 839 034a 10E0      		ldi r17,lo8(0)
 840 034c DD24      		clr r13
 841 034e 0C21      		and r16,r12
 842 0350 1D21      		and r17,r13
 843 0352 0170      		andi r16,lo8(1)
 844 0354 1070      		andi r17,hi8(1)
 845 0356 FF24      		clr r15
 846 0358 0E21      		and r16,r14
 847 035a 1F21      		and r17,r15
 848               	.LM123:
 849 035c 40E0      		ldi r20,lo8(0)
 850 035e 50E0      		ldi r21,hi8(0)
 851 0360 012B      		or r16,r17
 852 0362 01F0      		breq .L50
 853 0364 41E0      		ldi r20,lo8(1)
 854 0366 50E0      		ldi r21,hi8(1)
 855               	.L50:
 856 0368 8B2D      		mov r24,r11
 857 036a 90E0      		ldi r25,lo8(0)
 858 036c 4823      		and r20,r24
 859 036e 5923      		and r21,r25
 860               	.LM124:
 861 0370 20E0      		ldi r18,lo8(0)
 862 0372 30E0      		ldi r19,hi8(0)
 863 0374 452B      		or r20,r21
 864 0376 01F0      		breq .L52
 865 0378 21E0      		ldi r18,lo8(1)
 866 037a 30E0      		ldi r19,hi8(1)
 867               	.L52:
 868 037c 862F      		mov r24,r22
 869 037e 90E0      		ldi r25,lo8(0)
 870 0380 2823      		and r18,r24
 871 0382 3923      		and r19,r25
 872 0384 232B      		or r18,r19
 873 0386 01F4      		brne .L51
 874 0388 90E2      		ldi r25,lo8(32)
 875 038a 00C0      		rjmp .L53
 876               	.L51:
 877 038c 90E4      		ldi r25,lo8(64)
 878               	.L53:
 879               	.LBB629:
 880               	.LBB630:
 881               	.LM125:
 882 038e 81B3      		in r24,49-32
 883 0390 8F71      		andi r24,lo8(31)
 884 0392 982B      		or r25,r24
 885 0394 91BB      		out 49-32,r25
 886               	/* epilogue start */
 887               	.LBE630:
 888               	.LBE629:
 889               	.LBE623:
 890               	.LM126:
 891 0396 1F91      		pop r17
 892 0398 0F91      		pop r16
 893 039a FF90      		pop r15
 894 039c EF90      		pop r14
 895 039e DF90      		pop r13
 896 03a0 CF90      		pop r12
 897 03a2 BF90      		pop r11
 898 03a4 0895      		ret
 899               	.LFE159:
 901               	.global	SetupHardware
 903               	SetupHardware:
 904               	.LFB156:
 905               	.LM127:
 906               	/* prologue: function */
 907               	/* frame size = 0 */
 908               	.LM128:
 909 03a6 81E8      		ldi r24,lo8(-127)
 910 03a8 85BF      		out 85-32,r24
 911               	.LM129:
 912 03aa 20E8      		ldi r18,lo8(-128)
 913 03ac 25BF      		out 85-32,r18
 914               	.LM130:
 915 03ae 84B7      		in r24,84-32
 916 03b0 877F      		andi r24,lo8(-9)
 917 03b2 84BF      		out 84-32,r24
 918               	.LM131:
 919 03b4 88E1      		ldi r24,lo8(24)
 920               	/* #APP */
 921               	 ;  164 "Keyglove.cpp" 1
 922 03b6 0FB6      		in __tmp_reg__, __SREG__
 923 03b8 F894      		cli
 924 03ba 8093 6000 		sts 96, r24
 925 03be 1092 6000 		sts 96, __zero_reg__
 926 03c2 0FBE      		out __SREG__,__tmp_reg__
 927               		
 928               	 ;  0 "" 2
 929               	.LM132:
 930               	/* #NOAPP */
 931 03c4 83E0      		ldi r24,lo8(3)
 932 03c6 84BD      		out 68-32,r24
 933               	.LM133:
 934 03c8 85BD      		out 69-32,r24
 935               	.LM134:
 936 03ca 91E0      		ldi r25,lo8(1)
 937 03cc 9093 8000 		sts 128,r25
 938               	.LM135:
 939 03d0 82E0      		ldi r24,lo8(2)
 940 03d2 8093 8100 		sts 129,r24
 941               	.LM136:
 942 03d6 9093 B000 		sts 176,r25
 943               	.LM137:
 944 03da 8093 B100 		sts 177,r24
 945               	.LM138:
 946 03de 9093 9000 		sts 144,r25
 947               	.LM139:
 948 03e2 8093 9100 		sts 145,r24
 949               	.LM140:
 950 03e6 1092 7E00 		sts 126,__zero_reg__
 951               	.LM141:
 952 03ea E1E6      		ldi r30,lo8(97)
 953 03ec F0E0      		ldi r31,hi8(97)
 954 03ee 2083      		st Z,r18
 955 03f0 9083      		st Z,r25
 956               	.LBB631:
 957               	.LBB632:
 958               	.LM142:
 959 03f2 569A      		sbi 42-32,6
 960               	.LM143:
 961 03f4 80B3      		in r24,48-32
 962 03f6 806E      		ori r24,lo8(-32)
 963 03f8 80BB      		out 48-32,r24
 964               	.LM144:
 965 03fa 81B3      		in r24,49-32
 966 03fc 8F71      		andi r24,lo8(31)
 967 03fe 81BB      		out 49-32,r24
 968               	.LBE632:
 969               	.LBE631:
 970               	.LM145:
 971 0400 0E94 0000 		call USB_Init
 972               	.LM146:
 973               	/* #APP */
 974               	 ;  214 "Keyglove.cpp" 1
 975 0404 7894      		sei
 976               	 ;  0 "" 2
 977               	/* epilogue start */
 978               	.LM147:
 979               	/* #NOAPP */
 980 0406 0895      		ret
 981               	.LFE156:
 983               	.global	_Z8tricolorhhh
 985               	_Z8tricolorhhh:
 986               	.LFB126:
 987               	.LM148:
 988               	.LVL30:
 989 0408 0F93      		push r16
 990 040a 1F93      		push r17
 991               	/* prologue: function */
 992               	/* frame size = 0 */
 993 040c 982F      		mov r25,r24
 994 040e 162F      		mov r17,r22
 995 0410 042F      		mov r16,r20
 996               	.LM149:
 997 0412 8F3F      		cpi r24,lo8(-1)
 998 0414 01F0      		breq .L58
 999               	.LVL31:
 1000 0416 8BE2      		ldi r24,lo8(43)
 1001               	.LVL32:
 1002 0418 692F      		mov r22,r25
 1003 041a 0E94 0000 		call digitalWrite
 1004               	.LVL33:
 1005               	.L58:
 1006               	.LM150:
 1007 041e 1F3F      		cpi r17,lo8(-1)
 1008 0420 01F0      		breq .L59
 1009 0422 8CE2      		ldi r24,lo8(44)
 1010               	.LVL34:
 1011 0424 612F      		mov r22,r17
 1012 0426 0E94 0000 		call digitalWrite
 1013               	.LVL35:
 1014               	.L59:
 1015               	.LM151:
 1016 042a 0F3F      		cpi r16,lo8(-1)
 1017 042c 01F0      		breq .L61
 1018 042e 8DE2      		ldi r24,lo8(45)
 1019               	.LVL36:
 1020 0430 602F      		mov r22,r16
 1021 0432 0E94 0000 		call digitalWrite
 1022               	.LVL37:
 1023               	.L61:
 1024               	/* epilogue start */
 1025               	.LM152:
 1026 0436 1F91      		pop r17
 1027               	.LVL38:
 1028 0438 0F91      		pop r16
 1029               	.LVL39:
 1030 043a 0895      		ret
 1031               	.LFE126:
 1033               		.data
 1034               	.LC0:
 1035 0000 746F 7563 		.string	"touchset mouseoff "
 1035      6873 6574 
 1035      206D 6F75 
 1035      7365 6F66 
 1035      6620 00
 1036               		.text
 1037               	.global	_Z8mouseoffi
 1039               	_Z8mouseoffi:
 1040               	.LFB133:
 1041               	.LM153:
 1042               	.LVL40:
 1043 043c CF93      		push r28
 1044 043e DF93      		push r29
 1045               	/* prologue: function */
 1046               	/* frame size = 0 */
 1047 0440 EC01      		movw r28,r24
 1048               	.LM154:
 1049 0442 80E0      		ldi r24,lo8(Serial)
 1050 0444 90E0      		ldi r25,hi8(Serial)
 1051               	.LVL41:
 1052 0446 60E0      		ldi r22,lo8(.LC0)
 1053 0448 70E0      		ldi r23,hi8(.LC0)
 1054 044a 0E94 0000 		call _ZN16USBVirtualSerial5printEPKc
 1055               	.LM155:
 1056 044e 80E0      		ldi r24,lo8(Serial)
 1057 0450 90E0      		ldi r25,hi8(Serial)
 1058 0452 BE01      		movw r22,r28
 1059 0454 0E94 0000 		call _ZN16USBVirtualSerial7printlnEi
 1060               	.LM156:
 1061 0458 2097      		sbiw r28,0
 1062 045a 01F4      		brne .L63
 1063               	.LM157:
 1064 045c 1092 0000 		sts opt_mouse_mode,__zero_reg__
 1065 0460 00C0      		rjmp .L65
 1066               	.L63:
 1067               	.LM158:
 1068 0462 2197      		sbiw r28,1
 1069 0464 01F4      		brne .L65
 1070               	.LM159:
 1071 0466 1092 0000 		sts opt_scroll_mode,__zero_reg__
 1072               	.L65:
 1073               	/* epilogue start */
 1074               	.LM160:
 1075 046a DF91      		pop r29
 1076 046c CF91      		pop r28
 1077               	.LVL42:
 1078 046e 0895      		ret
 1079               	.LFE133:
 1081               		.data
 1082               	.LC1:
 1083 0013 746F 7563 		.string	"touchset mouseon "
 1083      6873 6574 
 1083      206D 6F75 
 1083      7365 6F6E 
 1083      2000 
 1084               		.text
 1085               	.global	_Z7mouseoni
 1087               	_Z7mouseoni:
 1088               	.LFB132:
 1089               	.LM161:
 1090               	.LVL43:
 1091 0470 CF93      		push r28
 1092 0472 DF93      		push r29
 1093               	/* prologue: function */
 1094               	/* frame size = 0 */
 1095 0474 EC01      		movw r28,r24
 1096               	.LM162:
 1097 0476 80E0      		ldi r24,lo8(Serial)
 1098 0478 90E0      		ldi r25,hi8(Serial)
 1099               	.LVL44:
 1100 047a 60E0      		ldi r22,lo8(.LC1)
 1101 047c 70E0      		ldi r23,hi8(.LC1)
 1102 047e 0E94 0000 		call _ZN16USBVirtualSerial5printEPKc
 1103               	.LM163:
 1104 0482 80E0      		ldi r24,lo8(Serial)
 1105 0484 90E0      		ldi r25,hi8(Serial)
 1106 0486 BE01      		movw r22,r28
 1107 0488 0E94 0000 		call _ZN16USBVirtualSerial7printlnEi
 1108               	.LM164:
 1109 048c 2097      		sbiw r28,0
 1110 048e 01F4      		brne .L67
 1111               	.LM165:
 1112 0490 82E0      		ldi r24,lo8(2)
 1113 0492 8093 0000 		sts opt_mouse_mode,r24
 1114 0496 00C0      		rjmp .L69
 1115               	.L67:
 1116               	.LM166:
 1117 0498 2197      		sbiw r28,1
 1118 049a 01F4      		brne .L69
 1119               	.LM167:
 1120 049c 82E0      		ldi r24,lo8(2)
 1121 049e 8093 0000 		sts opt_scroll_mode,r24
 1122               	.L69:
 1123               	/* epilogue start */
 1124               	.LM168:
 1125 04a2 DF91      		pop r29
 1126 04a4 CF91      		pop r28
 1127               	.LVL45:
 1128 04a6 0895      		ret
 1129               	.LFE132:
 1131               		.data
 1132               	.LC2:
 1133 0025 746F 7563 		.string	"touchset vibrate "
 1133      6873 6574 
 1133      2076 6962 
 1133      7261 7465 
 1133      2000 
 1134               	.LC3:
 1135 0037 2000      		.string	" "
 1136               		.text
 1137               	.global	_Z7vibrateii
 1139               	_Z7vibrateii:
 1140               	.LFB148:
 1141               	.LM169:
 1142               	.LVL46:
 1143 04a8 CF92      		push r12
 1144 04aa DF92      		push r13
 1145 04ac EF92      		push r14
 1146 04ae FF92      		push r15
 1147 04b0 0F93      		push r16
 1148 04b2 1F93      		push r17
 1149               	/* prologue: function */
 1150               	/* frame size = 0 */
 1151 04b4 8C01      		movw r16,r24
 1152 04b6 6B01      		movw r12,r22
 1153               	.LM170:
 1154 04b8 90E0      		ldi r25,lo8(Serial)
 1155 04ba E92E      		mov r14,r25
 1156 04bc 90E0      		ldi r25,hi8(Serial)
 1157 04be F92E      		mov r15,r25
 1158 04c0 C701      		movw r24,r14
 1159               	.LVL47:
 1160 04c2 60E0      		ldi r22,lo8(.LC2)
 1161 04c4 70E0      		ldi r23,hi8(.LC2)
 1162               	.LVL48:
 1163 04c6 0E94 0000 		call _ZN16USBVirtualSerial5printEPKc
 1164               	.LM171:
 1165 04ca C701      		movw r24,r14
 1166 04cc B801      		movw r22,r16
 1167 04ce 0E94 0000 		call _ZN16USBVirtualSerial5printEi
 1168               	.LM172:
 1169 04d2 C701      		movw r24,r14
 1170 04d4 60E0      		ldi r22,lo8(.LC3)
 1171 04d6 70E0      		ldi r23,hi8(.LC3)
 1172 04d8 0E94 0000 		call _ZN16USBVirtualSerial5printEPKc
 1173               	.LM173:
 1174 04dc C701      		movw r24,r14
 1175 04de B601      		movw r22,r12
 1176 04e0 0E94 0000 		call _ZN16USBVirtualSerial7printlnEi
 1177               	/* epilogue start */
 1178               	.LM174:
 1179 04e4 1F91      		pop r17
 1180 04e6 0F91      		pop r16
 1181               	.LVL49:
 1182 04e8 FF90      		pop r15
 1183 04ea EF90      		pop r14
 1184 04ec DF90      		pop r13
 1185 04ee CF90      		pop r12
 1186               	.LVL50:
 1187 04f0 0895      		ret
 1188               	.LFE148:
 1190               		.data
 1191               	.LC4:
 1192 0039 746F 7563 		.string	"touchset blueled "
 1192      6873 6574 
 1192      2062 6C75 
 1192      656C 6564 
 1192      2000 
 1193               		.text
 1194               	.global	_Z7blueledii
 1196               	_Z7blueledii:
 1197               	.LFB146:
 1198               	.LM175:
 1199               	.LVL51:
 1200 04f2 0F93      		push r16
 1201 04f4 1F93      		push r17
 1202 04f6 CF93      		push r28
 1203 04f8 DF93      		push r29
 1204               	/* prologue: function */
 1205               	/* frame size = 0 */
 1206 04fa EC01      		movw r28,r24
 1207 04fc 8B01      		movw r16,r22
 1208               	.LM176:
 1209 04fe 80E0      		ldi r24,lo8(Serial)
 1210 0500 90E0      		ldi r25,hi8(Serial)
 1211               	.LVL52:
 1212 0502 60E0      		ldi r22,lo8(.LC4)
 1213 0504 70E0      		ldi r23,hi8(.LC4)
 1214               	.LVL53:
 1215 0506 0E94 0000 		call _ZN16USBVirtualSerial5printEPKc
 1216               	.LM177:
 1217 050a 80E0      		ldi r24,lo8(Serial)
 1218 050c 90E0      		ldi r25,hi8(Serial)
 1219 050e BE01      		movw r22,r28
 1220 0510 0E94 0000 		call _ZN16USBVirtualSerial5printEi
 1221               	.LM178:
 1222 0514 80E0      		ldi r24,lo8(Serial)
 1223 0516 90E0      		ldi r25,hi8(Serial)
 1224 0518 60E0      		ldi r22,lo8(.LC3)
 1225 051a 70E0      		ldi r23,hi8(.LC3)
 1226 051c 0E94 0000 		call _ZN16USBVirtualSerial5printEPKc
 1227               	.LM179:
 1228 0520 80E0      		ldi r24,lo8(Serial)
 1229 0522 90E0      		ldi r25,hi8(Serial)
 1230 0524 B801      		movw r22,r16
 1231 0526 0E94 0000 		call _ZN16USBVirtualSerial7printlnEi
 1232               	.LM180:
 1233 052a C230      		cpi r28,2
 1234 052c D105      		cpc r29,__zero_reg__
 1235 052e 01F0      		breq .L78
 1236 0530 C330      		cpi r28,3
 1237 0532 D105      		cpc r29,__zero_reg__
 1238 0534 04F4      		brge .L80
 1239 0536 2097      		sbiw r28,0
 1240 0538 01F0      		breq .L74
 1241 053a C130      		cpi r28,1
 1242 053c D105      		cpc r29,__zero_reg__
 1243 053e 01F4      		brne .L81
 1244 0540 00C0      		rjmp .L78
 1245               	.L80:
 1246 0542 C430      		cpi r28,4
 1247 0544 D105      		cpc r29,__zero_reg__
 1248 0546 01F0      		breq .L78
 1249 0548 C430      		cpi r28,4
 1250 054a D105      		cpc r29,__zero_reg__
 1251 054c 04F0      		brlt .L77
 1252 054e 2597      		sbiw r28,5
 1253 0550 01F4      		brne .L81
 1254 0552 00C0      		rjmp .L84
 1255               	.L74:
 1256               	.LM181:
 1257 0554 1092 0000 		sts (tricolorBlinkBlue)+1,__zero_reg__
 1258 0558 1092 0000 		sts tricolorBlinkBlue,__zero_reg__
 1259 055c 8FEF      		ldi r24,lo8(-1)
 1260 055e 6FEF      		ldi r22,lo8(-1)
 1261 0560 40E0      		ldi r20,lo8(0)
 1262 0562 00C0      		rjmp .L83
 1263               	.L77:
 1264               	.LM182:
 1265 0564 83E0      		ldi r24,lo8(3)
 1266 0566 90E0      		ldi r25,hi8(3)
 1267 0568 9093 0000 		sts (tricolorBlinkBlue)+1,r25
 1268 056c 8093 0000 		sts tricolorBlinkBlue,r24
 1269 0570 00C0      		rjmp .L82
 1270               	.L78:
 1271               	.LM183:
 1272 0572 D093 0000 		sts (tricolorBlinkBlue)+1,r29
 1273 0576 C093 0000 		sts tricolorBlinkBlue,r28
 1274 057a 00C0      		rjmp .L82
 1275               	.L84:
 1276               	.LM184:
 1277 057c 1092 0000 		sts (tricolorBlinkBlue)+1,__zero_reg__
 1278 0580 1092 0000 		sts tricolorBlinkBlue,__zero_reg__
 1279               	.L82:
 1280 0584 8FEF      		ldi r24,lo8(-1)
 1281 0586 6FEF      		ldi r22,lo8(-1)
 1282 0588 41E0      		ldi r20,lo8(1)
 1283               	.L83:
 1284 058a 0E94 0000 		call _Z8tricolorhhh
 1285               	.L81:
 1286               	/* epilogue start */
 1287               	.LM185:
 1288 058e DF91      		pop r29
 1289 0590 CF91      		pop r28
 1290               	.LVL54:
 1291 0592 1F91      		pop r17
 1292 0594 0F91      		pop r16
 1293               	.LVL55:
 1294 0596 0895      		ret
 1295               	.LFE146:
 1297               		.data
 1298               	.LC5:
 1299 004b 746F 7563 		.string	"touchset greenled "
 1299      6873 6574 
 1299      2067 7265 
 1299      656E 6C65 
 1299      6420 00
 1300               		.text
 1301               	.global	_Z8greenledii
 1303               	_Z8greenledii:
 1304               	.LFB145:
 1305               	.LM186:
 1306               	.LVL56:
 1307 0598 0F93      		push r16
 1308 059a 1F93      		push r17
 1309 059c CF93      		push r28
 1310 059e DF93      		push r29
 1311               	/* prologue: function */
 1312               	/* frame size = 0 */
 1313 05a0 EC01      		movw r28,r24
 1314 05a2 8B01      		movw r16,r22
 1315               	.LM187:
 1316 05a4 80E0      		ldi r24,lo8(Serial)
 1317 05a6 90E0      		ldi r25,hi8(Serial)
 1318               	.LVL57:
 1319 05a8 60E0      		ldi r22,lo8(.LC5)
 1320 05aa 70E0      		ldi r23,hi8(.LC5)
 1321               	.LVL58:
 1322 05ac 0E94 0000 		call _ZN16USBVirtualSerial5printEPKc
 1323               	.LM188:
 1324 05b0 80E0      		ldi r24,lo8(Serial)
 1325 05b2 90E0      		ldi r25,hi8(Serial)
 1326 05b4 BE01      		movw r22,r28
 1327 05b6 0E94 0000 		call _ZN16USBVirtualSerial5printEi
 1328               	.LM189:
 1329 05ba 80E0      		ldi r24,lo8(Serial)
 1330 05bc 90E0      		ldi r25,hi8(Serial)
 1331 05be 60E0      		ldi r22,lo8(.LC3)
 1332 05c0 70E0      		ldi r23,hi8(.LC3)
 1333 05c2 0E94 0000 		call _ZN16USBVirtualSerial5printEPKc
 1334               	.LM190:
 1335 05c6 80E0      		ldi r24,lo8(Serial)
 1336 05c8 90E0      		ldi r25,hi8(Serial)
 1337 05ca B801      		movw r22,r16
 1338 05cc 0E94 0000 		call _ZN16USBVirtualSerial7printlnEi
 1339               	.LM191:
 1340 05d0 C230      		cpi r28,2
 1341 05d2 D105      		cpc r29,__zero_reg__
 1342 05d4 01F0      		breq .L91
 1343 05d6 C330      		cpi r28,3
 1344 05d8 D105      		cpc r29,__zero_reg__
 1345 05da 04F4      		brge .L93
 1346 05dc 2097      		sbiw r28,0
 1347 05de 01F0      		breq .L87
 1348 05e0 C130      		cpi r28,1
 1349 05e2 D105      		cpc r29,__zero_reg__
 1350 05e4 01F4      		brne .L94
 1351 05e6 00C0      		rjmp .L91
 1352               	.L93:
 1353 05e8 C430      		cpi r28,4
 1354 05ea D105      		cpc r29,__zero_reg__
 1355 05ec 01F0      		breq .L91
 1356 05ee C430      		cpi r28,4
 1357 05f0 D105      		cpc r29,__zero_reg__
 1358 05f2 04F0      		brlt .L90
 1359 05f4 2597      		sbiw r28,5
 1360 05f6 01F4      		brne .L94
 1361 05f8 00C0      		rjmp .L97
 1362               	.L87:
 1363               	.LM192:
 1364 05fa 1092 0000 		sts (tricolorBlinkGreen)+1,__zero_reg__
 1365 05fe 1092 0000 		sts tricolorBlinkGreen,__zero_reg__
 1366 0602 8FEF      		ldi r24,lo8(-1)
 1367 0604 60E0      		ldi r22,lo8(0)
 1368 0606 00C0      		rjmp .L96
 1369               	.L90:
 1370               	.LM193:
 1371 0608 83E0      		ldi r24,lo8(3)
 1372 060a 90E0      		ldi r25,hi8(3)
 1373 060c 9093 0000 		sts (tricolorBlinkGreen)+1,r25
 1374 0610 8093 0000 		sts tricolorBlinkGreen,r24
 1375 0614 00C0      		rjmp .L95
 1376               	.L91:
 1377               	.LM194:
 1378 0616 D093 0000 		sts (tricolorBlinkGreen)+1,r29
 1379 061a C093 0000 		sts tricolorBlinkGreen,r28
 1380 061e 00C0      		rjmp .L95
 1381               	.L97:
 1382               	.LM195:
 1383 0620 1092 0000 		sts (tricolorBlinkGreen)+1,__zero_reg__
 1384 0624 1092 0000 		sts tricolorBlinkGreen,__zero_reg__
 1385               	.L95:
 1386 0628 8FEF      		ldi r24,lo8(-1)
 1387 062a 61E0      		ldi r22,lo8(1)
 1388               	.L96:
 1389 062c 4FEF      		ldi r20,lo8(-1)
 1390 062e 0E94 0000 		call _Z8tricolorhhh
 1391               	.L94:
 1392               	/* epilogue start */
 1393               	.LM196:
 1394 0632 DF91      		pop r29
 1395 0634 CF91      		pop r28
 1396               	.LVL59:
 1397 0636 1F91      		pop r17
 1398 0638 0F91      		pop r16
 1399               	.LVL60:
 1400 063a 0895      		ret
 1401               	.LFE145:
 1403               		.data
 1404               	.LC6:
 1405 005e 746F 7563 		.string	"touchset redled "
 1405      6873 6574 
 1405      2072 6564 
 1405      6C65 6420 
 1405      00
 1406               		.text
 1407               	.global	_Z6redledii
 1409               	_Z6redledii:
 1410               	.LFB144:
 1411               	.LM197:
 1412               	.LVL61:
 1413 063c 0F93      		push r16
 1414 063e 1F93      		push r17
 1415 0640 CF93      		push r28
 1416 0642 DF93      		push r29
 1417               	/* prologue: function */
 1418               	/* frame size = 0 */
 1419 0644 EC01      		movw r28,r24
 1420 0646 8B01      		movw r16,r22
 1421               	.LM198:
 1422 0648 80E0      		ldi r24,lo8(Serial)
 1423 064a 90E0      		ldi r25,hi8(Serial)
 1424               	.LVL62:
 1425 064c 60E0      		ldi r22,lo8(.LC6)
 1426 064e 70E0      		ldi r23,hi8(.LC6)
 1427               	.LVL63:
 1428 0650 0E94 0000 		call _ZN16USBVirtualSerial5printEPKc
 1429               	.LM199:
 1430 0654 80E0      		ldi r24,lo8(Serial)
 1431 0656 90E0      		ldi r25,hi8(Serial)
 1432 0658 BE01      		movw r22,r28
 1433 065a 0E94 0000 		call _ZN16USBVirtualSerial5printEi
 1434               	.LM200:
 1435 065e 80E0      		ldi r24,lo8(Serial)
 1436 0660 90E0      		ldi r25,hi8(Serial)
 1437 0662 60E0      		ldi r22,lo8(.LC3)
 1438 0664 70E0      		ldi r23,hi8(.LC3)
 1439 0666 0E94 0000 		call _ZN16USBVirtualSerial5printEPKc
 1440               	.LM201:
 1441 066a 80E0      		ldi r24,lo8(Serial)
 1442 066c 90E0      		ldi r25,hi8(Serial)
 1443 066e B801      		movw r22,r16
 1444 0670 0E94 0000 		call _ZN16USBVirtualSerial7printlnEi
 1445               	.LM202:
 1446 0674 C230      		cpi r28,2
 1447 0676 D105      		cpc r29,__zero_reg__
 1448 0678 01F0      		breq .L104
 1449 067a C330      		cpi r28,3
 1450 067c D105      		cpc r29,__zero_reg__
 1451 067e 04F4      		brge .L106
 1452 0680 2097      		sbiw r28,0
 1453 0682 01F0      		breq .L100
 1454 0684 C130      		cpi r28,1
 1455 0686 D105      		cpc r29,__zero_reg__
 1456 0688 01F4      		brne .L107
 1457 068a 00C0      		rjmp .L104
 1458               	.L106:
 1459 068c C430      		cpi r28,4
 1460 068e D105      		cpc r29,__zero_reg__
 1461 0690 01F0      		breq .L104
 1462 0692 C430      		cpi r28,4
 1463 0694 D105      		cpc r29,__zero_reg__
 1464 0696 04F0      		brlt .L103
 1465 0698 2597      		sbiw r28,5
 1466 069a 01F4      		brne .L107
 1467 069c 00C0      		rjmp .L110
 1468               	.L100:
 1469               	.LM203:
 1470 069e 1092 0000 		sts (tricolorBlinkRed)+1,__zero_reg__
 1471 06a2 1092 0000 		sts tricolorBlinkRed,__zero_reg__
 1472 06a6 80E0      		ldi r24,lo8(0)
 1473 06a8 00C0      		rjmp .L109
 1474               	.L103:
 1475               	.LM204:
 1476 06aa 83E0      		ldi r24,lo8(3)
 1477 06ac 90E0      		ldi r25,hi8(3)
 1478 06ae 9093 0000 		sts (tricolorBlinkRed)+1,r25
 1479 06b2 8093 0000 		sts tricolorBlinkRed,r24
 1480 06b6 00C0      		rjmp .L108
 1481               	.L104:
 1482               	.LM205:
 1483 06b8 D093 0000 		sts (tricolorBlinkRed)+1,r29
 1484 06bc C093 0000 		sts tricolorBlinkRed,r28
 1485 06c0 00C0      		rjmp .L108
 1486               	.L110:
 1487               	.LM206:
 1488 06c2 1092 0000 		sts (tricolorBlinkRed)+1,__zero_reg__
 1489 06c6 1092 0000 		sts tricolorBlinkRed,__zero_reg__
 1490               	.L108:
 1491 06ca 81E0      		ldi r24,lo8(1)
 1492               	.L109:
 1493 06cc 6FEF      		ldi r22,lo8(-1)
 1494 06ce 4FEF      		ldi r20,lo8(-1)
 1495 06d0 0E94 0000 		call _Z8tricolorhhh
 1496               	.L107:
 1497               	/* epilogue start */
 1498               	.LM207:
 1499 06d4 DF91      		pop r29
 1500 06d6 CF91      		pop r28
 1501               	.LVL64:
 1502 06d8 1F91      		pop r17
 1503 06da 0F91      		pop r16
 1504               	.LVL65:
 1505 06dc 0895      		ret
 1506               	.LFE144:
 1508               		.data
 1509               	.LC7:
 1510 006f 746F 7563 		.string	"touchset beep "
 1510      6873 6574 
 1510      2062 6565 
 1510      7020 00
 1511               		.text
 1512               	.global	_Z4beepiii
 1514               	_Z4beepiii:
 1515               	.LFB147:
 1516               	.LM208:
 1517               	.LVL66:
 1518 06de AF92      		push r10
 1519 06e0 BF92      		push r11
 1520 06e2 CF92      		push r12
 1521 06e4 DF92      		push r13
 1522 06e6 EF92      		push r14
 1523 06e8 FF92      		push r15
 1524 06ea 0F93      		push r16
 1525 06ec 1F93      		push r17
 1526 06ee CF93      		push r28
 1527 06f0 DF93      		push r29
 1528               	/* prologue: function */
 1529               	/* frame size = 0 */
 1530 06f2 5C01      		movw r10,r24
 1531 06f4 EB01      		movw r28,r22
 1532 06f6 6A01      		movw r12,r20
 1533               	.LBB633:
 1534               	.LM209:
 1535 06f8 80E0      		ldi r24,lo8(Serial)
 1536 06fa 90E0      		ldi r25,hi8(Serial)
 1537               	.LVL67:
 1538 06fc 60E0      		ldi r22,lo8(.LC7)
 1539 06fe 70E0      		ldi r23,hi8(.LC7)
 1540               	.LVL68:
 1541 0700 0E94 0000 		call _ZN16USBVirtualSerial5printEPKc
 1542               	.LVL69:
 1543               	.LM210:
 1544 0704 80E0      		ldi r24,lo8(Serial)
 1545 0706 90E0      		ldi r25,hi8(Serial)
 1546 0708 B501      		movw r22,r10
 1547 070a 0E94 0000 		call _ZN16USBVirtualSerial5printEi
 1548               	.LM211:
 1549 070e 80E0      		ldi r24,lo8(Serial)
 1550 0710 90E0      		ldi r25,hi8(Serial)
 1551 0712 60E0      		ldi r22,lo8(.LC3)
 1552 0714 70E0      		ldi r23,hi8(.LC3)
 1553 0716 0E94 0000 		call _ZN16USBVirtualSerial5printEPKc
 1554               	.LM212:
 1555 071a 80E0      		ldi r24,lo8(Serial)
 1556 071c 90E0      		ldi r25,hi8(Serial)
 1557 071e BE01      		movw r22,r28
 1558 0720 0E94 0000 		call _ZN16USBVirtualSerial5printEi
 1559               	.LM213:
 1560 0724 80E0      		ldi r24,lo8(Serial)
 1561 0726 90E0      		ldi r25,hi8(Serial)
 1562 0728 60E0      		ldi r22,lo8(.LC3)
 1563 072a 70E0      		ldi r23,hi8(.LC3)
 1564 072c 0E94 0000 		call _ZN16USBVirtualSerial5printEPKc
 1565               	.LM214:
 1566 0730 80E0      		ldi r24,lo8(Serial)
 1567 0732 90E0      		ldi r25,hi8(Serial)
 1568 0734 B601      		movw r22,r12
 1569 0736 0E94 0000 		call _ZN16USBVirtualSerial7printlnEi
 1570               	.LM215:
 1571 073a 2097      		sbiw r28,0
 1572 073c 01F4      		brne .L112
 1573               	.LM216:
 1574 073e 8AE2      		ldi r24,lo8(42)
 1575 0740 0E94 0000 		call _Z6noToneh
 1576 0744 00C0      		rjmp .L120
 1577               	.L112:
 1578               	.LM217:
 1579 0746 C430      		cpi r28,4
 1580 0748 D105      		cpc r29,__zero_reg__
 1581 074a 01F4      		brne .L114
 1582 074c 84E6      		ldi r24,lo8(100)
 1583 074e 90E0      		ldi r25,hi8(100)
 1584               	.LVL70:
 1585 0750 00C0      		rjmp .L115
 1586               	.LVL71:
 1587               	.L114:
 1588               	.LM218:
 1589 0752 2397      		sbiw r28,3
 1590 0754 01F4      		brne .L116
 1591 0756 89E1      		ldi r24,lo8(25)
 1592 0758 90E0      		ldi r25,hi8(25)
 1593               	.LVL72:
 1594 075a 00C0      		rjmp .L115
 1595               	.LVL73:
 1596               	.L116:
 1597 075c 88EE      		ldi r24,lo8(1000)
 1598 075e 93E0      		ldi r25,hi8(1000)
 1599               	.LVL74:
 1600               	.L115:
 1601 0760 C0E0      		ldi r28,lo8(0)
 1602 0762 D0E0      		ldi r29,hi8(0)
 1603               	.LVL75:
 1604               	.LBB634:
 1605               	.LM219:
 1606 0764 7C01      		movw r14,r24
 1607 0766 0027      		clr r16
 1608 0768 F7FC      		sbrc r15,7
 1609 076a 0095      		com r16
 1610 076c 102F      		mov r17,r16
 1611               	.LVL76:
 1612 076e 00C0      		rjmp .L117
 1613               	.L119:
 1614               	.LM220:
 1615 0770 1C16      		cp __zero_reg__,r28
 1616 0772 1D06      		cpc __zero_reg__,r29
 1617 0774 04F4      		brge .L118
 1618               	.LM221:
 1619 0776 60E5      		ldi r22,lo8(80)
 1620 0778 70E0      		ldi r23,hi8(80)
 1621 077a 80E0      		ldi r24,hlo8(80)
 1622 077c 90E0      		ldi r25,hhi8(80)
 1623 077e 0E94 0000 		call delay
 1624               	.L118:
 1625               	.LM222:
 1626 0782 8AE2      		ldi r24,lo8(42)
 1627 0784 B501      		movw r22,r10
 1628 0786 A801      		movw r20,r16
 1629 0788 9701      		movw r18,r14
 1630 078a 0E94 0000 		call _Z4tonehjm
 1631               	.LM223:
 1632 078e 2196      		adiw r28,1
 1633               	.L117:
 1634 0790 CC15      		cp r28,r12
 1635 0792 DD05      		cpc r29,r13
 1636 0794 04F0      		brlt .L119
 1637               	.LVL77:
 1638               	.L120:
 1639               	/* epilogue start */
 1640               	.LBE634:
 1641               	.LBE633:
 1642               	.LM224:
 1643 0796 DF91      		pop r29
 1644 0798 CF91      		pop r28
 1645               	.LVL78:
 1646 079a 1F91      		pop r17
 1647 079c 0F91      		pop r16
 1648 079e FF90      		pop r15
 1649 07a0 EF90      		pop r14
 1650               	.LVL79:
 1651 07a2 DF90      		pop r13
 1652 07a4 CF90      		pop r12
 1653               	.LVL80:
 1654 07a6 BF90      		pop r11
 1655 07a8 AF90      		pop r10
 1656               	.LVL81:
 1657 07aa 0895      		ret
 1658               	.LFE147:
 1660               		.data
 1661               	.LC8:
 1662 007e 746F 7563 		.string	"touchset modifierup "
 1662      6873 6574 
 1662      206D 6F64 
 1662      6966 6965 
 1662      7275 7020 
 1663               		.text
 1664               	.global	_Z10modifierupi
 1666               	_Z10modifierupi:
 1667               	.LFB141:
 1668               	.LM225:
 1669               	.LVL82:
 1670 07ac CF93      		push r28
 1671 07ae DF93      		push r29
 1672               	/* prologue: function */
 1673               	/* frame size = 0 */
 1674 07b0 EC01      		movw r28,r24
 1675               	.LM226:
 1676 07b2 80E0      		ldi r24,lo8(Serial)
 1677 07b4 90E0      		ldi r25,hi8(Serial)
 1678               	.LVL83:
 1679 07b6 60E0      		ldi r22,lo8(.LC8)
 1680 07b8 70E0      		ldi r23,hi8(.LC8)
 1681 07ba 0E94 0000 		call _ZN16USBVirtualSerial5printEPKc
 1682               	.LM227:
 1683 07be 80E0      		ldi r24,lo8(Serial)
 1684 07c0 90E0      		ldi r25,hi8(Serial)
 1685 07c2 BE01      		movw r22,r28
 1686 07c4 0E94 0000 		call _ZN16USBVirtualSerial7printlnEi
 1687               	.LM228:
 1688 07c8 6091 0000 		lds r22,modifiersDown
 1689 07cc 7091 0000 		lds r23,(modifiersDown)+1
 1690 07d0 CE01      		movw r24,r28
 1691 07d2 8623      		and r24,r22
 1692 07d4 9723      		and r25,r23
 1693 07d6 1816      		cp __zero_reg__,r24
 1694 07d8 1906      		cpc __zero_reg__,r25
 1695 07da 04F4      		brge .L123
 1696               	.LM229:
 1697 07dc 6C1B      		sub r22,r28
 1698 07de 7D0B      		sbc r23,r29
 1699 07e0 7093 0000 		sts (modifiersDown)+1,r23
 1700 07e4 6093 0000 		sts modifiersDown,r22
 1701               	.LM230:
 1702 07e8 80E0      		ldi r24,lo8(Keyboard)
 1703 07ea 90E0      		ldi r25,hi8(Keyboard)
 1704 07ec 0E94 0000 		call _ZN11USBKeyboard12set_modifierEh
 1705               	.LM231:
 1706 07f0 80E0      		ldi r24,lo8(Keyboard)
 1707 07f2 90E0      		ldi r25,hi8(Keyboard)
 1708 07f4 0E94 0000 		call _ZN11USBKeyboard8send_nowEv
 1709               	.L123:
 1710               	/* epilogue start */
 1711               	.LM232:
 1712 07f8 DF91      		pop r29
 1713 07fa CF91      		pop r28
 1714               	.LVL84:
 1715 07fc 0895      		ret
 1716               	.LFE141:
 1718               	.global	_Z15deactivate_modei
 1720               	_Z15deactivate_modei:
 1721               	.LFB150:
 1722               	.LM233:
 1723               	.LVL85:
 1724               	/* prologue: function */
 1725               	/* frame size = 0 */
 1726               	.LM234:
 1727 07fe 0497      		sbiw r24,4
 1728 0800 01F4      		brne .L127
 1729               	.LM235:
 1730 0802 88E0      		ldi r24,lo8(8)
 1731 0804 90E0      		ldi r25,hi8(8)
 1732               	.LVL86:
 1733 0806 0E94 0000 		call _Z10modifierupi
 1734               	.LVL87:
 1735               	.L127:
 1736 080a 0895      		ret
 1737               	.LFE150:
 1739               		.data
 1740               	.LC9:
 1741 0093 746F 7563 		.string	"touchset modifierdown "
 1741      6873 6574 
 1741      206D 6F64 
 1741      6966 6965 
 1741      7264 6F77 
 1742               		.text
 1743               	.global	_Z12modifierdowni
 1745               	_Z12modifierdowni:
 1746               	.LFB140:
 1747               	.LM236:
 1748               	.LVL88:
 1749 080c EF92      		push r14
 1750 080e FF92      		push r15
 1751 0810 0F93      		push r16
 1752 0812 1F93      		push r17
 1753               	/* prologue: function */
 1754               	/* frame size = 0 */
 1755 0814 7C01      		movw r14,r24
 1756               	.LM237:
 1757 0816 00E0      		ldi r16,lo8(Serial)
 1758 0818 10E0      		ldi r17,hi8(Serial)
 1759 081a C801      		movw r24,r16
 1760               	.LVL89:
 1761 081c 60E0      		ldi r22,lo8(.LC9)
 1762 081e 70E0      		ldi r23,hi8(.LC9)
 1763 0820 0E94 0000 		call _ZN16USBVirtualSerial5printEPKc
 1764               	.LM238:
 1765 0824 C801      		movw r24,r16
 1766 0826 B701      		movw r22,r14
 1767 0828 0E94 0000 		call _ZN16USBVirtualSerial7printlnEi
 1768               	.LM239:
 1769 082c 6091 0000 		lds r22,modifiersDown
 1770 0830 7091 0000 		lds r23,(modifiersDown)+1
 1771 0834 6E29      		or r22,r14
 1772 0836 7F29      		or r23,r15
 1773 0838 7093 0000 		sts (modifiersDown)+1,r23
 1774 083c 6093 0000 		sts modifiersDown,r22
 1775               	.LM240:
 1776 0840 00E0      		ldi r16,lo8(Keyboard)
 1777 0842 10E0      		ldi r17,hi8(Keyboard)
 1778 0844 C801      		movw r24,r16
 1779 0846 0E94 0000 		call _ZN11USBKeyboard12set_modifierEh
 1780               	.LM241:
 1781 084a C801      		movw r24,r16
 1782 084c 0E94 0000 		call _ZN11USBKeyboard8send_nowEv
 1783               	/* epilogue start */
 1784               	.LM242:
 1785 0850 1F91      		pop r17
 1786 0852 0F91      		pop r16
 1787 0854 FF90      		pop r15
 1788 0856 EF90      		pop r14
 1789               	.LVL90:
 1790 0858 0895      		ret
 1791               	.LFE140:
 1793               	.global	_Z13activate_modei
 1795               	_Z13activate_modei:
 1796               	.LFB149:
 1797               	.LM243:
 1798               	.LVL91:
 1799               	/* prologue: function */
 1800               	/* frame size = 0 */
 1801               	.LM244:
 1802 085a 8230      		cpi r24,2
 1803 085c 9105      		cpc r25,__zero_reg__
 1804 085e 01F0      		breq .L134
 1805 0860 8330      		cpi r24,3
 1806 0862 9105      		cpc r25,__zero_reg__
 1807 0864 04F4      		brge .L137
 1808 0866 0097      		sbiw r24,0
 1809 0868 01F0      		breq .L132
 1810 086a 0197      		sbiw r24,1
 1811 086c 01F0      		breq .+2
 1812 086e 00C0      		rjmp .L138
 1813 0870 00C0      		rjmp .L142
 1814               	.L137:
 1815 0872 8330      		cpi r24,3
 1816 0874 9105      		cpc r25,__zero_reg__
 1817 0876 01F0      		breq .L135
 1818 0878 0497      		sbiw r24,4
 1819 087a 01F0      		breq .+2
 1820 087c 00C0      		rjmp .L138
 1821 087e 00C0      		rjmp .L143
 1822               	.L132:
 1823               	.LM245:
 1824 0880 80ED      		ldi r24,lo8(2000)
 1825 0882 97E0      		ldi r25,hi8(2000)
 1826               	.LVL92:
 1827 0884 63E0      		ldi r22,lo8(3)
 1828 0886 70E0      		ldi r23,hi8(3)
 1829 0888 41E0      		ldi r20,lo8(1)
 1830 088a 50E0      		ldi r21,hi8(1)
 1831 088c 0E94 0000 		call _Z4beepiii
 1832               	.LM246:
 1833 0890 80E0      		ldi r24,lo8(0)
 1834 0892 90E0      		ldi r25,hi8(0)
 1835 0894 60E0      		ldi r22,lo8(0)
 1836 0896 70E0      		ldi r23,hi8(0)
 1837 0898 0E94 0000 		call _Z6redledii
 1838               	.LM247:
 1839 089c 85E0      		ldi r24,lo8(5)
 1840 089e 90E0      		ldi r25,hi8(5)
 1841 08a0 00C0      		rjmp .L140
 1842               	.LVL93:
 1843               	.L142:
 1844               	.LM248:
 1845 08a2 80ED      		ldi r24,lo8(2000)
 1846 08a4 97E0      		ldi r25,hi8(2000)
 1847               	.LVL94:
 1848 08a6 63E0      		ldi r22,lo8(3)
 1849 08a8 70E0      		ldi r23,hi8(3)
 1850 08aa 42E0      		ldi r20,lo8(2)
 1851 08ac 50E0      		ldi r21,hi8(2)
 1852 08ae 0E94 0000 		call _Z4beepiii
 1853               	.LM249:
 1854 08b2 80E0      		ldi r24,lo8(0)
 1855 08b4 90E0      		ldi r25,hi8(0)
 1856 08b6 60E0      		ldi r22,lo8(0)
 1857 08b8 70E0      		ldi r23,hi8(0)
 1858 08ba 0E94 0000 		call _Z6redledii
 1859               	.LM250:
 1860 08be 80E0      		ldi r24,lo8(0)
 1861 08c0 90E0      		ldi r25,hi8(0)
 1862 08c2 00C0      		rjmp .L141
 1863               	.LVL95:
 1864               	.L134:
 1865               	.LM251:
 1866 08c4 80ED      		ldi r24,lo8(2000)
 1867 08c6 97E0      		ldi r25,hi8(2000)
 1868               	.LVL96:
 1869 08c8 63E0      		ldi r22,lo8(3)
 1870 08ca 70E0      		ldi r23,hi8(3)
 1871 08cc 43E0      		ldi r20,lo8(3)
 1872 08ce 50E0      		ldi r21,hi8(3)
 1873 08d0 0E94 0000 		call _Z4beepiii
 1874               	.LM252:
 1875 08d4 80E0      		ldi r24,lo8(0)
 1876 08d6 90E0      		ldi r25,hi8(0)
 1877 08d8 60E0      		ldi r22,lo8(0)
 1878 08da 70E0      		ldi r23,hi8(0)
 1879 08dc 0E94 0000 		call _Z6redledii
 1880               	.LM253:
 1881 08e0 85E0      		ldi r24,lo8(5)
 1882 08e2 90E0      		ldi r25,hi8(5)
 1883               	.L141:
 1884 08e4 60E0      		ldi r22,lo8(0)
 1885 08e6 70E0      		ldi r23,hi8(0)
 1886 08e8 0E94 0000 		call _Z8greenledii
 1887               	.LM254:
 1888 08ec 85E0      		ldi r24,lo8(5)
 1889 08ee 90E0      		ldi r25,hi8(5)
 1890 08f0 00C0      		rjmp .L139
 1891               	.LVL97:
 1892               	.L135:
 1893               	.LM255:
 1894 08f2 80ED      		ldi r24,lo8(2000)
 1895 08f4 97E0      		ldi r25,hi8(2000)
 1896               	.LVL98:
 1897 08f6 63E0      		ldi r22,lo8(3)
 1898 08f8 70E0      		ldi r23,hi8(3)
 1899 08fa 44E0      		ldi r20,lo8(4)
 1900 08fc 50E0      		ldi r21,hi8(4)
 1901 08fe 0E94 0000 		call _Z4beepiii
 1902               	.LM256:
 1903 0902 85E0      		ldi r24,lo8(5)
 1904 0904 90E0      		ldi r25,hi8(5)
 1905 0906 60E0      		ldi r22,lo8(0)
 1906 0908 70E0      		ldi r23,hi8(0)
 1907 090a 0E94 0000 		call _Z6redledii
 1908               	.LM257:
 1909 090e 80E0      		ldi r24,lo8(0)
 1910 0910 90E0      		ldi r25,hi8(0)
 1911               	.L140:
 1912 0912 60E0      		ldi r22,lo8(0)
 1913 0914 70E0      		ldi r23,hi8(0)
 1914 0916 0E94 0000 		call _Z8greenledii
 1915               	.LM258:
 1916 091a 80E0      		ldi r24,lo8(0)
 1917 091c 90E0      		ldi r25,hi8(0)
 1918               	.L139:
 1919 091e 60E0      		ldi r22,lo8(0)
 1920 0920 70E0      		ldi r23,hi8(0)
 1921 0922 0E94 0000 		call _Z7blueledii
 1922 0926 0895      		ret
 1923               	.LVL99:
 1924               	.L143:
 1925               	.LM259:
 1926 0928 80E4      		ldi r24,lo8(1600)
 1927 092a 96E0      		ldi r25,hi8(1600)
 1928               	.LVL100:
 1929 092c 64E0      		ldi r22,lo8(4)
 1930 092e 70E0      		ldi r23,hi8(4)
 1931 0930 41E0      		ldi r20,lo8(1)
 1932 0932 50E0      		ldi r21,hi8(1)
 1933 0934 0E94 0000 		call _Z4beepiii
 1934               	.LM260:
 1935 0938 83E0      		ldi r24,lo8(3)
 1936 093a 90E0      		ldi r25,hi8(3)
 1937 093c 60E0      		ldi r22,lo8(0)
 1938 093e 70E0      		ldi r23,hi8(0)
 1939 0940 0E94 0000 		call _Z8greenledii
 1940               	.LM261:
 1941 0944 88E0      		ldi r24,lo8(8)
 1942 0946 90E0      		ldi r25,hi8(8)
 1943 0948 0E94 0000 		call _Z12modifierdowni
 1944               	.LVL101:
 1945               	.L138:
 1946 094c 0895      		ret
 1947               	.LFE149:
 1949               		.data
 1950               	.LC10:
 1951 00aa 746F 7563 		.string	"touchset popmode"
 1951      6873 6574 
 1951      2070 6F70 
 1951      6D6F 6465 
 1951      00
 1952               		.text
 1953               	.global	_Z7popmodev
 1955               	_Z7popmodev:
 1956               	.LFB130:
 1957               	.LM262:
 1958               	/* prologue: function */
 1959               	/* frame size = 0 */
 1960               	.LM263:
 1961 094e 80E0      		ldi r24,lo8(Serial)
 1962 0950 90E0      		ldi r25,hi8(Serial)
 1963 0952 60E0      		ldi r22,lo8(.LC10)
 1964 0954 70E0      		ldi r23,hi8(.LC10)
 1965 0956 0E94 0000 		call _ZN16USBVirtualSerial7printlnEPKc
 1966               	.LM264:
 1967 095a E091 0000 		lds r30,modeStackPos
 1968 095e F091 0000 		lds r31,(modeStackPos)+1
 1969 0962 1E16      		cp __zero_reg__,r30
 1970 0964 1F06      		cpc __zero_reg__,r31
 1971 0966 04F4      		brge .L145
 1972 0968 3197      		sbiw r30,1
 1973 096a F093 0000 		sts (modeStackPos)+1,r31
 1974 096e E093 0000 		sts modeStackPos,r30
 1975 0972 EE0F      		lsl r30
 1976 0974 FF1F      		rol r31
 1977 0976 E050      		subi r30,lo8(-(modeStack))
 1978 0978 F040      		sbci r31,hi8(-(modeStack))
 1979 097a 8081      		ld r24,Z
 1980 097c 9181      		ldd r25,Z+1
 1981 097e 0E94 0000 		call _Z15deactivate_modei
 1982               	.L145:
 1983               	.LM265:
 1984 0982 8091 0000 		lds r24,modeStackPos
 1985 0986 9091 0000 		lds r25,(modeStackPos)+1
 1986 098a 892B      		or r24,r25
 1987 098c 01F4      		brne .L146
 1988 098e 1092 0000 		sts (modeStack)+1,__zero_reg__
 1989 0992 1092 0000 		sts modeStack,__zero_reg__
 1990 0996 81E0      		ldi r24,lo8(1)
 1991 0998 90E0      		ldi r25,hi8(1)
 1992 099a 9093 0000 		sts (modeStackPos)+1,r25
 1993 099e 8093 0000 		sts modeStackPos,r24
 1994               	.L146:
 1995               	.LM266:
 1996 09a2 E091 0000 		lds r30,modeStackPos
 1997 09a6 F091 0000 		lds r31,(modeStackPos)+1
 1998 09aa EE0F      		lsl r30
 1999 09ac FF1F      		rol r31
 2000 09ae E050      		subi r30,lo8(-(modeStack-2))
 2001 09b0 F040      		sbci r31,hi8(-(modeStack-2))
 2002 09b2 8081      		ld r24,Z
 2003 09b4 9181      		ldd r25,Z+1
 2004 09b6 0E94 0000 		call _Z13activate_modei
 2005               	/* epilogue start */
 2006               	.LM267:
 2007 09ba 0895      		ret
 2008               	.LFE130:
 2010               		.data
 2011               	.LC11:
 2012 00bb 746F 7563 		.string	"touchset pushmode "
 2012      6873 6574 
 2012      2070 7573 
 2012      686D 6F64 
 2012      6520 00
 2013               		.text
 2014               	.global	_Z8pushmodei
 2016               	_Z8pushmodei:
 2017               	.LFB129:
 2018               	.LM268:
 2019               	.LVL102:
 2020 09bc CF93      		push r28
 2021 09be DF93      		push r29
 2022               	/* prologue: function */
 2023               	/* frame size = 0 */
 2024 09c0 EC01      		movw r28,r24
 2025               	.LM269:
 2026 09c2 80E0      		ldi r24,lo8(Serial)
 2027 09c4 90E0      		ldi r25,hi8(Serial)
 2028               	.LVL103:
 2029 09c6 60E0      		ldi r22,lo8(.LC11)
 2030 09c8 70E0      		ldi r23,hi8(.LC11)
 2031 09ca 0E94 0000 		call _ZN16USBVirtualSerial5printEPKc
 2032               	.LM270:
 2033 09ce 80E0      		ldi r24,lo8(Serial)
 2034 09d0 90E0      		ldi r25,hi8(Serial)
 2035 09d2 BE01      		movw r22,r28
 2036 09d4 0E94 0000 		call _ZN16USBVirtualSerial7printlnEi
 2037               	.LM271:
 2038 09d8 8091 0000 		lds r24,modeStackPos
 2039 09dc 9091 0000 		lds r25,(modeStackPos)+1
 2040 09e0 8A30      		cpi r24,10
 2041 09e2 9105      		cpc r25,__zero_reg__
 2042 09e4 04F4      		brge .L150
 2043               	.LM272:
 2044 09e6 FC01      		movw r30,r24
 2045 09e8 EE0F      		lsl r30
 2046 09ea FF1F      		rol r31
 2047 09ec E050      		subi r30,lo8(-(modeStack))
 2048 09ee F040      		sbci r31,hi8(-(modeStack))
 2049 09f0 D183      		std Z+1,r29
 2050 09f2 C083      		st Z,r28
 2051               	.LM273:
 2052 09f4 0196      		adiw r24,1
 2053 09f6 9093 0000 		sts (modeStackPos)+1,r25
 2054 09fa 8093 0000 		sts modeStackPos,r24
 2055               	.LM274:
 2056 09fe CE01      		movw r24,r28
 2057 0a00 0E94 0000 		call _Z13activate_modei
 2058               	.L150:
 2059               	/* epilogue start */
 2060               	.LM275:
 2061 0a04 DF91      		pop r29
 2062 0a06 CF91      		pop r28
 2063               	.LVL104:
 2064 0a08 0895      		ret
 2065               	.LFE129:
 2067               		.data
 2068               	.LC12:
 2069 00ce 746F 7563 		.string	"touchset togglemode "
 2069      6873 6574 
 2069      2074 6F67 
 2069      676C 656D 
 2069      6F64 6520 
 2070               		.text
 2071               	.global	_Z10togglemodei
 2073               	_Z10togglemodei:
 2074               	.LFB131:
 2075               	.LM276:
 2076               	.LVL105:
 2077 0a0a 0F93      		push r16
 2078 0a0c 1F93      		push r17
 2079 0a0e CF93      		push r28
 2080 0a10 DF93      		push r29
 2081               	/* prologue: function */
 2082               	/* frame size = 0 */
 2083 0a12 8C01      		movw r16,r24
 2084               	.LBB635:
 2085               	.LM277:
 2086 0a14 80E0      		ldi r24,lo8(Serial)
 2087 0a16 90E0      		ldi r25,hi8(Serial)
 2088               	.LVL106:
 2089 0a18 60E0      		ldi r22,lo8(.LC12)
 2090 0a1a 70E0      		ldi r23,hi8(.LC12)
 2091 0a1c 0E94 0000 		call _ZN16USBVirtualSerial5printEPKc
 2092               	.LM278:
 2093 0a20 80E0      		ldi r24,lo8(Serial)
 2094 0a22 90E0      		ldi r25,hi8(Serial)
 2095 0a24 B801      		movw r22,r16
 2096 0a26 0E94 0000 		call _ZN16USBVirtualSerial7printlnEi
 2097               	.LM279:
 2098 0a2a 2091 0000 		lds r18,modeStackPos
 2099 0a2e 3091 0000 		lds r19,(modeStackPos)+1
 2100 0a32 E0E0      		ldi r30,lo8(modeStack)
 2101 0a34 F0E0      		ldi r31,hi8(modeStack)
 2102 0a36 C0E0      		ldi r28,lo8(0)
 2103 0a38 D0E0      		ldi r29,hi8(0)
 2104               	.LVL107:
 2105 0a3a 00C0      		rjmp .L152
 2106               	.L154:
 2107 0a3c 2196      		adiw r28,1
 2108               	.L152:
 2109 0a3e C217      		cp r28,r18
 2110 0a40 D307      		cpc r29,r19
 2111 0a42 04F4      		brge .L153
 2112 0a44 8191      		ld r24,Z+
 2113 0a46 9191      		ld r25,Z+
 2114 0a48 8017      		cp r24,r16
 2115 0a4a 9107      		cpc r25,r17
 2116 0a4c 01F4      		brne .L154
 2117 0a4e 00C0      		rjmp .L161
 2118               	.L153:
 2119               	.LM280:
 2120 0a50 C801      		movw r24,r16
 2121 0a52 0E94 0000 		call _Z8pushmodei
 2122 0a56 00C0      		rjmp .L159
 2123               	.LVL108:
 2124               	.L157:
 2125               	.LM281:
 2126 0a58 8281      		ldd r24,Z+2
 2127 0a5a 9381      		ldd r25,Z+3
 2128 0a5c 8193      		st Z+,r24
 2129 0a5e 9193      		st Z+,r25
 2130               	.L158:
 2131 0a60 2F5F      		subi r18,lo8(-(1))
 2132 0a62 3F4F      		sbci r19,hi8(-(1))
 2133 0a64 2417      		cp r18,r20
 2134 0a66 3507      		cpc r19,r21
 2135 0a68 04F0      		brlt .L157
 2136               	.LM282:
 2137 0a6a 4150      		subi r20,lo8(-(-1))
 2138 0a6c 5040      		sbci r21,hi8(-(-1))
 2139 0a6e 5093 0000 		sts (modeStackPos)+1,r21
 2140 0a72 4093 0000 		sts modeStackPos,r20
 2141 0a76 00C0      		rjmp .L159
 2142               	.LVL109:
 2143               	.L161:
 2144               	.LM283:
 2145 0a78 C801      		movw r24,r16
 2146 0a7a 0E94 0000 		call _Z15deactivate_modei
 2147               	.LM284:
 2148 0a7e 4091 0000 		lds r20,modeStackPos
 2149 0a82 5091 0000 		lds r21,(modeStackPos)+1
 2150 0a86 9E01      		movw r18,r28
 2151 0a88 FE01      		movw r30,r28
 2152               	.LVL110:
 2153 0a8a EE0F      		lsl r30
 2154 0a8c FF1F      		rol r31
 2155 0a8e E050      		subi r30,lo8(-(modeStack))
 2156 0a90 F040      		sbci r31,hi8(-(modeStack))
 2157 0a92 00C0      		rjmp .L158
 2158               	.LVL111:
 2159               	.L159:
 2160               	/* epilogue start */
 2161               	.LBE635:
 2162               	.LM285:
 2163 0a94 DF91      		pop r29
 2164 0a96 CF91      		pop r28
 2165               	.LVL112:
 2166 0a98 1F91      		pop r17
 2167 0a9a 0F91      		pop r16
 2168               	.LVL113:
 2169 0a9c 0895      		ret
 2170               	.LFE131:
 2172               		.data
 2173               	.LC13:
 2174 00e3 746F 7563 		.string	"touchset setmode "
 2174      6873 6574 
 2174      2073 6574 
 2174      6D6F 6465 
 2174      2000 
 2175               		.text
 2176               	.global	_Z7setmodei
 2178               	_Z7setmodei:
 2179               	.LFB128:
 2180               	.LM286:
 2181               	.LVL114:
 2182 0a9e CF93      		push r28
 2183 0aa0 DF93      		push r29
 2184               	/* prologue: function */
 2185               	/* frame size = 0 */
 2186 0aa2 EC01      		movw r28,r24
 2187               	.LM287:
 2188 0aa4 80E0      		ldi r24,lo8(Serial)
 2189 0aa6 90E0      		ldi r25,hi8(Serial)
 2190               	.LVL115:
 2191 0aa8 60E0      		ldi r22,lo8(.LC13)
 2192 0aaa 70E0      		ldi r23,hi8(.LC13)
 2193 0aac 0E94 0000 		call _ZN16USBVirtualSerial5printEPKc
 2194               	.LM288:
 2195 0ab0 80E0      		ldi r24,lo8(Serial)
 2196 0ab2 90E0      		ldi r25,hi8(Serial)
 2197 0ab4 BE01      		movw r22,r28
 2198 0ab6 0E94 0000 		call _ZN16USBVirtualSerial7printlnEi
 2199 0aba 00C0      		rjmp .L163
 2200               	.L164:
 2201               	.LM289:
 2202 0abc EE0F      		lsl r30
 2203 0abe FF1F      		rol r31
 2204 0ac0 E050      		subi r30,lo8(-(modeStack-2))
 2205 0ac2 F040      		sbci r31,hi8(-(modeStack-2))
 2206 0ac4 8081      		ld r24,Z
 2207 0ac6 9181      		ldd r25,Z+1
 2208 0ac8 0E94 0000 		call _Z15deactivate_modei
 2209 0acc 8091 0000 		lds r24,modeStackPos
 2210 0ad0 9091 0000 		lds r25,(modeStackPos)+1
 2211 0ad4 0197      		sbiw r24,1
 2212 0ad6 9093 0000 		sts (modeStackPos)+1,r25
 2213 0ada 8093 0000 		sts modeStackPos,r24
 2214               	.L163:
 2215 0ade E091 0000 		lds r30,modeStackPos
 2216 0ae2 F091 0000 		lds r31,(modeStackPos)+1
 2217 0ae6 1E16      		cp __zero_reg__,r30
 2218 0ae8 1F06      		cpc __zero_reg__,r31
 2219 0aea 04F0      		brlt .L164
 2220               	.LM290:
 2221 0aec 81E0      		ldi r24,lo8(1)
 2222 0aee 90E0      		ldi r25,hi8(1)
 2223 0af0 9093 0000 		sts (modeStackPos)+1,r25
 2224 0af4 8093 0000 		sts modeStackPos,r24
 2225               	.LM291:
 2226 0af8 D093 0000 		sts (modeStack)+1,r29
 2227 0afc C093 0000 		sts modeStack,r28
 2228               	.LM292:
 2229 0b00 CE01      		movw r24,r28
 2230 0b02 0E94 0000 		call _Z13activate_modei
 2231               	/* epilogue start */
 2232               	.LM293:
 2233 0b06 DF91      		pop r29
 2234 0b08 CF91      		pop r28
 2235               	.LVL116:
 2236 0b0a 0895      		ret
 2237               	.LFE128:
 2239               		.data
 2240               	.LC14:
 2241 00f5 696E 666F 		.string	"info Keyglove device activated"
 2241      204B 6579 
 2241      676C 6F76 
 2241      6520 6465 
 2241      7669 6365 
 2242               		.text
 2243               	.global	setup
 2245               	setup:
 2246               	.LFB153:
 2247               	.LM294:
 2248               	/* prologue: function */
 2249               	/* frame size = 0 */
 2250               	.LM295:
 2251 0b0c 80E0      		ldi r24,lo8(Serial)
 2252 0b0e 90E0      		ldi r25,hi8(Serial)
 2253 0b10 40E0      		ldi r20,lo8(38400)
 2254 0b12 56E9      		ldi r21,hi8(38400)
 2255 0b14 60E0      		ldi r22,hlo8(38400)
 2256 0b16 70E0      		ldi r23,hhi8(38400)
 2257 0b18 0E94 0000 		call _ZN16USBVirtualSerial5beginEm
 2258               	.LM296:
 2259 0b1c 80E0      		ldi r24,lo8(Serial)
 2260 0b1e 90E0      		ldi r25,hi8(Serial)
 2261 0b20 60E0      		ldi r22,lo8(.LC14)
 2262 0b22 70E0      		ldi r23,hi8(.LC14)
 2263 0b24 0E94 0000 		call _ZN16USBVirtualSerial7printlnEPKc
 2264               	.LM297:
 2265 0b28 8BE2      		ldi r24,lo8(43)
 2266 0b2a 61E0      		ldi r22,lo8(1)
 2267 0b2c 0E94 0000 		call pinMode
 2268               	.LM298:
 2269 0b30 8CE2      		ldi r24,lo8(44)
 2270 0b32 61E0      		ldi r22,lo8(1)
 2271 0b34 0E94 0000 		call pinMode
 2272               	.LM299:
 2273 0b38 8DE2      		ldi r24,lo8(45)
 2274 0b3a 61E0      		ldi r22,lo8(1)
 2275 0b3c 0E94 0000 		call pinMode
 2276               	.LM300:
 2277 0b40 81E0      		ldi r24,lo8(1)
 2278 0b42 61E0      		ldi r22,lo8(1)
 2279 0b44 41E0      		ldi r20,lo8(1)
 2280 0b46 0E94 0000 		call _Z8tricolorhhh
 2281               	.LM301:
 2282 0b4a 64E6      		ldi r22,lo8(100)
 2283 0b4c 70E0      		ldi r23,hi8(100)
 2284 0b4e 80E0      		ldi r24,hlo8(100)
 2285 0b50 90E0      		ldi r25,hhi8(100)
 2286 0b52 0E94 0000 		call delay
 2287               	.LM302:
 2288 0b56 80E0      		ldi r24,lo8(0)
 2289 0b58 60E0      		ldi r22,lo8(0)
 2290 0b5a 40E0      		ldi r20,lo8(0)
 2291 0b5c 0E94 0000 		call _Z8tricolorhhh
 2292               	.LM303:
 2293 0b60 86E0      		ldi r24,lo8(6)
 2294 0b62 61E0      		ldi r22,lo8(1)
 2295 0b64 0E94 0000 		call pinMode
 2296               	.LM304:
 2297 0b68 86E0      		ldi r24,lo8(6)
 2298 0b6a 60E0      		ldi r22,lo8(0)
 2299 0b6c 0E94 0000 		call digitalWrite
 2300               	.LM305:
 2301 0b70 1092 0000 		sts blink_led,__zero_reg__
 2302               	.LM306:
 2303 0b74 1092 0000 		sts i,__zero_reg__
 2304 0b78 1092 0000 		sts (i)+1,__zero_reg__
 2305 0b7c 1092 0000 		sts (i)+2,__zero_reg__
 2306 0b80 1092 0000 		sts (i)+3,__zero_reg__
 2307 0b84 00C0      		rjmp .L167
 2308               	.L168:
 2309               	.LM307:
 2310 0b86 FC01      		movw r30,r24
 2311 0b88 EE0F      		lsl r30
 2312 0b8a FF1F      		rol r31
 2313 0b8c E050      		subi r30,lo8(-(pins))
 2314 0b8e F040      		sbci r31,hi8(-(pins))
 2315 0b90 8081      		ld r24,Z
 2316 0b92 60E0      		ldi r22,lo8(0)
 2317 0b94 0E94 0000 		call pinMode
 2318               	.LM308:
 2319 0b98 E091 0000 		lds r30,i
 2320 0b9c F091 0000 		lds r31,(i)+1
 2321 0ba0 EE0F      		lsl r30
 2322 0ba2 FF1F      		rol r31
 2323 0ba4 E050      		subi r30,lo8(-(pins))
 2324 0ba6 F040      		sbci r31,hi8(-(pins))
 2325 0ba8 8081      		ld r24,Z
 2326 0baa 61E0      		ldi r22,lo8(1)
 2327 0bac 0E94 0000 		call digitalWrite
 2328               	.LM309:
 2329 0bb0 8091 0000 		lds r24,i
 2330 0bb4 9091 0000 		lds r25,(i)+1
 2331 0bb8 A091 0000 		lds r26,(i)+2
 2332 0bbc B091 0000 		lds r27,(i)+3
 2333 0bc0 0196      		adiw r24,1
 2334 0bc2 A11D      		adc r26,__zero_reg__
 2335 0bc4 B11D      		adc r27,__zero_reg__
 2336 0bc6 8093 0000 		sts i,r24
 2337 0bca 9093 0000 		sts (i)+1,r25
 2338 0bce A093 0000 		sts (i)+2,r26
 2339 0bd2 B093 0000 		sts (i)+3,r27
 2340               	.L167:
 2341 0bd6 8091 0000 		lds r24,i
 2342 0bda 9091 0000 		lds r25,(i)+1
 2343 0bde A091 0000 		lds r26,(i)+2
 2344 0be2 B091 0000 		lds r27,(i)+3
 2345 0be6 8232      		cpi r24,lo8(34)
 2346 0be8 9105      		cpc r25,__zero_reg__
 2347 0bea A105      		cpc r26,__zero_reg__
 2348 0bec B105      		cpc r27,__zero_reg__
 2349 0bee 04F0      		brlt .L168
 2350               	.LM310:
 2351 0bf0 1092 0000 		sts mode,__zero_reg__
 2352               	.LM311:
 2353 0bf4 80E0      		ldi r24,lo8(accel)
 2354 0bf6 90E0      		ldi r25,hi8(accel)
 2355 0bf8 0E94 0000 		call _ZN13Accelerometer7powerOnEv
 2356               	.LM312:
 2357 0bfc 80E0      		ldi r24,lo8(accel)
 2358 0bfe 90E0      		ldi r25,hi8(accel)
 2359 0c00 40E0      		ldi r20,lo8(0x42c80000)
 2360 0c02 50E0      		ldi r21,hi8(0x42c80000)
 2361 0c04 68EC      		ldi r22,hlo8(0x42c80000)
 2362 0c06 72E4      		ldi r23,hhi8(0x42c80000)
 2363 0c08 0E94 0000 		call _ZN13Accelerometer7setRateEf
 2364               	.LM313:
 2365 0c0c 1092 0000 		sts (z)+1,__zero_reg__
 2366 0c10 1092 0000 		sts z,__zero_reg__
 2367 0c14 1092 0000 		sts (y)+1,__zero_reg__
 2368 0c18 1092 0000 		sts y,__zero_reg__
 2369 0c1c 1092 0000 		sts (x)+1,__zero_reg__
 2370 0c20 1092 0000 		sts x,__zero_reg__
 2371               	.LM314:
 2372 0c24 1092 0000 		sts cz,__zero_reg__
 2373 0c28 1092 0000 		sts (cz)+1,__zero_reg__
 2374 0c2c 1092 0000 		sts (cz)+2,__zero_reg__
 2375 0c30 1092 0000 		sts (cz)+3,__zero_reg__
 2376 0c34 1092 0000 		sts cy,__zero_reg__
 2377 0c38 1092 0000 		sts (cy)+1,__zero_reg__
 2378 0c3c 1092 0000 		sts (cy)+2,__zero_reg__
 2379 0c40 1092 0000 		sts (cy)+3,__zero_reg__
 2380 0c44 1092 0000 		sts cx,__zero_reg__
 2381 0c48 1092 0000 		sts (cx)+1,__zero_reg__
 2382 0c4c 1092 0000 		sts (cx)+2,__zero_reg__
 2383 0c50 1092 0000 		sts (cx)+3,__zero_reg__
 2384               	.LM315:
 2385 0c54 1092 0000 		sts (az)+1,__zero_reg__
 2386 0c58 1092 0000 		sts az,__zero_reg__
 2387 0c5c 1092 0000 		sts (ay)+1,__zero_reg__
 2388 0c60 1092 0000 		sts ay,__zero_reg__
 2389 0c64 1092 0000 		sts (ax)+1,__zero_reg__
 2390 0c68 1092 0000 		sts ax,__zero_reg__
 2391               	.LM316:
 2392 0c6c 1092 0000 		sts accelMicros,__zero_reg__
 2393 0c70 1092 0000 		sts (accelMicros)+1,__zero_reg__
 2394 0c74 1092 0000 		sts (accelMicros)+2,__zero_reg__
 2395 0c78 1092 0000 		sts (accelMicros)+3,__zero_reg__
 2396               	.LM317:
 2397 0c7c 1092 0000 		sts (accelTick)+1,__zero_reg__
 2398 0c80 1092 0000 		sts accelTick,__zero_reg__
 2399               	.LM318:
 2400 0c84 1092 0000 		sts accelCalibrated,__zero_reg__
 2401               	.LM319:
 2402 0c88 1092 0000 		sts (zMin)+1,__zero_reg__
 2403 0c8c 1092 0000 		sts zMin,__zero_reg__
 2404 0c90 1092 0000 		sts (yMin)+1,__zero_reg__
 2405 0c94 1092 0000 		sts yMin,__zero_reg__
 2406 0c98 1092 0000 		sts (xMin)+1,__zero_reg__
 2407 0c9c 1092 0000 		sts xMin,__zero_reg__
 2408               	.LM320:
 2409 0ca0 1092 0000 		sts (zMax)+1,__zero_reg__
 2410 0ca4 1092 0000 		sts zMax,__zero_reg__
 2411 0ca8 1092 0000 		sts (yMax)+1,__zero_reg__
 2412 0cac 1092 0000 		sts yMax,__zero_reg__
 2413 0cb0 1092 0000 		sts (xMax)+1,__zero_reg__
 2414 0cb4 1092 0000 		sts xMax,__zero_reg__
 2415               	.LM321:
 2416 0cb8 80E0      		ldi r24,lo8(gyro)
 2417 0cba 90E0      		ldi r25,hi8(gyro)
 2418 0cbc 68E6      		ldi r22,lo8(104)
 2419 0cbe 70E0      		ldi r23,hi8(104)
 2420 0cc0 0E94 0000 		call _ZN7ITG32004initEj
 2421               	.LM322:
 2422 0cc4 1092 0000 		sts (gz)+1,__zero_reg__
 2423 0cc8 1092 0000 		sts gz,__zero_reg__
 2424 0ccc 1092 0000 		sts (gy)+1,__zero_reg__
 2425 0cd0 1092 0000 		sts gy,__zero_reg__
 2426 0cd4 1092 0000 		sts (gx)+1,__zero_reg__
 2427 0cd8 1092 0000 		sts gx,__zero_reg__
 2428               	.LM323:
 2429 0cdc 1092 0000 		sts gyroMicros,__zero_reg__
 2430 0ce0 1092 0000 		sts (gyroMicros)+1,__zero_reg__
 2431 0ce4 1092 0000 		sts (gyroMicros)+2,__zero_reg__
 2432 0ce8 1092 0000 		sts (gyroMicros)+3,__zero_reg__
 2433               	.LM324:
 2434 0cec 1092 0000 		sts (gyroTick)+1,__zero_reg__
 2435 0cf0 1092 0000 		sts gyroTick,__zero_reg__
 2436               	.LM325:
 2437 0cf4 1092 0000 		sts gyroCalibrated,__zero_reg__
 2438               	.LM326:
 2439 0cf8 1092 0000 		sts (gzMin)+1,__zero_reg__
 2440 0cfc 1092 0000 		sts gzMin,__zero_reg__
 2441 0d00 1092 0000 		sts (gyMin)+1,__zero_reg__
 2442 0d04 1092 0000 		sts gyMin,__zero_reg__
 2443 0d08 1092 0000 		sts (gxMin)+1,__zero_reg__
 2444 0d0c 1092 0000 		sts gxMin,__zero_reg__
 2445               	.LM327:
 2446 0d10 1092 0000 		sts (gzMax)+1,__zero_reg__
 2447 0d14 1092 0000 		sts gzMax,__zero_reg__
 2448 0d18 1092 0000 		sts (gyMax)+1,__zero_reg__
 2449 0d1c 1092 0000 		sts gyMax,__zero_reg__
 2450 0d20 1092 0000 		sts (gxMax)+1,__zero_reg__
 2451 0d24 1092 0000 		sts gxMax,__zero_reg__
 2452               	.LM328:
 2453 0d28 1092 0000 		sts (mz0)+1,__zero_reg__
 2454 0d2c 1092 0000 		sts mz0,__zero_reg__
 2455 0d30 1092 0000 		sts (my0)+1,__zero_reg__
 2456 0d34 1092 0000 		sts my0,__zero_reg__
 2457 0d38 1092 0000 		sts (mx0)+1,__zero_reg__
 2458 0d3c 1092 0000 		sts mx0,__zero_reg__
 2459 0d40 1092 0000 		sts (mz)+1,__zero_reg__
 2460 0d44 1092 0000 		sts mz,__zero_reg__
 2461 0d48 1092 0000 		sts (my)+1,__zero_reg__
 2462 0d4c 1092 0000 		sts my,__zero_reg__
 2463 0d50 1092 0000 		sts (mx)+1,__zero_reg__
 2464 0d54 1092 0000 		sts mx,__zero_reg__
 2465               	.LM329:
 2466 0d58 1092 0000 		sts (sy0)+1,__zero_reg__
 2467 0d5c 1092 0000 		sts sy0,__zero_reg__
 2468 0d60 1092 0000 		sts (sy)+1,__zero_reg__
 2469 0d64 1092 0000 		sts sy,__zero_reg__
 2470               	.LM330:
 2471 0d68 89E2      		ldi r24,lo8(41)
 2472 0d6a 61E0      		ldi r22,lo8(1)
 2473 0d6c 0E94 0000 		call pinMode
 2474               	.LM331:
 2475 0d70 89E2      		ldi r24,lo8(41)
 2476 0d72 60E0      		ldi r22,lo8(0)
 2477 0d74 0E94 0000 		call digitalWrite
 2478               	.LM332:
 2479 0d78 64E6      		ldi r22,lo8(100)
 2480 0d7a 70E0      		ldi r23,hi8(100)
 2481 0d7c 80E0      		ldi r24,hlo8(100)
 2482 0d7e 90E0      		ldi r25,hhi8(100)
 2483 0d80 0E94 0000 		call delay
 2484               	.LM333:
 2485 0d84 89E2      		ldi r24,lo8(41)
 2486 0d86 61E0      		ldi r22,lo8(1)
 2487 0d88 0E94 0000 		call digitalWrite
 2488               	.LM334:
 2489 0d8c 8AE2      		ldi r24,lo8(42)
 2490 0d8e 60EE      		ldi r22,lo8(1760)
 2491 0d90 76E0      		ldi r23,hi8(1760)
 2492 0d92 24E6      		ldi r18,lo8(100)
 2493 0d94 30E0      		ldi r19,hi8(100)
 2494 0d96 40E0      		ldi r20,hlo8(100)
 2495 0d98 50E0      		ldi r21,hhi8(100)
 2496 0d9a 0E94 0000 		call _Z4tonehjm
 2497               	.LM335:
 2498 0d9e 64E6      		ldi r22,lo8(100)
 2499 0da0 70E0      		ldi r23,hi8(100)
 2500 0da2 80E0      		ldi r24,hlo8(100)
 2501 0da4 90E0      		ldi r25,hhi8(100)
 2502 0da6 0E94 0000 		call delay
 2503               	.LM336:
 2504 0daa 8AE2      		ldi r24,lo8(42)
 2505 0dac 60EE      		ldi r22,lo8(1760)
 2506 0dae 76E0      		ldi r23,hi8(1760)
 2507 0db0 24E6      		ldi r18,lo8(100)
 2508 0db2 30E0      		ldi r19,hi8(100)
 2509 0db4 40E0      		ldi r20,hlo8(100)
 2510 0db6 50E0      		ldi r21,hhi8(100)
 2511 0db8 0E94 0000 		call _Z4tonehjm
 2512               	.LM337:
 2513 0dbc 64E6      		ldi r22,lo8(100)
 2514 0dbe 70E0      		ldi r23,hi8(100)
 2515 0dc0 80E0      		ldi r24,hlo8(100)
 2516 0dc2 90E0      		ldi r25,hhi8(100)
 2517 0dc4 0E94 0000 		call delay
 2518               	.LM338:
 2519 0dc8 80E0      		ldi r24,lo8(0)
 2520 0dca 90E0      		ldi r25,hi8(0)
 2521 0dcc 0E94 0000 		call _Z7setmodei
 2522               	.LM339:
 2523 0dd0 0E94 0000 		call millis
 2524 0dd4 6093 0000 		sts t,r22
 2525 0dd8 7093 0000 		sts (t)+1,r23
 2526 0ddc 8093 0000 		sts (t)+2,r24
 2527 0de0 9093 0000 		sts (t)+3,r25
 2528               	/* epilogue start */
 2529               	.LM340:
 2530 0de4 0895      		ret
 2531               	.LFE153:
 2533               		.data
 2534               	.LC15:
 2535 0114 746F 7563 		.string	"touchset modifierpress "
 2535      6873 6574 
 2535      206D 6F64 
 2535      6966 6965 
 2535      7270 7265 
 2536               		.text
 2537               	.global	_Z13modifierpressi
 2539               	_Z13modifierpressi:
 2540               	.LFB143:
 2541               	.LM341:
 2542               	.LVL117:
 2543 0de6 EF92      		push r14
 2544 0de8 FF92      		push r15
 2545 0dea 0F93      		push r16
 2546 0dec 1F93      		push r17
 2547               	/* prologue: function */
 2548               	/* frame size = 0 */
 2549 0dee 7C01      		movw r14,r24
 2550               	.LM342:
 2551 0df0 00E0      		ldi r16,lo8(Serial)
 2552 0df2 10E0      		ldi r17,hi8(Serial)
 2553 0df4 C801      		movw r24,r16
 2554               	.LVL118:
 2555 0df6 60E0      		ldi r22,lo8(.LC15)
 2556 0df8 70E0      		ldi r23,hi8(.LC15)
 2557 0dfa 0E94 0000 		call _ZN16USBVirtualSerial5printEPKc
 2558               	.LM343:
 2559 0dfe C801      		movw r24,r16
 2560 0e00 B701      		movw r22,r14
 2561 0e02 0E94 0000 		call _ZN16USBVirtualSerial7printlnEi
 2562               	.LM344:
 2563 0e06 C701      		movw r24,r14
 2564 0e08 0E94 0000 		call _Z12modifierdowni
 2565               	.LM345:
 2566 0e0c 65E0      		ldi r22,lo8(5)
 2567 0e0e 70E0      		ldi r23,hi8(5)
 2568 0e10 80E0      		ldi r24,hlo8(5)
 2569 0e12 90E0      		ldi r25,hhi8(5)
 2570 0e14 0E94 0000 		call delay
 2571               	.LM346:
 2572 0e18 C701      		movw r24,r14
 2573 0e1a 0E94 0000 		call _Z10modifierupi
 2574               	/* epilogue start */
 2575               	.LM347:
 2576 0e1e 1F91      		pop r17
 2577 0e20 0F91      		pop r16
 2578 0e22 FF90      		pop r15
 2579 0e24 EF90      		pop r14
 2580               	.LVL119:
 2581 0e26 0895      		ret
 2582               	.LFE143:
 2584               		.data
 2585               	.LC16:
 2586 012c 746F 7563 		.string	"touchset modifiertoggle "
 2586      6873 6574 
 2586      206D 6F64 
 2586      6966 6965 
 2586      7274 6F67 
 2587               		.text
 2588               	.global	_Z14togglemodifieri
 2590               	_Z14togglemodifieri:
 2591               	.LFB142:
 2592               	.LM348:
 2593               	.LVL120:
 2594 0e28 CF93      		push r28
 2595 0e2a DF93      		push r29
 2596               	/* prologue: function */
 2597               	/* frame size = 0 */
 2598 0e2c EC01      		movw r28,r24
 2599               	.LM349:
 2600 0e2e 80E0      		ldi r24,lo8(Serial)
 2601 0e30 90E0      		ldi r25,hi8(Serial)
 2602               	.LVL121:
 2603 0e32 60E0      		ldi r22,lo8(.LC16)
 2604 0e34 70E0      		ldi r23,hi8(.LC16)
 2605 0e36 0E94 0000 		call _ZN16USBVirtualSerial5printEPKc
 2606               	.LM350:
 2607 0e3a 80E0      		ldi r24,lo8(Serial)
 2608 0e3c 90E0      		ldi r25,hi8(Serial)
 2609 0e3e BE01      		movw r22,r28
 2610 0e40 0E94 0000 		call _ZN16USBVirtualSerial7printlnEi
 2611               	.LM351:
 2612 0e44 8091 0000 		lds r24,modifiersDown
 2613 0e48 9091 0000 		lds r25,(modifiersDown)+1
 2614 0e4c 8C23      		and r24,r28
 2615 0e4e 9D23      		and r25,r29
 2616 0e50 1816      		cp __zero_reg__,r24
 2617 0e52 1906      		cpc __zero_reg__,r25
 2618 0e54 04F4      		brge .L173
 2619               	.LM352:
 2620 0e56 CE01      		movw r24,r28
 2621 0e58 0E94 0000 		call _Z10modifierupi
 2622 0e5c 00C0      		rjmp .L175
 2623               	.L173:
 2624               	.LM353:
 2625 0e5e CE01      		movw r24,r28
 2626 0e60 0E94 0000 		call _Z12modifierdowni
 2627               	.L175:
 2628               	/* epilogue start */
 2629               	.LM354:
 2630 0e64 DF91      		pop r29
 2631 0e66 CF91      		pop r28
 2632               	.LVL122:
 2633 0e68 0895      		ret
 2634               	.LFE142:
 2636               		.data
 2637               	.LC17:
 2638 0145 746F 7563 		.string	"touchset keyup "
 2638      6873 6574 
 2638      206B 6579 
 2638      7570 2000 
 2639               		.text
 2640               	.global	_Z5keyupi
 2642               	_Z5keyupi:
 2643               	.LFB138:
 2644               	.LM355:
 2645               	.LVL123:
 2646 0e6a CF93      		push r28
 2647 0e6c DF93      		push r29
 2648               	/* prologue: function */
 2649               	/* frame size = 0 */
 2650 0e6e EC01      		movw r28,r24
 2651               	.LBB636:
 2652               	.LM356:
 2653 0e70 80E0      		ldi r24,lo8(Serial)
 2654 0e72 90E0      		ldi r25,hi8(Serial)
 2655               	.LVL124:
 2656 0e74 60E0      		ldi r22,lo8(.LC17)
 2657 0e76 70E0      		ldi r23,hi8(.LC17)
 2658 0e78 0E94 0000 		call _ZN16USBVirtualSerial5printEPKc
 2659               	.LM357:
 2660 0e7c 80E0      		ldi r24,lo8(Serial)
 2661 0e7e 90E0      		ldi r25,hi8(Serial)
 2662 0e80 BE01      		movw r22,r28
 2663 0e82 0E94 0000 		call _ZN16USBVirtualSerial7printlnEi
 2664 0e86 E0E0      		ldi r30,lo8(keysDown)
 2665 0e88 F0E0      		ldi r31,hi8(keysDown)
 2666 0e8a 20E0      		ldi r18,lo8(0)
 2667 0e8c 30E0      		ldi r19,hi8(0)
 2668               	.LVL125:
 2669 0e8e 00C0      		rjmp .L177
 2670               	.L179:
 2671               	.LM358:
 2672 0e90 2F5F      		subi r18,lo8(-(1))
 2673 0e92 3F4F      		sbci r19,hi8(-(1))
 2674 0e94 3296      		adiw r30,2
 2675 0e96 2630      		cpi r18,6
 2676 0e98 3105      		cpc r19,__zero_reg__
 2677 0e9a 01F4      		brne .+2
 2678 0e9c 00C0      		rjmp .L188
 2679               	.L177:
 2680 0e9e 8081      		ld r24,Z
 2681 0ea0 9181      		ldd r25,Z+1
 2682 0ea2 8C17      		cp r24,r28
 2683 0ea4 9D07      		cpc r25,r29
 2684 0ea6 01F4      		brne .L179
 2685               	.LM359:
 2686 0ea8 F901      		movw r30,r18
 2687 0eaa EE0F      		lsl r30
 2688 0eac FF1F      		rol r31
 2689 0eae E050      		subi r30,lo8(-(keysDown))
 2690 0eb0 F040      		sbci r31,hi8(-(keysDown))
 2691 0eb2 1182      		std Z+1,__zero_reg__
 2692 0eb4 1082      		st Z,__zero_reg__
 2693               	.LM360:
 2694 0eb6 2230      		cpi r18,2
 2695 0eb8 3105      		cpc r19,__zero_reg__
 2696 0eba 01F0      		breq .L183
 2697 0ebc 2330      		cpi r18,3
 2698 0ebe 3105      		cpc r19,__zero_reg__
 2699 0ec0 04F4      		brge .L187
 2700 0ec2 2115      		cp r18,__zero_reg__
 2701 0ec4 3105      		cpc r19,__zero_reg__
 2702 0ec6 01F0      		breq .L181
 2703 0ec8 2130      		cpi r18,1
 2704 0eca 3105      		cpc r19,__zero_reg__
 2705 0ecc 01F4      		brne .L180
 2706 0ece 00C0      		rjmp .L189
 2707               	.L187:
 2708 0ed0 2430      		cpi r18,4
 2709 0ed2 3105      		cpc r19,__zero_reg__
 2710 0ed4 01F0      		breq .L185
 2711 0ed6 2430      		cpi r18,4
 2712 0ed8 3105      		cpc r19,__zero_reg__
 2713 0eda 04F0      		brlt .L184
 2714 0edc 2530      		cpi r18,5
 2715 0ede 3105      		cpc r19,__zero_reg__
 2716 0ee0 01F4      		brne .L180
 2717 0ee2 00C0      		rjmp .L190
 2718               	.L181:
 2719               	.LM361:
 2720 0ee4 80E0      		ldi r24,lo8(Keyboard)
 2721 0ee6 90E0      		ldi r25,hi8(Keyboard)
 2722 0ee8 60E0      		ldi r22,lo8(0)
 2723 0eea 0E94 0000 		call _ZN11USBKeyboard8set_key1Eh
 2724               	.LVL126:
 2725 0eee 00C0      		rjmp .L180
 2726               	.LVL127:
 2727               	.L189:
 2728               	.LM362:
 2729 0ef0 80E0      		ldi r24,lo8(Keyboard)
 2730 0ef2 90E0      		ldi r25,hi8(Keyboard)
 2731 0ef4 60E0      		ldi r22,lo8(0)
 2732 0ef6 0E94 0000 		call _ZN11USBKeyboard8set_key2Eh
 2733               	.LVL128:
 2734 0efa 00C0      		rjmp .L180
 2735               	.LVL129:
 2736               	.L183:
 2737               	.LM363:
 2738 0efc 80E0      		ldi r24,lo8(Keyboard)
 2739 0efe 90E0      		ldi r25,hi8(Keyboard)
 2740 0f00 60E0      		ldi r22,lo8(0)
 2741 0f02 0E94 0000 		call _ZN11USBKeyboard8set_key3Eh
 2742               	.LVL130:
 2743 0f06 00C0      		rjmp .L180
 2744               	.LVL131:
 2745               	.L184:
 2746               	.LM364:
 2747 0f08 80E0      		ldi r24,lo8(Keyboard)
 2748 0f0a 90E0      		ldi r25,hi8(Keyboard)
 2749 0f0c 60E0      		ldi r22,lo8(0)
 2750 0f0e 0E94 0000 		call _ZN11USBKeyboard8set_key4Eh
 2751               	.LVL132:
 2752 0f12 00C0      		rjmp .L180
 2753               	.LVL133:
 2754               	.L185:
 2755               	.LM365:
 2756 0f14 80E0      		ldi r24,lo8(Keyboard)
 2757 0f16 90E0      		ldi r25,hi8(Keyboard)
 2758 0f18 60E0      		ldi r22,lo8(0)
 2759 0f1a 0E94 0000 		call _ZN11USBKeyboard8set_key5Eh
 2760               	.LVL134:
 2761 0f1e 00C0      		rjmp .L180
 2762               	.LVL135:
 2763               	.L190:
 2764               	.LM366:
 2765 0f20 80E0      		ldi r24,lo8(Keyboard)
 2766 0f22 90E0      		ldi r25,hi8(Keyboard)
 2767 0f24 60E0      		ldi r22,lo8(0)
 2768 0f26 0E94 0000 		call _ZN11USBKeyboard8set_key6Eh
 2769               	.LVL136:
 2770               	.L180:
 2771               	.LM367:
 2772 0f2a 80E0      		ldi r24,lo8(Keyboard)
 2773 0f2c 90E0      		ldi r25,hi8(Keyboard)
 2774 0f2e 0E94 0000 		call _ZN11USBKeyboard8send_nowEv
 2775               	.LVL137:
 2776               	.L188:
 2777               	/* epilogue start */
 2778               	.LBE636:
 2779               	.LM368:
 2780 0f32 DF91      		pop r29
 2781 0f34 CF91      		pop r28
 2782               	.LVL138:
 2783 0f36 0895      		ret
 2784               	.LFE138:
 2786               		.data
 2787               	.LC18:
 2788 0155 746F 7563 		.string	"touchset keydown "
 2788      6873 6574 
 2788      206B 6579 
 2788      646F 776E 
 2788      2000 
 2789               		.text
 2790               	.global	_Z7keydowni
 2792               	_Z7keydowni:
 2793               	.LFB137:
 2794               	.LM369:
 2795               	.LVL139:
 2796 0f38 0F93      		push r16
 2797 0f3a 1F93      		push r17
 2798               	/* prologue: function */
 2799               	/* frame size = 0 */
 2800 0f3c 182F      		mov r17,r24
 2801 0f3e 092F      		mov r16,r25
 2802               	.LVL140:
 2803               	.LBB637:
 2804               	.LM370:
 2805 0f40 80E0      		ldi r24,lo8(Serial)
 2806 0f42 90E0      		ldi r25,hi8(Serial)
 2807               	.LVL141:
 2808 0f44 60E0      		ldi r22,lo8(.LC18)
 2809 0f46 70E0      		ldi r23,hi8(.LC18)
 2810 0f48 0E94 0000 		call _ZN16USBVirtualSerial5printEPKc
 2811               	.LVL142:
 2812               	.LM371:
 2813 0f4c 80E0      		ldi r24,lo8(Serial)
 2814 0f4e 90E0      		ldi r25,hi8(Serial)
 2815 0f50 612F      		mov r22,r17
 2816 0f52 702F      		mov r23,r16
 2817 0f54 0E94 0000 		call _ZN16USBVirtualSerial7printlnEi
 2818 0f58 E0E0      		ldi r30,lo8(keysDown)
 2819 0f5a F0E0      		ldi r31,hi8(keysDown)
 2820 0f5c 20E0      		ldi r18,lo8(0)
 2821 0f5e 30E0      		ldi r19,hi8(0)
 2822               	.LVL143:
 2823 0f60 00C0      		rjmp .L192
 2824               	.L194:
 2825               	.LM372:
 2826 0f62 2F5F      		subi r18,lo8(-(1))
 2827 0f64 3F4F      		sbci r19,hi8(-(1))
 2828 0f66 3296      		adiw r30,2
 2829 0f68 2630      		cpi r18,6
 2830 0f6a 3105      		cpc r19,__zero_reg__
 2831 0f6c 01F4      		brne .+2
 2832 0f6e 00C0      		rjmp .L203
 2833               	.L192:
 2834 0f70 8081      		ld r24,Z
 2835 0f72 9181      		ldd r25,Z+1
 2836 0f74 892B      		or r24,r25
 2837 0f76 01F4      		brne .L194
 2838               	.LM373:
 2839 0f78 F901      		movw r30,r18
 2840 0f7a EE0F      		lsl r30
 2841 0f7c FF1F      		rol r31
 2842 0f7e E050      		subi r30,lo8(-(keysDown))
 2843 0f80 F040      		sbci r31,hi8(-(keysDown))
 2844 0f82 1083      		st Z,r17
 2845 0f84 0183      		std Z+1,r16
 2846               	.LM374:
 2847 0f86 2230      		cpi r18,2
 2848 0f88 3105      		cpc r19,__zero_reg__
 2849 0f8a 01F0      		breq .L198
 2850 0f8c 2330      		cpi r18,3
 2851 0f8e 3105      		cpc r19,__zero_reg__
 2852 0f90 04F4      		brge .L202
 2853 0f92 2115      		cp r18,__zero_reg__
 2854 0f94 3105      		cpc r19,__zero_reg__
 2855 0f96 01F0      		breq .L196
 2856 0f98 2130      		cpi r18,1
 2857 0f9a 3105      		cpc r19,__zero_reg__
 2858 0f9c 01F4      		brne .L195
 2859 0f9e 00C0      		rjmp .L204
 2860               	.L202:
 2861 0fa0 2430      		cpi r18,4
 2862 0fa2 3105      		cpc r19,__zero_reg__
 2863 0fa4 01F0      		breq .L200
 2864 0fa6 2430      		cpi r18,4
 2865 0fa8 3105      		cpc r19,__zero_reg__
 2866 0faa 04F0      		brlt .L199
 2867 0fac 2530      		cpi r18,5
 2868 0fae 3105      		cpc r19,__zero_reg__
 2869 0fb0 01F4      		brne .L195
 2870 0fb2 00C0      		rjmp .L205
 2871               	.L196:
 2872               	.LM375:
 2873 0fb4 80E0      		ldi r24,lo8(Keyboard)
 2874 0fb6 90E0      		ldi r25,hi8(Keyboard)
 2875 0fb8 612F      		mov r22,r17
 2876 0fba 0E94 0000 		call _ZN11USBKeyboard8set_key1Eh
 2877               	.LVL144:
 2878 0fbe 00C0      		rjmp .L195
 2879               	.LVL145:
 2880               	.L204:
 2881               	.LM376:
 2882 0fc0 80E0      		ldi r24,lo8(Keyboard)
 2883 0fc2 90E0      		ldi r25,hi8(Keyboard)
 2884 0fc4 612F      		mov r22,r17
 2885 0fc6 0E94 0000 		call _ZN11USBKeyboard8set_key2Eh
 2886               	.LVL146:
 2887 0fca 00C0      		rjmp .L195
 2888               	.LVL147:
 2889               	.L198:
 2890               	.LM377:
 2891 0fcc 80E0      		ldi r24,lo8(Keyboard)
 2892 0fce 90E0      		ldi r25,hi8(Keyboard)
 2893 0fd0 612F      		mov r22,r17
 2894 0fd2 0E94 0000 		call _ZN11USBKeyboard8set_key3Eh
 2895               	.LVL148:
 2896 0fd6 00C0      		rjmp .L195
 2897               	.LVL149:
 2898               	.L199:
 2899               	.LM378:
 2900 0fd8 80E0      		ldi r24,lo8(Keyboard)
 2901 0fda 90E0      		ldi r25,hi8(Keyboard)
 2902 0fdc 612F      		mov r22,r17
 2903 0fde 0E94 0000 		call _ZN11USBKeyboard8set_key4Eh
 2904               	.LVL150:
 2905 0fe2 00C0      		rjmp .L195
 2906               	.LVL151:
 2907               	.L200:
 2908               	.LM379:
 2909 0fe4 80E0      		ldi r24,lo8(Keyboard)
 2910 0fe6 90E0      		ldi r25,hi8(Keyboard)
 2911 0fe8 612F      		mov r22,r17
 2912 0fea 0E94 0000 		call _ZN11USBKeyboard8set_key5Eh
 2913               	.LVL152:
 2914 0fee 00C0      		rjmp .L195
 2915               	.LVL153:
 2916               	.L205:
 2917               	.LM380:
 2918 0ff0 80E0      		ldi r24,lo8(Keyboard)
 2919 0ff2 90E0      		ldi r25,hi8(Keyboard)
 2920 0ff4 612F      		mov r22,r17
 2921 0ff6 0E94 0000 		call _ZN11USBKeyboard8set_key6Eh
 2922               	.LVL154:
 2923               	.L195:
 2924               	.LM381:
 2925 0ffa 80E0      		ldi r24,lo8(Keyboard)
 2926 0ffc 90E0      		ldi r25,hi8(Keyboard)
 2927 0ffe 0E94 0000 		call _ZN11USBKeyboard8send_nowEv
 2928               	.LVL155:
 2929               	.L203:
 2930               	/* epilogue start */
 2931               	.LBE637:
 2932               	.LM382:
 2933 1002 1F91      		pop r17
 2934               	.LVL156:
 2935 1004 0F91      		pop r16
 2936               	.LVL157:
 2937 1006 0895      		ret
 2938               	.LFE137:
 2940               		.data
 2941               	.LC19:
 2942 0167 746F 7563 		.string	"touchset keypress "
 2942      6873 6574 
 2942      206B 6579 
 2942      7072 6573 
 2942      7320 00
 2943               		.text
 2944               	.global	_Z8keypressi
 2946               	_Z8keypressi:
 2947               	.LFB139:
 2948               	.LM383:
 2949               	.LVL158:
 2950 1008 EF92      		push r14
 2951 100a FF92      		push r15
 2952 100c 0F93      		push r16
 2953 100e 1F93      		push r17
 2954               	/* prologue: function */
 2955               	/* frame size = 0 */
 2956 1010 7C01      		movw r14,r24
 2957               	.LM384:
 2958 1012 00E0      		ldi r16,lo8(Serial)
 2959 1014 10E0      		ldi r17,hi8(Serial)
 2960 1016 C801      		movw r24,r16
 2961               	.LVL159:
 2962 1018 60E0      		ldi r22,lo8(.LC19)
 2963 101a 70E0      		ldi r23,hi8(.LC19)
 2964 101c 0E94 0000 		call _ZN16USBVirtualSerial5printEPKc
 2965               	.LM385:
 2966 1020 C801      		movw r24,r16
 2967 1022 B701      		movw r22,r14
 2968 1024 0E94 0000 		call _ZN16USBVirtualSerial7printlnEi
 2969               	.LM386:
 2970 1028 C701      		movw r24,r14
 2971 102a 0E94 0000 		call _Z7keydowni
 2972               	.LM387:
 2973 102e 65E0      		ldi r22,lo8(5)
 2974 1030 70E0      		ldi r23,hi8(5)
 2975 1032 80E0      		ldi r24,hlo8(5)
 2976 1034 90E0      		ldi r25,hhi8(5)
 2977 1036 0E94 0000 		call delay
 2978               	.LM388:
 2979 103a C701      		movw r24,r14
 2980 103c 0E94 0000 		call _Z5keyupi
 2981               	/* epilogue start */
 2982               	.LM389:
 2983 1040 1F91      		pop r17
 2984 1042 0F91      		pop r16
 2985 1044 FF90      		pop r15
 2986 1046 EF90      		pop r14
 2987               	.LVL160:
 2988 1048 0895      		ret
 2989               	.LFE139:
 2991               		.data
 2992               	.LC20:
 2993 017a 746F 7563 		.string	"touchset mouseup "
 2993      6873 6574 
 2993      206D 6F75 
 2993      7365 7570 
 2993      2000 
 2994               		.text
 2995               	.global	_Z7mouseupi
 2997               	_Z7mouseupi:
 2998               	.LFB135:
 2999               	.LM390:
 3000               	.LVL161:
 3001 104a CF93      		push r28
 3002 104c DF93      		push r29
 3003               	/* prologue: function */
 3004               	/* frame size = 0 */
 3005 104e EC01      		movw r28,r24
 3006               	.LM391:
 3007 1050 80E0      		ldi r24,lo8(Serial)
 3008 1052 90E0      		ldi r25,hi8(Serial)
 3009               	.LVL162:
 3010 1054 60E0      		ldi r22,lo8(.LC20)
 3011 1056 70E0      		ldi r23,hi8(.LC20)
 3012 1058 0E94 0000 		call _ZN16USBVirtualSerial5printEPKc
 3013               	.LM392:
 3014 105c 80E0      		ldi r24,lo8(Serial)
 3015 105e 90E0      		ldi r25,hi8(Serial)
 3016 1060 BE01      		movw r22,r28
 3017 1062 0E94 0000 		call _ZN16USBVirtualSerial7printlnEi
 3018               	.LM393:
 3019 1066 2091 0000 		lds r18,mouseDown
 3020 106a 3091 0000 		lds r19,(mouseDown)+1
 3021 106e CE01      		movw r24,r28
 3022 1070 8223      		and r24,r18
 3023 1072 9323      		and r25,r19
 3024 1074 1816      		cp __zero_reg__,r24
 3025 1076 1906      		cpc __zero_reg__,r25
 3026 1078 04F4      		brge .L211
 3027               	.LM394:
 3028 107a 2C1B      		sub r18,r28
 3029 107c 3D0B      		sbc r19,r29
 3030 107e 3093 0000 		sts (mouseDown)+1,r19
 3031 1082 2093 0000 		sts mouseDown,r18
 3032               	.LM395:
 3033 1086 60E0      		ldi r22,lo8(0)
 3034 1088 20FD      		sbrc r18,0
 3035 108a 61E0      		ldi r22,lo8(1)
 3036               	.L210:
 3037 108c 3695      		lsr r19
 3038 108e 2795      		ror r18
 3039 1090 422F      		mov r20,r18
 3040 1092 4170      		andi r20,lo8(1)
 3041 1094 3695      		lsr r19
 3042 1096 2795      		ror r18
 3043 1098 2170      		andi r18,lo8(1)
 3044 109a 80E0      		ldi r24,lo8(Mouse)
 3045 109c 90E0      		ldi r25,hi8(Mouse)
 3046 109e 0E94 0000 		call _ZN8USBMouse11set_buttonsEhhh
 3047               	.L211:
 3048               	/* epilogue start */
 3049               	.LM396:
 3050 10a2 DF91      		pop r29
 3051 10a4 CF91      		pop r28
 3052               	.LVL163:
 3053 10a6 0895      		ret
 3054               	.LFE135:
 3056               	.global	_Z21check_sensors_releasemmi
 3058               	_Z21check_sensors_releasemmi:
 3059               	.LFB152:
 3060               	.LM397:
 3061               	.LVL164:
 3062 10a8 4F92      		push r4
 3063 10aa 5F92      		push r5
 3064 10ac 6F92      		push r6
 3065 10ae 7F92      		push r7
 3066 10b0 8F92      		push r8
 3067 10b2 9F92      		push r9
 3068 10b4 AF92      		push r10
 3069 10b6 BF92      		push r11
 3070 10b8 CF92      		push r12
 3071 10ba DF92      		push r13
 3072 10bc EF92      		push r14
 3073 10be FF92      		push r15
 3074 10c0 0F93      		push r16
 3075               	.LVL165:
 3076 10c2 1F93      		push r17
 3077 10c4 DF93      		push r29
 3078 10c6 CF93      		push r28
 3079 10c8 CDB7      		in r28,__SP_L__
 3080 10ca DEB7      		in r29,__SP_H__
 3081 10cc CC54      		subi r28,lo8(-(-76))
 3082 10ce D040      		sbci r29,hi8(-(-76))
 3083 10d0 0FB6      		in __tmp_reg__,__SREG__
 3084 10d2 F894      		cli
 3085 10d4 DEBF      		out __SP_H__,r29
 3086 10d6 0FBE      		out __SREG__,__tmp_reg__
 3087 10d8 CDBF      		out __SP_L__,r28
 3088               	/* prologue: function */
 3089               	/* frame size = 76 */
 3090 10da 6B01      		movw r12,r22
 3091 10dc 7C01      		movw r14,r24
 3092 10de 4901      		movw r8,r18
 3093 10e0 5A01      		movw r10,r20
 3094               	.LBB638:
 3095               	.LBB639:
 3096               	.LM398:
 3097 10e2 6091 0000 		lds r22,modeStackPos
 3098 10e6 7091 0000 		lds r23,(modeStackPos)+1
 3099               	.LVL166:
 3100 10ea 9801      		movw r18,r16
 3101               	.LVL167:
 3102 10ec 40E0      		ldi r20,lo8(0)
 3103 10ee 50E0      		ldi r21,hi8(0)
 3104               	.LBE639:
 3105               	.LBE638:
 3106               	.LM399:
 3107 10f0 D701      		movw r26,r14
 3108 10f2 C601      		movw r24,r12
 3109 10f4 8270      		andi r24,lo8(2)
 3110 10f6 9070      		andi r25,hi8(2)
 3111 10f8 A070      		andi r26,hlo8(2)
 3112 10fa B070      		andi r27,hhi8(2)
 3113 10fc 8983      		std Y+1,r24
 3114 10fe 9A83      		std Y+2,r25
 3115 1100 AB83      		std Y+3,r26
 3116 1102 BC83      		std Y+4,r27
 3117               	.LM400:
 3118 1104 D701      		movw r26,r14
 3119 1106 C601      		movw r24,r12
 3120 1108 8870      		andi r24,lo8(8)
 3121 110a 9070      		andi r25,hi8(8)
 3122 110c A070      		andi r26,hlo8(8)
 3123 110e B070      		andi r27,hhi8(8)
 3124 1110 8D83      		std Y+5,r24
 3125 1112 9E83      		std Y+6,r25
 3126 1114 AF83      		std Y+7,r26
 3127 1116 B887      		std Y+8,r27
 3128               	.LM401:
 3129 1118 D701      		movw r26,r14
 3130 111a C601      		movw r24,r12
 3131 111c 8071      		andi r24,lo8(16)
 3132 111e 9070      		andi r25,hi8(16)
 3133 1120 A070      		andi r26,hlo8(16)
 3134 1122 B070      		andi r27,hhi8(16)
 3135 1124 8987      		std Y+9,r24
 3136 1126 9A87      		std Y+10,r25
 3137 1128 AB87      		std Y+11,r26
 3138 112a BC87      		std Y+12,r27
 3139               	.LM402:
 3140 112c D701      		movw r26,r14
 3141 112e C601      		movw r24,r12
 3142 1130 8072      		andi r24,lo8(32)
 3143 1132 9070      		andi r25,hi8(32)
 3144 1134 A070      		andi r26,hlo8(32)
 3145 1136 B070      		andi r27,hhi8(32)
 3146 1138 8D87      		std Y+13,r24
 3147 113a 9E87      		std Y+14,r25
 3148 113c AF87      		std Y+15,r26
 3149 113e B88B      		std Y+16,r27
 3150               	.LM403:
 3151 1140 D701      		movw r26,r14
 3152 1142 C601      		movw r24,r12
 3153 1144 8074      		andi r24,lo8(64)
 3154 1146 9070      		andi r25,hi8(64)
 3155 1148 A070      		andi r26,hlo8(64)
 3156 114a B070      		andi r27,hhi8(64)
 3157 114c 898B      		std Y+17,r24
 3158 114e 9A8B      		std Y+18,r25
 3159 1150 AB8B      		std Y+19,r26
 3160 1152 BC8B      		std Y+20,r27
 3161               	.LM404:
 3162 1154 D701      		movw r26,r14
 3163 1156 C601      		movw r24,r12
 3164 1158 8070      		andi r24,lo8(256)
 3165 115a 9170      		andi r25,hi8(256)
 3166 115c A070      		andi r26,hlo8(256)
 3167 115e B070      		andi r27,hhi8(256)
 3168 1160 8D8B      		std Y+21,r24
 3169 1162 9E8B      		std Y+22,r25
 3170 1164 AF8B      		std Y+23,r26
 3171 1166 B88F      		std Y+24,r27
 3172               	.LM405:
 3173 1168 D701      		movw r26,r14
 3174 116a C601      		movw r24,r12
 3175 116c 8070      		andi r24,lo8(512)
 3176 116e 9270      		andi r25,hi8(512)
 3177 1170 A070      		andi r26,hlo8(512)
 3178 1172 B070      		andi r27,hhi8(512)
 3179 1174 898F      		std Y+25,r24
 3180 1176 9A8F      		std Y+26,r25
 3181 1178 AB8F      		std Y+27,r26
 3182 117a BC8F      		std Y+28,r27
 3183               	.LM406:
 3184 117c D701      		movw r26,r14
 3185 117e C601      		movw r24,r12
 3186 1180 8070      		andi r24,lo8(2048)
 3187 1182 9870      		andi r25,hi8(2048)
 3188 1184 A070      		andi r26,hlo8(2048)
 3189 1186 B070      		andi r27,hhi8(2048)
 3190 1188 8D8F      		std Y+29,r24
 3191 118a 9E8F      		std Y+30,r25
 3192 118c AF8F      		std Y+31,r26
 3193 118e B8A3      		std Y+32,r27
 3194               	.LM407:
 3195 1190 D701      		movw r26,r14
 3196 1192 C601      		movw r24,r12
 3197 1194 8070      		andi r24,lo8(8192)
 3198 1196 9072      		andi r25,hi8(8192)
 3199 1198 A070      		andi r26,hlo8(8192)
 3200 119a B070      		andi r27,hhi8(8192)
 3201 119c 89A3      		std Y+33,r24
 3202 119e 9AA3      		std Y+34,r25
 3203 11a0 ABA3      		std Y+35,r26
 3204 11a2 BCA3      		std Y+36,r27
 3205               	.LM408:
 3206 11a4 D701      		movw r26,r14
 3207 11a6 C601      		movw r24,r12
 3208 11a8 8070      		andi r24,lo8(16384)
 3209 11aa 9074      		andi r25,hi8(16384)
 3210 11ac A070      		andi r26,hlo8(16384)
 3211 11ae B070      		andi r27,hhi8(16384)
 3212 11b0 8DA3      		std Y+37,r24
 3213 11b2 9EA3      		std Y+38,r25
 3214 11b4 AFA3      		std Y+39,r26
 3215 11b6 B8A7      		std Y+40,r27
 3216               	.LM409:
 3217 11b8 D701      		movw r26,r14
 3218 11ba C601      		movw r24,r12
 3219 11bc 8070      		andi r24,lo8(65536)
 3220 11be 9070      		andi r25,hi8(65536)
 3221 11c0 A170      		andi r26,hlo8(65536)
 3222 11c2 B070      		andi r27,hhi8(65536)
 3223 11c4 89A7      		std Y+41,r24
 3224 11c6 9AA7      		std Y+42,r25
 3225 11c8 ABA7      		std Y+43,r26
 3226 11ca BCA7      		std Y+44,r27
 3227               	.LM410:
 3228 11cc D701      		movw r26,r14
 3229 11ce C601      		movw r24,r12
 3230 11d0 8070      		andi r24,lo8(131072)
 3231 11d2 9070      		andi r25,hi8(131072)
 3232 11d4 A270      		andi r26,hlo8(131072)
 3233 11d6 B070      		andi r27,hhi8(131072)
 3234 11d8 8DA7      		std Y+45,r24
 3235 11da 9EA7      		std Y+46,r25
 3236 11dc AFA7      		std Y+47,r26
 3237 11de B8AB      		std Y+48,r27
 3238               	.LM411:
 3239 11e0 D701      		movw r26,r14
 3240 11e2 C601      		movw r24,r12
 3241 11e4 8070      		andi r24,lo8(1048576)
 3242 11e6 9070      		andi r25,hi8(1048576)
 3243 11e8 A071      		andi r26,hlo8(1048576)
 3244 11ea B070      		andi r27,hhi8(1048576)
 3245 11ec 89AB      		std Y+49,r24
 3246 11ee 9AAB      		std Y+50,r25
 3247 11f0 ABAB      		std Y+51,r26
 3248 11f2 BCAB      		std Y+52,r27
 3249               	.LM412:
 3250 11f4 D701      		movw r26,r14
 3251 11f6 C601      		movw r24,r12
 3252 11f8 8070      		andi r24,lo8(2097152)
 3253 11fa 9070      		andi r25,hi8(2097152)
 3254 11fc A072      		andi r26,hlo8(2097152)
 3255 11fe B070      		andi r27,hhi8(2097152)
 3256 1200 8DAB      		std Y+53,r24
 3257 1202 9EAB      		std Y+54,r25
 3258 1204 AFAB      		std Y+55,r26
 3259 1206 B8AF      		std Y+56,r27
 3260               	.LM413:
 3261 1208 D701      		movw r26,r14
 3262 120a C601      		movw r24,r12
 3263 120c 8070      		andi r24,lo8(4194304)
 3264 120e 9070      		andi r25,hi8(4194304)
 3265 1210 A074      		andi r26,hlo8(4194304)
 3266 1212 B070      		andi r27,hhi8(4194304)
 3267 1214 89AF      		std Y+57,r24
 3268 1216 9AAF      		std Y+58,r25
 3269 1218 ABAF      		std Y+59,r26
 3270 121a BCAF      		std Y+60,r27
 3271               	.LM414:
 3272 121c D701      		movw r26,r14
 3273 121e C601      		movw r24,r12
 3274 1220 8070      		andi r24,lo8(8388608)
 3275 1222 9070      		andi r25,hi8(8388608)
 3276 1224 A078      		andi r26,hlo8(8388608)
 3277 1226 B070      		andi r27,hhi8(8388608)
 3278 1228 2196      		adiw r28,61-60
 3279 122a 8CAF      		std Y+60,r24
 3280 122c 9DAF      		std Y+61,r25
 3281 122e AEAF      		std Y+62,r26
 3282 1230 BFAF      		std Y+63,r27
 3283 1232 2197      		sbiw r28,61-60
 3284               	.LM415:
 3285 1234 D701      		movw r26,r14
 3286 1236 C601      		movw r24,r12
 3287 1238 8070      		andi r24,lo8(16777216)
 3288 123a 9070      		andi r25,hi8(16777216)
 3289 123c A070      		andi r26,hlo8(16777216)
 3290 123e B170      		andi r27,hhi8(16777216)
 3291 1240 2596      		adiw r28,65-60
 3292 1242 8CAF      		std Y+60,r24
 3293 1244 9DAF      		std Y+61,r25
 3294 1246 AEAF      		std Y+62,r26
 3295 1248 BFAF      		std Y+63,r27
 3296 124a 2597      		sbiw r28,65-60
 3297               	.LM416:
 3298 124c D701      		movw r26,r14
 3299 124e C601      		movw r24,r12
 3300 1250 8070      		andi r24,lo8(67108864)
 3301 1252 9070      		andi r25,hi8(67108864)
 3302 1254 A070      		andi r26,hlo8(67108864)
 3303 1256 B470      		andi r27,hhi8(67108864)
 3304 1258 2996      		adiw r28,69-60
 3305 125a 8CAF      		std Y+60,r24
 3306 125c 9DAF      		std Y+61,r25
 3307 125e AEAF      		std Y+62,r26
 3308 1260 BFAF      		std Y+63,r27
 3309 1262 2997      		sbiw r28,69-60
 3310               	.LM417:
 3311 1264 D701      		movw r26,r14
 3312 1266 C601      		movw r24,r12
 3313 1268 8070      		andi r24,lo8(268435456)
 3314 126a 9070      		andi r25,hi8(268435456)
 3315 126c A070      		andi r26,hlo8(268435456)
 3316 126e B071      		andi r27,hhi8(268435456)
 3317 1270 2D96      		adiw r28,73-60
 3318 1272 8CAF      		std Y+60,r24
 3319 1274 9DAF      		std Y+61,r25
 3320 1276 AEAF      		std Y+62,r26
 3321 1278 BFAF      		std Y+63,r27
 3322 127a 2D97      		sbiw r28,73-60
 3323               	.LM418:
 3324 127c 412C      		mov r4,__zero_reg__
 3325 127e 512C      		mov r5,__zero_reg__
 3326 1280 612C      		mov r6,__zero_reg__
 3327 1282 F0E4      		ldi r31,hhi8(1073741824)
 3328 1284 7F2E      		mov r7,r31
 3329 1286 4C20      		and r4,r12
 3330 1288 5D20      		and r5,r13
 3331 128a 6E20      		and r6,r14
 3332 128c 7F20      		and r7,r15
 3333               	.LBB641:
 3334               	.LBB642:
 3335               	.LM419:
 3336 128e 8FEF      		ldi r24,lo8(32767)
 3337 1290 9FE7      		ldi r25,hi8(32767)
 3338 1292 289F      		mul r18,r24
 3339 1294 8001      		movw r16,r0
 3340 1296 299F      		mul r18,r25
 3341 1298 100D      		add r17,r0
 3342 129a 389F      		mul r19,r24
 3343 129c 100D      		add r17,r0
 3344 129e 1124      		clr r1
 3345               	.LVL168:
 3346 12a0 060F      		add r16,r22
 3347 12a2 171F      		adc r17,r23
 3348 12a4 000F      		lsl r16
 3349 12a6 111F      		rol r17
 3350 12a8 0050      		subi r16,lo8(-(modeStack))
 3351 12aa 1040      		sbci r17,hi8(-(modeStack))
 3352               	.L339:
 3353               	.LBE642:
 3354               	.LBE641:
 3355               	.LM420:
 3356 12ac 8981      		ldd r24,Y+1
 3357 12ae 9A81      		ldd r25,Y+2
 3358 12b0 AB81      		ldd r26,Y+3
 3359 12b2 BC81      		ldd r27,Y+4
 3360 12b4 0097      		sbiw r24,0
 3361 12b6 A105      		cpc r26,__zero_reg__
 3362 12b8 B105      		cpc r27,__zero_reg__
 3363 12ba 01F0      		breq .L213
 3364               	.LBB644:
 3365               	.LBB640:
 3366               	.LM421:
 3367 12bc 6217      		cp r22,r18
 3368 12be 7307      		cpc r23,r19
 3369 12c0 04F4      		brge .+4
 3370 12c2 0C94 0000 		jmp .L352
 3371               	.LM422:
 3372 12c6 F801      		movw r30,r16
 3373 12c8 E40F      		add r30,r20
 3374 12ca F51F      		adc r31,r21
 3375 12cc 0190      		ld __tmp_reg__,Z+
 3376 12ce F081      		ld r31,Z
 3377 12d0 E02D      		mov r30,__tmp_reg__
 3378               	.LBE640:
 3379               	.LBE644:
 3380               	.LM423:
 3381 12d2 3097      		sbiw r30,0
 3382 12d4 01F4      		brne .L215
 3383               	.LM424:
 3384 12d6 87E3      		ldi r24,lo8(55)
 3385 12d8 90E0      		ldi r25,hi8(55)
 3386 12da 0E94 0000 		call _Z8keypressi
 3387               	.LVL169:
 3388               	.LM425:
 3389 12de 82E0      		ldi r24,lo8(2)
 3390 12e0 90E0      		ldi r25,hi8(2)
 3391 12e2 0E94 0000 		call _Z10modifierupi
 3392               	.LM426:
 3393 12e6 84E0      		ldi r24,lo8(4)
 3394 12e8 90E0      		ldi r25,hi8(4)
 3395 12ea 0E94 0000 		call _Z10modifierupi
 3396               	.LM427:
 3397 12ee 81E0      		ldi r24,lo8(1)
 3398 12f0 90E0      		ldi r25,hi8(1)
 3399 12f2 0E94 0000 		call _Z10modifierupi
 3400 12f6 0C94 0000 		jmp .L352
 3401               	.LVL170:
 3402               	.L215:
 3403               	.LM428:
 3404 12fa E130      		cpi r30,1
 3405 12fc F105      		cpc r31,__zero_reg__
 3406 12fe 01F0      		breq .L216
 3407 1300 E230      		cpi r30,2
 3408 1302 F105      		cpc r31,__zero_reg__
 3409 1304 01F0      		breq .L216
 3410 1306 3397      		sbiw r30,3
 3411 1308 01F0      		breq .+4
 3412 130a 0C94 0000 		jmp .L217
 3413               	.L216:
 3414               	.LM429:
 3415 130e 89E2      		ldi r24,lo8(41)
 3416 1310 90E0      		ldi r25,hi8(41)
 3417 1312 0E94 0000 		call _Z8keypressi
 3418               	.LVL171:
 3419               	.LM430:
 3420 1316 82E0      		ldi r24,lo8(2)
 3421 1318 90E0      		ldi r25,hi8(2)
 3422 131a 0E94 0000 		call _Z10modifierupi
 3423               	.LM431:
 3424 131e 84E0      		ldi r24,lo8(4)
 3425 1320 90E0      		ldi r25,hi8(4)
 3426 1322 0E94 0000 		call _Z10modifierupi
 3427               	.LM432:
 3428 1326 81E0      		ldi r24,lo8(1)
 3429 1328 90E0      		ldi r25,hi8(1)
 3430 132a 0E94 0000 		call _Z10modifierupi
 3431 132e 0C94 0000 		jmp .L352
 3432               	.LVL172:
 3433               	.L213:
 3434               	.LM433:
 3435 1332 8D81      		ldd r24,Y+5
 3436 1334 9E81      		ldd r25,Y+6
 3437 1336 AF81      		ldd r26,Y+7
 3438 1338 B885      		ldd r27,Y+8
 3439 133a 0097      		sbiw r24,0
 3440 133c A105      		cpc r26,__zero_reg__
 3441 133e B105      		cpc r27,__zero_reg__
 3442 1340 01F4      		brne .+2
 3443 1342 00C0      		rjmp .L218
 3444               	.LM434:
 3445 1344 D701      		movw r26,r14
 3446 1346 C601      		movw r24,r12
 3447 1348 8870      		andi r24,lo8(8200)
 3448 134a 9072      		andi r25,hi8(8200)
 3449 134c A070      		andi r26,hlo8(8200)
 3450 134e B070      		andi r27,hhi8(8200)
 3451 1350 8850      		subi r24,lo8(8200)
 3452 1352 9042      		sbci r25,hi8(8200)
 3453 1354 A040      		sbci r26,hlo8(8200)
 3454 1356 B040      		sbci r27,hhi8(8200)
 3455 1358 01F4      		brne .L219
 3456               	.LBB645:
 3457               	.LBB646:
 3458               	.LM435:
 3459 135a 6217      		cp r22,r18
 3460 135c 7307      		cpc r23,r19
 3461 135e 04F4      		brge .+4
 3462 1360 0C94 0000 		jmp .L352
 3463               	.LM436:
 3464 1364 F801      		movw r30,r16
 3465 1366 E40F      		add r30,r20
 3466 1368 F51F      		adc r31,r21
 3467 136a 0190      		ld __tmp_reg__,Z+
 3468 136c F081      		ld r31,Z
 3469 136e E02D      		mov r30,__tmp_reg__
 3470               	.LBE646:
 3471               	.LBE645:
 3472               	.LM437:
 3473 1370 3097      		sbiw r30,0
 3474 1372 01F0      		breq .L220
 3475 1374 E230      		cpi r30,2
 3476 1376 F105      		cpc r31,__zero_reg__
 3477 1378 01F0      		breq .L220
 3478 137a E330      		cpi r30,3
 3479 137c F105      		cpc r31,__zero_reg__
 3480 137e 01F4      		brne .L221
 3481               	.L220:
 3482               	.LM438:
 3483 1380 88E2      		ldi r24,lo8(40)
 3484 1382 90E0      		ldi r25,hi8(40)
 3485 1384 0E94 0000 		call _Z8keypressi
 3486               	.LVL173:
 3487               	.LM439:
 3488 1388 82E0      		ldi r24,lo8(2)
 3489 138a 90E0      		ldi r25,hi8(2)
 3490 138c 0E94 0000 		call _Z10modifierupi
 3491               	.LM440:
 3492 1390 84E0      		ldi r24,lo8(4)
 3493 1392 90E0      		ldi r25,hi8(4)
 3494 1394 0E94 0000 		call _Z10modifierupi
 3495               	.LM441:
 3496 1398 81E0      		ldi r24,lo8(1)
 3497 139a 90E0      		ldi r25,hi8(1)
 3498 139c 0E94 0000 		call _Z10modifierupi
 3499 13a0 0C94 0000 		jmp .L352
 3500               	.LVL174:
 3501               	.L221:
 3502               	.LM442:
 3503 13a4 3197      		sbiw r30,1
 3504 13a6 01F0      		breq .+4
 3505 13a8 0C94 0000 		jmp .L217
 3506               	.LM443:
 3507 13ac 88E5      		ldi r24,lo8(88)
 3508 13ae 90E0      		ldi r25,hi8(88)
 3509 13b0 0E94 0000 		call _Z8keypressi
 3510               	.LVL175:
 3511               	.LM444:
 3512 13b4 82E0      		ldi r24,lo8(2)
 3513 13b6 90E0      		ldi r25,hi8(2)
 3514 13b8 0E94 0000 		call _Z10modifierupi
 3515               	.LM445:
 3516 13bc 84E0      		ldi r24,lo8(4)
 3517 13be 90E0      		ldi r25,hi8(4)
 3518 13c0 0E94 0000 		call _Z10modifierupi
 3519               	.LM446:
 3520 13c4 81E0      		ldi r24,lo8(1)
 3521 13c6 90E0      		ldi r25,hi8(1)
 3522 13c8 0E94 0000 		call _Z10modifierupi
 3523 13cc 0C94 0000 		jmp .L352
 3524               	.LVL176:
 3525               	.L219:
 3526               	.LM447:
 3527 13d0 87FC      		sbrc r8,7
 3528 13d2 00C0      		rjmp .+4
 3529 13d4 0C94 0000 		jmp .L222
 3530               	.LBB647:
 3531               	.LBB648:
 3532               	.LM448:
 3533 13d8 6217      		cp r22,r18
 3534 13da 7307      		cpc r23,r19
 3535 13dc 04F4      		brge .+4
 3536 13de 0C94 0000 		jmp .L352
 3537               	.LM449:
 3538 13e2 F801      		movw r30,r16
 3539 13e4 E40F      		add r30,r20
 3540 13e6 F51F      		adc r31,r21
 3541 13e8 0190      		ld __tmp_reg__,Z+
 3542 13ea F081      		ld r31,Z
 3543 13ec E02D      		mov r30,__tmp_reg__
 3544               	.LBE648:
 3545               	.LBE647:
 3546               	.LM450:
 3547 13ee 3097      		sbiw r30,0
 3548 13f0 01F0      		breq .L223
 3549 13f2 E130      		cpi r30,1
 3550 13f4 F105      		cpc r31,__zero_reg__
 3551 13f6 01F0      		breq .L223
 3552 13f8 E230      		cpi r30,2
 3553 13fa F105      		cpc r31,__zero_reg__
 3554 13fc 01F0      		breq .L223
 3555 13fe 3397      		sbiw r30,3
 3556 1400 01F4      		brne .L224
 3557               	.L223:
 3558               	.LM451:
 3559 1402 8BE2      		ldi r24,lo8(43)
 3560 1404 90E0      		ldi r25,hi8(43)
 3561 1406 0E94 0000 		call _Z8keypressi
 3562               	.LVL177:
 3563               	.LM452:
 3564 140a 82E0      		ldi r24,lo8(2)
 3565 140c 90E0      		ldi r25,hi8(2)
 3566 140e 0E94 0000 		call _Z10modifierupi
 3567               	.LM453:
 3568 1412 84E0      		ldi r24,lo8(4)
 3569 1414 90E0      		ldi r25,hi8(4)
 3570 1416 0E94 0000 		call _Z10modifierupi
 3571               	.LM454:
 3572 141a 81E0      		ldi r24,lo8(1)
 3573 141c 90E0      		ldi r25,hi8(1)
 3574 141e 0E94 0000 		call _Z10modifierupi
 3575 1422 0C94 0000 		jmp .L352
 3576               	.LVL178:
 3577               	.L224:
 3578               	.LBB649:
 3579               	.LBB650:
 3580               	.LM455:
 3581 1426 F801      		movw r30,r16
 3582 1428 E40F      		add r30,r20
 3583 142a F51F      		adc r31,r21
 3584 142c 0190      		ld __tmp_reg__,Z+
 3585 142e F081      		ld r31,Z
 3586 1430 E02D      		mov r30,__tmp_reg__
 3587               	.LBE650:
 3588               	.LBE649:
 3589               	.LM456:
 3590 1432 3097      		sbiw r30,0
 3591 1434 01F4      		brne .L225
 3592               	.LM457:
 3593 1436 86E1      		ldi r24,lo8(22)
 3594 1438 90E0      		ldi r25,hi8(22)
 3595 143a 0E94 0000 		call _Z8keypressi
 3596               	.LVL179:
 3597               	.LM458:
 3598 143e 82E0      		ldi r24,lo8(2)
 3599 1440 90E0      		ldi r25,hi8(2)
 3600 1442 0E94 0000 		call _Z10modifierupi
 3601               	.LM459:
 3602 1446 84E0      		ldi r24,lo8(4)
 3603 1448 90E0      		ldi r25,hi8(4)
 3604 144a 0E94 0000 		call _Z10modifierupi
 3605               	.LM460:
 3606 144e 81E0      		ldi r24,lo8(1)
 3607 1450 90E0      		ldi r25,hi8(1)
 3608 1452 0E94 0000 		call _Z10modifierupi
 3609 1456 0C94 0000 		jmp .L352
 3610               	.LVL180:
 3611               	.L225:
 3612               	.LM461:
 3613 145a E130      		cpi r30,1
 3614 145c F105      		cpc r31,__zero_reg__
 3615 145e 01F4      		brne .L226
 3616               	.LM462:
 3617 1460 82E0      		ldi r24,lo8(2)
 3618 1462 90E0      		ldi r25,hi8(2)
 3619 1464 0E94 0000 		call _Z12modifierdowni
 3620               	.LVL181:
 3621               	.LM463:
 3622 1468 80E2      		ldi r24,lo8(32)
 3623 146a 90E0      		ldi r25,hi8(32)
 3624 146c 0E94 0000 		call _Z8keypressi
 3625               	.LM464:
 3626 1470 82E0      		ldi r24,lo8(2)
 3627 1472 90E0      		ldi r25,hi8(2)
 3628 1474 0E94 0000 		call _Z10modifierupi
 3629               	.LM465:
 3630 1478 84E0      		ldi r24,lo8(4)
 3631 147a 90E0      		ldi r25,hi8(4)
 3632 147c 0E94 0000 		call _Z10modifierupi
 3633               	.LM466:
 3634 1480 81E0      		ldi r24,lo8(1)
 3635 1482 90E0      		ldi r25,hi8(1)
 3636 1484 0E94 0000 		call _Z10modifierupi
 3637 1488 0C94 0000 		jmp .L352
 3638               	.LVL182:
 3639               	.L226:
 3640               	.LM467:
 3641 148c E230      		cpi r30,2
 3642 148e F105      		cpc r31,__zero_reg__
 3643 1490 01F4      		brne .L227
 3644               	.LM468:
 3645 1492 83E3      		ldi r24,lo8(51)
 3646 1494 90E0      		ldi r25,hi8(51)
 3647 1496 0E94 0000 		call _Z8keypressi
 3648               	.LVL183:
 3649               	.LM469:
 3650 149a 82E0      		ldi r24,lo8(2)
 3651 149c 90E0      		ldi r25,hi8(2)
 3652 149e 0E94 0000 		call _Z10modifierupi
 3653               	.LM470:
 3654 14a2 84E0      		ldi r24,lo8(4)
 3655 14a4 90E0      		ldi r25,hi8(4)
 3656 14a6 0E94 0000 		call _Z10modifierupi
 3657               	.LM471:
 3658 14aa 81E0      		ldi r24,lo8(1)
 3659 14ac 90E0      		ldi r25,hi8(1)
 3660 14ae 0E94 0000 		call _Z10modifierupi
 3661 14b2 0C94 0000 		jmp .L352
 3662               	.LVL184:
 3663               	.L227:
 3664               	.LM472:
 3665 14b6 3397      		sbiw r30,3
 3666 14b8 01F0      		breq .+4
 3667 14ba 0C94 0000 		jmp .L217
 3668               	.LM473:
 3669 14be 83E4      		ldi r24,lo8(67)
 3670 14c0 90E0      		ldi r25,hi8(67)
 3671 14c2 0E94 0000 		call _Z8keypressi
 3672               	.LVL185:
 3673               	.LM474:
 3674 14c6 82E0      		ldi r24,lo8(2)
 3675 14c8 90E0      		ldi r25,hi8(2)
 3676 14ca 0E94 0000 		call _Z10modifierupi
 3677               	.LM475:
 3678 14ce 84E0      		ldi r24,lo8(4)
 3679 14d0 90E0      		ldi r25,hi8(4)
 3680 14d2 0E94 0000 		call _Z10modifierupi
 3681               	.LM476:
 3682 14d6 81E0      		ldi r24,lo8(1)
 3683 14d8 90E0      		ldi r25,hi8(1)
 3684 14da 0E94 0000 		call _Z10modifierupi
 3685 14de 0C94 0000 		jmp .L352
 3686               	.LVL186:
 3687               	.L218:
 3688               	.LM477:
 3689 14e2 8985      		ldd r24,Y+9
 3690 14e4 9A85      		ldd r25,Y+10
 3691 14e6 AB85      		ldd r26,Y+11
 3692 14e8 BC85      		ldd r27,Y+12
 3693 14ea 0097      		sbiw r24,0
 3694 14ec A105      		cpc r26,__zero_reg__
 3695 14ee B105      		cpc r27,__zero_reg__
 3696 14f0 01F4      		brne .+2
 3697 14f2 00C0      		rjmp .L228
 3698               	.LBB652:
 3699               	.LBB653:
 3700               	.LM478:
 3701 14f4 6217      		cp r22,r18
 3702 14f6 7307      		cpc r23,r19
 3703 14f8 04F4      		brge .+4
 3704 14fa 0C94 0000 		jmp .L352
 3705               	.LM479:
 3706 14fe F801      		movw r30,r16
 3707 1500 E40F      		add r30,r20
 3708 1502 F51F      		adc r31,r21
 3709 1504 0190      		ld __tmp_reg__,Z+
 3710 1506 F081      		ld r31,Z
 3711 1508 E02D      		mov r30,__tmp_reg__
 3712               	.LBE653:
 3713               	.LBE652:
 3714               	.LM480:
 3715 150a 3097      		sbiw r30,0
 3716 150c 01F4      		brne .L229
 3717               	.LM481:
 3718 150e 86E0      		ldi r24,lo8(6)
 3719 1510 90E0      		ldi r25,hi8(6)
 3720 1512 0E94 0000 		call _Z8keypressi
 3721               	.LVL187:
 3722               	.LM482:
 3723 1516 82E0      		ldi r24,lo8(2)
 3724 1518 90E0      		ldi r25,hi8(2)
 3725 151a 0E94 0000 		call _Z10modifierupi
 3726               	.LM483:
 3727 151e 84E0      		ldi r24,lo8(4)
 3728 1520 90E0      		ldi r25,hi8(4)
 3729 1522 0E94 0000 		call _Z10modifierupi
 3730               	.LM484:
 3731 1526 81E0      		ldi r24,lo8(1)
 3732 1528 90E0      		ldi r25,hi8(1)
 3733 152a 0E94 0000 		call _Z10modifierupi
 3734 152e 0C94 0000 		jmp .L352
 3735               	.LVL188:
 3736               	.L229:
 3737               	.LM485:
 3738 1532 E130      		cpi r30,1
 3739 1534 F105      		cpc r31,__zero_reg__
 3740 1536 01F4      		brne .L230
 3741               	.LM486:
 3742 1538 87E2      		ldi r24,lo8(39)
 3743 153a 90E0      		ldi r25,hi8(39)
 3744 153c 0E94 0000 		call _Z8keypressi
 3745               	.LVL189:
 3746               	.LM487:
 3747 1540 82E0      		ldi r24,lo8(2)
 3748 1542 90E0      		ldi r25,hi8(2)
 3749 1544 0E94 0000 		call _Z10modifierupi
 3750               	.LM488:
 3751 1548 84E0      		ldi r24,lo8(4)
 3752 154a 90E0      		ldi r25,hi8(4)
 3753 154c 0E94 0000 		call _Z10modifierupi
 3754               	.LM489:
 3755 1550 81E0      		ldi r24,lo8(1)
 3756 1552 90E0      		ldi r25,hi8(1)
 3757 1554 0E94 0000 		call _Z10modifierupi
 3758 1558 0C94 0000 		jmp .L352
 3759               	.LVL190:
 3760               	.L230:
 3761               	.LM490:
 3762 155c E230      		cpi r30,2
 3763 155e F105      		cpc r31,__zero_reg__
 3764 1560 01F4      		brne .L231
 3765               	.LM491:
 3766 1562 82E0      		ldi r24,lo8(2)
 3767 1564 90E0      		ldi r25,hi8(2)
 3768 1566 0E94 0000 		call _Z12modifierdowni
 3769               	.LVL191:
 3770               	.LM492:
 3771 156a 83E3      		ldi r24,lo8(51)
 3772 156c 90E0      		ldi r25,hi8(51)
 3773 156e 0E94 0000 		call _Z8keypressi
 3774               	.LM493:
 3775 1572 82E0      		ldi r24,lo8(2)
 3776 1574 90E0      		ldi r25,hi8(2)
 3777 1576 0E94 0000 		call _Z10modifierupi
 3778               	.LM494:
 3779 157a 84E0      		ldi r24,lo8(4)
 3780 157c 90E0      		ldi r25,hi8(4)
 3781 157e 0E94 0000 		call _Z10modifierupi
 3782               	.LM495:
 3783 1582 81E0      		ldi r24,lo8(1)
 3784 1584 90E0      		ldi r25,hi8(1)
 3785 1586 0E94 0000 		call _Z10modifierupi
 3786 158a 0C94 0000 		jmp .L352
 3787               	.LVL192:
 3788               	.L231:
 3789               	.LM496:
 3790 158e 3397      		sbiw r30,3
 3791 1590 01F0      		breq .+4
 3792 1592 0C94 0000 		jmp .L217
 3793               	.LM497:
 3794 1596 84E4      		ldi r24,lo8(68)
 3795 1598 90E0      		ldi r25,hi8(68)
 3796 159a 0E94 0000 		call _Z8keypressi
 3797               	.LVL193:
 3798               	.LM498:
 3799 159e 82E0      		ldi r24,lo8(2)
 3800 15a0 90E0      		ldi r25,hi8(2)
 3801 15a2 0E94 0000 		call _Z10modifierupi
 3802               	.LM499:
 3803 15a6 84E0      		ldi r24,lo8(4)
 3804 15a8 90E0      		ldi r25,hi8(4)
 3805 15aa 0E94 0000 		call _Z10modifierupi
 3806               	.LM500:
 3807 15ae 81E0      		ldi r24,lo8(1)
 3808 15b0 90E0      		ldi r25,hi8(1)
 3809 15b2 0E94 0000 		call _Z10modifierupi
 3810 15b6 0C94 0000 		jmp .L352
 3811               	.LVL194:
 3812               	.L228:
 3813               	.LM501:
 3814 15ba 8D85      		ldd r24,Y+13
 3815 15bc 9E85      		ldd r25,Y+14
 3816 15be AF85      		ldd r26,Y+15
 3817 15c0 B889      		ldd r27,Y+16
 3818 15c2 0097      		sbiw r24,0
 3819 15c4 A105      		cpc r26,__zero_reg__
 3820 15c6 B105      		cpc r27,__zero_reg__
 3821 15c8 01F4      		brne .+2
 3822 15ca 00C0      		rjmp .L232
 3823               	.LBB654:
 3824               	.LBB655:
 3825               	.LM502:
 3826 15cc 6217      		cp r22,r18
 3827 15ce 7307      		cpc r23,r19
 3828 15d0 04F4      		brge .+4
 3829 15d2 0C94 0000 		jmp .L352
 3830               	.LM503:
 3831 15d6 F801      		movw r30,r16
 3832 15d8 E40F      		add r30,r20
 3833 15da F51F      		adc r31,r21
 3834 15dc 0190      		ld __tmp_reg__,Z+
 3835 15de F081      		ld r31,Z
 3836 15e0 E02D      		mov r30,__tmp_reg__
 3837               	.LBE655:
 3838               	.LBE654:
 3839               	.LM504:
 3840 15e2 3097      		sbiw r30,0
 3841 15e4 01F4      		brne .L233
 3842               	.LM505:
 3843 15e6 83E1      		ldi r24,lo8(19)
 3844 15e8 90E0      		ldi r25,hi8(19)
 3845 15ea 0E94 0000 		call _Z8keypressi
 3846               	.LVL195:
 3847               	.LM506:
 3848 15ee 82E0      		ldi r24,lo8(2)
 3849 15f0 90E0      		ldi r25,hi8(2)
 3850 15f2 0E94 0000 		call _Z10modifierupi
 3851               	.LM507:
 3852 15f6 84E0      		ldi r24,lo8(4)
 3853 15f8 90E0      		ldi r25,hi8(4)
 3854 15fa 0E94 0000 		call _Z10modifierupi
 3855               	.LM508:
 3856 15fe 81E0      		ldi r24,lo8(1)
 3857 1600 90E0      		ldi r25,hi8(1)
 3858 1602 0E94 0000 		call _Z10modifierupi
 3859 1606 0C94 0000 		jmp .L352
 3860               	.LVL196:
 3861               	.L233:
 3862               	.LM509:
 3863 160a E130      		cpi r30,1
 3864 160c F105      		cpc r31,__zero_reg__
 3865 160e 01F4      		brne .L234
 3866               	.LM510:
 3867 1610 82E0      		ldi r24,lo8(2)
 3868 1612 90E0      		ldi r25,hi8(2)
 3869 1614 0E94 0000 		call _Z12modifierdowni
 3870               	.LVL197:
 3871               	.LM511:
 3872 1618 85E2      		ldi r24,lo8(37)
 3873 161a 90E0      		ldi r25,hi8(37)
 3874 161c 0E94 0000 		call _Z8keypressi
 3875               	.LM512:
 3876 1620 82E0      		ldi r24,lo8(2)
 3877 1622 90E0      		ldi r25,hi8(2)
 3878 1624 0E94 0000 		call _Z10modifierupi
 3879               	.LM513:
 3880 1628 84E0      		ldi r24,lo8(4)
 3881 162a 90E0      		ldi r25,hi8(4)
 3882 162c 0E94 0000 		call _Z10modifierupi
 3883               	.LM514:
 3884 1630 81E0      		ldi r24,lo8(1)
 3885 1632 90E0      		ldi r25,hi8(1)
 3886 1634 0E94 0000 		call _Z10modifierupi
 3887 1638 0C94 0000 		jmp .L352
 3888               	.LVL198:
 3889               	.L234:
 3890               	.LM515:
 3891 163c E230      		cpi r30,2
 3892 163e F105      		cpc r31,__zero_reg__
 3893 1640 01F4      		brne .L235
 3894               	.LM516:
 3895 1642 82E0      		ldi r24,lo8(2)
 3896 1644 90E0      		ldi r25,hi8(2)
 3897 1646 0E94 0000 		call _Z12modifierdowni
 3898               	.LVL199:
 3899               	.LM517:
 3900 164a 85E3      		ldi r24,lo8(53)
 3901 164c 90E0      		ldi r25,hi8(53)
 3902 164e 0E94 0000 		call _Z8keypressi
 3903               	.LM518:
 3904 1652 82E0      		ldi r24,lo8(2)
 3905 1654 90E0      		ldi r25,hi8(2)
 3906 1656 0E94 0000 		call _Z10modifierupi
 3907               	.LM519:
 3908 165a 84E0      		ldi r24,lo8(4)
 3909 165c 90E0      		ldi r25,hi8(4)
 3910 165e 0E94 0000 		call _Z10modifierupi
 3911               	.LM520:
 3912 1662 81E0      		ldi r24,lo8(1)
 3913 1664 90E0      		ldi r25,hi8(1)
 3914 1666 0E94 0000 		call _Z10modifierupi
 3915 166a 0C94 0000 		jmp .L352
 3916               	.LVL200:
 3917               	.L235:
 3918               	.LM521:
 3919 166e 3397      		sbiw r30,3
 3920 1670 01F0      		breq .+4
 3921 1672 0C94 0000 		jmp .L217
 3922               	.LM522:
 3923 1676 85E4      		ldi r24,lo8(69)
 3924 1678 90E0      		ldi r25,hi8(69)
 3925 167a 0E94 0000 		call _Z8keypressi
 3926               	.LVL201:
 3927               	.LM523:
 3928 167e 82E0      		ldi r24,lo8(2)
 3929 1680 90E0      		ldi r25,hi8(2)
 3930 1682 0E94 0000 		call _Z10modifierupi
 3931               	.LM524:
 3932 1686 84E0      		ldi r24,lo8(4)
 3933 1688 90E0      		ldi r25,hi8(4)
 3934 168a 0E94 0000 		call _Z10modifierupi
 3935               	.LM525:
 3936 168e 81E0      		ldi r24,lo8(1)
 3937 1690 90E0      		ldi r25,hi8(1)
 3938 1692 0E94 0000 		call _Z10modifierupi
 3939 1696 0C94 0000 		jmp .L352
 3940               	.LVL202:
 3941               	.L232:
 3942               	.LM526:
 3943 169a 8989      		ldd r24,Y+17
 3944 169c 9A89      		ldd r25,Y+18
 3945 169e AB89      		ldd r26,Y+19
 3946 16a0 BC89      		ldd r27,Y+20
 3947 16a2 0097      		sbiw r24,0
 3948 16a4 A105      		cpc r26,__zero_reg__
 3949 16a6 B105      		cpc r27,__zero_reg__
 3950 16a8 01F4      		brne .+2
 3951 16aa 00C0      		rjmp .L236
 3952               	.LBB656:
 3953               	.LBB657:
 3954               	.LM527:
 3955 16ac 6217      		cp r22,r18
 3956 16ae 7307      		cpc r23,r19
 3957 16b0 04F4      		brge .+4
 3958 16b2 0C94 0000 		jmp .L352
 3959               	.LM528:
 3960 16b6 F801      		movw r30,r16
 3961 16b8 E40F      		add r30,r20
 3962 16ba F51F      		adc r31,r21
 3963 16bc 0190      		ld __tmp_reg__,Z+
 3964 16be F081      		ld r31,Z
 3965 16c0 E02D      		mov r30,__tmp_reg__
 3966               	.LBE657:
 3967               	.LBE656:
 3968               	.LM529:
 3969 16c2 3097      		sbiw r30,0
 3970 16c4 01F4      		brne .L237
 3971               	.LM530:
 3972 16c6 8FE0      		ldi r24,lo8(15)
 3973 16c8 90E0      		ldi r25,hi8(15)
 3974 16ca 0E94 0000 		call _Z8keypressi
 3975               	.LVL203:
 3976               	.LM531:
 3977 16ce 82E0      		ldi r24,lo8(2)
 3978 16d0 90E0      		ldi r25,hi8(2)
 3979 16d2 0E94 0000 		call _Z10modifierupi
 3980               	.LM532:
 3981 16d6 84E0      		ldi r24,lo8(4)
 3982 16d8 90E0      		ldi r25,hi8(4)
 3983 16da 0E94 0000 		call _Z10modifierupi
 3984               	.LM533:
 3985 16de 81E0      		ldi r24,lo8(1)
 3986 16e0 90E0      		ldi r25,hi8(1)
 3987 16e2 0E94 0000 		call _Z10modifierupi
 3988 16e6 0C94 0000 		jmp .L352
 3989               	.LVL204:
 3990               	.L237:
 3991               	.LM534:
 3992 16ea E130      		cpi r30,1
 3993 16ec F105      		cpc r31,__zero_reg__
 3994 16ee 01F4      		brne .L238
 3995               	.LM535:
 3996 16f0 85E2      		ldi r24,lo8(37)
 3997 16f2 90E0      		ldi r25,hi8(37)
 3998 16f4 0E94 0000 		call _Z8keypressi
 3999               	.LVL205:
 4000               	.LM536:
 4001 16f8 82E0      		ldi r24,lo8(2)
 4002 16fa 90E0      		ldi r25,hi8(2)
 4003 16fc 0E94 0000 		call _Z10modifierupi
 4004               	.LM537:
 4005 1700 84E0      		ldi r24,lo8(4)
 4006 1702 90E0      		ldi r25,hi8(4)
 4007 1704 0E94 0000 		call _Z10modifierupi
 4008               	.LM538:
 4009 1708 81E0      		ldi r24,lo8(1)
 4010 170a 90E0      		ldi r25,hi8(1)
 4011 170c 0E94 0000 		call _Z10modifierupi
 4012 1710 0C94 0000 		jmp .L352
 4013               	.LVL206:
 4014               	.L238:
 4015               	.LM539:
 4016 1714 E230      		cpi r30,2
 4017 1716 F105      		cpc r31,__zero_reg__
 4018 1718 01F4      		brne .L239
 4019               	.LM540:
 4020 171a 82E0      		ldi r24,lo8(2)
 4021 171c 90E0      		ldi r25,hi8(2)
 4022 171e 0E94 0000 		call _Z12modifierdowni
 4023               	.LVL207:
 4024               	.LM541:
 4025 1722 87E3      		ldi r24,lo8(55)
 4026 1724 90E0      		ldi r25,hi8(55)
 4027 1726 0E94 0000 		call _Z8keypressi
 4028               	.LM542:
 4029 172a 82E0      		ldi r24,lo8(2)
 4030 172c 90E0      		ldi r25,hi8(2)
 4031 172e 0E94 0000 		call _Z10modifierupi
 4032               	.LM543:
 4033 1732 84E0      		ldi r24,lo8(4)
 4034 1734 90E0      		ldi r25,hi8(4)
 4035 1736 0E94 0000 		call _Z10modifierupi
 4036               	.LM544:
 4037 173a 81E0      		ldi r24,lo8(1)
 4038 173c 90E0      		ldi r25,hi8(1)
 4039 173e 0E94 0000 		call _Z10modifierupi
 4040 1742 0C94 0000 		jmp .L352
 4041               	.LVL208:
 4042               	.L239:
 4043               	.LM545:
 4044 1746 3397      		sbiw r30,3
 4045 1748 01F0      		breq .+4
 4046 174a 0C94 0000 		jmp .L217
 4047               	.LM546:
 4048 174e 81E4      		ldi r24,lo8(65)
 4049 1750 90E0      		ldi r25,hi8(65)
 4050 1752 0E94 0000 		call _Z8keypressi
 4051               	.LVL209:
 4052               	.LM547:
 4053 1756 82E0      		ldi r24,lo8(2)
 4054 1758 90E0      		ldi r25,hi8(2)
 4055 175a 0E94 0000 		call _Z10modifierupi
 4056               	.LM548:
 4057 175e 84E0      		ldi r24,lo8(4)
 4058 1760 90E0      		ldi r25,hi8(4)
 4059 1762 0E94 0000 		call _Z10modifierupi
 4060               	.LM549:
 4061 1766 81E0      		ldi r24,lo8(1)
 4062 1768 90E0      		ldi r25,hi8(1)
 4063 176a 0E94 0000 		call _Z10modifierupi
 4064 176e 0C94 0000 		jmp .L352
 4065               	.LVL210:
 4066               	.L236:
 4067               	.LM550:
 4068 1772 C7FE      		sbrs r12,7
 4069 1774 00C0      		rjmp .L240
 4070               	.LBB658:
 4071               	.LBB659:
 4072               	.LM551:
 4073 1776 6217      		cp r22,r18
 4074 1778 7307      		cpc r23,r19
 4075 177a 04F4      		brge .+4
 4076 177c 0C94 0000 		jmp .L352
 4077               	.LM552:
 4078 1780 F801      		movw r30,r16
 4079 1782 E40F      		add r30,r20
 4080 1784 F51F      		adc r31,r21
 4081 1786 0190      		ld __tmp_reg__,Z+
 4082 1788 F081      		ld r31,Z
 4083 178a E02D      		mov r30,__tmp_reg__
 4084               	.LBE659:
 4085               	.LBE658:
 4086               	.LM553:
 4087 178c 3097      		sbiw r30,0
 4088 178e 01F4      		brne .L241
 4089               	.LM554:
 4090 1790 84E1      		ldi r24,lo8(20)
 4091 1792 90E0      		ldi r25,hi8(20)
 4092 1794 0E94 0000 		call _Z8keypressi
 4093               	.LVL211:
 4094               	.LM555:
 4095 1798 82E0      		ldi r24,lo8(2)
 4096 179a 90E0      		ldi r25,hi8(2)
 4097 179c 0E94 0000 		call _Z10modifierupi
 4098               	.LM556:
 4099 17a0 84E0      		ldi r24,lo8(4)
 4100 17a2 90E0      		ldi r25,hi8(4)
 4101 17a4 0E94 0000 		call _Z10modifierupi
 4102               	.LM557:
 4103 17a8 81E0      		ldi r24,lo8(1)
 4104 17aa 90E0      		ldi r25,hi8(1)
 4105 17ac 0E94 0000 		call _Z10modifierupi
 4106 17b0 0C94 0000 		jmp .L352
 4107               	.LVL212:
 4108               	.L241:
 4109               	.LM558:
 4110 17b4 E130      		cpi r30,1
 4111 17b6 F105      		cpc r31,__zero_reg__
 4112 17b8 01F4      		brne .L242
 4113               	.LM559:
 4114 17ba 83E6      		ldi r24,lo8(99)
 4115 17bc 90E0      		ldi r25,hi8(99)
 4116 17be 0E94 0000 		call _Z8keypressi
 4117               	.LVL213:
 4118               	.LM560:
 4119 17c2 82E0      		ldi r24,lo8(2)
 4120 17c4 90E0      		ldi r25,hi8(2)
 4121 17c6 0E94 0000 		call _Z10modifierupi
 4122               	.LM561:
 4123 17ca 84E0      		ldi r24,lo8(4)
 4124 17cc 90E0      		ldi r25,hi8(4)
 4125 17ce 0E94 0000 		call _Z10modifierupi
 4126               	.LM562:
 4127 17d2 81E0      		ldi r24,lo8(1)
 4128 17d4 90E0      		ldi r25,hi8(1)
 4129 17d6 0E94 0000 		call _Z10modifierupi
 4130 17da 0C94 0000 		jmp .L352
 4131               	.LVL214:
 4132               	.L242:
 4133               	.LM563:
 4134 17de 3297      		sbiw r30,2
 4135 17e0 01F0      		breq .+4
 4136 17e2 0C94 0000 		jmp .L217
 4137               	.LM564:
 4138 17e6 85E3      		ldi r24,lo8(53)
 4139 17e8 90E0      		ldi r25,hi8(53)
 4140 17ea 0E94 0000 		call _Z8keypressi
 4141               	.LVL215:
 4142               	.LM565:
 4143 17ee 82E0      		ldi r24,lo8(2)
 4144 17f0 90E0      		ldi r25,hi8(2)
 4145 17f2 0E94 0000 		call _Z10modifierupi
 4146               	.LM566:
 4147 17f6 84E0      		ldi r24,lo8(4)
 4148 17f8 90E0      		ldi r25,hi8(4)
 4149 17fa 0E94 0000 		call _Z10modifierupi
 4150               	.LM567:
 4151 17fe 81E0      		ldi r24,lo8(1)
 4152 1800 90E0      		ldi r25,hi8(1)
 4153 1802 0E94 0000 		call _Z10modifierupi
 4154 1806 0C94 0000 		jmp .L352
 4155               	.LVL216:
 4156               	.L240:
 4157               	.LM568:
 4158 180a 8D89      		ldd r24,Y+21
 4159 180c 9E89      		ldd r25,Y+22
 4160 180e AF89      		ldd r26,Y+23
 4161 1810 B88D      		ldd r27,Y+24
 4162 1812 0097      		sbiw r24,0
 4163 1814 A105      		cpc r26,__zero_reg__
 4164 1816 B105      		cpc r27,__zero_reg__
 4165 1818 01F4      		brne .+2
 4166 181a 00C0      		rjmp .L243
 4167               	.LBB660:
 4168               	.LBB661:
 4169               	.LM569:
 4170 181c 6217      		cp r22,r18
 4171 181e 7307      		cpc r23,r19
 4172 1820 04F4      		brge .+4
 4173 1822 0C94 0000 		jmp .L352
 4174               	.LM570:
 4175 1826 F801      		movw r30,r16
 4176 1828 E40F      		add r30,r20
 4177 182a F51F      		adc r31,r21
 4178 182c 0190      		ld __tmp_reg__,Z+
 4179 182e F081      		ld r31,Z
 4180 1830 E02D      		mov r30,__tmp_reg__
 4181               	.LBE661:
 4182               	.LBE660:
 4183               	.LM571:
 4184 1832 3097      		sbiw r30,0
 4185 1834 01F4      		brne .L244
 4186               	.LM572:
 4187 1836 8CE1      		ldi r24,lo8(28)
 4188 1838 90E0      		ldi r25,hi8(28)
 4189 183a 0E94 0000 		call _Z8keypressi
 4190               	.LVL217:
 4191               	.LM573:
 4192 183e 82E0      		ldi r24,lo8(2)
 4193 1840 90E0      		ldi r25,hi8(2)
 4194 1842 0E94 0000 		call _Z10modifierupi
 4195               	.LM574:
 4196 1846 84E0      		ldi r24,lo8(4)
 4197 1848 90E0      		ldi r25,hi8(4)
 4198 184a 0E94 0000 		call _Z10modifierupi
 4199               	.LM575:
 4200 184e 81E0      		ldi r24,lo8(1)
 4201 1850 90E0      		ldi r25,hi8(1)
 4202 1852 0E94 0000 		call _Z10modifierupi
 4203 1856 0C94 0000 		jmp .L352
 4204               	.LVL218:
 4205               	.L244:
 4206               	.LM576:
 4207 185a E230      		cpi r30,2
 4208 185c F105      		cpc r31,__zero_reg__
 4209 185e 01F4      		brne .L245
 4210               	.LM577:
 4211 1860 82E0      		ldi r24,lo8(2)
 4212 1862 90E0      		ldi r25,hi8(2)
 4213 1864 0E94 0000 		call _Z12modifierdowni
 4214               	.LVL219:
 4215               	.LM578:
 4216 1868 8DE2      		ldi r24,lo8(45)
 4217 186a 90E0      		ldi r25,hi8(45)
 4218 186c 0E94 0000 		call _Z8keypressi
 4219               	.LM579:
 4220 1870 82E0      		ldi r24,lo8(2)
 4221 1872 90E0      		ldi r25,hi8(2)
 4222 1874 0E94 0000 		call _Z10modifierupi
 4223               	.LM580:
 4224 1878 84E0      		ldi r24,lo8(4)
 4225 187a 90E0      		ldi r25,hi8(4)
 4226 187c 0E94 0000 		call _Z10modifierupi
 4227               	.LM581:
 4228 1880 81E0      		ldi r24,lo8(1)
 4229 1882 90E0      		ldi r25,hi8(1)
 4230 1884 0E94 0000 		call _Z10modifierupi
 4231 1888 0C94 0000 		jmp .L352
 4232               	.LVL220:
 4233               	.L245:
 4234               	.LM582:
 4235 188c 3397      		sbiw r30,3
 4236 188e 01F0      		breq .+4
 4237 1890 0C94 0000 		jmp .L217
 4238               	.LM583:
 4239 1894 89E4      		ldi r24,lo8(73)
 4240 1896 90E0      		ldi r25,hi8(73)
 4241 1898 0E94 0000 		call _Z8keypressi
 4242               	.LVL221:
 4243               	.LM584:
 4244 189c 82E0      		ldi r24,lo8(2)
 4245 189e 90E0      		ldi r25,hi8(2)
 4246 18a0 0E94 0000 		call _Z10modifierupi
 4247               	.LM585:
 4248 18a4 84E0      		ldi r24,lo8(4)
 4249 18a6 90E0      		ldi r25,hi8(4)
 4250 18a8 0E94 0000 		call _Z10modifierupi
 4251               	.LM586:
 4252 18ac 81E0      		ldi r24,lo8(1)
 4253 18ae 90E0      		ldi r25,hi8(1)
 4254 18b0 0E94 0000 		call _Z10modifierupi
 4255 18b4 0C94 0000 		jmp .L352
 4256               	.LVL222:
 4257               	.L243:
 4258               	.LM587:
 4259 18b8 898D      		ldd r24,Y+25
 4260 18ba 9A8D      		ldd r25,Y+26
 4261 18bc AB8D      		ldd r26,Y+27
 4262 18be BC8D      		ldd r27,Y+28
 4263 18c0 0097      		sbiw r24,0
 4264 18c2 A105      		cpc r26,__zero_reg__
 4265 18c4 B105      		cpc r27,__zero_reg__
 4266 18c6 01F4      		brne .+2
 4267 18c8 00C0      		rjmp .L246
 4268               	.LBB662:
 4269               	.LBB663:
 4270               	.LM588:
 4271 18ca 6217      		cp r22,r18
 4272 18cc 7307      		cpc r23,r19
 4273 18ce 04F4      		brge .+4
 4274 18d0 0C94 0000 		jmp .L352
 4275               	.LM589:
 4276 18d4 F801      		movw r30,r16
 4277 18d6 E40F      		add r30,r20
 4278 18d8 F51F      		adc r31,r21
 4279 18da 0190      		ld __tmp_reg__,Z+
 4280 18dc F081      		ld r31,Z
 4281 18de E02D      		mov r30,__tmp_reg__
 4282               	.LBE663:
 4283               	.LBE662:
 4284               	.LM590:
 4285 18e0 3097      		sbiw r30,0
 4286 18e2 01F4      		brne .L247
 4287               	.LM591:
 4288 18e4 8BE1      		ldi r24,lo8(27)
 4289 18e6 90E0      		ldi r25,hi8(27)
 4290 18e8 0E94 0000 		call _Z8keypressi
 4291               	.LVL223:
 4292               	.LM592:
 4293 18ec 82E0      		ldi r24,lo8(2)
 4294 18ee 90E0      		ldi r25,hi8(2)
 4295 18f0 0E94 0000 		call _Z10modifierupi
 4296               	.LM593:
 4297 18f4 84E0      		ldi r24,lo8(4)
 4298 18f6 90E0      		ldi r25,hi8(4)
 4299 18f8 0E94 0000 		call _Z10modifierupi
 4300               	.LM594:
 4301 18fc 81E0      		ldi r24,lo8(1)
 4302 18fe 90E0      		ldi r25,hi8(1)
 4303 1900 0E94 0000 		call _Z10modifierupi
 4304 1904 0C94 0000 		jmp .L352
 4305               	.LVL224:
 4306               	.L247:
 4307               	.LM595:
 4308 1908 E230      		cpi r30,2
 4309 190a F105      		cpc r31,__zero_reg__
 4310 190c 01F4      		brne .L248
 4311               	.LM596:
 4312 190e 82E0      		ldi r24,lo8(2)
 4313 1910 90E0      		ldi r25,hi8(2)
 4314 1912 0E94 0000 		call _Z12modifierdowni
 4315               	.LVL225:
 4316               	.LM597:
 4317 1916 81E3      		ldi r24,lo8(49)
 4318 1918 90E0      		ldi r25,hi8(49)
 4319 191a 0E94 0000 		call _Z8keypressi
 4320               	.LM598:
 4321 191e 82E0      		ldi r24,lo8(2)
 4322 1920 90E0      		ldi r25,hi8(2)
 4323 1922 0E94 0000 		call _Z10modifierupi
 4324               	.LM599:
 4325 1926 84E0      		ldi r24,lo8(4)
 4326 1928 90E0      		ldi r25,hi8(4)
 4327 192a 0E94 0000 		call _Z10modifierupi
 4328               	.LM600:
 4329 192e 81E0      		ldi r24,lo8(1)
 4330 1930 90E0      		ldi r25,hi8(1)
 4331 1932 0E94 0000 		call _Z10modifierupi
 4332 1936 0C94 0000 		jmp .L352
 4333               	.LVL226:
 4334               	.L248:
 4335               	.LM601:
 4336 193a 3397      		sbiw r30,3
 4337 193c 01F0      		breq .+4
 4338 193e 0C94 0000 		jmp .L217
 4339               	.LM602:
 4340 1942 86E4      		ldi r24,lo8(70)
 4341 1944 90E0      		ldi r25,hi8(70)
 4342 1946 0E94 0000 		call _Z8keypressi
 4343               	.LVL227:
 4344               	.LM603:
 4345 194a 82E0      		ldi r24,lo8(2)
 4346 194c 90E0      		ldi r25,hi8(2)
 4347 194e 0E94 0000 		call _Z10modifierupi
 4348               	.LM604:
 4349 1952 84E0      		ldi r24,lo8(4)
 4350 1954 90E0      		ldi r25,hi8(4)
 4351 1956 0E94 0000 		call _Z10modifierupi
 4352               	.LM605:
 4353 195a 81E0      		ldi r24,lo8(1)
 4354 195c 90E0      		ldi r25,hi8(1)
 4355 195e 0E94 0000 		call _Z10modifierupi
 4356 1962 0C94 0000 		jmp .L352
 4357               	.LVL228:
 4358               	.L246:
 4359               	.LM606:
 4360 1966 8D8D      		ldd r24,Y+29
 4361 1968 9E8D      		ldd r25,Y+30
 4362 196a AF8D      		ldd r26,Y+31
 4363 196c B8A1      		ldd r27,Y+32
 4364 196e 0097      		sbiw r24,0
 4365 1970 A105      		cpc r26,__zero_reg__
 4366 1972 B105      		cpc r27,__zero_reg__
 4367 1974 01F0      		breq .L249
 4368               	.LBB664:
 4369               	.LBB665:
 4370               	.LM607:
 4371 1976 6217      		cp r22,r18
 4372 1978 7307      		cpc r23,r19
 4373 197a 04F4      		brge .+4
 4374 197c 0C94 0000 		jmp .L352
 4375               	.LM608:
 4376 1980 F801      		movw r30,r16
 4377 1982 E40F      		add r30,r20
 4378 1984 F51F      		adc r31,r21
 4379 1986 0190      		ld __tmp_reg__,Z+
 4380 1988 F081      		ld r31,Z
 4381 198a E02D      		mov r30,__tmp_reg__
 4382               	.LBE665:
 4383               	.LBE664:
 4384               	.LM609:
 4385 198c 3097      		sbiw r30,0
 4386 198e 01F4      		brne .L250
 4387               	.LM610:
 4388 1990 86E3      		ldi r24,lo8(54)
 4389 1992 90E0      		ldi r25,hi8(54)
 4390 1994 0E94 0000 		call _Z8keypressi
 4391               	.LVL229:
 4392               	.LM611:
 4393 1998 82E0      		ldi r24,lo8(2)
 4394 199a 90E0      		ldi r25,hi8(2)
 4395 199c 0E94 0000 		call _Z10modifierupi
 4396               	.LM612:
 4397 19a0 84E0      		ldi r24,lo8(4)
 4398 19a2 90E0      		ldi r25,hi8(4)
 4399 19a4 0E94 0000 		call _Z10modifierupi
 4400               	.LM613:
 4401 19a8 81E0      		ldi r24,lo8(1)
 4402 19aa 90E0      		ldi r25,hi8(1)
 4403 19ac 0E94 0000 		call _Z10modifierupi
 4404 19b0 0C94 0000 		jmp .L352
 4405               	.LVL230:
 4406               	.L250:
 4407               	.LM614:
 4408 19b4 E130      		cpi r30,1
 4409 19b6 F105      		cpc r31,__zero_reg__
 4410 19b8 01F0      		breq .L251
 4411 19ba E230      		cpi r30,2
 4412 19bc F105      		cpc r31,__zero_reg__
 4413 19be 01F0      		breq .L251
 4414 19c0 3397      		sbiw r30,3
 4415 19c2 01F0      		breq .+4
 4416 19c4 0C94 0000 		jmp .L217
 4417               	.L251:
 4418               	.LM615:
 4419 19c8 8CE4      		ldi r24,lo8(76)
 4420 19ca 90E0      		ldi r25,hi8(76)
 4421 19cc 0E94 0000 		call _Z8keypressi
 4422               	.LVL231:
 4423               	.LM616:
 4424 19d0 82E0      		ldi r24,lo8(2)
 4425 19d2 90E0      		ldi r25,hi8(2)
 4426 19d4 0E94 0000 		call _Z10modifierupi
 4427               	.LM617:
 4428 19d8 84E0      		ldi r24,lo8(4)
 4429 19da 90E0      		ldi r25,hi8(4)
 4430 19dc 0E94 0000 		call _Z10modifierupi
 4431               	.LM618:
 4432 19e0 81E0      		ldi r24,lo8(1)
 4433 19e2 90E0      		ldi r25,hi8(1)
 4434 19e4 0E94 0000 		call _Z10modifierupi
 4435 19e8 0C94 0000 		jmp .L352
 4436               	.LVL232:
 4437               	.L249:
 4438               	.LM619:
 4439 19ec 89A1      		ldd r24,Y+33
 4440 19ee 9AA1      		ldd r25,Y+34
 4441 19f0 ABA1      		ldd r26,Y+35
 4442 19f2 BCA1      		ldd r27,Y+36
 4443 19f4 0097      		sbiw r24,0
 4444 19f6 A105      		cpc r26,__zero_reg__
 4445 19f8 B105      		cpc r27,__zero_reg__
 4446 19fa 01F4      		brne .+2
 4447 19fc 00C0      		rjmp .L252
 4448               	.LM620:
 4449 19fe D701      		movw r26,r14
 4450 1a00 C601      		movw r24,r12
 4451 1a02 8070      		andi r24,lo8(4202496)
 4452 1a04 9072      		andi r25,hi8(4202496)
 4453 1a06 A074      		andi r26,hlo8(4202496)
 4454 1a08 B070      		andi r27,hhi8(4202496)
 4455 1a0a 8050      		subi r24,lo8(4202496)
 4456 1a0c 9042      		sbci r25,hi8(4202496)
 4457 1a0e A044      		sbci r26,hlo8(4202496)
 4458 1a10 B040      		sbci r27,hhi8(4202496)
 4459 1a12 01F4      		brne .L253
 4460               	.LBB666:
 4461               	.LBB667:
 4462               	.LM621:
 4463 1a14 6217      		cp r22,r18
 4464 1a16 7307      		cpc r23,r19
 4465 1a18 04F4      		brge .+4
 4466 1a1a 0C94 0000 		jmp .L352
 4467               	.LM622:
 4468 1a1e F801      		movw r30,r16
 4469 1a20 E40F      		add r30,r20
 4470 1a22 F51F      		adc r31,r21
 4471 1a24 0190      		ld __tmp_reg__,Z+
 4472 1a26 F081      		ld r31,Z
 4473 1a28 E02D      		mov r30,__tmp_reg__
 4474               	.LBE667:
 4475               	.LBE666:
 4476               	.LM623:
 4477 1a2a 3097      		sbiw r30,0
 4478 1a2c 01F4      		brne .L254
 4479               	.LM624:
 4480 1a2e 8AE2      		ldi r24,lo8(42)
 4481 1a30 90E0      		ldi r25,hi8(42)
 4482 1a32 0E94 0000 		call _Z8keypressi
 4483               	.LVL233:
 4484               	.LM625:
 4485 1a36 82E0      		ldi r24,lo8(2)
 4486 1a38 90E0      		ldi r25,hi8(2)
 4487 1a3a 0E94 0000 		call _Z10modifierupi
 4488               	.LM626:
 4489 1a3e 84E0      		ldi r24,lo8(4)
 4490 1a40 90E0      		ldi r25,hi8(4)
 4491 1a42 0E94 0000 		call _Z10modifierupi
 4492               	.LM627:
 4493 1a46 81E0      		ldi r24,lo8(1)
 4494 1a48 90E0      		ldi r25,hi8(1)
 4495 1a4a 0E94 0000 		call _Z10modifierupi
 4496 1a4e 00C0      		rjmp .L352
 4497               	.LVL234:
 4498               	.L254:
 4499               	.LM628:
 4500 1a50 E130      		cpi r30,1
 4501 1a52 F105      		cpc r31,__zero_reg__
 4502 1a54 01F0      		breq .L255
 4503 1a56 E230      		cpi r30,2
 4504 1a58 F105      		cpc r31,__zero_reg__
 4505 1a5a 01F0      		breq .L255
 4506 1a5c 3397      		sbiw r30,3
 4507 1a5e 01F0      		breq .+2
 4508 1a60 00C0      		rjmp .L217
 4509               	.L255:
 4510               	.LM629:
 4511 1a62 8CE2      		ldi r24,lo8(44)
 4512 1a64 90E0      		ldi r25,hi8(44)
 4513 1a66 0E94 0000 		call _Z8keypressi
 4514               	.LVL235:
 4515               	.LM630:
 4516 1a6a 82E0      		ldi r24,lo8(2)
 4517 1a6c 90E0      		ldi r25,hi8(2)
 4518 1a6e 0E94 0000 		call _Z10modifierupi
 4519               	.LM631:
 4520 1a72 84E0      		ldi r24,lo8(4)
 4521 1a74 90E0      		ldi r25,hi8(4)
 4522 1a76 0E94 0000 		call _Z10modifierupi
 4523               	.LM632:
 4524 1a7a 81E0      		ldi r24,lo8(1)
 4525 1a7c 90E0      		ldi r25,hi8(1)
 4526 1a7e 0E94 0000 		call _Z10modifierupi
 4527 1a82 00C0      		rjmp .L352
 4528               	.LVL236:
 4529               	.L253:
 4530               	.LBB668:
 4531               	.LBB669:
 4532               	.LM633:
 4533 1a84 6217      		cp r22,r18
 4534 1a86 7307      		cpc r23,r19
 4535 1a88 04F4      		brge .+2
 4536 1a8a 00C0      		rjmp .L352
 4537               	.LM634:
 4538 1a8c F801      		movw r30,r16
 4539 1a8e E40F      		add r30,r20
 4540 1a90 F51F      		adc r31,r21
 4541 1a92 0190      		ld __tmp_reg__,Z+
 4542 1a94 F081      		ld r31,Z
 4543 1a96 E02D      		mov r30,__tmp_reg__
 4544               	.LBE669:
 4545               	.LBE668:
 4546               	.LM635:
 4547 1a98 3097      		sbiw r30,0
 4548 1a9a 01F4      		brne .L256
 4549               	.LM636:
 4550 1a9c 87E1      		ldi r24,lo8(23)
 4551 1a9e 90E0      		ldi r25,hi8(23)
 4552 1aa0 0E94 0000 		call _Z8keypressi
 4553               	.LVL237:
 4554               	.LM637:
 4555 1aa4 82E0      		ldi r24,lo8(2)
 4556 1aa6 90E0      		ldi r25,hi8(2)
 4557 1aa8 0E94 0000 		call _Z10modifierupi
 4558               	.LM638:
 4559 1aac 84E0      		ldi r24,lo8(4)
 4560 1aae 90E0      		ldi r25,hi8(4)
 4561 1ab0 0E94 0000 		call _Z10modifierupi
 4562               	.LM639:
 4563 1ab4 81E0      		ldi r24,lo8(1)
 4564 1ab6 90E0      		ldi r25,hi8(1)
 4565 1ab8 0E94 0000 		call _Z10modifierupi
 4566 1abc 00C0      		rjmp .L352
 4567               	.LVL238:
 4568               	.L256:
 4569               	.LM640:
 4570 1abe E130      		cpi r30,1
 4571 1ac0 F105      		cpc r31,__zero_reg__
 4572 1ac2 01F4      		brne .L257
 4573               	.LM641:
 4574 1ac4 84E2      		ldi r24,lo8(36)
 4575 1ac6 90E0      		ldi r25,hi8(36)
 4576 1ac8 0E94 0000 		call _Z8keypressi
 4577               	.LVL239:
 4578               	.LM642:
 4579 1acc 82E0      		ldi r24,lo8(2)
 4580 1ace 90E0      		ldi r25,hi8(2)
 4581 1ad0 0E94 0000 		call _Z10modifierupi
 4582               	.LM643:
 4583 1ad4 84E0      		ldi r24,lo8(4)
 4584 1ad6 90E0      		ldi r25,hi8(4)
 4585 1ad8 0E94 0000 		call _Z10modifierupi
 4586               	.LM644:
 4587 1adc 81E0      		ldi r24,lo8(1)
 4588 1ade 90E0      		ldi r25,hi8(1)
 4589 1ae0 0E94 0000 		call _Z10modifierupi
 4590 1ae4 00C0      		rjmp .L352
 4591               	.LVL240:
 4592               	.L257:
 4593               	.LM645:
 4594 1ae6 E230      		cpi r30,2
 4595 1ae8 F105      		cpc r31,__zero_reg__
 4596 1aea 01F4      		brne .L258
 4597               	.LM646:
 4598 1aec 82E0      		ldi r24,lo8(2)
 4599 1aee 90E0      		ldi r25,hi8(2)
 4600 1af0 0E94 0000 		call _Z12modifierdowni
 4601               	.LVL241:
 4602               	.LM647:
 4603 1af4 86E3      		ldi r24,lo8(54)
 4604 1af6 90E0      		ldi r25,hi8(54)
 4605 1af8 0E94 0000 		call _Z8keypressi
 4606               	.LM648:
 4607 1afc 82E0      		ldi r24,lo8(2)
 4608 1afe 90E0      		ldi r25,hi8(2)
 4609 1b00 0E94 0000 		call _Z10modifierupi
 4610               	.LM649:
 4611 1b04 84E0      		ldi r24,lo8(4)
 4612 1b06 90E0      		ldi r25,hi8(4)
 4613 1b08 0E94 0000 		call _Z10modifierupi
 4614               	.LM650:
 4615 1b0c 81E0      		ldi r24,lo8(1)
 4616 1b0e 90E0      		ldi r25,hi8(1)
 4617 1b10 0E94 0000 		call _Z10modifierupi
 4618 1b14 00C0      		rjmp .L352
 4619               	.LVL242:
 4620               	.L258:
 4621               	.LM651:
 4622 1b16 3397      		sbiw r30,3
 4623 1b18 01F0      		breq .+2
 4624 1b1a 00C0      		rjmp .L217
 4625               	.LM652:
 4626 1b1c 80E4      		ldi r24,lo8(64)
 4627 1b1e 90E0      		ldi r25,hi8(64)
 4628 1b20 0E94 0000 		call _Z8keypressi
 4629               	.LVL243:
 4630               	.LM653:
 4631 1b24 82E0      		ldi r24,lo8(2)
 4632 1b26 90E0      		ldi r25,hi8(2)
 4633 1b28 0E94 0000 		call _Z10modifierupi
 4634               	.LM654:
 4635 1b2c 84E0      		ldi r24,lo8(4)
 4636 1b2e 90E0      		ldi r25,hi8(4)
 4637 1b30 0E94 0000 		call _Z10modifierupi
 4638               	.LM655:
 4639 1b34 81E0      		ldi r24,lo8(1)
 4640 1b36 90E0      		ldi r25,hi8(1)
 4641 1b38 0E94 0000 		call _Z10modifierupi
 4642 1b3c 00C0      		rjmp .L352
 4643               	.LVL244:
 4644               	.L252:
 4645               	.LM656:
 4646 1b3e 8DA1      		ldd r24,Y+37
 4647 1b40 9EA1      		ldd r25,Y+38
 4648 1b42 AFA1      		ldd r26,Y+39
 4649 1b44 B8A5      		ldd r27,Y+40
 4650 1b46 0097      		sbiw r24,0
 4651 1b48 A105      		cpc r26,__zero_reg__
 4652 1b4a B105      		cpc r27,__zero_reg__
 4653 1b4c 01F4      		brne .+2
 4654 1b4e 00C0      		rjmp .L259
 4655               	.LBB670:
 4656               	.LBB671:
 4657               	.LM657:
 4658 1b50 6217      		cp r22,r18
 4659 1b52 7307      		cpc r23,r19
 4660 1b54 04F4      		brge .+2
 4661 1b56 00C0      		rjmp .L352
 4662               	.LM658:
 4663 1b58 F801      		movw r30,r16
 4664 1b5a E40F      		add r30,r20
 4665 1b5c F51F      		adc r31,r21
 4666 1b5e 0190      		ld __tmp_reg__,Z+
 4667 1b60 F081      		ld r31,Z
 4668 1b62 E02D      		mov r30,__tmp_reg__
 4669               	.LBE671:
 4670               	.LBE670:
 4671               	.LM659:
 4672 1b64 3097      		sbiw r30,0
 4673 1b66 01F4      		brne .L260
 4674               	.LM660:
 4675 1b68 8AE0      		ldi r24,lo8(10)
 4676 1b6a 90E0      		ldi r25,hi8(10)
 4677 1b6c 0E94 0000 		call _Z8keypressi
 4678               	.LVL245:
 4679               	.LM661:
 4680 1b70 82E0      		ldi r24,lo8(2)
 4681 1b72 90E0      		ldi r25,hi8(2)
 4682 1b74 0E94 0000 		call _Z10modifierupi
 4683               	.LM662:
 4684 1b78 84E0      		ldi r24,lo8(4)
 4685 1b7a 90E0      		ldi r25,hi8(4)
 4686 1b7c 0E94 0000 		call _Z10modifierupi
 4687               	.LM663:
 4688 1b80 81E0      		ldi r24,lo8(1)
 4689 1b82 90E0      		ldi r25,hi8(1)
 4690 1b84 0E94 0000 		call _Z10modifierupi
 4691 1b88 00C0      		rjmp .L352
 4692               	.LVL246:
 4693               	.L260:
 4694               	.LM664:
 4695 1b8a E130      		cpi r30,1
 4696 1b8c F105      		cpc r31,__zero_reg__
 4697 1b8e 01F4      		brne .L261
 4698               	.LM665:
 4699 1b90 86E2      		ldi r24,lo8(38)
 4700 1b92 90E0      		ldi r25,hi8(38)
 4701 1b94 0E94 0000 		call _Z8keypressi
 4702               	.LVL247:
 4703               	.LM666:
 4704 1b98 82E0      		ldi r24,lo8(2)
 4705 1b9a 90E0      		ldi r25,hi8(2)
 4706 1b9c 0E94 0000 		call _Z10modifierupi
 4707               	.LM667:
 4708 1ba0 84E0      		ldi r24,lo8(4)
 4709 1ba2 90E0      		ldi r25,hi8(4)
 4710 1ba4 0E94 0000 		call _Z10modifierupi
 4711               	.LM668:
 4712 1ba8 81E0      		ldi r24,lo8(1)
 4713 1baa 90E0      		ldi r25,hi8(1)
 4714 1bac 0E94 0000 		call _Z10modifierupi
 4715 1bb0 00C0      		rjmp .L352
 4716               	.LVL248:
 4717               	.L261:
 4718               	.LM669:
 4719 1bb2 E230      		cpi r30,2
 4720 1bb4 F105      		cpc r31,__zero_reg__
 4721 1bb6 01F4      		brne .L262
 4722               	.LM670:
 4723 1bb8 88E3      		ldi r24,lo8(56)
 4724 1bba 90E0      		ldi r25,hi8(56)
 4725 1bbc 0E94 0000 		call _Z8keypressi
 4726               	.LVL249:
 4727               	.LM671:
 4728 1bc0 82E0      		ldi r24,lo8(2)
 4729 1bc2 90E0      		ldi r25,hi8(2)
 4730 1bc4 0E94 0000 		call _Z10modifierupi
 4731               	.LM672:
 4732 1bc8 84E0      		ldi r24,lo8(4)
 4733 1bca 90E0      		ldi r25,hi8(4)
 4734 1bcc 0E94 0000 		call _Z10modifierupi
 4735               	.LM673:
 4736 1bd0 81E0      		ldi r24,lo8(1)
 4737 1bd2 90E0      		ldi r25,hi8(1)
 4738 1bd4 0E94 0000 		call _Z10modifierupi
 4739 1bd8 00C0      		rjmp .L352
 4740               	.LVL250:
 4741               	.L262:
 4742               	.LM674:
 4743 1bda 3397      		sbiw r30,3
 4744 1bdc 01F0      		breq .+2
 4745 1bde 00C0      		rjmp .L217
 4746               	.LM675:
 4747 1be0 82E4      		ldi r24,lo8(66)
 4748 1be2 90E0      		ldi r25,hi8(66)
 4749 1be4 0E94 0000 		call _Z8keypressi
 4750               	.LVL251:
 4751               	.LM676:
 4752 1be8 82E0      		ldi r24,lo8(2)
 4753 1bea 90E0      		ldi r25,hi8(2)
 4754 1bec 0E94 0000 		call _Z10modifierupi
 4755               	.LM677:
 4756 1bf0 84E0      		ldi r24,lo8(4)
 4757 1bf2 90E0      		ldi r25,hi8(4)
 4758 1bf4 0E94 0000 		call _Z10modifierupi
 4759               	.LM678:
 4760 1bf8 81E0      		ldi r24,lo8(1)
 4761 1bfa 90E0      		ldi r25,hi8(1)
 4762 1bfc 0E94 0000 		call _Z10modifierupi
 4763 1c00 00C0      		rjmp .L352
 4764               	.LVL252:
 4765               	.L259:
 4766               	.LM679:
 4767 1c02 C601      		movw r24,r12
 4768               	.LVL253:
 4769 1c04 8070      		andi r24,lo8(-32768)
 4770 1c06 9078      		andi r25,hi8(-32768)
 4771 1c08 892B      		or r24,r25
 4772 1c0a 01F4      		brne .+2
 4773 1c0c 00C0      		rjmp .L263
 4774               	.LBB672:
 4775               	.LBB673:
 4776               	.LM680:
 4777 1c0e 6217      		cp r22,r18
 4778 1c10 7307      		cpc r23,r19
 4779 1c12 04F4      		brge .+2
 4780 1c14 00C0      		rjmp .L352
 4781               	.LM681:
 4782 1c16 F801      		movw r30,r16
 4783 1c18 E40F      		add r30,r20
 4784 1c1a F51F      		adc r31,r21
 4785 1c1c 0190      		ld __tmp_reg__,Z+
 4786 1c1e F081      		ld r31,Z
 4787 1c20 E02D      		mov r30,__tmp_reg__
 4788               	.LBE673:
 4789               	.LBE672:
 4790               	.LM682:
 4791 1c22 3097      		sbiw r30,0
 4792 1c24 01F4      		brne .L264
 4793               	.LM683:
 4794 1c26 8AE1      		ldi r24,lo8(26)
 4795 1c28 90E0      		ldi r25,hi8(26)
 4796 1c2a 0E94 0000 		call _Z8keypressi
 4797               	.LVL254:
 4798               	.LM684:
 4799 1c2e 82E0      		ldi r24,lo8(2)
 4800 1c30 90E0      		ldi r25,hi8(2)
 4801 1c32 0E94 0000 		call _Z10modifierupi
 4802               	.LM685:
 4803 1c36 84E0      		ldi r24,lo8(4)
 4804 1c38 90E0      		ldi r25,hi8(4)
 4805 1c3a 0E94 0000 		call _Z10modifierupi
 4806               	.LM686:
 4807 1c3e 81E0      		ldi r24,lo8(1)
 4808 1c40 90E0      		ldi r25,hi8(1)
 4809 1c42 0E94 0000 		call _Z10modifierupi
 4810 1c46 00C0      		rjmp .L352
 4811               	.LVL255:
 4812               	.L264:
 4813               	.LM687:
 4814 1c48 E130      		cpi r30,1
 4815 1c4a F105      		cpc r31,__zero_reg__
 4816 1c4c 01F4      		brne .L265
 4817               	.LM688:
 4818 1c4e 87E6      		ldi r24,lo8(103)
 4819 1c50 90E0      		ldi r25,hi8(103)
 4820 1c52 0E94 0000 		call _Z8keypressi
 4821               	.LVL256:
 4822               	.LM689:
 4823 1c56 82E0      		ldi r24,lo8(2)
 4824 1c58 90E0      		ldi r25,hi8(2)
 4825 1c5a 0E94 0000 		call _Z10modifierupi
 4826               	.LM690:
 4827 1c5e 84E0      		ldi r24,lo8(4)
 4828 1c60 90E0      		ldi r25,hi8(4)
 4829 1c62 0E94 0000 		call _Z10modifierupi
 4830               	.LM691:
 4831 1c66 81E0      		ldi r24,lo8(1)
 4832 1c68 90E0      		ldi r25,hi8(1)
 4833 1c6a 0E94 0000 		call _Z10modifierupi
 4834 1c6e 00C0      		rjmp .L352
 4835               	.LVL257:
 4836               	.L265:
 4837               	.LM692:
 4838 1c70 3297      		sbiw r30,2
 4839 1c72 01F0      		breq .+2
 4840 1c74 00C0      		rjmp .L217
 4841               	.LM693:
 4842 1c76 8FE2      		ldi r24,lo8(47)
 4843 1c78 90E0      		ldi r25,hi8(47)
 4844 1c7a 0E94 0000 		call _Z8keypressi
 4845               	.LVL258:
 4846               	.LM694:
 4847 1c7e 82E0      		ldi r24,lo8(2)
 4848 1c80 90E0      		ldi r25,hi8(2)
 4849 1c82 0E94 0000 		call _Z10modifierupi
 4850               	.LM695:
 4851 1c86 84E0      		ldi r24,lo8(4)
 4852 1c88 90E0      		ldi r25,hi8(4)
 4853 1c8a 0E94 0000 		call _Z10modifierupi
 4854               	.LM696:
 4855 1c8e 81E0      		ldi r24,lo8(1)
 4856 1c90 90E0      		ldi r25,hi8(1)
 4857 1c92 0E94 0000 		call _Z10modifierupi
 4858 1c96 00C0      		rjmp .L352
 4859               	.LVL259:
 4860               	.L263:
 4861               	.LM697:
 4862 1c98 89A5      		ldd r24,Y+41
 4863 1c9a 9AA5      		ldd r25,Y+42
 4864 1c9c ABA5      		ldd r26,Y+43
 4865 1c9e BCA5      		ldd r27,Y+44
 4866 1ca0 0097      		sbiw r24,0
 4867 1ca2 A105      		cpc r26,__zero_reg__
 4868 1ca4 B105      		cpc r27,__zero_reg__
 4869 1ca6 01F4      		brne .+2
 4870 1ca8 00C0      		rjmp .L266
 4871               	.LBB674:
 4872               	.LBB675:
 4873               	.LM698:
 4874 1caa 6217      		cp r22,r18
 4875 1cac 7307      		cpc r23,r19
 4876 1cae 04F4      		brge .+2
 4877 1cb0 00C0      		rjmp .L352
 4878               	.LM699:
 4879 1cb2 F801      		movw r30,r16
 4880 1cb4 E40F      		add r30,r20
 4881 1cb6 F51F      		adc r31,r21
 4882 1cb8 0190      		ld __tmp_reg__,Z+
 4883 1cba F081      		ld r31,Z
 4884 1cbc E02D      		mov r30,__tmp_reg__
 4885               	.LBE675:
 4886               	.LBE674:
 4887               	.LM700:
 4888 1cbe 3097      		sbiw r30,0
 4889 1cc0 01F4      		brne .L267
 4890               	.LM701:
 4891 1cc2 8EE0      		ldi r24,lo8(14)
 4892 1cc4 90E0      		ldi r25,hi8(14)
 4893 1cc6 0E94 0000 		call _Z8keypressi
 4894               	.LVL260:
 4895               	.LM702:
 4896 1cca 82E0      		ldi r24,lo8(2)
 4897 1ccc 90E0      		ldi r25,hi8(2)
 4898 1cce 0E94 0000 		call _Z10modifierupi
 4899               	.LM703:
 4900 1cd2 84E0      		ldi r24,lo8(4)
 4901 1cd4 90E0      		ldi r25,hi8(4)
 4902 1cd6 0E94 0000 		call _Z10modifierupi
 4903               	.LM704:
 4904 1cda 81E0      		ldi r24,lo8(1)
 4905 1cdc 90E0      		ldi r25,hi8(1)
 4906 1cde 0E94 0000 		call _Z10modifierupi
 4907 1ce2 00C0      		rjmp .L352
 4908               	.LVL261:
 4909               	.L267:
 4910               	.LM705:
 4911 1ce4 E130      		cpi r30,1
 4912 1ce6 F105      		cpc r31,__zero_reg__
 4913 1ce8 01F4      		brne .L268
 4914               	.LM706:
 4915 1cea 82E0      		ldi r24,lo8(2)
 4916 1cec 90E0      		ldi r25,hi8(2)
 4917 1cee 0E94 0000 		call _Z12modifierdowni
 4918               	.LVL262:
 4919               	.LM707:
 4920 1cf2 83E2      		ldi r24,lo8(35)
 4921 1cf4 90E0      		ldi r25,hi8(35)
 4922 1cf6 0E94 0000 		call _Z8keypressi
 4923               	.LM708:
 4924 1cfa 82E0      		ldi r24,lo8(2)
 4925 1cfc 90E0      		ldi r25,hi8(2)
 4926 1cfe 0E94 0000 		call _Z10modifierupi
 4927               	.LM709:
 4928 1d02 84E0      		ldi r24,lo8(4)
 4929 1d04 90E0      		ldi r25,hi8(4)
 4930 1d06 0E94 0000 		call _Z10modifierupi
 4931               	.LM710:
 4932 1d0a 81E0      		ldi r24,lo8(1)
 4933 1d0c 90E0      		ldi r25,hi8(1)
 4934 1d0e 0E94 0000 		call _Z10modifierupi
 4935 1d12 00C0      		rjmp .L352
 4936               	.LVL263:
 4937               	.L268:
 4938               	.LM711:
 4939 1d14 3297      		sbiw r30,2
 4940 1d16 01F0      		breq .+2
 4941 1d18 00C0      		rjmp .L217
 4942               	.LM712:
 4943 1d1a 80E3      		ldi r24,lo8(48)
 4944 1d1c 90E0      		ldi r25,hi8(48)
 4945 1d1e 0E94 0000 		call _Z8keypressi
 4946               	.LVL264:
 4947               	.LM713:
 4948 1d22 82E0      		ldi r24,lo8(2)
 4949 1d24 90E0      		ldi r25,hi8(2)
 4950 1d26 0E94 0000 		call _Z10modifierupi
 4951               	.LM714:
 4952 1d2a 84E0      		ldi r24,lo8(4)
 4953 1d2c 90E0      		ldi r25,hi8(4)
 4954 1d2e 0E94 0000 		call _Z10modifierupi
 4955               	.LM715:
 4956 1d32 81E0      		ldi r24,lo8(1)
 4957 1d34 90E0      		ldi r25,hi8(1)
 4958 1d36 0E94 0000 		call _Z10modifierupi
 4959 1d3a 00C0      		rjmp .L352
 4960               	.LVL265:
 4961               	.L266:
 4962               	.LM716:
 4963 1d3c 8DA5      		ldd r24,Y+45
 4964 1d3e 9EA5      		ldd r25,Y+46
 4965 1d40 AFA5      		ldd r26,Y+47
 4966 1d42 B8A9      		ldd r27,Y+48
 4967 1d44 0097      		sbiw r24,0
 4968 1d46 A105      		cpc r26,__zero_reg__
 4969 1d48 B105      		cpc r27,__zero_reg__
 4970 1d4a 01F4      		brne .+2
 4971 1d4c 00C0      		rjmp .L269
 4972               	.LBB676:
 4973               	.LBB677:
 4974               	.LM717:
 4975 1d4e 6217      		cp r22,r18
 4976 1d50 7307      		cpc r23,r19
 4977 1d52 04F4      		brge .+2
 4978 1d54 00C0      		rjmp .L352
 4979               	.LM718:
 4980 1d56 F801      		movw r30,r16
 4981 1d58 E40F      		add r30,r20
 4982 1d5a F51F      		adc r31,r21
 4983 1d5c 0190      		ld __tmp_reg__,Z+
 4984 1d5e F081      		ld r31,Z
 4985 1d60 E02D      		mov r30,__tmp_reg__
 4986               	.LBE677:
 4987               	.LBE676:
 4988               	.LM719:
 4989 1d62 3097      		sbiw r30,0
 4990 1d64 01F4      		brne .L270
 4991               	.LM720:
 4992 1d66 8DE1      		ldi r24,lo8(29)
 4993 1d68 90E0      		ldi r25,hi8(29)
 4994 1d6a 0E94 0000 		call _Z8keypressi
 4995               	.LVL266:
 4996               	.LM721:
 4997 1d6e 82E0      		ldi r24,lo8(2)
 4998 1d70 90E0      		ldi r25,hi8(2)
 4999 1d72 0E94 0000 		call _Z10modifierupi
 5000               	.LM722:
 5001 1d76 84E0      		ldi r24,lo8(4)
 5002 1d78 90E0      		ldi r25,hi8(4)
 5003 1d7a 0E94 0000 		call _Z10modifierupi
 5004               	.LM723:
 5005 1d7e 81E0      		ldi r24,lo8(1)
 5006 1d80 90E0      		ldi r25,hi8(1)
 5007 1d82 0E94 0000 		call _Z10modifierupi
 5008 1d86 00C0      		rjmp .L352
 5009               	.LVL267:
 5010               	.L270:
 5011               	.LM724:
 5012 1d88 E130      		cpi r30,1
 5013 1d8a F105      		cpc r31,__zero_reg__
 5014 1d8c 01F4      		brne .L271
 5015               	.LM725:
 5016 1d8e 82E0      		ldi r24,lo8(2)
 5017 1d90 90E0      		ldi r25,hi8(2)
 5018 1d92 0E94 0000 		call _Z12modifierdowni
 5019               	.LVL268:
 5020               	.LM726:
 5021 1d96 82E2      		ldi r24,lo8(34)
 5022 1d98 90E0      		ldi r25,hi8(34)
 5023 1d9a 0E94 0000 		call _Z8keypressi
 5024               	.LM727:
 5025 1d9e 82E0      		ldi r24,lo8(2)
 5026 1da0 90E0      		ldi r25,hi8(2)
 5027 1da2 0E94 0000 		call _Z10modifierupi
 5028               	.LM728:
 5029 1da6 84E0      		ldi r24,lo8(4)
 5030 1da8 90E0      		ldi r25,hi8(4)
 5031 1daa 0E94 0000 		call _Z10modifierupi
 5032               	.LM729:
 5033 1dae 81E0      		ldi r24,lo8(1)
 5034 1db0 90E0      		ldi r25,hi8(1)
 5035 1db2 0E94 0000 		call _Z10modifierupi
 5036 1db6 00C0      		rjmp .L352
 5037               	.LVL269:
 5038               	.L271:
 5039               	.LM730:
 5040 1db8 3297      		sbiw r30,2
 5041 1dba 01F0      		breq .+2
 5042 1dbc 00C0      		rjmp .L217
 5043               	.LM731:
 5044 1dbe 81E3      		ldi r24,lo8(49)
 5045 1dc0 90E0      		ldi r25,hi8(49)
 5046 1dc2 0E94 0000 		call _Z8keypressi
 5047               	.LVL270:
 5048               	.LM732:
 5049 1dc6 82E0      		ldi r24,lo8(2)
 5050 1dc8 90E0      		ldi r25,hi8(2)
 5051 1dca 0E94 0000 		call _Z10modifierupi
 5052               	.LM733:
 5053 1dce 84E0      		ldi r24,lo8(4)
 5054 1dd0 90E0      		ldi r25,hi8(4)
 5055 1dd2 0E94 0000 		call _Z10modifierupi
 5056               	.LM734:
 5057 1dd6 81E0      		ldi r24,lo8(1)
 5058 1dd8 90E0      		ldi r25,hi8(1)
 5059 1dda 0E94 0000 		call _Z10modifierupi
 5060 1dde 00C0      		rjmp .L352
 5061               	.LVL271:
 5062               	.L269:
 5063               	.LM735:
 5064 1de0 89A9      		ldd r24,Y+49
 5065 1de2 9AA9      		ldd r25,Y+50
 5066 1de4 ABA9      		ldd r26,Y+51
 5067 1de6 BCA9      		ldd r27,Y+52
 5068 1de8 0097      		sbiw r24,0
 5069 1dea A105      		cpc r26,__zero_reg__
 5070 1dec B105      		cpc r27,__zero_reg__
 5071 1dee 01F4      		brne .+2
 5072 1df0 00C0      		rjmp .L272
 5073               	.LBB678:
 5074               	.LBB679:
 5075               	.LM736:
 5076 1df2 6217      		cp r22,r18
 5077 1df4 7307      		cpc r23,r19
 5078 1df6 04F4      		brge .+2
 5079 1df8 00C0      		rjmp .L272
 5080               	.LBE679:
 5081               	.LBE678:
 5082               	.LM737:
 5083 1dfa F801      		movw r30,r16
 5084 1dfc E40F      		add r30,r20
 5085 1dfe F51F      		adc r31,r21
 5086 1e00 8081      		ld r24,Z
 5087 1e02 9181      		ldd r25,Z+1
 5088 1e04 892B      		or r24,r25
 5089 1e06 01F0      		breq .+2
 5090 1e08 00C0      		rjmp .L272
 5091               	.LM738:
 5092 1e0a 89E1      		ldi r24,lo8(25)
 5093 1e0c 90E0      		ldi r25,hi8(25)
 5094 1e0e 0E94 0000 		call _Z8keypressi
 5095               	.LVL272:
 5096               	.LM739:
 5097 1e12 82E0      		ldi r24,lo8(2)
 5098 1e14 90E0      		ldi r25,hi8(2)
 5099 1e16 0E94 0000 		call _Z10modifierupi
 5100               	.LM740:
 5101 1e1a 84E0      		ldi r24,lo8(4)
 5102 1e1c 90E0      		ldi r25,hi8(4)
 5103 1e1e 0E94 0000 		call _Z10modifierupi
 5104               	.LM741:
 5105 1e22 81E0      		ldi r24,lo8(1)
 5106 1e24 90E0      		ldi r25,hi8(1)
 5107 1e26 0E94 0000 		call _Z10modifierupi
 5108 1e2a 00C0      		rjmp .L352
 5109               	.LVL273:
 5110               	.L340:
 5111               	.LBB680:
 5112               	.LBB681:
 5113               	.LM742:
 5114 1e2c 6217      		cp r22,r18
 5115 1e2e 7307      		cpc r23,r19
 5116 1e30 04F4      		brge .+2
 5117 1e32 00C0      		rjmp .L273
 5118               	.LM743:
 5119 1e34 F801      		movw r30,r16
 5120 1e36 E40F      		add r30,r20
 5121 1e38 F51F      		adc r31,r21
 5122 1e3a 0190      		ld __tmp_reg__,Z+
 5123 1e3c F081      		ld r31,Z
 5124 1e3e E02D      		mov r30,__tmp_reg__
 5125               	.LBE681:
 5126               	.LBE680:
 5127               	.LM744:
 5128 1e40 3097      		sbiw r30,0
 5129 1e42 01F0      		breq .L274
 5130 1e44 E130      		cpi r30,1
 5131 1e46 F105      		cpc r31,__zero_reg__
 5132 1e48 01F0      		breq .L274
 5133 1e4a E230      		cpi r30,2
 5134 1e4c F105      		cpc r31,__zero_reg__
 5135 1e4e 01F0      		breq .L274
 5136 1e50 3397      		sbiw r30,3
 5137 1e52 01F0      		breq .+2
 5138 1e54 00C0      		rjmp .L273
 5139               	.L274:
 5140               	.LM745:
 5141 1e56 81E0      		ldi r24,lo8(1)
 5142 1e58 90E0      		ldi r25,hi8(1)
 5143 1e5a 0E94 0000 		call _Z8mouseoffi
 5144               	.LVL274:
 5145 1e5e 00C0      		rjmp .L352
 5146               	.LVL275:
 5147               	.L341:
 5148               	.LM746:
 5149 1e60 87FE      		sbrs r8,7
 5150 1e62 00C0      		rjmp .L275
 5151               	.LBB682:
 5152               	.LBB683:
 5153               	.LM747:
 5154 1e64 6217      		cp r22,r18
 5155 1e66 7307      		cpc r23,r19
 5156 1e68 04F4      		brge .+2
 5157 1e6a 00C0      		rjmp .L352
 5158               	.LM748:
 5159 1e6c F801      		movw r30,r16
 5160 1e6e E40F      		add r30,r20
 5161 1e70 F51F      		adc r31,r21
 5162 1e72 0190      		ld __tmp_reg__,Z+
 5163 1e74 F081      		ld r31,Z
 5164 1e76 E02D      		mov r30,__tmp_reg__
 5165               	.LBE683:
 5166               	.LBE682:
 5167               	.LM749:
 5168 1e78 3097      		sbiw r30,0
 5169 1e7a 01F4      		brne .L276
 5170               	.LM750:
 5171 1e7c 8CE2      		ldi r24,lo8(44)
 5172 1e7e 90E0      		ldi r25,hi8(44)
 5173 1e80 0E94 0000 		call _Z8keypressi
 5174               	.LVL276:
 5175               	.LM751:
 5176 1e84 82E0      		ldi r24,lo8(2)
 5177 1e86 90E0      		ldi r25,hi8(2)
 5178 1e88 0E94 0000 		call _Z10modifierupi
 5179               	.LM752:
 5180 1e8c 84E0      		ldi r24,lo8(4)
 5181 1e8e 90E0      		ldi r25,hi8(4)
 5182 1e90 0E94 0000 		call _Z10modifierupi
 5183               	.LM753:
 5184 1e94 81E0      		ldi r24,lo8(1)
 5185 1e96 90E0      		ldi r25,hi8(1)
 5186 1e98 0E94 0000 		call _Z10modifierupi
 5187 1e9c 00C0      		rjmp .L352
 5188               	.LVL277:
 5189               	.L276:
 5190               	.LM754:
 5191 1e9e E130      		cpi r30,1
 5192 1ea0 F105      		cpc r31,__zero_reg__
 5193 1ea2 01F0      		breq .L277
 5194 1ea4 E230      		cpi r30,2
 5195 1ea6 F105      		cpc r31,__zero_reg__
 5196 1ea8 01F0      		breq .L277
 5197 1eaa 3397      		sbiw r30,3
 5198 1eac 01F0      		breq .+2
 5199 1eae 00C0      		rjmp .L217
 5200               	.L277:
 5201               	.LM755:
 5202 1eb0 8AE2      		ldi r24,lo8(42)
 5203 1eb2 90E0      		ldi r25,hi8(42)
 5204 1eb4 0E94 0000 		call _Z8keypressi
 5205               	.LVL278:
 5206               	.LM756:
 5207 1eb8 82E0      		ldi r24,lo8(2)
 5208 1eba 90E0      		ldi r25,hi8(2)
 5209 1ebc 0E94 0000 		call _Z10modifierupi
 5210               	.LM757:
 5211 1ec0 84E0      		ldi r24,lo8(4)
 5212 1ec2 90E0      		ldi r25,hi8(4)
 5213 1ec4 0E94 0000 		call _Z10modifierupi
 5214               	.LM758:
 5215 1ec8 81E0      		ldi r24,lo8(1)
 5216 1eca 90E0      		ldi r25,hi8(1)
 5217 1ecc 0E94 0000 		call _Z10modifierupi
 5218 1ed0 00C0      		rjmp .L352
 5219               	.LVL279:
 5220               	.L275:
 5221               	.LBB684:
 5222               	.LBB685:
 5223               	.LM759:
 5224 1ed2 6217      		cp r22,r18
 5225 1ed4 7307      		cpc r23,r19
 5226 1ed6 04F4      		brge .+2
 5227 1ed8 00C0      		rjmp .L352
 5228               	.LM760:
 5229 1eda F801      		movw r30,r16
 5230 1edc E40F      		add r30,r20
 5231 1ede F51F      		adc r31,r21
 5232 1ee0 0190      		ld __tmp_reg__,Z+
 5233 1ee2 F081      		ld r31,Z
 5234 1ee4 E02D      		mov r30,__tmp_reg__
 5235               	.LBE685:
 5236               	.LBE684:
 5237               	.LM761:
 5238 1ee6 3097      		sbiw r30,0
 5239 1ee8 01F4      		brne .L278
 5240               	.LM762:
 5241 1eea 8BE0      		ldi r24,lo8(11)
 5242 1eec 90E0      		ldi r25,hi8(11)
 5243 1eee 0E94 0000 		call _Z8keypressi
 5244               	.LVL280:
 5245               	.LM763:
 5246 1ef2 82E0      		ldi r24,lo8(2)
 5247 1ef4 90E0      		ldi r25,hi8(2)
 5248 1ef6 0E94 0000 		call _Z10modifierupi
 5249               	.LM764:
 5250 1efa 84E0      		ldi r24,lo8(4)
 5251 1efc 90E0      		ldi r25,hi8(4)
 5252 1efe 0E94 0000 		call _Z10modifierupi
 5253               	.LM765:
 5254 1f02 81E0      		ldi r24,lo8(1)
 5255 1f04 90E0      		ldi r25,hi8(1)
 5256 1f06 0E94 0000 		call _Z10modifierupi
 5257 1f0a 00C0      		rjmp .L352
 5258               	.LVL281:
 5259               	.L278:
 5260               	.LM766:
 5261 1f0c E130      		cpi r30,1
 5262 1f0e F105      		cpc r31,__zero_reg__
 5263 1f10 01F4      		brne .L279
 5264               	.LM767:
 5265 1f12 81E2      		ldi r24,lo8(33)
 5266 1f14 90E0      		ldi r25,hi8(33)
 5267 1f16 0E94 0000 		call _Z8keypressi
 5268               	.LVL282:
 5269               	.LM768:
 5270 1f1a 82E0      		ldi r24,lo8(2)
 5271 1f1c 90E0      		ldi r25,hi8(2)
 5272 1f1e 0E94 0000 		call _Z10modifierupi
 5273               	.LM769:
 5274 1f22 84E0      		ldi r24,lo8(4)
 5275 1f24 90E0      		ldi r25,hi8(4)
 5276 1f26 0E94 0000 		call _Z10modifierupi
 5277               	.LM770:
 5278 1f2a 81E0      		ldi r24,lo8(1)
 5279 1f2c 90E0      		ldi r25,hi8(1)
 5280 1f2e 0E94 0000 		call _Z10modifierupi
 5281 1f32 00C0      		rjmp .L352
 5282               	.LVL283:
 5283               	.L279:
 5284               	.LM771:
 5285 1f34 E230      		cpi r30,2
 5286 1f36 F105      		cpc r31,__zero_reg__
 5287 1f38 01F4      		brne .L280
 5288               	.LM772:
 5289 1f3a 82E0      		ldi r24,lo8(2)
 5290 1f3c 90E0      		ldi r25,hi8(2)
 5291 1f3e 0E94 0000 		call _Z12modifierdowni
 5292               	.LVL284:
 5293               	.LM773:
 5294 1f42 86E2      		ldi r24,lo8(38)
 5295 1f44 90E0      		ldi r25,hi8(38)
 5296 1f46 0E94 0000 		call _Z8keypressi
 5297               	.LM774:
 5298 1f4a 82E0      		ldi r24,lo8(2)
 5299 1f4c 90E0      		ldi r25,hi8(2)
 5300 1f4e 0E94 0000 		call _Z10modifierupi
 5301               	.LM775:
 5302 1f52 84E0      		ldi r24,lo8(4)
 5303 1f54 90E0      		ldi r25,hi8(4)
 5304 1f56 0E94 0000 		call _Z10modifierupi
 5305               	.LM776:
 5306 1f5a 81E0      		ldi r24,lo8(1)
 5307 1f5c 90E0      		ldi r25,hi8(1)
 5308 1f5e 0E94 0000 		call _Z10modifierupi
 5309 1f62 00C0      		rjmp .L352
 5310               	.LVL285:
 5311               	.L280:
 5312               	.LM777:
 5313 1f64 3397      		sbiw r30,3
 5314 1f66 01F0      		breq .+2
 5315 1f68 00C0      		rjmp .L217
 5316               	.LM778:
 5317 1f6a 8DE3      		ldi r24,lo8(61)
 5318 1f6c 90E0      		ldi r25,hi8(61)
 5319 1f6e 0E94 0000 		call _Z8keypressi
 5320               	.LVL286:
 5321               	.LM779:
 5322 1f72 82E0      		ldi r24,lo8(2)
 5323 1f74 90E0      		ldi r25,hi8(2)
 5324 1f76 0E94 0000 		call _Z10modifierupi
 5325               	.LM780:
 5326 1f7a 84E0      		ldi r24,lo8(4)
 5327 1f7c 90E0      		ldi r25,hi8(4)
 5328 1f7e 0E94 0000 		call _Z10modifierupi
 5329               	.LM781:
 5330 1f82 81E0      		ldi r24,lo8(1)
 5331 1f84 90E0      		ldi r25,hi8(1)
 5332 1f86 0E94 0000 		call _Z10modifierupi
 5333 1f8a 00C0      		rjmp .L352
 5334               	.LVL287:
 5335               	.L357:
 5336               	.LM782:
 5337 1f8c 2196      		adiw r28,61-60
 5338 1f8e 8CAD      		ldd r24,Y+60
 5339 1f90 9DAD      		ldd r25,Y+61
 5340 1f92 AEAD      		ldd r26,Y+62
 5341 1f94 BFAD      		ldd r27,Y+63
 5342 1f96 2197      		sbiw r28,61-60
 5343 1f98 0097      		sbiw r24,0
 5344 1f9a A105      		cpc r26,__zero_reg__
 5345 1f9c B105      		cpc r27,__zero_reg__
 5346 1f9e 01F4      		brne .+2
 5347 1fa0 00C0      		rjmp .L281
 5348               	.LBB686:
 5349               	.LBB687:
 5350               	.LM783:
 5351 1fa2 6217      		cp r22,r18
 5352 1fa4 7307      		cpc r23,r19
 5353 1fa6 04F4      		brge .+2
 5354 1fa8 00C0      		rjmp .L352
 5355               	.LM784:
 5356 1faa F801      		movw r30,r16
 5357 1fac E40F      		add r30,r20
 5358 1fae F51F      		adc r31,r21
 5359 1fb0 0190      		ld __tmp_reg__,Z+
 5360 1fb2 F081      		ld r31,Z
 5361 1fb4 E02D      		mov r30,__tmp_reg__
 5362               	.LBE687:
 5363               	.LBE686:
 5364               	.LM785:
 5365 1fb6 3097      		sbiw r30,0
 5366 1fb8 01F4      		brne .L282
 5367               	.LM786:
 5368 1fba 80E1      		ldi r24,lo8(16)
 5369 1fbc 90E0      		ldi r25,hi8(16)
 5370 1fbe 0E94 0000 		call _Z8keypressi
 5371               	.LVL288:
 5372               	.LM787:
 5373 1fc2 82E0      		ldi r24,lo8(2)
 5374 1fc4 90E0      		ldi r25,hi8(2)
 5375 1fc6 0E94 0000 		call _Z10modifierupi
 5376               	.LM788:
 5377 1fca 84E0      		ldi r24,lo8(4)
 5378 1fcc 90E0      		ldi r25,hi8(4)
 5379 1fce 0E94 0000 		call _Z10modifierupi
 5380               	.LM789:
 5381 1fd2 81E0      		ldi r24,lo8(1)
 5382 1fd4 90E0      		ldi r25,hi8(1)
 5383 1fd6 0E94 0000 		call _Z10modifierupi
 5384 1fda 00C0      		rjmp .L352
 5385               	.LVL289:
 5386               	.L282:
 5387               	.LM790:
 5388 1fdc E130      		cpi r30,1
 5389 1fde F105      		cpc r31,__zero_reg__
 5390 1fe0 01F4      		brne .L283
 5391               	.LM791:
 5392 1fe2 82E2      		ldi r24,lo8(34)
 5393 1fe4 90E0      		ldi r25,hi8(34)
 5394 1fe6 0E94 0000 		call _Z8keypressi
 5395               	.LVL290:
 5396               	.LM792:
 5397 1fea 82E0      		ldi r24,lo8(2)
 5398 1fec 90E0      		ldi r25,hi8(2)
 5399 1fee 0E94 0000 		call _Z10modifierupi
 5400               	.LM793:
 5401 1ff2 84E0      		ldi r24,lo8(4)
 5402 1ff4 90E0      		ldi r25,hi8(4)
 5403 1ff6 0E94 0000 		call _Z10modifierupi
 5404               	.LM794:
 5405 1ffa 81E0      		ldi r24,lo8(1)
 5406 1ffc 90E0      		ldi r25,hi8(1)
 5407 1ffe 0E94 0000 		call _Z10modifierupi
 5408 2002 00C0      		rjmp .L352
 5409               	.LVL291:
 5410               	.L283:
 5411               	.LM795:
 5412 2004 E230      		cpi r30,2
 5413 2006 F105      		cpc r31,__zero_reg__
 5414 2008 01F4      		brne .L284
 5415               	.LM796:
 5416 200a 82E0      		ldi r24,lo8(2)
 5417 200c 90E0      		ldi r25,hi8(2)
 5418 200e 0E94 0000 		call _Z12modifierdowni
 5419               	.LVL292:
 5420               	.LM797:
 5421 2012 87E2      		ldi r24,lo8(39)
 5422 2014 90E0      		ldi r25,hi8(39)
 5423 2016 0E94 0000 		call _Z8keypressi
 5424               	.LM798:
 5425 201a 82E0      		ldi r24,lo8(2)
 5426 201c 90E0      		ldi r25,hi8(2)
 5427 201e 0E94 0000 		call _Z10modifierupi
 5428               	.LM799:
 5429 2022 84E0      		ldi r24,lo8(4)
 5430 2024 90E0      		ldi r25,hi8(4)
 5431 2026 0E94 0000 		call _Z10modifierupi
 5432               	.LM800:
 5433 202a 81E0      		ldi r24,lo8(1)
 5434 202c 90E0      		ldi r25,hi8(1)
 5435 202e 0E94 0000 		call _Z10modifierupi
 5436 2032 00C0      		rjmp .L352
 5437               	.LVL293:
 5438               	.L284:
 5439               	.LM801:
 5440 2034 3397      		sbiw r30,3
 5441 2036 01F0      		breq .+2
 5442 2038 00C0      		rjmp .L217
 5443               	.LM802:
 5444 203a 8EE3      		ldi r24,lo8(62)
 5445 203c 90E0      		ldi r25,hi8(62)
 5446 203e 0E94 0000 		call _Z8keypressi
 5447               	.LVL294:
 5448               	.LM803:
 5449 2042 82E0      		ldi r24,lo8(2)
 5450 2044 90E0      		ldi r25,hi8(2)
 5451 2046 0E94 0000 		call _Z10modifierupi
 5452               	.LM804:
 5453 204a 84E0      		ldi r24,lo8(4)
 5454 204c 90E0      		ldi r25,hi8(4)
 5455 204e 0E94 0000 		call _Z10modifierupi
 5456               	.LM805:
 5457 2052 81E0      		ldi r24,lo8(1)
 5458 2054 90E0      		ldi r25,hi8(1)
 5459 2056 0E94 0000 		call _Z10modifierupi
 5460 205a 00C0      		rjmp .L352
 5461               	.LVL295:
 5462               	.L281:
 5463               	.LM806:
 5464 205c 2596      		adiw r28,65-60
 5465 205e 8CAD      		ldd r24,Y+60
 5466 2060 9DAD      		ldd r25,Y+61
 5467 2062 AEAD      		ldd r26,Y+62
 5468 2064 BFAD      		ldd r27,Y+63
 5469 2066 2597      		sbiw r28,65-60
 5470 2068 0097      		sbiw r24,0
 5471 206a A105      		cpc r26,__zero_reg__
 5472 206c B105      		cpc r27,__zero_reg__
 5473 206e 01F4      		brne .+2
 5474 2070 00C0      		rjmp .L285
 5475               	.LBB688:
 5476               	.LBB689:
 5477               	.LM807:
 5478 2072 6217      		cp r22,r18
 5479 2074 7307      		cpc r23,r19
 5480 2076 04F4      		brge .+2
 5481 2078 00C0      		rjmp .L352
 5482               	.LM808:
 5483 207a F801      		movw r30,r16
 5484 207c E40F      		add r30,r20
 5485 207e F51F      		adc r31,r21
 5486 2080 0190      		ld __tmp_reg__,Z+
 5487 2082 F081      		ld r31,Z
 5488 2084 E02D      		mov r30,__tmp_reg__
 5489               	.LBE689:
 5490               	.LBE688:
 5491               	.LM809:
 5492 2086 3097      		sbiw r30,0
 5493 2088 01F4      		brne .L286
 5494               	.LM810:
 5495 208a 85E0      		ldi r24,lo8(5)
 5496 208c 90E0      		ldi r25,hi8(5)
 5497 208e 0E94 0000 		call _Z8keypressi
 5498               	.LVL296:
 5499               	.LM811:
 5500 2092 82E0      		ldi r24,lo8(2)
 5501 2094 90E0      		ldi r25,hi8(2)
 5502 2096 0E94 0000 		call _Z10modifierupi
 5503               	.LM812:
 5504 209a 84E0      		ldi r24,lo8(4)
 5505 209c 90E0      		ldi r25,hi8(4)
 5506 209e 0E94 0000 		call _Z10modifierupi
 5507               	.LM813:
 5508 20a2 81E0      		ldi r24,lo8(1)
 5509 20a4 90E0      		ldi r25,hi8(1)
 5510 20a6 0E94 0000 		call _Z10modifierupi
 5511 20aa 00C0      		rjmp .L352
 5512               	.LVL297:
 5513               	.L286:
 5514               	.LM814:
 5515 20ac E130      		cpi r30,1
 5516 20ae F105      		cpc r31,__zero_reg__
 5517 20b0 01F4      		brne .L287
 5518               	.LM815:
 5519 20b2 83E2      		ldi r24,lo8(35)
 5520 20b4 90E0      		ldi r25,hi8(35)
 5521 20b6 0E94 0000 		call _Z8keypressi
 5522               	.LVL298:
 5523               	.LM816:
 5524 20ba 82E0      		ldi r24,lo8(2)
 5525 20bc 90E0      		ldi r25,hi8(2)
 5526 20be 0E94 0000 		call _Z10modifierupi
 5527               	.LM817:
 5528 20c2 84E0      		ldi r24,lo8(4)
 5529 20c4 90E0      		ldi r25,hi8(4)
 5530 20c6 0E94 0000 		call _Z10modifierupi
 5531               	.LM818:
 5532 20ca 81E0      		ldi r24,lo8(1)
 5533 20cc 90E0      		ldi r25,hi8(1)
 5534 20ce 0E94 0000 		call _Z10modifierupi
 5535 20d2 00C0      		rjmp .L352
 5536               	.LVL299:
 5537               	.L287:
 5538               	.LM819:
 5539 20d4 E230      		cpi r30,2
 5540 20d6 F105      		cpc r31,__zero_reg__
 5541 20d8 01F4      		brne .L288
 5542               	.LM820:
 5543 20da 82E0      		ldi r24,lo8(2)
 5544 20dc 90E0      		ldi r25,hi8(2)
 5545 20de 0E94 0000 		call _Z12modifierdowni
 5546               	.LVL300:
 5547               	.LM821:
 5548 20e2 88E3      		ldi r24,lo8(56)
 5549 20e4 90E0      		ldi r25,hi8(56)
 5550 20e6 0E94 0000 		call _Z8keypressi
 5551               	.LM822:
 5552 20ea 82E0      		ldi r24,lo8(2)
 5553 20ec 90E0      		ldi r25,hi8(2)
 5554 20ee 0E94 0000 		call _Z10modifierupi
 5555               	.LM823:
 5556 20f2 84E0      		ldi r24,lo8(4)
 5557 20f4 90E0      		ldi r25,hi8(4)
 5558 20f6 0E94 0000 		call _Z10modifierupi
 5559               	.LM824:
 5560 20fa 81E0      		ldi r24,lo8(1)
 5561 20fc 90E0      		ldi r25,hi8(1)
 5562 20fe 0E94 0000 		call _Z10modifierupi
 5563 2102 00C0      		rjmp .L352
 5564               	.LVL301:
 5565               	.L288:
 5566               	.LM825:
 5567 2104 3397      		sbiw r30,3
 5568 2106 01F0      		breq .+2
 5569 2108 00C0      		rjmp .L217
 5570               	.LM826:
 5571 210a 8FE3      		ldi r24,lo8(63)
 5572 210c 90E0      		ldi r25,hi8(63)
 5573 210e 0E94 0000 		call _Z8keypressi
 5574               	.LVL302:
 5575               	.LM827:
 5576 2112 82E0      		ldi r24,lo8(2)
 5577 2114 90E0      		ldi r25,hi8(2)
 5578 2116 0E94 0000 		call _Z10modifierupi
 5579               	.LM828:
 5580 211a 84E0      		ldi r24,lo8(4)
 5581 211c 90E0      		ldi r25,hi8(4)
 5582 211e 0E94 0000 		call _Z10modifierupi
 5583               	.LM829:
 5584 2122 81E0      		ldi r24,lo8(1)
 5585 2124 90E0      		ldi r25,hi8(1)
 5586 2126 0E94 0000 		call _Z10modifierupi
 5587 212a 00C0      		rjmp .L352
 5588               	.LVL303:
 5589               	.L285:
 5590               	.LM830:
 5591 212c 2996      		adiw r28,69-60
 5592 212e 8CAD      		ldd r24,Y+60
 5593 2130 9DAD      		ldd r25,Y+61
 5594 2132 AEAD      		ldd r26,Y+62
 5595 2134 BFAD      		ldd r27,Y+63
 5596 2136 2997      		sbiw r28,69-60
 5597 2138 0097      		sbiw r24,0
 5598 213a A105      		cpc r26,__zero_reg__
 5599 213c B105      		cpc r27,__zero_reg__
 5600 213e 01F4      		brne .+2
 5601 2140 00C0      		rjmp .L289
 5602               	.LBB690:
 5603               	.LBB691:
 5604               	.LM831:
 5605 2142 6217      		cp r22,r18
 5606 2144 7307      		cpc r23,r19
 5607 2146 04F4      		brge .+2
 5608 2148 00C0      		rjmp .L352
 5609               	.LM832:
 5610 214a F801      		movw r30,r16
 5611 214c E40F      		add r30,r20
 5612 214e F51F      		adc r31,r21
 5613 2150 0190      		ld __tmp_reg__,Z+
 5614 2152 F081      		ld r31,Z
 5615 2154 E02D      		mov r30,__tmp_reg__
 5616               	.LBE691:
 5617               	.LBE690:
 5618               	.LM833:
 5619 2156 3097      		sbiw r30,0
 5620 2158 01F4      		brne .L290
 5621               	.LM834:
 5622 215a 82E1      		ldi r24,lo8(18)
 5623 215c 90E0      		ldi r25,hi8(18)
 5624 215e 0E94 0000 		call _Z8keypressi
 5625               	.LVL304:
 5626               	.LM835:
 5627 2162 82E0      		ldi r24,lo8(2)
 5628 2164 90E0      		ldi r25,hi8(2)
 5629 2166 0E94 0000 		call _Z10modifierupi
 5630               	.LM836:
 5631 216a 84E0      		ldi r24,lo8(4)
 5632 216c 90E0      		ldi r25,hi8(4)
 5633 216e 0E94 0000 		call _Z10modifierupi
 5634               	.LM837:
 5635 2172 81E0      		ldi r24,lo8(1)
 5636 2174 90E0      		ldi r25,hi8(1)
 5637 2176 0E94 0000 		call _Z10modifierupi
 5638 217a 00C0      		rjmp .L352
 5639               	.LVL305:
 5640               	.L290:
 5641               	.LM838:
 5642 217c E130      		cpi r30,1
 5643 217e F105      		cpc r31,__zero_reg__
 5644 2180 01F4      		brne .L291
 5645               	.LM839:
 5646 2182 85E5      		ldi r24,lo8(85)
 5647 2184 90E0      		ldi r25,hi8(85)
 5648 2186 0E94 0000 		call _Z8keypressi
 5649               	.LVL306:
 5650               	.LM840:
 5651 218a 82E0      		ldi r24,lo8(2)
 5652 218c 90E0      		ldi r25,hi8(2)
 5653 218e 0E94 0000 		call _Z10modifierupi
 5654               	.LM841:
 5655 2192 84E0      		ldi r24,lo8(4)
 5656 2194 90E0      		ldi r25,hi8(4)
 5657 2196 0E94 0000 		call _Z10modifierupi
 5658               	.LM842:
 5659 219a 81E0      		ldi r24,lo8(1)
 5660 219c 90E0      		ldi r25,hi8(1)
 5661 219e 0E94 0000 		call _Z10modifierupi
 5662 21a2 00C0      		rjmp .L352
 5663               	.LVL307:
 5664               	.L291:
 5665               	.LM843:
 5666 21a4 E230      		cpi r30,2
 5667 21a6 F105      		cpc r31,__zero_reg__
 5668 21a8 01F4      		brne .L292
 5669               	.LM844:
 5670 21aa 82E0      		ldi r24,lo8(2)
 5671 21ac 90E0      		ldi r25,hi8(2)
 5672 21ae 0E94 0000 		call _Z12modifierdowni
 5673               	.LVL308:
 5674               	.LM845:
 5675 21b2 8FE2      		ldi r24,lo8(47)
 5676 21b4 90E0      		ldi r25,hi8(47)
 5677 21b6 0E94 0000 		call _Z8keypressi
 5678               	.LM846:
 5679 21ba 82E0      		ldi r24,lo8(2)
 5680 21bc 90E0      		ldi r25,hi8(2)
 5681 21be 0E94 0000 		call _Z10modifierupi
 5682               	.LM847:
 5683 21c2 84E0      		ldi r24,lo8(4)
 5684 21c4 90E0      		ldi r25,hi8(4)
 5685 21c6 0E94 0000 		call _Z10modifierupi
 5686               	.LM848:
 5687 21ca 81E0      		ldi r24,lo8(1)
 5688 21cc 90E0      		ldi r25,hi8(1)
 5689 21ce 0E94 0000 		call _Z10modifierupi
 5690 21d2 00C0      		rjmp .L352
 5691               	.LVL309:
 5692               	.L292:
 5693               	.LM849:
 5694 21d4 3397      		sbiw r30,3
 5695 21d6 01F0      		breq .+2
 5696 21d8 00C0      		rjmp .L217
 5697               	.LM850:
 5698 21da 8FE7      		ldi r24,lo8(127)
 5699 21dc 90E0      		ldi r25,hi8(127)
 5700 21de 0E94 0000 		call _Z8keypressi
 5701               	.LVL310:
 5702               	.LM851:
 5703 21e2 82E0      		ldi r24,lo8(2)
 5704 21e4 90E0      		ldi r25,hi8(2)
 5705 21e6 0E94 0000 		call _Z10modifierupi
 5706               	.LM852:
 5707 21ea 84E0      		ldi r24,lo8(4)
 5708 21ec 90E0      		ldi r25,hi8(4)
 5709 21ee 0E94 0000 		call _Z10modifierupi
 5710               	.LM853:
 5711 21f2 81E0      		ldi r24,lo8(1)
 5712 21f4 90E0      		ldi r25,hi8(1)
 5713 21f6 0E94 0000 		call _Z10modifierupi
 5714 21fa 00C0      		rjmp .L352
 5715               	.LVL311:
 5716               	.L289:
 5717               	.LM854:
 5718 21fc 2D96      		adiw r28,73-60
 5719 21fe 8CAD      		ldd r24,Y+60
 5720 2200 9DAD      		ldd r25,Y+61
 5721 2202 AEAD      		ldd r26,Y+62
 5722 2204 BFAD      		ldd r27,Y+63
 5723 2206 2D97      		sbiw r28,73-60
 5724 2208 0097      		sbiw r24,0
 5725 220a A105      		cpc r26,__zero_reg__
 5726 220c B105      		cpc r27,__zero_reg__
 5727 220e 01F4      		brne .+2
 5728 2210 00C0      		rjmp .L293
 5729               	.LBB692:
 5730               	.LBB693:
 5731               	.LM855:
 5732 2212 6217      		cp r22,r18
 5733 2214 7307      		cpc r23,r19
 5734 2216 04F4      		brge .+2
 5735 2218 00C0      		rjmp .L352
 5736               	.LM856:
 5737 221a F801      		movw r30,r16
 5738 221c E40F      		add r30,r20
 5739 221e F51F      		adc r31,r21
 5740 2220 0190      		ld __tmp_reg__,Z+
 5741 2222 F081      		ld r31,Z
 5742 2224 E02D      		mov r30,__tmp_reg__
 5743               	.LBE693:
 5744               	.LBE692:
 5745               	.LM857:
 5746 2226 3097      		sbiw r30,0
 5747 2228 01F4      		brne .L294
 5748               	.LM858:
 5749 222a 88E1      		ldi r24,lo8(24)
 5750 222c 90E0      		ldi r25,hi8(24)
 5751 222e 0E94 0000 		call _Z8keypressi
 5752               	.LVL312:
 5753               	.LM859:
 5754 2232 82E0      		ldi r24,lo8(2)
 5755 2234 90E0      		ldi r25,hi8(2)
 5756 2236 0E94 0000 		call _Z10modifierupi
 5757               	.LM860:
 5758 223a 84E0      		ldi r24,lo8(4)
 5759 223c 90E0      		ldi r25,hi8(4)
 5760 223e 0E94 0000 		call _Z10modifierupi
 5761               	.LM861:
 5762 2242 81E0      		ldi r24,lo8(1)
 5763 2244 90E0      		ldi r25,hi8(1)
 5764 2246 0E94 0000 		call _Z10modifierupi
 5765 224a 00C0      		rjmp .L352
 5766               	.LVL313:
 5767               	.L294:
 5768               	.LM862:
 5769 224c E130      		cpi r30,1
 5770 224e F105      		cpc r31,__zero_reg__
 5771 2250 01F4      		brne .L295
 5772               	.LM863:
 5773 2252 84E5      		ldi r24,lo8(84)
 5774 2254 90E0      		ldi r25,hi8(84)
 5775 2256 0E94 0000 		call _Z8keypressi
 5776               	.LVL314:
 5777               	.LM864:
 5778 225a 82E0      		ldi r24,lo8(2)
 5779 225c 90E0      		ldi r25,hi8(2)
 5780 225e 0E94 0000 		call _Z10modifierupi
 5781               	.LM865:
 5782 2262 84E0      		ldi r24,lo8(4)
 5783 2264 90E0      		ldi r25,hi8(4)
 5784 2266 0E94 0000 		call _Z10modifierupi
 5785               	.LM866:
 5786 226a 81E0      		ldi r24,lo8(1)
 5787 226c 90E0      		ldi r25,hi8(1)
 5788 226e 0E94 0000 		call _Z10modifierupi
 5789 2272 00C0      		rjmp .L352
 5790               	.LVL315:
 5791               	.L295:
 5792               	.LM867:
 5793 2274 3297      		sbiw r30,2
 5794 2276 01F0      		breq .+2
 5795 2278 00C0      		rjmp .L217
 5796               	.LM868:
 5797 227a 82E0      		ldi r24,lo8(2)
 5798 227c 90E0      		ldi r25,hi8(2)
 5799 227e 0E94 0000 		call _Z12modifierdowni
 5800               	.LVL316:
 5801               	.LM869:
 5802 2282 80E3      		ldi r24,lo8(48)
 5803 2284 90E0      		ldi r25,hi8(48)
 5804 2286 0E94 0000 		call _Z8keypressi
 5805               	.LM870:
 5806 228a 82E0      		ldi r24,lo8(2)
 5807 228c 90E0      		ldi r25,hi8(2)
 5808 228e 0E94 0000 		call _Z10modifierupi
 5809               	.LM871:
 5810 2292 84E0      		ldi r24,lo8(4)
 5811 2294 90E0      		ldi r25,hi8(4)
 5812 2296 0E94 0000 		call _Z10modifierupi
 5813               	.LM872:
 5814 229a 81E0      		ldi r24,lo8(1)
 5815 229c 90E0      		ldi r25,hi8(1)
 5816 229e 0E94 0000 		call _Z10modifierupi
 5817 22a2 00C0      		rjmp .L352
 5818               	.LVL317:
 5819               	.L293:
 5820               	.LM873:
 5821 22a4 4114      		cp r4,__zero_reg__
 5822 22a6 5104      		cpc r5,__zero_reg__
 5823 22a8 6104      		cpc r6,__zero_reg__
 5824 22aa 7104      		cpc r7,__zero_reg__
 5825 22ac 01F0      		breq .L296
 5826               	.LBB694:
 5827               	.LBB695:
 5828               	.LM874:
 5829 22ae 6217      		cp r22,r18
 5830 22b0 7307      		cpc r23,r19
 5831 22b2 04F4      		brge .+2
 5832 22b4 00C0      		rjmp .L352
 5833               	.LM875:
 5834 22b6 F801      		movw r30,r16
 5835 22b8 E40F      		add r30,r20
 5836 22ba F51F      		adc r31,r21
 5837 22bc 0190      		ld __tmp_reg__,Z+
 5838 22be F081      		ld r31,Z
 5839 22c0 E02D      		mov r30,__tmp_reg__
 5840               	.LBE695:
 5841               	.LBE694:
 5842               	.LM876:
 5843 22c2 3097      		sbiw r30,0
 5844 22c4 01F4      		brne .L297
 5845               	.LM877:
 5846 22c6 87E0      		ldi r24,lo8(7)
 5847 22c8 90E0      		ldi r25,hi8(7)
 5848 22ca 0E94 0000 		call _Z8keypressi
 5849               	.LVL318:
 5850               	.LM878:
 5851 22ce 82E0      		ldi r24,lo8(2)
 5852 22d0 90E0      		ldi r25,hi8(2)
 5853 22d2 0E94 0000 		call _Z10modifierupi
 5854               	.LM879:
 5855 22d6 84E0      		ldi r24,lo8(4)
 5856 22d8 90E0      		ldi r25,hi8(4)
 5857 22da 0E94 0000 		call _Z10modifierupi
 5858               	.LM880:
 5859 22de 81E0      		ldi r24,lo8(1)
 5860 22e0 90E0      		ldi r25,hi8(1)
 5861 22e2 0E94 0000 		call _Z10modifierupi
 5862 22e6 00C0      		rjmp .L352
 5863               	.LVL319:
 5864               	.L297:
 5865               	.LM881:
 5866 22e8 3297      		sbiw r30,2
 5867 22ea 01F0      		breq .+2
 5868 22ec 00C0      		rjmp .L217
 5869               	.LM882:
 5870 22ee 82E0      		ldi r24,lo8(2)
 5871 22f0 90E0      		ldi r25,hi8(2)
 5872 22f2 0E94 0000 		call _Z12modifierdowni
 5873               	.LVL320:
 5874               	.LM883:
 5875 22f6 8EE1      		ldi r24,lo8(30)
 5876 22f8 90E0      		ldi r25,hi8(30)
 5877 22fa 0E94 0000 		call _Z8keypressi
 5878               	.LM884:
 5879 22fe 82E0      		ldi r24,lo8(2)
 5880 2300 90E0      		ldi r25,hi8(2)
 5881 2302 0E94 0000 		call _Z10modifierupi
 5882               	.LM885:
 5883 2306 84E0      		ldi r24,lo8(4)
 5884 2308 90E0      		ldi r25,hi8(4)
 5885 230a 0E94 0000 		call _Z10modifierupi
 5886               	.LM886:
 5887 230e 81E0      		ldi r24,lo8(1)
 5888 2310 90E0      		ldi r25,hi8(1)
 5889 2312 0E94 0000 		call _Z10modifierupi
 5890 2316 00C0      		rjmp .L352
 5891               	.LVL321:
 5892               	.L296:
 5893               	.LM887:
 5894 2318 84FE      		sbrs r8,4
 5895 231a 00C0      		rjmp .L298
 5896               	.LBB696:
 5897               	.LBB697:
 5898               	.LM888:
 5899 231c 6217      		cp r22,r18
 5900 231e 7307      		cpc r23,r19
 5901 2320 04F4      		brge .+2
 5902 2322 00C0      		rjmp .L298
 5903               	.LBE697:
 5904               	.LBE696:
 5905               	.LM889:
 5906 2324 F801      		movw r30,r16
 5907 2326 E40F      		add r30,r20
 5908 2328 F51F      		adc r31,r21
 5909 232a 8081      		ld r24,Z
 5910 232c 9181      		ldd r25,Z+1
 5911 232e 892B      		or r24,r25
 5912 2330 01F0      		breq .+2
 5913 2332 00C0      		rjmp .L298
 5914               	.LM890:
 5915 2334 8DE0      		ldi r24,lo8(13)
 5916 2336 90E0      		ldi r25,hi8(13)
 5917 2338 0E94 0000 		call _Z8keypressi
 5918               	.LVL322:
 5919               	.LM891:
 5920 233c 82E0      		ldi r24,lo8(2)
 5921 233e 90E0      		ldi r25,hi8(2)
 5922 2340 0E94 0000 		call _Z10modifierupi
 5923               	.LM892:
 5924 2344 84E0      		ldi r24,lo8(4)
 5925 2346 90E0      		ldi r25,hi8(4)
 5926 2348 0E94 0000 		call _Z10modifierupi
 5927               	.LM893:
 5928 234c 81E0      		ldi r24,lo8(1)
 5929 234e 90E0      		ldi r25,hi8(1)
 5930 2350 0E94 0000 		call _Z10modifierupi
 5931 2354 00C0      		rjmp .L352
 5932               	.LVL323:
 5933               	.L343:
 5934               	.LBB698:
 5935               	.LBB699:
 5936               	.LM894:
 5937 2356 6217      		cp r22,r18
 5938 2358 7307      		cpc r23,r19
 5939 235a 04F4      		brge .+2
 5940 235c 00C0      		rjmp .L299
 5941               	.LM895:
 5942 235e F801      		movw r30,r16
 5943 2360 E40F      		add r30,r20
 5944 2362 F51F      		adc r31,r21
 5945 2364 0190      		ld __tmp_reg__,Z+
 5946 2366 F081      		ld r31,Z
 5947 2368 E02D      		mov r30,__tmp_reg__
 5948               	.LBE699:
 5949               	.LBE698:
 5950               	.LM896:
 5951 236a 3097      		sbiw r30,0
 5952 236c 01F0      		breq .L300
 5953 236e E130      		cpi r30,1
 5954 2370 F105      		cpc r31,__zero_reg__
 5955 2372 01F0      		breq .L300
 5956 2374 E230      		cpi r30,2
 5957 2376 F105      		cpc r31,__zero_reg__
 5958 2378 01F0      		breq .L300
 5959 237a 3397      		sbiw r30,3
 5960 237c 01F0      		breq .+2
 5961 237e 00C0      		rjmp .L299
 5962               	.L300:
 5963               	.LM897:
 5964 2380 80E0      		ldi r24,lo8(0)
 5965 2382 90E0      		ldi r25,hi8(0)
 5966 2384 0E94 0000 		call _Z8mouseoffi
 5967               	.LVL324:
 5968 2388 00C0      		rjmp .L352
 5969               	.LVL325:
 5970               	.L344:
 5971               	.LBB700:
 5972               	.LBB701:
 5973               	.LM898:
 5974 238a 6217      		cp r22,r18
 5975 238c 7307      		cpc r23,r19
 5976 238e 04F4      		brge .+2
 5977 2390 00C0      		rjmp .L352
 5978               	.LM899:
 5979 2392 F801      		movw r30,r16
 5980 2394 E40F      		add r30,r20
 5981 2396 F51F      		adc r31,r21
 5982 2398 0190      		ld __tmp_reg__,Z+
 5983 239a F081      		ld r31,Z
 5984 239c E02D      		mov r30,__tmp_reg__
 5985               	.LBE701:
 5986               	.LBE700:
 5987               	.LM900:
 5988 239e 3097      		sbiw r30,0
 5989 23a0 01F4      		brne .L301
 5990               	.LM901:
 5991 23a2 84E0      		ldi r24,lo8(4)
 5992 23a4 90E0      		ldi r25,hi8(4)
 5993 23a6 0E94 0000 		call _Z8keypressi
 5994               	.LVL326:
 5995               	.LM902:
 5996 23aa 82E0      		ldi r24,lo8(2)
 5997 23ac 90E0      		ldi r25,hi8(2)
 5998 23ae 0E94 0000 		call _Z10modifierupi
 5999               	.LM903:
 6000 23b2 84E0      		ldi r24,lo8(4)
 6001 23b4 90E0      		ldi r25,hi8(4)
 6002 23b6 0E94 0000 		call _Z10modifierupi
 6003               	.LM904:
 6004 23ba 81E0      		ldi r24,lo8(1)
 6005 23bc 90E0      		ldi r25,hi8(1)
 6006 23be 0E94 0000 		call _Z10modifierupi
 6007 23c2 00C0      		rjmp .L352
 6008               	.LVL327:
 6009               	.L301:
 6010               	.LM905:
 6011 23c4 E130      		cpi r30,1
 6012 23c6 F105      		cpc r31,__zero_reg__
 6013 23c8 01F4      		brne .L302
 6014               	.LM906:
 6015 23ca 87E5      		ldi r24,lo8(87)
 6016 23cc 90E0      		ldi r25,hi8(87)
 6017 23ce 0E94 0000 		call _Z8keypressi
 6018               	.LVL328:
 6019               	.LM907:
 6020 23d2 82E0      		ldi r24,lo8(2)
 6021 23d4 90E0      		ldi r25,hi8(2)
 6022 23d6 0E94 0000 		call _Z10modifierupi
 6023               	.LM908:
 6024 23da 84E0      		ldi r24,lo8(4)
 6025 23dc 90E0      		ldi r25,hi8(4)
 6026 23de 0E94 0000 		call _Z10modifierupi
 6027               	.LM909:
 6028 23e2 81E0      		ldi r24,lo8(1)
 6029 23e4 90E0      		ldi r25,hi8(1)
 6030 23e6 0E94 0000 		call _Z10modifierupi
 6031 23ea 00C0      		rjmp .L352
 6032               	.LVL329:
 6033               	.L302:
 6034               	.LM910:
 6035 23ec 3297      		sbiw r30,2
 6036 23ee 01F0      		breq .+2
 6037 23f0 00C0      		rjmp .L217
 6038               	.LM911:
 6039 23f2 82E0      		ldi r24,lo8(2)
 6040 23f4 90E0      		ldi r25,hi8(2)
 6041 23f6 0E94 0000 		call _Z12modifierdowni
 6042               	.LVL330:
 6043               	.LM912:
 6044 23fa 84E3      		ldi r24,lo8(52)
 6045 23fc 90E0      		ldi r25,hi8(52)
 6046 23fe 0E94 0000 		call _Z8keypressi
 6047               	.LM913:
 6048 2402 82E0      		ldi r24,lo8(2)
 6049 2404 90E0      		ldi r25,hi8(2)
 6050 2406 0E94 0000 		call _Z10modifierupi
 6051               	.LM914:
 6052 240a 84E0      		ldi r24,lo8(4)
 6053 240c 90E0      		ldi r25,hi8(4)
 6054 240e 0E94 0000 		call _Z10modifierupi
 6055               	.LM915:
 6056 2412 81E0      		ldi r24,lo8(1)
 6057 2414 90E0      		ldi r25,hi8(1)
 6058 2416 0E94 0000 		call _Z10modifierupi
 6059 241a 00C0      		rjmp .L352
 6060               	.LVL331:
 6061               	.L358:
 6062               	.LM916:
 6063 241c 87FE      		sbrs r8,7
 6064 241e 00C0      		rjmp .L303
 6065               	.LBB702:
 6066               	.LBB703:
 6067               	.LM917:
 6068 2420 6217      		cp r22,r18
 6069 2422 7307      		cpc r23,r19
 6070 2424 04F4      		brge .+2
 6071 2426 00C0      		rjmp .L352
 6072               	.LM918:
 6073 2428 F801      		movw r30,r16
 6074 242a E40F      		add r30,r20
 6075 242c F51F      		adc r31,r21
 6076 242e 0190      		ld __tmp_reg__,Z+
 6077 2430 F081      		ld r31,Z
 6078 2432 E02D      		mov r30,__tmp_reg__
 6079               	.LBE703:
 6080               	.LBE702:
 6081               	.LM919:
 6082 2434 3097      		sbiw r30,0
 6083 2436 01F4      		brne .L304
 6084               	.LM920:
 6085 2438 85E1      		ldi r24,lo8(21)
 6086 243a 90E0      		ldi r25,hi8(21)
 6087 243c 0E94 0000 		call _Z8keypressi
 6088               	.LVL332:
 6089               	.LM921:
 6090 2440 82E0      		ldi r24,lo8(2)
 6091 2442 90E0      		ldi r25,hi8(2)
 6092 2444 0E94 0000 		call _Z10modifierupi
 6093               	.LM922:
 6094 2448 84E0      		ldi r24,lo8(4)
 6095 244a 90E0      		ldi r25,hi8(4)
 6096 244c 0E94 0000 		call _Z10modifierupi
 6097               	.LM923:
 6098 2450 81E0      		ldi r24,lo8(1)
 6099 2452 90E0      		ldi r25,hi8(1)
 6100 2454 0E94 0000 		call _Z10modifierupi
 6101 2458 00C0      		rjmp .L352
 6102               	.LVL333:
 6103               	.L304:
 6104               	.LM924:
 6105 245a E130      		cpi r30,1
 6106 245c F105      		cpc r31,__zero_reg__
 6107 245e 01F4      		brne .L305
 6108               	.LM925:
 6109 2460 8EE1      		ldi r24,lo8(30)
 6110 2462 90E0      		ldi r25,hi8(30)
 6111 2464 0E94 0000 		call _Z8keypressi
 6112               	.LVL334:
 6113               	.LM926:
 6114 2468 82E0      		ldi r24,lo8(2)
 6115 246a 90E0      		ldi r25,hi8(2)
 6116 246c 0E94 0000 		call _Z10modifierupi
 6117               	.LM927:
 6118 2470 84E0      		ldi r24,lo8(4)
 6119 2472 90E0      		ldi r25,hi8(4)
 6120 2474 0E94 0000 		call _Z10modifierupi
 6121               	.LM928:
 6122 2478 81E0      		ldi r24,lo8(1)
 6123 247a 90E0      		ldi r25,hi8(1)
 6124 247c 0E94 0000 		call _Z10modifierupi
 6125 2480 00C0      		rjmp .L352
 6126               	.LVL335:
 6127               	.L305:
 6128               	.LM929:
 6129 2482 E230      		cpi r30,2
 6130 2484 F105      		cpc r31,__zero_reg__
 6131 2486 01F4      		brne .L306
 6132               	.LM930:
 6133 2488 87E3      		ldi r24,lo8(55)
 6134 248a 90E0      		ldi r25,hi8(55)
 6135 248c 0E94 0000 		call _Z8keypressi
 6136               	.LVL336:
 6137               	.LM931:
 6138 2490 82E0      		ldi r24,lo8(2)
 6139 2492 90E0      		ldi r25,hi8(2)
 6140 2494 0E94 0000 		call _Z10modifierupi
 6141               	.LM932:
 6142 2498 84E0      		ldi r24,lo8(4)
 6143 249a 90E0      		ldi r25,hi8(4)
 6144 249c 0E94 0000 		call _Z10modifierupi
 6145               	.LM933:
 6146 24a0 81E0      		ldi r24,lo8(1)
 6147 24a2 90E0      		ldi r25,hi8(1)
 6148 24a4 0E94 0000 		call _Z10modifierupi
 6149 24a8 00C0      		rjmp .L352
 6150               	.LVL337:
 6151               	.L306:
 6152               	.LM934:
 6153 24aa 3397      		sbiw r30,3
 6154 24ac 01F0      		breq .+2
 6155 24ae 00C0      		rjmp .L217
 6156               	.LM935:
 6157 24b0 8AE3      		ldi r24,lo8(58)
 6158 24b2 90E0      		ldi r25,hi8(58)
 6159 24b4 0E94 0000 		call _Z8keypressi
 6160               	.LVL338:
 6161               	.LM936:
 6162 24b8 82E0      		ldi r24,lo8(2)
 6163 24ba 90E0      		ldi r25,hi8(2)
 6164 24bc 0E94 0000 		call _Z10modifierupi
 6165               	.LM937:
 6166 24c0 84E0      		ldi r24,lo8(4)
 6167 24c2 90E0      		ldi r25,hi8(4)
 6168 24c4 0E94 0000 		call _Z10modifierupi
 6169               	.LM938:
 6170 24c8 81E0      		ldi r24,lo8(1)
 6171 24ca 90E0      		ldi r25,hi8(1)
 6172 24cc 0E94 0000 		call _Z10modifierupi
 6173 24d0 00C0      		rjmp .L352
 6174               	.LVL339:
 6175               	.L303:
 6176               	.LM939:
 6177 24d2 90FE      		sbrs r9,0
 6178 24d4 00C0      		rjmp .L307
 6179               	.LBB704:
 6180               	.LBB705:
 6181               	.LM940:
 6182 24d6 6217      		cp r22,r18
 6183 24d8 7307      		cpc r23,r19
 6184 24da 04F4      		brge .+2
 6185 24dc 00C0      		rjmp .L352
 6186               	.LM941:
 6187 24de F801      		movw r30,r16
 6188 24e0 E40F      		add r30,r20
 6189 24e2 F51F      		adc r31,r21
 6190 24e4 0190      		ld __tmp_reg__,Z+
 6191 24e6 F081      		ld r31,Z
 6192 24e8 E02D      		mov r30,__tmp_reg__
 6193               	.LBE705:
 6194               	.LBE704:
 6195               	.LM942:
 6196 24ea 3097      		sbiw r30,0
 6197 24ec 01F4      		brne .L308
 6198               	.LM943:
 6199 24ee 81E1      		ldi r24,lo8(17)
 6200 24f0 90E0      		ldi r25,hi8(17)
 6201 24f2 0E94 0000 		call _Z8keypressi
 6202               	.LVL340:
 6203               	.LM944:
 6204 24f6 82E0      		ldi r24,lo8(2)
 6205 24f8 90E0      		ldi r25,hi8(2)
 6206 24fa 0E94 0000 		call _Z10modifierupi
 6207               	.LM945:
 6208 24fe 84E0      		ldi r24,lo8(4)
 6209 2500 90E0      		ldi r25,hi8(4)
 6210 2502 0E94 0000 		call _Z10modifierupi
 6211               	.LM946:
 6212 2506 81E0      		ldi r24,lo8(1)
 6213 2508 90E0      		ldi r25,hi8(1)
 6214 250a 0E94 0000 		call _Z10modifierupi
 6215 250e 00C0      		rjmp .L352
 6216               	.LVL341:
 6217               	.L308:
 6218               	.LM947:
 6219 2510 E130      		cpi r30,1
 6220 2512 F105      		cpc r31,__zero_reg__
 6221 2514 01F4      		brne .L309
 6222               	.LM948:
 6223 2516 8FE1      		ldi r24,lo8(31)
 6224 2518 90E0      		ldi r25,hi8(31)
 6225 251a 0E94 0000 		call _Z8keypressi
 6226               	.LVL342:
 6227               	.LM949:
 6228 251e 82E0      		ldi r24,lo8(2)
 6229 2520 90E0      		ldi r25,hi8(2)
 6230 2522 0E94 0000 		call _Z10modifierupi
 6231               	.LM950:
 6232 2526 84E0      		ldi r24,lo8(4)
 6233 2528 90E0      		ldi r25,hi8(4)
 6234 252a 0E94 0000 		call _Z10modifierupi
 6235               	.LM951:
 6236 252e 81E0      		ldi r24,lo8(1)
 6237 2530 90E0      		ldi r25,hi8(1)
 6238 2532 0E94 0000 		call _Z10modifierupi
 6239 2536 00C0      		rjmp .L352
 6240               	.LVL343:
 6241               	.L309:
 6242               	.LM952:
 6243 2538 E230      		cpi r30,2
 6244 253a F105      		cpc r31,__zero_reg__
 6245 253c 01F4      		brne .L310
 6246               	.LM953:
 6247 253e 86E3      		ldi r24,lo8(54)
 6248 2540 90E0      		ldi r25,hi8(54)
 6249 2542 0E94 0000 		call _Z8keypressi
 6250               	.LVL344:
 6251               	.LM954:
 6252 2546 82E0      		ldi r24,lo8(2)
 6253 2548 90E0      		ldi r25,hi8(2)
 6254 254a 0E94 0000 		call _Z10modifierupi
 6255               	.LM955:
 6256 254e 84E0      		ldi r24,lo8(4)
 6257 2550 90E0      		ldi r25,hi8(4)
 6258 2552 0E94 0000 		call _Z10modifierupi
 6259               	.LM956:
 6260 2556 81E0      		ldi r24,lo8(1)
 6261 2558 90E0      		ldi r25,hi8(1)
 6262 255a 0E94 0000 		call _Z10modifierupi
 6263 255e 00C0      		rjmp .L352
 6264               	.LVL345:
 6265               	.L310:
 6266               	.LM957:
 6267 2560 3397      		sbiw r30,3
 6268 2562 01F0      		breq .+2
 6269 2564 00C0      		rjmp .L217
 6270               	.LM958:
 6271 2566 8BE3      		ldi r24,lo8(59)
 6272 2568 90E0      		ldi r25,hi8(59)
 6273 256a 0E94 0000 		call _Z8keypressi
 6274               	.LVL346:
 6275               	.LM959:
 6276 256e 82E0      		ldi r24,lo8(2)
 6277 2570 90E0      		ldi r25,hi8(2)
 6278 2572 0E94 0000 		call _Z10modifierupi
 6279               	.LM960:
 6280 2576 84E0      		ldi r24,lo8(4)
 6281 2578 90E0      		ldi r25,hi8(4)
 6282 257a 0E94 0000 		call _Z10modifierupi
 6283               	.LM961:
 6284 257e 81E0      		ldi r24,lo8(1)
 6285 2580 90E0      		ldi r25,hi8(1)
 6286 2582 0E94 0000 		call _Z10modifierupi
 6287 2586 00C0      		rjmp .L352
 6288               	.LVL347:
 6289               	.L307:
 6290               	.LM962:
 6291 2588 91FE      		sbrs r9,1
 6292 258a 00C0      		rjmp .L311
 6293               	.LBB706:
 6294               	.LBB707:
 6295               	.LM963:
 6296 258c 6217      		cp r22,r18
 6297 258e 7307      		cpc r23,r19
 6298 2590 04F4      		brge .+2
 6299 2592 00C0      		rjmp .L352
 6300               	.LM964:
 6301 2594 F801      		movw r30,r16
 6302 2596 E40F      		add r30,r20
 6303 2598 F51F      		adc r31,r21
 6304 259a 0190      		ld __tmp_reg__,Z+
 6305 259c F081      		ld r31,Z
 6306 259e E02D      		mov r30,__tmp_reg__
 6307               	.LBE707:
 6308               	.LBE706:
 6309               	.LM965:
 6310 25a0 3097      		sbiw r30,0
 6311 25a2 01F4      		brne .L312
 6312               	.LM966:
 6313 25a4 89E0      		ldi r24,lo8(9)
 6314 25a6 90E0      		ldi r25,hi8(9)
 6315 25a8 0E94 0000 		call _Z8keypressi
 6316               	.LVL348:
 6317               	.LM967:
 6318 25ac 82E0      		ldi r24,lo8(2)
 6319 25ae 90E0      		ldi r25,hi8(2)
 6320 25b0 0E94 0000 		call _Z10modifierupi
 6321               	.LM968:
 6322 25b4 84E0      		ldi r24,lo8(4)
 6323 25b6 90E0      		ldi r25,hi8(4)
 6324 25b8 0E94 0000 		call _Z10modifierupi
 6325               	.LM969:
 6326 25bc 81E0      		ldi r24,lo8(1)
 6327 25be 90E0      		ldi r25,hi8(1)
 6328 25c0 0E94 0000 		call _Z10modifierupi
 6329 25c4 00C0      		rjmp .L352
 6330               	.LVL349:
 6331               	.L312:
 6332               	.LM970:
 6333 25c6 E130      		cpi r30,1
 6334 25c8 F105      		cpc r31,__zero_reg__
 6335 25ca 01F4      		brne .L313
 6336               	.LM971:
 6337 25cc 80E2      		ldi r24,lo8(32)
 6338 25ce 90E0      		ldi r25,hi8(32)
 6339 25d0 0E94 0000 		call _Z8keypressi
 6340               	.LVL350:
 6341               	.LM972:
 6342 25d4 82E0      		ldi r24,lo8(2)
 6343 25d6 90E0      		ldi r25,hi8(2)
 6344 25d8 0E94 0000 		call _Z10modifierupi
 6345               	.LM973:
 6346 25dc 84E0      		ldi r24,lo8(4)
 6347 25de 90E0      		ldi r25,hi8(4)
 6348 25e0 0E94 0000 		call _Z10modifierupi
 6349               	.LM974:
 6350 25e4 81E0      		ldi r24,lo8(1)
 6351 25e6 90E0      		ldi r25,hi8(1)
 6352 25e8 0E94 0000 		call _Z10modifierupi
 6353 25ec 00C0      		rjmp .L352
 6354               	.LVL351:
 6355               	.L313:
 6356               	.LM975:
 6357 25ee E230      		cpi r30,2
 6358 25f0 F105      		cpc r31,__zero_reg__
 6359 25f2 01F4      		brne .L314
 6360               	.LM976:
 6361 25f4 82E0      		ldi r24,lo8(2)
 6362 25f6 90E0      		ldi r25,hi8(2)
 6363 25f8 0E94 0000 		call _Z12modifierdowni
 6364               	.LVL352:
 6365               	.LM977:
 6366 25fc 8FE1      		ldi r24,lo8(31)
 6367 25fe 90E0      		ldi r25,hi8(31)
 6368 2600 0E94 0000 		call _Z8keypressi
 6369               	.LM978:
 6370 2604 82E0      		ldi r24,lo8(2)
 6371 2606 90E0      		ldi r25,hi8(2)
 6372 2608 0E94 0000 		call _Z10modifierupi
 6373               	.LM979:
 6374 260c 84E0      		ldi r24,lo8(4)
 6375 260e 90E0      		ldi r25,hi8(4)
 6376 2610 0E94 0000 		call _Z10modifierupi
 6377               	.LM980:
 6378 2614 81E0      		ldi r24,lo8(1)
 6379 2616 90E0      		ldi r25,hi8(1)
 6380 2618 0E94 0000 		call _Z10modifierupi
 6381 261c 00C0      		rjmp .L352
 6382               	.LVL353:
 6383               	.L314:
 6384               	.LM981:
 6385 261e 3397      		sbiw r30,3
 6386 2620 01F0      		breq .+2
 6387 2622 00C0      		rjmp .L217
 6388               	.LM982:
 6389 2624 8CE3      		ldi r24,lo8(60)
 6390 2626 90E0      		ldi r25,hi8(60)
 6391 2628 0E94 0000 		call _Z8keypressi
 6392               	.LVL354:
 6393               	.LM983:
 6394 262c 82E0      		ldi r24,lo8(2)
 6395 262e 90E0      		ldi r25,hi8(2)
 6396 2630 0E94 0000 		call _Z10modifierupi
 6397               	.LM984:
 6398 2634 84E0      		ldi r24,lo8(4)
 6399 2636 90E0      		ldi r25,hi8(4)
 6400 2638 0E94 0000 		call _Z10modifierupi
 6401               	.LM985:
 6402 263c 81E0      		ldi r24,lo8(1)
 6403 263e 90E0      		ldi r25,hi8(1)
 6404 2640 0E94 0000 		call _Z10modifierupi
 6405 2644 00C0      		rjmp .L352
 6406               	.LVL355:
 6407               	.L311:
 6408               	.LM986:
 6409 2646 94FE      		sbrs r9,4
 6410 2648 00C0      		rjmp .L315
 6411               	.LBB708:
 6412               	.LBB709:
 6413               	.LM987:
 6414 264a 6217      		cp r22,r18
 6415 264c 7307      		cpc r23,r19
 6416 264e 04F4      		brge .+2
 6417 2650 00C0      		rjmp .L352
 6418               	.LM988:
 6419 2652 F801      		movw r30,r16
 6420 2654 E40F      		add r30,r20
 6421 2656 F51F      		adc r31,r21
 6422 2658 0190      		ld __tmp_reg__,Z+
 6423 265a F081      		ld r31,Z
 6424 265c E02D      		mov r30,__tmp_reg__
 6425               	.LBE709:
 6426               	.LBE708:
 6427               	.LM989:
 6428 265e 3097      		sbiw r30,0
 6429 2660 01F4      		brne .L316
 6430               	.LM990:
 6431 2662 88E0      		ldi r24,lo8(8)
 6432 2664 90E0      		ldi r25,hi8(8)
 6433 2666 0E94 0000 		call _Z8keypressi
 6434               	.LVL356:
 6435               	.LM991:
 6436 266a 82E0      		ldi r24,lo8(2)
 6437 266c 90E0      		ldi r25,hi8(2)
 6438 266e 0E94 0000 		call _Z10modifierupi
 6439               	.LM992:
 6440 2672 84E0      		ldi r24,lo8(4)
 6441 2674 90E0      		ldi r25,hi8(4)
 6442 2676 0E94 0000 		call _Z10modifierupi
 6443               	.LM993:
 6444 267a 81E0      		ldi r24,lo8(1)
 6445 267c 90E0      		ldi r25,hi8(1)
 6446 267e 0E94 0000 		call _Z10modifierupi
 6447 2682 00C0      		rjmp .L352
 6448               	.LVL357:
 6449               	.L316:
 6450               	.LM994:
 6451 2684 E130      		cpi r30,1
 6452 2686 F105      		cpc r31,__zero_reg__
 6453 2688 01F4      		brne .L317
 6454               	.LM995:
 6455 268a 86E5      		ldi r24,lo8(86)
 6456 268c 90E0      		ldi r25,hi8(86)
 6457 268e 0E94 0000 		call _Z8keypressi
 6458               	.LVL358:
 6459               	.LM996:
 6460 2692 82E0      		ldi r24,lo8(2)
 6461 2694 90E0      		ldi r25,hi8(2)
 6462 2696 0E94 0000 		call _Z10modifierupi
 6463               	.LM997:
 6464 269a 84E0      		ldi r24,lo8(4)
 6465 269c 90E0      		ldi r25,hi8(4)
 6466 269e 0E94 0000 		call _Z10modifierupi
 6467               	.LM998:
 6468 26a2 81E0      		ldi r24,lo8(1)
 6469 26a4 90E0      		ldi r25,hi8(1)
 6470 26a6 0E94 0000 		call _Z10modifierupi
 6471 26aa 00C0      		rjmp .L352
 6472               	.LVL359:
 6473               	.L317:
 6474               	.LM999:
 6475 26ac E230      		cpi r30,2
 6476 26ae F105      		cpc r31,__zero_reg__
 6477 26b0 01F4      		brne .L318
 6478               	.LM1000:
 6479 26b2 84E3      		ldi r24,lo8(52)
 6480 26b4 90E0      		ldi r25,hi8(52)
 6481 26b6 0E94 0000 		call _Z8keypressi
 6482               	.LVL360:
 6483               	.LM1001:
 6484 26ba 82E0      		ldi r24,lo8(2)
 6485 26bc 90E0      		ldi r25,hi8(2)
 6486 26be 0E94 0000 		call _Z10modifierupi
 6487               	.LM1002:
 6488 26c2 84E0      		ldi r24,lo8(4)
 6489 26c4 90E0      		ldi r25,hi8(4)
 6490 26c6 0E94 0000 		call _Z10modifierupi
 6491               	.LM1003:
 6492 26ca 81E0      		ldi r24,lo8(1)
 6493 26cc 90E0      		ldi r25,hi8(1)
 6494 26ce 0E94 0000 		call _Z10modifierupi
 6495 26d2 00C0      		rjmp .L352
 6496               	.LVL361:
 6497               	.L318:
 6498               	.LM1004:
 6499 26d4 3397      		sbiw r30,3
 6500 26d6 01F0      		breq .+2
 6501 26d8 00C0      		rjmp .L217
 6502               	.LM1005:
 6503 26da 88E0      		ldi r24,lo8(8)
 6504 26dc 90E0      		ldi r25,hi8(8)
 6505 26de 0E94 0000 		call _Z13modifierpressi
 6506               	.LVL362:
 6507 26e2 00C0      		rjmp .L352
 6508               	.LVL363:
 6509               	.L315:
 6510               	.LM1006:
 6511 26e4 96FE      		sbrs r9,6
 6512 26e6 00C0      		rjmp .L319
 6513               	.LBB710:
 6514               	.LBB711:
 6515               	.LM1007:
 6516 26e8 6217      		cp r22,r18
 6517 26ea 7307      		cpc r23,r19
 6518 26ec 04F4      		brge .+2
 6519 26ee 00C0      		rjmp .L352
 6520               	.LM1008:
 6521 26f0 F801      		movw r30,r16
 6522 26f2 E40F      		add r30,r20
 6523 26f4 F51F      		adc r31,r21
 6524 26f6 0190      		ld __tmp_reg__,Z+
 6525 26f8 F081      		ld r31,Z
 6526 26fa E02D      		mov r30,__tmp_reg__
 6527               	.LBE711:
 6528               	.LBE710:
 6529               	.LM1009:
 6530 26fc 3097      		sbiw r30,0
 6531 26fe 01F4      		brne .L320
 6532               	.LM1010:
 6533 2700 8CE0      		ldi r24,lo8(12)
 6534 2702 90E0      		ldi r25,hi8(12)
 6535 2704 0E94 0000 		call _Z8keypressi
 6536               	.LVL364:
 6537               	.LM1011:
 6538 2708 82E0      		ldi r24,lo8(2)
 6539 270a 90E0      		ldi r25,hi8(2)
 6540 270c 0E94 0000 		call _Z10modifierupi
 6541               	.LM1012:
 6542 2710 84E0      		ldi r24,lo8(4)
 6543 2712 90E0      		ldi r25,hi8(4)
 6544 2714 0E94 0000 		call _Z10modifierupi
 6545               	.LM1013:
 6546 2718 81E0      		ldi r24,lo8(1)
 6547 271a 90E0      		ldi r25,hi8(1)
 6548 271c 0E94 0000 		call _Z10modifierupi
 6549 2720 00C0      		rjmp .L352
 6550               	.LVL365:
 6551               	.L320:
 6552               	.LM1014:
 6553 2722 E230      		cpi r30,2
 6554 2724 F105      		cpc r31,__zero_reg__
 6555 2726 01F4      		brne .L321
 6556               	.LM1015:
 6557 2728 82E0      		ldi r24,lo8(2)
 6558 272a 90E0      		ldi r25,hi8(2)
 6559 272c 0E94 0000 		call _Z12modifierdowni
 6560               	.LVL366:
 6561               	.LM1016:
 6562 2730 84E2      		ldi r24,lo8(36)
 6563 2732 90E0      		ldi r25,hi8(36)
 6564 2734 0E94 0000 		call _Z8keypressi
 6565               	.LM1017:
 6566 2738 82E0      		ldi r24,lo8(2)
 6567 273a 90E0      		ldi r25,hi8(2)
 6568 273c 0E94 0000 		call _Z10modifierupi
 6569               	.LM1018:
 6570 2740 84E0      		ldi r24,lo8(4)
 6571 2742 90E0      		ldi r25,hi8(4)
 6572 2744 0E94 0000 		call _Z10modifierupi
 6573               	.LM1019:
 6574 2748 81E0      		ldi r24,lo8(1)
 6575 274a 90E0      		ldi r25,hi8(1)
 6576 274c 0E94 0000 		call _Z10modifierupi
 6577 2750 00C0      		rjmp .L352
 6578               	.LVL367:
 6579               	.L321:
 6580               	.LM1020:
 6581 2752 3397      		sbiw r30,3
 6582 2754 01F0      		breq .+2
 6583 2756 00C0      		rjmp .L217
 6584               	.LM1021:
 6585 2758 85E6      		ldi r24,lo8(101)
 6586 275a 90E0      		ldi r25,hi8(101)
 6587 275c 0E94 0000 		call _Z8keypressi
 6588               	.LVL368:
 6589               	.LM1022:
 6590 2760 82E0      		ldi r24,lo8(2)
 6591 2762 90E0      		ldi r25,hi8(2)
 6592 2764 0E94 0000 		call _Z10modifierupi
 6593               	.LM1023:
 6594 2768 84E0      		ldi r24,lo8(4)
 6595 276a 90E0      		ldi r25,hi8(4)
 6596 276c 0E94 0000 		call _Z10modifierupi
 6597               	.LM1024:
 6598 2770 81E0      		ldi r24,lo8(1)
 6599 2772 90E0      		ldi r25,hi8(1)
 6600 2774 0E94 0000 		call _Z10modifierupi
 6601 2778 00C0      		rjmp .L352
 6602               	.LVL369:
 6603               	.L319:
 6604               	.LM1025:
 6605 277a C401      		movw r24,r8
 6606               	.LVL370:
 6607 277c 8070      		andi r24,lo8(-32768)
 6608 277e 9078      		andi r25,hi8(-32768)
 6609 2780 892B      		or r24,r25
 6610 2782 01F0      		breq .L322
 6611               	.LBB712:
 6612               	.LBB713:
 6613               	.LM1026:
 6614 2784 6217      		cp r22,r18
 6615 2786 7307      		cpc r23,r19
 6616 2788 04F4      		brge .+2
 6617 278a 00C0      		rjmp .L352
 6618               	.LM1027:
 6619 278c F801      		movw r30,r16
 6620 278e E40F      		add r30,r20
 6621 2790 F51F      		adc r31,r21
 6622 2792 0190      		ld __tmp_reg__,Z+
 6623 2794 F081      		ld r31,Z
 6624 2796 E02D      		mov r30,__tmp_reg__
 6625               	.LBE713:
 6626               	.LBE712:
 6627               	.LM1028:
 6628 2798 3097      		sbiw r30,0
 6629 279a 01F0      		breq .L323
 6630 279c E130      		cpi r30,1
 6631 279e F105      		cpc r31,__zero_reg__
 6632 27a0 01F0      		breq .L323
 6633 27a2 E230      		cpi r30,2
 6634 27a4 F105      		cpc r31,__zero_reg__
 6635 27a6 01F4      		brne .L324
 6636               	.L323:
 6637               	.LM1029:
 6638 27a8 83E0      		ldi r24,lo8(3)
 6639 27aa 90E0      		ldi r25,hi8(3)
 6640 27ac 0E94 0000 		call _Z7setmodei
 6641               	.LVL371:
 6642 27b0 00C0      		rjmp .L352
 6643               	.LVL372:
 6644               	.L324:
 6645               	.LM1030:
 6646 27b2 3397      		sbiw r30,3
 6647 27b4 01F0      		breq .+2
 6648 27b6 00C0      		rjmp .L217
 6649               	.LM1031:
 6650 27b8 80E0      		ldi r24,lo8(0)
 6651 27ba 90E0      		ldi r25,hi8(0)
 6652 27bc 0E94 0000 		call _Z7setmodei
 6653               	.LVL373:
 6654 27c0 00C0      		rjmp .L352
 6655               	.LVL374:
 6656               	.L322:
 6657               	.LM1032:
 6658 27c2 A0FE      		sbrs r10,0
 6659 27c4 00C0      		rjmp .L325
 6660               	.LVL375:
 6661               	.LBB714:
 6662               	.LBB715:
 6663               	.LM1033:
 6664 27c6 6217      		cp r22,r18
 6665 27c8 7307      		cpc r23,r19
 6666 27ca 04F4      		brge .+2
 6667 27cc 00C0      		rjmp .L352
 6668               	.LM1034:
 6669 27ce F801      		movw r30,r16
 6670 27d0 E40F      		add r30,r20
 6671 27d2 F51F      		adc r31,r21
 6672 27d4 0190      		ld __tmp_reg__,Z+
 6673 27d6 F081      		ld r31,Z
 6674 27d8 E02D      		mov r30,__tmp_reg__
 6675               	.LBE715:
 6676               	.LBE714:
 6677               	.LM1035:
 6678 27da 3097      		sbiw r30,0
 6679 27dc 01F0      		breq .L326
 6680 27de E130      		cpi r30,1
 6681 27e0 F105      		cpc r31,__zero_reg__
 6682 27e2 01F0      		breq .L326
 6683 27e4 E330      		cpi r30,3
 6684 27e6 F105      		cpc r31,__zero_reg__
 6685 27e8 01F4      		brne .L327
 6686               	.L326:
 6687               	.LM1036:
 6688 27ea 82E0      		ldi r24,lo8(2)
 6689 27ec 90E0      		ldi r25,hi8(2)
 6690 27ee 0E94 0000 		call _Z7setmodei
 6691               	.LVL376:
 6692 27f2 00C0      		rjmp .L352
 6693               	.LVL377:
 6694               	.L327:
 6695               	.LM1037:
 6696 27f4 3297      		sbiw r30,2
 6697 27f6 01F0      		breq .+2
 6698 27f8 00C0      		rjmp .L217
 6699               	.LM1038:
 6700 27fa 80E0      		ldi r24,lo8(0)
 6701 27fc 90E0      		ldi r25,hi8(0)
 6702 27fe 0E94 0000 		call _Z7setmodei
 6703               	.LVL378:
 6704 2802 00C0      		rjmp .L352
 6705               	.LVL379:
 6706               	.L325:
 6707               	.LM1039:
 6708 2804 A1FE      		sbrs r10,1
 6709 2806 00C0      		rjmp .L328
 6710               	.LBB716:
 6711               	.LBB717:
 6712               	.LM1040:
 6713 2808 6217      		cp r22,r18
 6714 280a 7307      		cpc r23,r19
 6715 280c 04F4      		brge .+2
 6716 280e 00C0      		rjmp .L352
 6717               	.LM1041:
 6718 2810 F801      		movw r30,r16
 6719 2812 E40F      		add r30,r20
 6720 2814 F51F      		adc r31,r21
 6721 2816 0190      		ld __tmp_reg__,Z+
 6722 2818 F081      		ld r31,Z
 6723 281a E02D      		mov r30,__tmp_reg__
 6724               	.LBE717:
 6725               	.LBE716:
 6726               	.LM1042:
 6727 281c 3097      		sbiw r30,0
 6728 281e 01F0      		breq .L329
 6729 2820 E230      		cpi r30,2
 6730 2822 F105      		cpc r31,__zero_reg__
 6731 2824 01F0      		breq .L329
 6732 2826 E330      		cpi r30,3
 6733 2828 F105      		cpc r31,__zero_reg__
 6734 282a 01F4      		brne .L330
 6735               	.L329:
 6736               	.LM1043:
 6737 282c 81E0      		ldi r24,lo8(1)
 6738 282e 90E0      		ldi r25,hi8(1)
 6739 2830 0E94 0000 		call _Z7setmodei
 6740               	.LVL380:
 6741 2834 00C0      		rjmp .L352
 6742               	.LVL381:
 6743               	.L330:
 6744               	.LM1044:
 6745 2836 3197      		sbiw r30,1
 6746 2838 01F0      		breq .+2
 6747 283a 00C0      		rjmp .L217
 6748               	.LM1045:
 6749 283c 80E0      		ldi r24,lo8(0)
 6750 283e 90E0      		ldi r25,hi8(0)
 6751 2840 0E94 0000 		call _Z7setmodei
 6752               	.LVL382:
 6753 2844 00C0      		rjmp .L352
 6754               	.LVL383:
 6755               	.L328:
 6756               	.LM1046:
 6757 2846 A2FE      		sbrs r10,2
 6758 2848 00C0      		rjmp .L331
 6759               	.LBB718:
 6760               	.LBB719:
 6761               	.LM1047:
 6762 284a 6217      		cp r22,r18
 6763 284c 7307      		cpc r23,r19
 6764 284e 04F4      		brge .+2
 6765 2850 00C0      		rjmp .L331
 6766               	.LM1048:
 6767 2852 F801      		movw r30,r16
 6768 2854 E40F      		add r30,r20
 6769 2856 F51F      		adc r31,r21
 6770 2858 0190      		ld __tmp_reg__,Z+
 6771 285a F081      		ld r31,Z
 6772 285c E02D      		mov r30,__tmp_reg__
 6773               	.LBE719:
 6774               	.LBE718:
 6775               	.LM1049:
 6776 285e 3097      		sbiw r30,0
 6777 2860 01F4      		brne .+2
 6778 2862 00C0      		rjmp .L352
 6779 2864 E130      		cpi r30,1
 6780 2866 F105      		cpc r31,__zero_reg__
 6781 2868 01F4      		brne .+2
 6782 286a 00C0      		rjmp .L352
 6783 286c E230      		cpi r30,2
 6784 286e F105      		cpc r31,__zero_reg__
 6785 2870 01F4      		brne .+2
 6786 2872 00C0      		rjmp .L352
 6787 2874 3397      		sbiw r30,3
 6788 2876 01F4      		brne .+2
 6789 2878 00C0      		rjmp .L352
 6790 287a 00C0      		rjmp .L331
 6791               	.L346:
 6792               	.LBB720:
 6793               	.LBB721:
 6794               	.LM1050:
 6795 287c 6217      		cp r22,r18
 6796 287e 7307      		cpc r23,r19
 6797 2880 04F4      		brge .+2
 6798 2882 00C0      		rjmp .L332
 6799               	.LM1051:
 6800 2884 F801      		movw r30,r16
 6801 2886 E40F      		add r30,r20
 6802 2888 F51F      		adc r31,r21
 6803 288a 0190      		ld __tmp_reg__,Z+
 6804 288c F081      		ld r31,Z
 6805 288e E02D      		mov r30,__tmp_reg__
 6806               	.LBE721:
 6807               	.LBE720:
 6808               	.LM1052:
 6809 2890 3097      		sbiw r30,0
 6810 2892 01F4      		brne .+2
 6811 2894 00C0      		rjmp .L352
 6812 2896 E130      		cpi r30,1
 6813 2898 F105      		cpc r31,__zero_reg__
 6814 289a 01F4      		brne .+2
 6815 289c 00C0      		rjmp .L352
 6816 289e E230      		cpi r30,2
 6817 28a0 F105      		cpc r31,__zero_reg__
 6818 28a2 01F4      		brne .+2
 6819 28a4 00C0      		rjmp .L352
 6820 28a6 3397      		sbiw r30,3
 6821 28a8 01F4      		brne .+2
 6822 28aa 00C0      		rjmp .L352
 6823 28ac 00C0      		rjmp .L332
 6824               	.L347:
 6825               	.LBB722:
 6826               	.LBB723:
 6827               	.LM1053:
 6828 28ae 6217      		cp r22,r18
 6829 28b0 7307      		cpc r23,r19
 6830 28b2 04F4      		brge .+2
 6831 28b4 00C0      		rjmp .L333
 6832               	.LM1054:
 6833 28b6 F801      		movw r30,r16
 6834 28b8 E40F      		add r30,r20
 6835 28ba F51F      		adc r31,r21
 6836 28bc 0190      		ld __tmp_reg__,Z+
 6837 28be F081      		ld r31,Z
 6838 28c0 E02D      		mov r30,__tmp_reg__
 6839               	.LBE723:
 6840               	.LBE722:
 6841               	.LM1055:
 6842 28c2 3097      		sbiw r30,0
 6843 28c4 01F4      		brne .+2
 6844 28c6 00C0      		rjmp .L352
 6845 28c8 E130      		cpi r30,1
 6846 28ca F105      		cpc r31,__zero_reg__
 6847 28cc 01F4      		brne .+2
 6848 28ce 00C0      		rjmp .L352
 6849 28d0 E230      		cpi r30,2
 6850 28d2 F105      		cpc r31,__zero_reg__
 6851 28d4 01F4      		brne .+2
 6852 28d6 00C0      		rjmp .L352
 6853 28d8 3397      		sbiw r30,3
 6854 28da 01F4      		brne .+2
 6855 28dc 00C0      		rjmp .L352
 6856 28de 00C0      		rjmp .L333
 6857               	.L348:
 6858               	.LBB724:
 6859               	.LBB725:
 6860               	.LM1056:
 6861 28e0 6217      		cp r22,r18
 6862 28e2 7307      		cpc r23,r19
 6863 28e4 04F4      		brge .+2
 6864 28e6 00C0      		rjmp .L334
 6865               	.LM1057:
 6866 28e8 F801      		movw r30,r16
 6867 28ea E40F      		add r30,r20
 6868 28ec F51F      		adc r31,r21
 6869 28ee 0190      		ld __tmp_reg__,Z+
 6870 28f0 F081      		ld r31,Z
 6871 28f2 E02D      		mov r30,__tmp_reg__
 6872               	.LBE725:
 6873               	.LBE724:
 6874               	.LM1058:
 6875 28f4 3097      		sbiw r30,0
 6876 28f6 01F0      		breq .L335
 6877 28f8 E130      		cpi r30,1
 6878 28fa F105      		cpc r31,__zero_reg__
 6879 28fc 01F0      		breq .L335
 6880 28fe E230      		cpi r30,2
 6881 2900 F105      		cpc r31,__zero_reg__
 6882 2902 01F0      		breq .L335
 6883 2904 3397      		sbiw r30,3
 6884 2906 01F0      		breq .+2
 6885 2908 00C0      		rjmp .L334
 6886               	.L335:
 6887               	.LM1059:
 6888 290a 84E0      		ldi r24,lo8(4)
 6889 290c 90E0      		ldi r25,hi8(4)
 6890 290e 0E94 0000 		call _Z7mouseupi
 6891               	.LVL384:
 6892 2912 00C0      		rjmp .L352
 6893               	.LVL385:
 6894               	.L349:
 6895               	.LBB726:
 6896               	.LBB727:
 6897               	.LM1060:
 6898 2914 6217      		cp r22,r18
 6899 2916 7307      		cpc r23,r19
 6900 2918 04F4      		brge .+2
 6901 291a 00C0      		rjmp .L336
 6902               	.LM1061:
 6903 291c F801      		movw r30,r16
 6904 291e E40F      		add r30,r20
 6905 2920 F51F      		adc r31,r21
 6906 2922 0190      		ld __tmp_reg__,Z+
 6907 2924 F081      		ld r31,Z
 6908 2926 E02D      		mov r30,__tmp_reg__
 6909               	.LBE727:
 6910               	.LBE726:
 6911               	.LM1062:
 6912 2928 3097      		sbiw r30,0
 6913 292a 01F0      		breq .L337
 6914 292c E130      		cpi r30,1
 6915 292e F105      		cpc r31,__zero_reg__
 6916 2930 01F0      		breq .L337
 6917 2932 E230      		cpi r30,2
 6918 2934 F105      		cpc r31,__zero_reg__
 6919 2936 01F0      		breq .L337
 6920 2938 3397      		sbiw r30,3
 6921 293a 01F0      		breq .+2
 6922 293c 00C0      		rjmp .L336
 6923               	.L337:
 6924               	.LM1063:
 6925 293e 82E0      		ldi r24,lo8(2)
 6926 2940 90E0      		ldi r25,hi8(2)
 6927 2942 0E94 0000 		call _Z7mouseupi
 6928               	.LVL386:
 6929 2946 00C0      		rjmp .L352
 6930               	.LVL387:
 6931               	.L359:
 6932               	.LBB728:
 6933               	.LBB643:
 6934               	.LM1064:
 6935 2948 6217      		cp r22,r18
 6936 294a 7307      		cpc r23,r19
 6937 294c 04F4      		brge .+2
 6938 294e 00C0      		rjmp .L352
 6939               	.LM1065:
 6940 2950 F801      		movw r30,r16
 6941 2952 E40F      		add r30,r20
 6942 2954 F51F      		adc r31,r21
 6943 2956 0190      		ld __tmp_reg__,Z+
 6944 2958 F081      		ld r31,Z
 6945 295a E02D      		mov r30,__tmp_reg__
 6946               	.LBE643:
 6947               	.LBE728:
 6948               	.LM1066:
 6949 295c 3097      		sbiw r30,0
 6950 295e 01F0      		breq .L338
 6951 2960 E130      		cpi r30,1
 6952 2962 F105      		cpc r31,__zero_reg__
 6953 2964 01F0      		breq .L338
 6954 2966 E230      		cpi r30,2
 6955 2968 F105      		cpc r31,__zero_reg__
 6956 296a 01F0      		breq .L338
 6957 296c 3397      		sbiw r30,3
 6958 296e 01F4      		brne .L217
 6959               	.L338:
 6960               	.LM1067:
 6961 2970 81E0      		ldi r24,lo8(1)
 6962 2972 90E0      		ldi r25,hi8(1)
 6963 2974 0E94 0000 		call _Z7mouseupi
 6964               	.LVL388:
 6965 2978 00C0      		rjmp .L352
 6966               	.LVL389:
 6967               	.L350:
 6968               	.LBB729:
 6969               	.LBB730:
 6970               	.LM1068:
 6971 297a 6217      		cp r22,r18
 6972 297c 7307      		cpc r23,r19
 6973 297e 04F4      		brge .+2
 6974 2980 00C0      		rjmp .L352
 6975               	.LVL390:
 6976               	.L217:
 6977               	.LM1069:
 6978 2982 F801      		movw r30,r16
 6979 2984 E40F      		add r30,r20
 6980 2986 F51F      		adc r31,r21
 6981               	.LBE730:
 6982               	.LBE729:
 6983               	.LM1070:
 6984 2988 8081      		ld r24,Z
 6985 298a 9181      		ldd r25,Z+1
 6986 298c 0497      		sbiw r24,4
 6987 298e 01F4      		brne .L352
 6988 2990 2F5F      		subi r18,lo8(-(1))
 6989 2992 3F4F      		sbci r19,hi8(-(1))
 6990               	.LBB731:
 6991               	.LBB732:
 6992               	.LM1071:
 6993 2994 6217      		cp r22,r18
 6994 2996 7307      		cpc r23,r19
 6995 2998 04F0      		brlt .L352
 6996 299a 4250      		subi r20,lo8(-(-2))
 6997 299c 5040      		sbci r21,hi8(-(-2))
 6998               	.LBE732:
 6999               	.LBE731:
 7000               	.LM1072:
 7001 299e 3297      		sbiw r30,2
 7002 29a0 8081      		ld r24,Z
 7003 29a2 9181      		ldd r25,Z+1
 7004 29a4 892B      		or r24,r25
 7005 29a6 01F4      		brne .+4
 7006 29a8 0C94 0000 		jmp .L339
 7007 29ac 00C0      		rjmp .L352
 7008               	.L222:
 7009               	.LBB733:
 7010               	.LBB651:
 7011               	.LM1073:
 7012 29ae 6217      		cp r22,r18
 7013 29b0 7307      		cpc r23,r19
 7014 29b2 04F0      		brlt .+4
 7015 29b4 0C94 0000 		jmp .L224
 7016 29b8 00C0      		rjmp .L352
 7017               	.LVL391:
 7018               	.L272:
 7019               	.LBE651:
 7020               	.LBE733:
 7021               	.LM1074:
 7022 29ba 8DA9      		ldd r24,Y+53
 7023 29bc 9EA9      		ldd r25,Y+54
 7024 29be AFA9      		ldd r26,Y+55
 7025 29c0 B8AD      		ldd r27,Y+56
 7026 29c2 0097      		sbiw r24,0
 7027 29c4 A105      		cpc r26,__zero_reg__
 7028 29c6 B105      		cpc r27,__zero_reg__
 7029 29c8 01F0      		breq .+2
 7030 29ca 00C0      		rjmp .L340
 7031               	.L273:
 7032               	.LM1075:
 7033 29cc 89AD      		ldd r24,Y+57
 7034 29ce 9AAD      		ldd r25,Y+58
 7035 29d0 ABAD      		ldd r26,Y+59
 7036 29d2 BCAD      		ldd r27,Y+60
 7037 29d4 0097      		sbiw r24,0
 7038 29d6 A105      		cpc r26,__zero_reg__
 7039 29d8 B105      		cpc r27,__zero_reg__
 7040 29da 01F0      		breq .+2
 7041 29dc 00C0      		rjmp .L341
 7042 29de 00C0      		rjmp .L357
 7043               	.L298:
 7044               	.LM1076:
 7045 29e0 85FC      		sbrc r8,5
 7046 29e2 00C0      		rjmp .L343
 7047               	.L299:
 7048               	.LM1077:
 7049 29e4 86FC      		sbrc r8,6
 7050 29e6 00C0      		rjmp .L344
 7051 29e8 00C0      		rjmp .L358
 7052               	.L331:
 7053               	.LM1078:
 7054 29ea A3FC      		sbrc r10,3
 7055 29ec 00C0      		rjmp .L346
 7056               	.L332:
 7057               	.LM1079:
 7058 29ee A4FC      		sbrc r10,4
 7059 29f0 00C0      		rjmp .L347
 7060               	.L333:
 7061               	.LM1080:
 7062 29f2 B0FC      		sbrc r11,0
 7063 29f4 00C0      		rjmp .L348
 7064               	.L334:
 7065               	.LM1081:
 7066 29f6 B1FC      		sbrc r11,1
 7067 29f8 00C0      		rjmp .L349
 7068               	.L336:
 7069               	.LM1082:
 7070 29fa B2FE      		sbrs r11,2
 7071 29fc 00C0      		rjmp .L350
 7072 29fe 00C0      		rjmp .L359
 7073               	.LVL392:
 7074               	.L352:
 7075               	/* epilogue start */
 7076               	.LM1083:
 7077 2a00 C45B      		subi r28,lo8(-(76))
 7078 2a02 DF4F      		sbci r29,hi8(-(76))
 7079 2a04 0FB6      		in __tmp_reg__,__SREG__
 7080 2a06 F894      		cli
 7081 2a08 DEBF      		out __SP_H__,r29
 7082 2a0a 0FBE      		out __SREG__,__tmp_reg__
 7083 2a0c CDBF      		out __SP_L__,r28
 7084 2a0e CF91      		pop r28
 7085 2a10 DF91      		pop r29
 7086 2a12 1F91      		pop r17
 7087 2a14 0F91      		pop r16
 7088 2a16 FF90      		pop r15
 7089 2a18 EF90      		pop r14
 7090 2a1a DF90      		pop r13
 7091 2a1c CF90      		pop r12
 7092               	.LVL393:
 7093 2a1e BF90      		pop r11
 7094 2a20 AF90      		pop r10
 7095 2a22 9F90      		pop r9
 7096 2a24 8F90      		pop r8
 7097               	.LVL394:
 7098 2a26 7F90      		pop r7
 7099 2a28 6F90      		pop r6
 7100 2a2a 5F90      		pop r5
 7101 2a2c 4F90      		pop r4
 7102 2a2e 0895      		ret
 7103               	.LFE152:
 7105               		.data
 7106               	.LC21:
 7107 018c 746F 7563 		.string	"touchset mousedown "
 7107      6873 6574 
 7107      206D 6F75 
 7107      7365 646F 
 7107      776E 2000 
 7108               		.text
 7109               	.global	_Z9mousedowni
 7111               	_Z9mousedowni:
 7112               	.LFB134:
 7113               	.LM1084:
 7114               	.LVL395:
 7115 2a30 0F93      		push r16
 7116 2a32 1F93      		push r17
 7117               	/* prologue: function */
 7118               	/* frame size = 0 */
 7119 2a34 8C01      		movw r16,r24
 7120               	.LM1085:
 7121 2a36 80E0      		ldi r24,lo8(Serial)
 7122 2a38 90E0      		ldi r25,hi8(Serial)
 7123               	.LVL396:
 7124 2a3a 60E0      		ldi r22,lo8(.LC21)
 7125 2a3c 70E0      		ldi r23,hi8(.LC21)
 7126 2a3e 0E94 0000 		call _ZN16USBVirtualSerial5printEPKc
 7127               	.LM1086:
 7128 2a42 80E0      		ldi r24,lo8(Serial)
 7129 2a44 90E0      		ldi r25,hi8(Serial)
 7130 2a46 B801      		movw r22,r16
 7131 2a48 0E94 0000 		call _ZN16USBVirtualSerial7printlnEi
 7132               	.LM1087:
 7133 2a4c 2091 0000 		lds r18,mouseDown
 7134 2a50 3091 0000 		lds r19,(mouseDown)+1
 7135 2a54 202B      		or r18,r16
 7136 2a56 312B      		or r19,r17
 7137 2a58 3093 0000 		sts (mouseDown)+1,r19
 7138 2a5c 2093 0000 		sts mouseDown,r18
 7139               	.LM1088:
 7140 2a60 60E0      		ldi r22,lo8(0)
 7141 2a62 20FD      		sbrc r18,0
 7142 2a64 61E0      		ldi r22,lo8(1)
 7143               	.L361:
 7144 2a66 3695      		lsr r19
 7145 2a68 2795      		ror r18
 7146 2a6a 422F      		mov r20,r18
 7147 2a6c 4170      		andi r20,lo8(1)
 7148 2a6e 3695      		lsr r19
 7149 2a70 2795      		ror r18
 7150 2a72 2170      		andi r18,lo8(1)
 7151 2a74 80E0      		ldi r24,lo8(Mouse)
 7152 2a76 90E0      		ldi r25,hi8(Mouse)
 7153 2a78 0E94 0000 		call _ZN8USBMouse11set_buttonsEhhh
 7154               	/* epilogue start */
 7155               	.LM1089:
 7156 2a7c 1F91      		pop r17
 7157 2a7e 0F91      		pop r16
 7158               	.LVL397:
 7159 2a80 0895      		ret
 7160               	.LFE134:
 7162               	.global	_Z19check_sensors_touchmmi
 7164               	_Z19check_sensors_touchmmi:
 7165               	.LFB151:
 7166               	.LM1090:
 7167               	.LVL398:
 7168 2a82 2F92      		push r2
 7169 2a84 3F92      		push r3
 7170 2a86 4F92      		push r4
 7171 2a88 5F92      		push r5
 7172 2a8a 6F92      		push r6
 7173 2a8c 7F92      		push r7
 7174 2a8e 8F92      		push r8
 7175 2a90 9F92      		push r9
 7176 2a92 AF92      		push r10
 7177 2a94 BF92      		push r11
 7178 2a96 CF92      		push r12
 7179 2a98 DF92      		push r13
 7180 2a9a EF92      		push r14
 7181 2a9c FF92      		push r15
 7182 2a9e 0F93      		push r16
 7183               	.LVL399:
 7184 2aa0 1F93      		push r17
 7185 2aa2 DF93      		push r29
 7186 2aa4 CF93      		push r28
 7187 2aa6 CDB7      		in r28,__SP_L__
 7188 2aa8 DEB7      		in r29,__SP_H__
 7189 2aaa 6297      		sbiw r28,18
 7190 2aac 0FB6      		in __tmp_reg__,__SREG__
 7191 2aae F894      		cli
 7192 2ab0 DEBF      		out __SP_H__,r29
 7193 2ab2 0FBE      		out __SREG__,__tmp_reg__
 7194 2ab4 CDBF      		out __SP_L__,r28
 7195               	/* prologue: function */
 7196               	/* frame size = 18 */
 7197 2ab6 6B01      		movw r12,r22
 7198 2ab8 7C01      		movw r14,r24
 7199               	.LBB734:
 7200               	.LBB735:
 7201               	.LM1091:
 7202 2aba 6091 0000 		lds r22,modeStackPos
 7203 2abe 7091 0000 		lds r23,(modeStackPos)+1
 7204               	.LVL400:
 7205 2ac2 7A8B      		std Y+18,r23
 7206 2ac4 698B      		std Y+17,r22
 7207 2ac6 C801      		movw r24,r16
 7208               	.LVL401:
 7209 2ac8 8095      		com r24
 7210 2aca 9095      		com r25
 7211 2acc 860F      		add r24,r22
 7212 2ace 971F      		adc r25,r23
 7213 2ad0 880F      		lsl r24
 7214 2ad2 991F      		rol r25
 7215 2ad4 8050      		subi r24,lo8(-(modeStack))
 7216 2ad6 9040      		sbci r25,hi8(-(modeStack))
 7217 2ad8 988B      		std Y+16,r25
 7218 2ada 8F87      		std Y+15,r24
 7219 2adc 601B      		sub r22,r16
 7220 2ade 710B      		sbc r23,r17
 7221 2ae0 660F      		lsl r22
 7222 2ae2 771F      		rol r23
 7223 2ae4 6050      		subi r22,lo8(-(modeStack))
 7224 2ae6 7040      		sbci r23,hi8(-(modeStack))
 7225 2ae8 7E87      		std Y+14,r23
 7226 2aea 6D87      		std Y+13,r22
 7227 2aec 2B01      		movw r4,r22
 7228 2aee 3B01      		movw r6,r22
 7229 2af0 4B01      		movw r8,r22
 7230 2af2 5B01      		movw r10,r22
 7231 2af4 1B01      		movw r2,r22
 7232               	.LBE735:
 7233               	.LBE734:
 7234               	.LM1092:
 7235 2af6 60E0      		ldi r22,lo8(2097152)
 7236 2af8 70E0      		ldi r23,hi8(2097152)
 7237 2afa 80E2      		ldi r24,hlo8(2097152)
 7238 2afc 90E0      		ldi r25,hhi8(2097152)
 7239 2afe C622      		and r12,r22
 7240 2b00 D722      		and r13,r23
 7241 2b02 E822      		and r14,r24
 7242 2b04 F922      		and r15,r25
 7243               	.LM1093:
 7244 2b06 DA01      		movw r26,r20
 7245 2b08 C901      		movw r24,r18
 7246 2b0a 8072      		andi r24,lo8(32)
 7247 2b0c 9070      		andi r25,hi8(32)
 7248 2b0e A070      		andi r26,hlo8(32)
 7249 2b10 B070      		andi r27,hhi8(32)
 7250 2b12 8983      		std Y+1,r24
 7251 2b14 9A83      		std Y+2,r25
 7252 2b16 AB83      		std Y+3,r26
 7253 2b18 BC83      		std Y+4,r27
 7254               	.LM1094:
 7255 2b1a CA01      		movw r24,r20
 7256 2b1c B901      		movw r22,r18
 7257 2b1e 6070      		andi r22,lo8(16777216)
 7258 2b20 7070      		andi r23,hi8(16777216)
 7259 2b22 8070      		andi r24,hlo8(16777216)
 7260 2b24 9170      		andi r25,hhi8(16777216)
 7261 2b26 6D83      		std Y+5,r22
 7262 2b28 7E83      		std Y+6,r23
 7263 2b2a 8F83      		std Y+7,r24
 7264 2b2c 9887      		std Y+8,r25
 7265               	.LM1095:
 7266 2b2e DA01      		movw r26,r20
 7267 2b30 C901      		movw r24,r18
 7268 2b32 8070      		andi r24,lo8(33554432)
 7269 2b34 9070      		andi r25,hi8(33554432)
 7270 2b36 A070      		andi r26,hlo8(33554432)
 7271 2b38 B270      		andi r27,hhi8(33554432)
 7272 2b3a 8987      		std Y+9,r24
 7273 2b3c 9A87      		std Y+10,r25
 7274 2b3e AB87      		std Y+11,r26
 7275 2b40 BC87      		std Y+12,r27
 7276               	.LM1096:
 7277 2b42 2070      		andi r18,lo8(67108864)
 7278 2b44 3070      		andi r19,hi8(67108864)
 7279 2b46 4070      		andi r20,hlo8(67108864)
 7280 2b48 5470      		andi r21,hhi8(67108864)
 7281               	.LVL402:
 7282               	.L375:
 7283               	.LM1097:
 7284 2b4a C114      		cp r12,__zero_reg__
 7285 2b4c D104      		cpc r13,__zero_reg__
 7286 2b4e E104      		cpc r14,__zero_reg__
 7287 2b50 F104      		cpc r15,__zero_reg__
 7288 2b52 01F4      		brne .+2
 7289 2b54 00C0      		rjmp .L364
 7290               	.LBB737:
 7291               	.LBB736:
 7292               	.LM1098:
 7293 2b56 A989      		ldd r26,Y+17
 7294 2b58 BA89      		ldd r27,Y+18
 7295 2b5a A017      		cp r26,r16
 7296 2b5c B107      		cpc r27,r17
 7297 2b5e 04F4      		brge .+2
 7298 2b60 00C0      		rjmp .L364
 7299               	.LM1099:
 7300 2b62 F301      		movw r30,r6
 7301 2b64 8081      		ld r24,Z
 7302 2b66 9181      		ldd r25,Z+1
 7303               	.LBE736:
 7304               	.LBE737:
 7305               	.LM1100:
 7306 2b68 0097      		sbiw r24,0
 7307 2b6a 01F0      		breq .L365
 7308 2b6c 8130      		cpi r24,1
 7309 2b6e 9105      		cpc r25,__zero_reg__
 7310 2b70 01F0      		breq .L365
 7311 2b72 8230      		cpi r24,2
 7312 2b74 9105      		cpc r25,__zero_reg__
 7313 2b76 01F0      		breq .L365
 7314 2b78 0397      		sbiw r24,3
 7315 2b7a 01F0      		breq .+2
 7316 2b7c 00C0      		rjmp .L364
 7317               	.L365:
 7318               	.LM1101:
 7319 2b7e 81E0      		ldi r24,lo8(1)
 7320 2b80 90E0      		ldi r25,hi8(1)
 7321 2b82 00C0      		rjmp .L382
 7322               	.L376:
 7323               	.LBB738:
 7324               	.LBB739:
 7325               	.LM1102:
 7326 2b84 6989      		ldd r22,Y+17
 7327 2b86 7A89      		ldd r23,Y+18
 7328 2b88 6017      		cp r22,r16
 7329 2b8a 7107      		cpc r23,r17
 7330 2b8c 04F4      		brge .+2
 7331 2b8e 00C0      		rjmp .L367
 7332               	.LM1103:
 7333 2b90 D401      		movw r26,r8
 7334 2b92 8D91      		ld r24,X+
 7335 2b94 9C91      		ld r25,X
 7336               	.LBE739:
 7337               	.LBE738:
 7338               	.LM1104:
 7339 2b96 0097      		sbiw r24,0
 7340 2b98 01F0      		breq .L368
 7341 2b9a 8130      		cpi r24,1
 7342 2b9c 9105      		cpc r25,__zero_reg__
 7343 2b9e 01F0      		breq .L368
 7344 2ba0 8230      		cpi r24,2
 7345 2ba2 9105      		cpc r25,__zero_reg__
 7346 2ba4 01F0      		breq .L368
 7347 2ba6 0397      		sbiw r24,3
 7348 2ba8 01F0      		breq .+2
 7349 2baa 00C0      		rjmp .L367
 7350               	.L368:
 7351               	.LM1105:
 7352 2bac 80E0      		ldi r24,lo8(0)
 7353 2bae 90E0      		ldi r25,hi8(0)
 7354               	.L382:
 7355 2bb0 0E94 0000 		call _Z7mouseoni
 7356 2bb4 00C0      		rjmp .L380
 7357               	.L377:
 7358               	.LBB740:
 7359               	.LBB741:
 7360               	.LM1106:
 7361 2bb6 E989      		ldd r30,Y+17
 7362 2bb8 FA89      		ldd r31,Y+18
 7363 2bba E017      		cp r30,r16
 7364 2bbc F107      		cpc r31,r17
 7365 2bbe 04F4      		brge .+2
 7366 2bc0 00C0      		rjmp .L369
 7367               	.LM1107:
 7368 2bc2 AD85      		ldd r26,Y+13
 7369 2bc4 BE85      		ldd r27,Y+14
 7370 2bc6 8D91      		ld r24,X+
 7371 2bc8 9C91      		ld r25,X
 7372               	.LBE741:
 7373               	.LBE740:
 7374               	.LM1108:
 7375 2bca 0097      		sbiw r24,0
 7376 2bcc 01F0      		breq .L370
 7377 2bce 8130      		cpi r24,1
 7378 2bd0 9105      		cpc r25,__zero_reg__
 7379 2bd2 01F0      		breq .L370
 7380 2bd4 8230      		cpi r24,2
 7381 2bd6 9105      		cpc r25,__zero_reg__
 7382 2bd8 01F0      		breq .L370
 7383 2bda 0397      		sbiw r24,3
 7384 2bdc 01F0      		breq .+2
 7385 2bde 00C0      		rjmp .L369
 7386               	.L370:
 7387               	.LM1109:
 7388 2be0 84E0      		ldi r24,lo8(4)
 7389 2be2 90E0      		ldi r25,hi8(4)
 7390 2be4 00C0      		rjmp .L383
 7391               	.L378:
 7392               	.LBB742:
 7393               	.LBB743:
 7394               	.LM1110:
 7395 2be6 E989      		ldd r30,Y+17
 7396 2be8 FA89      		ldd r31,Y+18
 7397 2bea E017      		cp r30,r16
 7398 2bec F107      		cpc r31,r17
 7399 2bee 04F4      		brge .+2
 7400 2bf0 00C0      		rjmp .L371
 7401               	.LM1111:
 7402 2bf2 D501      		movw r26,r10
 7403 2bf4 8D91      		ld r24,X+
 7404 2bf6 9C91      		ld r25,X
 7405               	.LBE743:
 7406               	.LBE742:
 7407               	.LM1112:
 7408 2bf8 0097      		sbiw r24,0
 7409 2bfa 01F0      		breq .L372
 7410 2bfc 8130      		cpi r24,1
 7411 2bfe 9105      		cpc r25,__zero_reg__
 7412 2c00 01F0      		breq .L372
 7413 2c02 8230      		cpi r24,2
 7414 2c04 9105      		cpc r25,__zero_reg__
 7415 2c06 01F0      		breq .L372
 7416 2c08 0397      		sbiw r24,3
 7417 2c0a 01F0      		breq .+2
 7418 2c0c 00C0      		rjmp .L371
 7419               	.L372:
 7420               	.LM1113:
 7421 2c0e 82E0      		ldi r24,lo8(2)
 7422 2c10 90E0      		ldi r25,hi8(2)
 7423 2c12 00C0      		rjmp .L383
 7424               	.L379:
 7425               	.LBB744:
 7426               	.LBB745:
 7427               	.LM1114:
 7428 2c14 E989      		ldd r30,Y+17
 7429 2c16 FA89      		ldd r31,Y+18
 7430 2c18 E017      		cp r30,r16
 7431 2c1a F107      		cpc r31,r17
 7432 2c1c 04F4      		brge .+2
 7433 2c1e 00C0      		rjmp .L380
 7434               	.LM1115:
 7435 2c20 D101      		movw r26,r2
 7436 2c22 8D91      		ld r24,X+
 7437 2c24 9C91      		ld r25,X
 7438               	.LBE745:
 7439               	.LBE744:
 7440               	.LM1116:
 7441 2c26 0097      		sbiw r24,0
 7442 2c28 01F0      		breq .L373
 7443 2c2a 8130      		cpi r24,1
 7444 2c2c 9105      		cpc r25,__zero_reg__
 7445 2c2e 01F0      		breq .L373
 7446 2c30 8230      		cpi r24,2
 7447 2c32 9105      		cpc r25,__zero_reg__
 7448 2c34 01F0      		breq .L373
 7449 2c36 0397      		sbiw r24,3
 7450 2c38 01F4      		brne .L374
 7451               	.L373:
 7452               	.LM1117:
 7453 2c3a 81E0      		ldi r24,lo8(1)
 7454 2c3c 90E0      		ldi r25,hi8(1)
 7455               	.L383:
 7456 2c3e 0E94 0000 		call _Z9mousedowni
 7457 2c42 00C0      		rjmp .L380
 7458               	.L374:
 7459               	.LM1118:
 7460 2c44 F201      		movw r30,r4
 7461 2c46 8081      		ld r24,Z
 7462 2c48 9181      		ldd r25,Z+1
 7463 2c4a 0497      		sbiw r24,4
 7464 2c4c 01F0      		breq .+2
 7465 2c4e 00C0      		rjmp .L380
 7466 2c50 0F5F      		subi r16,lo8(-(1))
 7467 2c52 1F4F      		sbci r17,hi8(-(1))
 7468               	.LBB746:
 7469               	.LBB747:
 7470               	.LM1119:
 7471 2c54 6989      		ldd r22,Y+17
 7472 2c56 7A89      		ldd r23,Y+18
 7473 2c58 6017      		cp r22,r16
 7474 2c5a 7107      		cpc r23,r17
 7475 2c5c 04F4      		brge .+2
 7476 2c5e 00C0      		rjmp .L380
 7477               	.LM1120:
 7478 2c60 AF85      		ldd r26,Y+15
 7479 2c62 B889      		ldd r27,Y+16
 7480 2c64 8D91      		ld r24,X+
 7481 2c66 9C91      		ld r25,X
 7482 2c68 1197      		sbiw r26,1
 7483 2c6a 1297      		sbiw r26,2
 7484 2c6c B88B      		std Y+16,r27
 7485 2c6e AF87      		std Y+15,r26
 7486 2c70 EEEF      		ldi r30,lo8(-2)
 7487 2c72 FFEF      		ldi r31,hi8(-2)
 7488 2c74 4E0E      		add r4,r30
 7489 2c76 5F1E      		adc r5,r31
 7490 2c78 6E0E      		add r6,r30
 7491 2c7a 7F1E      		adc r7,r31
 7492 2c7c 8E0E      		add r8,r30
 7493 2c7e 9F1E      		adc r9,r31
 7494 2c80 6D85      		ldd r22,Y+13
 7495 2c82 7E85      		ldd r23,Y+14
 7496 2c84 6250      		subi r22,lo8(-(-2))
 7497 2c86 7040      		sbci r23,hi8(-(-2))
 7498 2c88 7E87      		std Y+14,r23
 7499 2c8a 6D87      		std Y+13,r22
 7500 2c8c AE0E      		add r10,r30
 7501 2c8e BF1E      		adc r11,r31
 7502 2c90 2E0E      		add r2,r30
 7503 2c92 3F1E      		adc r3,r31
 7504               	.LBE747:
 7505               	.LBE746:
 7506               	.LM1121:
 7507 2c94 892B      		or r24,r25
 7508 2c96 01F4      		brne .+2
 7509 2c98 00C0      		rjmp .L375
 7510 2c9a 00C0      		rjmp .L380
 7511               	.L364:
 7512               	.LM1122:
 7513 2c9c 8981      		ldd r24,Y+1
 7514 2c9e 9A81      		ldd r25,Y+2
 7515 2ca0 AB81      		ldd r26,Y+3
 7516 2ca2 BC81      		ldd r27,Y+4
 7517 2ca4 0097      		sbiw r24,0
 7518 2ca6 A105      		cpc r26,__zero_reg__
 7519 2ca8 B105      		cpc r27,__zero_reg__
 7520 2caa 01F0      		breq .+2
 7521 2cac 00C0      		rjmp .L376
 7522               	.L367:
 7523               	.LM1123:
 7524 2cae 6D81      		ldd r22,Y+5
 7525 2cb0 7E81      		ldd r23,Y+6
 7526 2cb2 8F81      		ldd r24,Y+7
 7527 2cb4 9885      		ldd r25,Y+8
 7528 2cb6 6115      		cp r22,__zero_reg__
 7529 2cb8 7105      		cpc r23,__zero_reg__
 7530 2cba 8105      		cpc r24,__zero_reg__
 7531 2cbc 9105      		cpc r25,__zero_reg__
 7532 2cbe 01F0      		breq .+2
 7533 2cc0 00C0      		rjmp .L377
 7534               	.L369:
 7535               	.LM1124:
 7536 2cc2 8985      		ldd r24,Y+9
 7537 2cc4 9A85      		ldd r25,Y+10
 7538 2cc6 AB85      		ldd r26,Y+11
 7539 2cc8 BC85      		ldd r27,Y+12
 7540 2cca 0097      		sbiw r24,0
 7541 2ccc A105      		cpc r26,__zero_reg__
 7542 2cce B105      		cpc r27,__zero_reg__
 7543 2cd0 01F0      		breq .+2
 7544 2cd2 00C0      		rjmp .L378
 7545               	.L371:
 7546               	.LM1125:
 7547 2cd4 2115      		cp r18,__zero_reg__
 7548 2cd6 3105      		cpc r19,__zero_reg__
 7549 2cd8 4105      		cpc r20,__zero_reg__
 7550 2cda 5105      		cpc r21,__zero_reg__
 7551 2cdc 01F0      		breq .+2
 7552 2cde 00C0      		rjmp .L379
 7553               	.LBB748:
 7554               	.LBB749:
 7555               	.LM1126:
 7556 2ce0 A989      		ldd r26,Y+17
 7557 2ce2 BA89      		ldd r27,Y+18
 7558 2ce4 A017      		cp r26,r16
 7559 2ce6 B107      		cpc r27,r17
 7560 2ce8 04F0      		brlt .+2
 7561 2cea 00C0      		rjmp .L374
 7562               	.L380:
 7563               	/* epilogue start */
 7564               	.LBE749:
 7565               	.LBE748:
 7566               	.LM1127:
 7567 2cec 6296      		adiw r28,18
 7568 2cee 0FB6      		in __tmp_reg__,__SREG__
 7569 2cf0 F894      		cli
 7570 2cf2 DEBF      		out __SP_H__,r29
 7571 2cf4 0FBE      		out __SREG__,__tmp_reg__
 7572 2cf6 CDBF      		out __SP_L__,r28
 7573 2cf8 CF91      		pop r28
 7574 2cfa DF91      		pop r29
 7575 2cfc 1F91      		pop r17
 7576 2cfe 0F91      		pop r16
 7577               	.LVL403:
 7578 2d00 FF90      		pop r15
 7579 2d02 EF90      		pop r14
 7580 2d04 DF90      		pop r13
 7581 2d06 CF90      		pop r12
 7582 2d08 BF90      		pop r11
 7583 2d0a AF90      		pop r10
 7584 2d0c 9F90      		pop r9
 7585 2d0e 8F90      		pop r8
 7586 2d10 7F90      		pop r7
 7587 2d12 6F90      		pop r6
 7588 2d14 5F90      		pop r5
 7589 2d16 4F90      		pop r4
 7590 2d18 3F90      		pop r3
 7591 2d1a 2F90      		pop r2
 7592 2d1c 0895      		ret
 7593               	.LFE151:
 7595               		.data
 7596               	.LC22:
 7597 01a0 746F 7563 		.string	"touch "
 7597      6820 00
 7598               	.LC23:
 7599 01a7 0A00      		.string	"\n"
 7600               	.LC24:
 7601 01a9 6265 6E63 		.string	"benchmark 1000 "
 7601      686D 6172 
 7601      6B20 3130 
 7601      3030 2000 
 7602               		.text
 7603               	.global	loop
 7605               	loop:
 7606               	.LFB154:
 7607               	.LM1128:
 7608 2d1e 2F92      		push r2
 7609 2d20 3F92      		push r3
 7610 2d22 4F92      		push r4
 7611 2d24 5F92      		push r5
 7612 2d26 6F92      		push r6
 7613 2d28 7F92      		push r7
 7614 2d2a 8F92      		push r8
 7615 2d2c 9F92      		push r9
 7616 2d2e AF92      		push r10
 7617 2d30 BF92      		push r11
 7618 2d32 CF92      		push r12
 7619 2d34 DF92      		push r13
 7620 2d36 EF92      		push r14
 7621 2d38 FF92      		push r15
 7622 2d3a 0F93      		push r16
 7623 2d3c 1F93      		push r17
 7624 2d3e DF93      		push r29
 7625 2d40 CF93      		push r28
 7626 2d42 CDB7      		in r28,__SP_L__
 7627 2d44 DEB7      		in r29,__SP_H__
 7628 2d46 2897      		sbiw r28,8
 7629 2d48 0FB6      		in __tmp_reg__,__SREG__
 7630 2d4a F894      		cli
 7631 2d4c DEBF      		out __SP_H__,r29
 7632 2d4e 0FBE      		out __SREG__,__tmp_reg__
 7633 2d50 CDBF      		out __SP_L__,r28
 7634               	/* prologue: function */
 7635               	/* frame size = 8 */
 7636               	.LBB750:
 7637               	.LM1129:
 7638 2d52 1092 0000 		sts moveMouse,__zero_reg__
 7639               	.LM1130:
 7640 2d56 1092 0000 		sts scrollMouse,__zero_reg__
 7641               	.LM1131:
 7642 2d5a 6091 0000 		lds r22,opt_motion_sampling_div
 7643 2d5e 7091 0000 		lds r23,(opt_motion_sampling_div)+1
 7644 2d62 8091 0000 		lds r24,counter
 7645 2d66 9091 0000 		lds r25,(counter)+1
 7646 2d6a 0E94 0000 		call __divmodhi4
 7647 2d6e 892B      		or r24,r25
 7648 2d70 01F0      		breq .+4
 7649 2d72 0C94 0000 		jmp .L385
 7650               	.LM1132:
 7651 2d76 8091 0000 		lds r24,opt_mouse_mode
 7652 2d7a 8823      		tst r24
 7653 2d7c 01F4      		brne .L386
 7654 2d7e 8091 0000 		lds r24,opt_scroll_mode
 7655 2d82 8823      		tst r24
 7656 2d84 01F4      		brne .+2
 7657 2d86 00C0      		rjmp .L387
 7658               	.L386:
 7659               	.LBB751:
 7660               	.LM1133:
 7661 2d88 8091 0000 		lds r24,x0
 7662 2d8c 9091 0000 		lds r25,(x0)+1
 7663 2d90 9093 0000 		sts (x00)+1,r25
 7664 2d94 8093 0000 		sts x00,r24
 7665               	.LM1134:
 7666 2d98 8091 0000 		lds r24,y0
 7667 2d9c 9091 0000 		lds r25,(y0)+1
 7668 2da0 9093 0000 		sts (y00)+1,r25
 7669 2da4 8093 0000 		sts y00,r24
 7670               	.LM1135:
 7671 2da8 8091 0000 		lds r24,z0
 7672 2dac 9091 0000 		lds r25,(z0)+1
 7673 2db0 9093 0000 		sts (z00)+1,r25
 7674 2db4 8093 0000 		sts z00,r24
 7675               	.LM1136:
 7676 2db8 8091 0000 		lds r24,x
 7677 2dbc 9091 0000 		lds r25,(x)+1
 7678 2dc0 9093 0000 		sts (x0)+1,r25
 7679 2dc4 8093 0000 		sts x0,r24
 7680               	.LM1137:
 7681 2dc8 8091 0000 		lds r24,y
 7682 2dcc 9091 0000 		lds r25,(y)+1
 7683 2dd0 9093 0000 		sts (y0)+1,r25
 7684 2dd4 8093 0000 		sts y0,r24
 7685               	.LM1138:
 7686 2dd8 8091 0000 		lds r24,z
 7687 2ddc 9091 0000 		lds r25,(z)+1
 7688 2de0 9093 0000 		sts (z0)+1,r25
 7689 2de4 8093 0000 		sts z0,r24
 7690               	.LM1139:
 7691 2de8 8091 0000 		lds r24,opt_accel_rot90
 7692 2dec 8823      		tst r24
 7693 2dee 01F4      		brne .L388
 7694               	.LM1140:
 7695 2df0 80E0      		ldi r24,lo8(accel)
 7696 2df2 90E0      		ldi r25,hi8(accel)
 7697 2df4 60E0      		ldi r22,lo8(xRaw)
 7698 2df6 70E0      		ldi r23,hi8(xRaw)
 7699 2df8 40E0      		ldi r20,lo8(yRaw)
 7700 2dfa 50E0      		ldi r21,hi8(yRaw)
 7701 2dfc 20E0      		ldi r18,lo8(zRaw)
 7702 2dfe 30E0      		ldi r19,hi8(zRaw)
 7703 2e00 0E94 0000 		call _ZN13Accelerometer9readAccelEPiS0_S0_
 7704 2e04 00C0      		rjmp .L389
 7705               	.L388:
 7706               	.LM1141:
 7707 2e06 8130      		cpi r24,lo8(1)
 7708 2e08 01F4      		brne .L390
 7709               	.LM1142:
 7710 2e0a 80E0      		ldi r24,lo8(accel)
 7711 2e0c 90E0      		ldi r25,hi8(accel)
 7712 2e0e 60E0      		ldi r22,lo8(xRaw)
 7713 2e10 70E0      		ldi r23,hi8(xRaw)
 7714 2e12 40E0      		ldi r20,lo8(zRaw)
 7715 2e14 50E0      		ldi r21,hi8(zRaw)
 7716 2e16 20E0      		ldi r18,lo8(yRaw)
 7717 2e18 30E0      		ldi r19,hi8(yRaw)
 7718 2e1a 00C0      		rjmp .L503
 7719               	.L390:
 7720               	.LM1143:
 7721 2e1c 8230      		cpi r24,lo8(2)
 7722 2e1e 01F4      		brne .+2
 7723 2e20 00C0      		rjmp .L517
 7724               	.L391:
 7725               	.LM1144:
 7726 2e22 8430      		cpi r24,lo8(4)
 7727 2e24 01F4      		brne .L392
 7728               	.LM1145:
 7729 2e26 80E0      		ldi r24,lo8(accel)
 7730 2e28 90E0      		ldi r25,hi8(accel)
 7731 2e2a 60E0      		ldi r22,lo8(yRaw)
 7732 2e2c 70E0      		ldi r23,hi8(yRaw)
 7733 2e2e 40E0      		ldi r20,lo8(xRaw)
 7734 2e30 50E0      		ldi r21,hi8(xRaw)
 7735 2e32 20E0      		ldi r18,lo8(zRaw)
 7736 2e34 30E0      		ldi r19,hi8(zRaw)
 7737 2e36 0E94 0000 		call _ZN13Accelerometer9readAccelEPiS0_S0_
 7738               	.LM1146:
 7739 2e3a 8091 0000 		lds r24,yRaw
 7740 2e3e 9091 0000 		lds r25,(yRaw)+1
 7741 2e42 9095      		com r25
 7742 2e44 8195      		neg r24
 7743 2e46 9F4F      		sbci r25,lo8(-1)
 7744 2e48 9093 0000 		sts (yRaw)+1,r25
 7745 2e4c 8093 0000 		sts yRaw,r24
 7746 2e50 00C0      		rjmp .L389
 7747               	.L392:
 7748               	.LM1147:
 7749 2e52 8330      		cpi r24,lo8(3)
 7750 2e54 01F4      		brne .L393
 7751               	.LM1148:
 7752 2e56 80E0      		ldi r24,lo8(accel)
 7753 2e58 90E0      		ldi r25,hi8(accel)
 7754 2e5a 60E0      		ldi r22,lo8(zRaw)
 7755 2e5c 70E0      		ldi r23,hi8(zRaw)
 7756 2e5e 40E0      		ldi r20,lo8(xRaw)
 7757 2e60 50E0      		ldi r21,hi8(xRaw)
 7758 2e62 20E0      		ldi r18,lo8(yRaw)
 7759 2e64 30E0      		ldi r19,hi8(yRaw)
 7760 2e66 0E94 0000 		call _ZN13Accelerometer9readAccelEPiS0_S0_
 7761               	.LM1149:
 7762 2e6a 8091 0000 		lds r24,xRaw
 7763 2e6e 9091 0000 		lds r25,(xRaw)+1
 7764 2e72 9095      		com r25
 7765 2e74 8195      		neg r24
 7766 2e76 9F4F      		sbci r25,lo8(-1)
 7767 2e78 9093 0000 		sts (xRaw)+1,r25
 7768 2e7c 8093 0000 		sts xRaw,r24
 7769 2e80 00C0      		rjmp .L504
 7770               	.L393:
 7771               	.LM1150:
 7772 2e82 8530      		cpi r24,lo8(5)
 7773 2e84 01F4      		brne .L394
 7774               	.LM1151:
 7775 2e86 80E0      		ldi r24,lo8(accel)
 7776 2e88 90E0      		ldi r25,hi8(accel)
 7777 2e8a 60E0      		ldi r22,lo8(yRaw)
 7778 2e8c 70E0      		ldi r23,hi8(yRaw)
 7779 2e8e 40E0      		ldi r20,lo8(zRaw)
 7780 2e90 50E0      		ldi r21,hi8(zRaw)
 7781 2e92 20E0      		ldi r18,lo8(xRaw)
 7782 2e94 30E0      		ldi r19,hi8(xRaw)
 7783 2e96 00C0      		rjmp .L512
 7784               	.L394:
 7785               	.LM1152:
 7786 2e98 8630      		cpi r24,lo8(6)
 7787 2e9a 01F4      		brne .L395
 7788               	.LM1153:
 7789 2e9c 80E0      		ldi r24,lo8(accel)
 7790 2e9e 90E0      		ldi r25,hi8(accel)
 7791 2ea0 60E0      		ldi r22,lo8(zRaw)
 7792 2ea2 70E0      		ldi r23,hi8(zRaw)
 7793 2ea4 40E0      		ldi r20,lo8(xRaw)
 7794 2ea6 50E0      		ldi r21,hi8(xRaw)
 7795 2ea8 20E0      		ldi r18,lo8(yRaw)
 7796 2eaa 30E0      		ldi r19,hi8(yRaw)
 7797               	.L512:
 7798 2eac 0E94 0000 		call _ZN13Accelerometer9readAccelEPiS0_S0_
 7799               	.LM1154:
 7800 2eb0 8091 0000 		lds r24,yRaw
 7801 2eb4 9091 0000 		lds r25,(yRaw)+1
 7802 2eb8 9095      		com r25
 7803 2eba 8195      		neg r24
 7804 2ebc 9F4F      		sbci r25,lo8(-1)
 7805 2ebe 9093 0000 		sts (yRaw)+1,r25
 7806 2ec2 8093 0000 		sts yRaw,r24
 7807 2ec6 00C0      		rjmp .L504
 7808               	.L395:
 7809               	.LM1155:
 7810 2ec8 8730      		cpi r24,lo8(7)
 7811 2eca 01F4      		brne .L389
 7812               	.L517:
 7813               	.LM1156:
 7814 2ecc 80E0      		ldi r24,lo8(accel)
 7815 2ece 90E0      		ldi r25,hi8(accel)
 7816 2ed0 60E0      		ldi r22,lo8(zRaw)
 7817 2ed2 70E0      		ldi r23,hi8(zRaw)
 7818 2ed4 40E0      		ldi r20,lo8(yRaw)
 7819 2ed6 50E0      		ldi r21,hi8(yRaw)
 7820 2ed8 20E0      		ldi r18,lo8(xRaw)
 7821 2eda 30E0      		ldi r19,hi8(xRaw)
 7822               	.L503:
 7823 2edc 0E94 0000 		call _ZN13Accelerometer9readAccelEPiS0_S0_
 7824               	.L504:
 7825               	.LM1157:
 7826 2ee0 8091 0000 		lds r24,zRaw
 7827 2ee4 9091 0000 		lds r25,(zRaw)+1
 7828 2ee8 9095      		com r25
 7829 2eea 8195      		neg r24
 7830 2eec 9F4F      		sbci r25,lo8(-1)
 7831 2eee 9093 0000 		sts (zRaw)+1,r25
 7832 2ef2 8093 0000 		sts zRaw,r24
 7833               	.L389:
 7834               	.LM1158:
 7835 2ef6 8091 0000 		lds r24,accelMicros
 7836 2efa 9091 0000 		lds r25,(accelMicros)+1
 7837 2efe A091 0000 		lds r26,(accelMicros)+2
 7838 2f02 B091 0000 		lds r27,(accelMicros)+3
 7839 2f06 0097      		sbiw r24,0
 7840 2f08 A105      		cpc r26,__zero_reg__
 7841 2f0a B105      		cpc r27,__zero_reg__
 7842 2f0c 01F4      		brne .L396
 7843 2f0e 21E0      		ldi r18,lo8(1)
 7844 2f10 30E0      		ldi r19,hi8(1)
 7845 2f12 40E0      		ldi r20,hlo8(1)
 7846 2f14 50E0      		ldi r21,hhi8(1)
 7847 2f16 00C0      		rjmp .L397
 7848               	.L396:
 7849 2f18 0E94 0000 		call micros
 7850 2f1c 9B01      		movw r18,r22
 7851 2f1e AC01      		movw r20,r24
 7852 2f20 8091 0000 		lds r24,accelMicros
 7853 2f24 9091 0000 		lds r25,(accelMicros)+1
 7854 2f28 A091 0000 		lds r26,(accelMicros)+2
 7855 2f2c B091 0000 		lds r27,(accelMicros)+3
 7856 2f30 281B      		sub r18,r24
 7857 2f32 390B      		sbc r19,r25
 7858 2f34 4A0B      		sbc r20,r26
 7859 2f36 5B0B      		sbc r21,r27
 7860               	.L397:
 7861 2f38 2093 0000 		sts accelDiff,r18
 7862 2f3c 3093 0000 		sts (accelDiff)+1,r19
 7863 2f40 4093 0000 		sts (accelDiff)+2,r20
 7864 2f44 5093 0000 		sts (accelDiff)+3,r21
 7865               	.LM1159:
 7866 2f48 0E94 0000 		call micros
 7867 2f4c 6093 0000 		sts accelMicros,r22
 7868 2f50 7093 0000 		sts (accelMicros)+1,r23
 7869 2f54 8093 0000 		sts (accelMicros)+2,r24
 7870 2f58 9093 0000 		sts (accelMicros)+3,r25
 7871               	.LM1160:
 7872 2f5c 6091 0000 		lds r22,xRaw
 7873 2f60 7091 0000 		lds r23,(xRaw)+1
 7874 2f64 2091 0000 		lds r18,opt_accel_offset
 7875 2f68 3091 0000 		lds r19,(opt_accel_offset)+1
 7876 2f6c 620F      		add r22,r18
 7877 2f6e 731F      		adc r23,r19
 7878               	.LM1161:
 7879 2f70 E090 0000 		lds r14,yRaw
 7880 2f74 F090 0000 		lds r15,(yRaw)+1
 7881 2f78 2091 0000 		lds r18,opt_accel_offset+2
 7882 2f7c 3091 0000 		lds r19,(opt_accel_offset+2)+1
 7883 2f80 E20E      		add r14,r18
 7884 2f82 F31E      		adc r15,r19
 7885               	.LM1162:
 7886 2f84 A090 0000 		lds r10,zRaw
 7887 2f88 B090 0000 		lds r11,(zRaw)+1
 7888 2f8c 2091 0000 		lds r18,opt_accel_offset+4
 7889 2f90 3091 0000 		lds r19,(opt_accel_offset+4)+1
 7890 2f94 A20E      		add r10,r18
 7891 2f96 B31E      		adc r11,r19
 7892               	.LM1163:
 7893 2f98 8827      		clr r24
 7894 2f9a 77FD      		sbrc r23,7
 7895 2f9c 8095      		com r24
 7896 2f9e 982F      		mov r25,r24
 7897 2fa0 0E94 0000 		call __floatsisf
 7898 2fa4 2091 0000 		lds r18,opt_accel_calibrate
 7899 2fa8 3091 0000 		lds r19,(opt_accel_calibrate)+1
 7900 2fac 4091 0000 		lds r20,(opt_accel_calibrate)+2
 7901 2fb0 5091 0000 		lds r21,(opt_accel_calibrate)+3
 7902 2fb4 0E94 0000 		call __mulsf3
 7903 2fb8 0E94 0000 		call __fixsfsi
 7904 2fbc 3B01      		movw r6,r22
 7905 2fbe 4C01      		movw r8,r24
 7906 2fc0 7093 0000 		sts (xRaw)+1,r23
 7907 2fc4 6093 0000 		sts xRaw,r22
 7908               	.LM1164:
 7909 2fc8 0027      		clr r16
 7910 2fca F7FC      		sbrc r15,7
 7911 2fcc 0095      		com r16
 7912 2fce 102F      		mov r17,r16
 7913 2fd0 C801      		movw r24,r16
 7914 2fd2 B701      		movw r22,r14
 7915 2fd4 0E94 0000 		call __floatsisf
 7916 2fd8 2091 0000 		lds r18,opt_accel_calibrate+4
 7917 2fdc 3091 0000 		lds r19,(opt_accel_calibrate+4)+1
 7918 2fe0 4091 0000 		lds r20,(opt_accel_calibrate+4)+2
 7919 2fe4 5091 0000 		lds r21,(opt_accel_calibrate+4)+3
 7920 2fe8 0E94 0000 		call __mulsf3
 7921 2fec 0E94 0000 		call __fixsfsi
 7922 2ff0 1B01      		movw r2,r22
 7923 2ff2 2C01      		movw r4,r24
 7924 2ff4 7093 0000 		sts (yRaw)+1,r23
 7925 2ff8 6093 0000 		sts yRaw,r22
 7926               	.LM1165:
 7927 2ffc CC24      		clr r12
 7928 2ffe B7FC      		sbrc r11,7
 7929 3000 C094      		com r12
 7930 3002 DC2C      		mov r13,r12
 7931 3004 C601      		movw r24,r12
 7932 3006 B501      		movw r22,r10
 7933 3008 0E94 0000 		call __floatsisf
 7934 300c 2091 0000 		lds r18,opt_accel_calibrate+8
 7935 3010 3091 0000 		lds r19,(opt_accel_calibrate+8)+1
 7936 3014 4091 0000 		lds r20,(opt_accel_calibrate+8)+2
 7937 3018 5091 0000 		lds r21,(opt_accel_calibrate+8)+3
 7938 301c 0E94 0000 		call __mulsf3
 7939 3020 0E94 0000 		call __fixsfsi
 7940 3024 4B01      		movw r8,r22
 7941 3026 5C01      		movw r10,r24
 7942 3028 7093 0000 		sts (zRaw)+1,r23
 7943 302c 6093 0000 		sts zRaw,r22
 7944               	.LM1166:
 7945 3030 0091 0000 		lds r16,x0
 7946 3034 1091 0000 		lds r17,(x0)+1
 7947 3038 B801      		movw r22,r16
 7948 303a 8827      		clr r24
 7949 303c 77FD      		sbrc r23,7
 7950 303e 8095      		com r24
 7951 3040 982F      		mov r25,r24
 7952 3042 0E94 0000 		call __floatsisf
 7953 3046 6B01      		movw r12,r22
 7954 3048 7C01      		movw r14,r24
 7955 304a 601A      		sub r6,r16
 7956 304c 710A      		sbc r7,r17
 7957 304e B301      		movw r22,r6
 7958 3050 8827      		clr r24
 7959 3052 77FD      		sbrc r23,7
 7960 3054 8095      		com r24
 7961 3056 982F      		mov r25,r24
 7962 3058 0E94 0000 		call __floatsisf
 7963 305c 2091 0000 		lds r18,opt_accel_kalman_constant
 7964 3060 3091 0000 		lds r19,(opt_accel_kalman_constant)+1
 7965 3064 4091 0000 		lds r20,(opt_accel_kalman_constant)+2
 7966 3068 5091 0000 		lds r21,(opt_accel_kalman_constant)+3
 7967 306c 0E94 0000 		call __mulsf3
 7968 3070 9B01      		movw r18,r22
 7969 3072 AC01      		movw r20,r24
 7970 3074 C701      		movw r24,r14
 7971 3076 B601      		movw r22,r12
 7972 3078 0E94 0000 		call __addsf3
 7973 307c 0E94 0000 		call __fixsfsi
 7974 3080 7093 0000 		sts (x)+1,r23
 7975 3084 6093 0000 		sts x,r22
 7976               	.LM1167:
 7977 3088 0091 0000 		lds r16,y0
 7978 308c 1091 0000 		lds r17,(y0)+1
 7979 3090 B801      		movw r22,r16
 7980 3092 8827      		clr r24
 7981 3094 77FD      		sbrc r23,7
 7982 3096 8095      		com r24
 7983 3098 982F      		mov r25,r24
 7984 309a 0E94 0000 		call __floatsisf
 7985 309e 6B01      		movw r12,r22
 7986 30a0 7C01      		movw r14,r24
 7987 30a2 201A      		sub r2,r16
 7988 30a4 310A      		sbc r3,r17
 7989 30a6 B101      		movw r22,r2
 7990 30a8 8827      		clr r24
 7991 30aa 77FD      		sbrc r23,7
 7992 30ac 8095      		com r24
 7993 30ae 982F      		mov r25,r24
 7994 30b0 0E94 0000 		call __floatsisf
 7995 30b4 2091 0000 		lds r18,opt_accel_kalman_constant
 7996 30b8 3091 0000 		lds r19,(opt_accel_kalman_constant)+1
 7997 30bc 4091 0000 		lds r20,(opt_accel_kalman_constant)+2
 7998 30c0 5091 0000 		lds r21,(opt_accel_kalman_constant)+3
 7999 30c4 0E94 0000 		call __mulsf3
 8000 30c8 9B01      		movw r18,r22
 8001 30ca AC01      		movw r20,r24
 8002 30cc C701      		movw r24,r14
 8003 30ce B601      		movw r22,r12
 8004 30d0 0E94 0000 		call __addsf3
 8005 30d4 0E94 0000 		call __fixsfsi
 8006 30d8 7093 0000 		sts (y)+1,r23
 8007 30dc 6093 0000 		sts y,r22
 8008               	.LM1168:
 8009 30e0 0091 0000 		lds r16,z0
 8010 30e4 1091 0000 		lds r17,(z0)+1
 8011 30e8 B801      		movw r22,r16
 8012 30ea 8827      		clr r24
 8013 30ec 77FD      		sbrc r23,7
 8014 30ee 8095      		com r24
 8015 30f0 982F      		mov r25,r24
 8016 30f2 0E94 0000 		call __floatsisf
 8017 30f6 6B01      		movw r12,r22
 8018 30f8 7C01      		movw r14,r24
 8019 30fa 9401      		movw r18,r8
 8020 30fc 201B      		sub r18,r16
 8021 30fe 310B      		sbc r19,r17
 8022 3100 B901      		movw r22,r18
 8023 3102 8827      		clr r24
 8024 3104 77FD      		sbrc r23,7
 8025 3106 8095      		com r24
 8026 3108 982F      		mov r25,r24
 8027 310a 0E94 0000 		call __floatsisf
 8028 310e 2091 0000 		lds r18,opt_accel_kalman_constant
 8029 3112 3091 0000 		lds r19,(opt_accel_kalman_constant)+1
 8030 3116 4091 0000 		lds r20,(opt_accel_kalman_constant)+2
 8031 311a 5091 0000 		lds r21,(opt_accel_kalman_constant)+3
 8032 311e 0E94 0000 		call __mulsf3
 8033 3122 9B01      		movw r18,r22
 8034 3124 AC01      		movw r20,r24
 8035 3126 C701      		movw r24,r14
 8036 3128 B601      		movw r22,r12
 8037 312a 0E94 0000 		call __addsf3
 8038 312e 0E94 0000 		call __fixsfsi
 8039 3132 7093 0000 		sts (z)+1,r23
 8040 3136 6093 0000 		sts z,r22
 8041               	.LM1169:
 8042 313a 8091 0000 		lds r24,opt_accel_smooth_average
 8043 313e 8823      		tst r24
 8044 3140 01F4      		brne .+2
 8045 3142 00C0      		rjmp .L398
 8046               	.LM1170:
 8047 3144 81E0      		ldi r24,lo8(1)
 8048 3146 90E0      		ldi r25,hi8(1)
 8049 3148 A0E0      		ldi r26,hlo8(1)
 8050 314a B0E0      		ldi r27,hhi8(1)
 8051 314c 8093 0000 		sts i,r24
 8052 3150 9093 0000 		sts (i)+1,r25
 8053 3154 A093 0000 		sts (i)+2,r26
 8054 3158 B093 0000 		sts (i)+3,r27
 8055 315c 00C0      		rjmp .L399
 8056               	.L400:
 8057               	.LM1171:
 8058 315e B301      		movw r22,r6
 8059 3160 8827      		clr r24
 8060 3162 77FD      		sbrc r23,7
 8061 3164 8095      		com r24
 8062 3166 982F      		mov r25,r24
 8063 3168 6C0D      		add r22,r12
 8064 316a 7D1D      		adc r23,r13
 8065 316c 8E1D      		adc r24,r14
 8066 316e 9F1D      		adc r25,r15
 8067 3170 0E94 0000 		call __divmodsi4
 8068 3174 DC01      		movw r26,r24
 8069 3176 CB01      		movw r24,r22
 8070 3178 880F      		lsl r24
 8071 317a 991F      		rol r25
 8072 317c FC01      		movw r30,r24
 8073 317e E050      		subi r30,lo8(-(xHist))
 8074 3180 F040      		sbci r31,hi8(-(xHist))
 8075 3182 2081      		ld r18,Z
 8076 3184 3181      		ldd r19,Z+1
 8077 3186 020F      		add r16,r18
 8078 3188 131F      		adc r17,r19
 8079 318a 1093 0000 		sts (x)+1,r17
 8080 318e 0093 0000 		sts x,r16
 8081               	.LM1172:
 8082 3192 FC01      		movw r30,r24
 8083 3194 E050      		subi r30,lo8(-(yHist))
 8084 3196 F040      		sbci r31,hi8(-(yHist))
 8085 3198 2081      		ld r18,Z
 8086 319a 3181      		ldd r19,Z+1
 8087 319c A20E      		add r10,r18
 8088 319e B31E      		adc r11,r19
 8089 31a0 B092 0000 		sts (y)+1,r11
 8090 31a4 A092 0000 		sts y,r10
 8091               	.LM1173:
 8092 31a8 8050      		subi r24,lo8(-(zHist))
 8093 31aa 9040      		sbci r25,hi8(-(zHist))
 8094 31ac DC01      		movw r26,r24
 8095 31ae 8D91      		ld r24,X+
 8096 31b0 9C91      		ld r25,X
 8097 31b2 480E      		add r4,r24
 8098 31b4 591E      		adc r5,r25
 8099 31b6 5092 0000 		sts (z)+1,r5
 8100 31ba 4092 0000 		sts z,r4
 8101               	.LM1174:
 8102 31be 0894      		sec
 8103 31c0 C11C      		adc r12,__zero_reg__
 8104 31c2 D11C      		adc r13,__zero_reg__
 8105 31c4 E11C      		adc r14,__zero_reg__
 8106 31c6 F11C      		adc r15,__zero_reg__
 8107 31c8 C092 0000 		sts i,r12
 8108 31cc D092 0000 		sts (i)+1,r13
 8109 31d0 E092 0000 		sts (i)+2,r14
 8110 31d4 F092 0000 		sts (i)+3,r15
 8111               	.L399:
 8112 31d8 C090 0000 		lds r12,i
 8113 31dc D090 0000 		lds r13,(i)+1
 8114 31e0 E090 0000 		lds r14,(i)+2
 8115 31e4 F090 0000 		lds r15,(i)+3
 8116 31e8 9090 0000 		lds r9,opt_accel_smooth_average
 8117 31ec 292D      		mov r18,r9
 8118 31ee 30E0      		ldi r19,lo8(0)
 8119 31f0 40E0      		ldi r20,lo8(0)
 8120 31f2 50E0      		ldi r21,hi8(0)
 8121 31f4 0091 0000 		lds r16,x
 8122 31f8 1091 0000 		lds r17,(x)+1
 8123 31fc A090 0000 		lds r10,y
 8124 3200 B090 0000 		lds r11,(y)+1
 8125 3204 4090 0000 		lds r4,z
 8126 3208 5090 0000 		lds r5,(z)+1
 8127 320c 6090 0000 		lds r6,accelTick
 8128 3210 7090 0000 		lds r7,(accelTick)+1
 8129 3214 C216      		cp r12,r18
 8130 3216 D306      		cpc r13,r19
 8131 3218 E406      		cpc r14,r20
 8132 321a F506      		cpc r15,r21
 8133 321c 04F4      		brge .+2
 8134 321e 00C0      		rjmp .L400
 8135               	.LM1175:
 8136 3220 C801      		movw r24,r16
 8137 3222 692D      		mov r22,r9
 8138 3224 70E0      		ldi r23,lo8(0)
 8139 3226 0E94 0000 		call __divmodhi4
 8140 322a 9B01      		movw r18,r22
 8141 322c 7093 0000 		sts (x)+1,r23
 8142 3230 6093 0000 		sts x,r22
 8143               	.LM1176:
 8144 3234 C501      		movw r24,r10
 8145 3236 692D      		mov r22,r9
 8146 3238 70E0      		ldi r23,lo8(0)
 8147 323a 0E94 0000 		call __divmodhi4
 8148 323e 8B01      		movw r16,r22
 8149 3240 7093 0000 		sts (y)+1,r23
 8150 3244 6093 0000 		sts y,r22
 8151               	.LM1177:
 8152 3248 C201      		movw r24,r4
 8153 324a 692D      		mov r22,r9
 8154 324c 70E0      		ldi r23,lo8(0)
 8155 324e 0E94 0000 		call __divmodhi4
 8156 3252 7B01      		movw r14,r22
 8157 3254 7093 0000 		sts (z)+1,r23
 8158 3258 6093 0000 		sts z,r22
 8159               	.LM1178:
 8160 325c C301      		movw r24,r6
 8161 325e 692D      		mov r22,r9
 8162 3260 70E0      		ldi r23,lo8(0)
 8163 3262 0E94 0000 		call __divmodhi4
 8164 3266 FC01      		movw r30,r24
 8165 3268 EE0F      		lsl r30
 8166 326a FF1F      		rol r31
 8167 326c E050      		subi r30,lo8(-(xHist))
 8168 326e F040      		sbci r31,hi8(-(xHist))
 8169 3270 3183      		std Z+1,r19
 8170 3272 2083      		st Z,r18
 8171               	.LM1179:
 8172 3274 C301      		movw r24,r6
 8173 3276 692D      		mov r22,r9
 8174 3278 70E0      		ldi r23,lo8(0)
 8175 327a 0E94 0000 		call __divmodhi4
 8176 327e FC01      		movw r30,r24
 8177 3280 EE0F      		lsl r30
 8178 3282 FF1F      		rol r31
 8179 3284 E050      		subi r30,lo8(-(yHist))
 8180 3286 F040      		sbci r31,hi8(-(yHist))
 8181 3288 1183      		std Z+1,r17
 8182 328a 0083      		st Z,r16
 8183               	.LM1180:
 8184 328c C301      		movw r24,r6
 8185 328e 692D      		mov r22,r9
 8186 3290 70E0      		ldi r23,lo8(0)
 8187 3292 0E94 0000 		call __divmodhi4
 8188 3296 FC01      		movw r30,r24
 8189 3298 EE0F      		lsl r30
 8190 329a FF1F      		rol r31
 8191 329c E050      		subi r30,lo8(-(zHist))
 8192 329e F040      		sbci r31,hi8(-(zHist))
 8193 32a0 F182      		std Z+1,r15
 8194 32a2 E082      		st Z,r14
 8195               	.L398:
 8196               	.LM1181:
 8197 32a4 4091 0000 		lds r20,x0
 8198 32a8 5091 0000 		lds r21,(x0)+1
 8199 32ac 6091 0000 		lds r22,x
 8200 32b0 7091 0000 		lds r23,(x)+1
 8201 32b4 8091 0000 		lds r24,xv
 8202 32b8 9091 0000 		lds r25,(xv)+1
 8203 32bc 860F      		add r24,r22
 8204 32be 971F      		adc r25,r23
 8205 32c0 2091 0000 		lds r18,x00
 8206 32c4 3091 0000 		lds r19,(x00)+1
 8207 32c8 820F      		add r24,r18
 8208 32ca 931F      		adc r25,r19
 8209 32cc 841B      		sub r24,r20
 8210 32ce 950B      		sbc r25,r21
 8211 32d0 841B      		sub r24,r20
 8212 32d2 950B      		sbc r25,r21
 8213 32d4 9093 0000 		sts (xv)+1,r25
 8214 32d8 8093 0000 		sts xv,r24
 8215               	.LM1182:
 8216 32dc 4091 0000 		lds r20,y0
 8217 32e0 5091 0000 		lds r21,(y0)+1
 8218 32e4 8091 0000 		lds r24,y
 8219 32e8 9091 0000 		lds r25,(y)+1
 8220 32ec 2091 0000 		lds r18,yv
 8221 32f0 3091 0000 		lds r19,(yv)+1
 8222 32f4 820F      		add r24,r18
 8223 32f6 931F      		adc r25,r19
 8224 32f8 2091 0000 		lds r18,y00
 8225 32fc 3091 0000 		lds r19,(y00)+1
 8226 3300 820F      		add r24,r18
 8227 3302 931F      		adc r25,r19
 8228 3304 841B      		sub r24,r20
 8229 3306 950B      		sbc r25,r21
 8230 3308 841B      		sub r24,r20
 8231 330a 950B      		sbc r25,r21
 8232 330c 9093 0000 		sts (yv)+1,r25
 8233 3310 8093 0000 		sts yv,r24
 8234               	.LM1183:
 8235 3314 4091 0000 		lds r20,z0
 8236 3318 5091 0000 		lds r21,(z0)+1
 8237 331c 8091 0000 		lds r24,z
 8238 3320 9091 0000 		lds r25,(z)+1
 8239 3324 2091 0000 		lds r18,zv
 8240 3328 3091 0000 		lds r19,(zv)+1
 8241 332c 820F      		add r24,r18
 8242 332e 931F      		adc r25,r19
 8243 3330 2091 0000 		lds r18,z00
 8244 3334 3091 0000 		lds r19,(z00)+1
 8245 3338 820F      		add r24,r18
 8246 333a 931F      		adc r25,r19
 8247 333c 841B      		sub r24,r20
 8248 333e 950B      		sbc r25,r21
 8249 3340 841B      		sub r24,r20
 8250 3342 950B      		sbc r25,r21
 8251 3344 9093 0000 		sts (zv)+1,r25
 8252 3348 8093 0000 		sts zv,r24
 8253               	.LM1184:
 8254 334c 8091 0000 		lds r24,opt_enable_calibration
 8255 3350 9091 0000 		lds r25,(opt_enable_calibration)+1
 8256 3354 892B      		or r24,r25
 8257 3356 01F4      		brne .+2
 8258 3358 00C0      		rjmp .L401
 8259               	.LM1185:
 8260 335a 2091 0000 		lds r18,xMin
 8261 335e 3091 0000 		lds r19,(xMin)+1
 8262 3362 CB01      		movw r24,r22
 8263 3364 2617      		cp r18,r22
 8264 3366 3707      		cpc r19,r23
 8265 3368 04F4      		brge .L402
 8266 336a C901      		movw r24,r18
 8267               	.L402:
 8268 336c 9093 0000 		sts (xMin)+1,r25
 8269 3370 8093 0000 		sts xMin,r24
 8270               	.LM1186:
 8271 3374 2091 0000 		lds r18,yMin
 8272 3378 3091 0000 		lds r19,(yMin)+1
 8273 337c 8091 0000 		lds r24,y
 8274 3380 9091 0000 		lds r25,(y)+1
 8275 3384 2817      		cp r18,r24
 8276 3386 3907      		cpc r19,r25
 8277 3388 04F4      		brge .L403
 8278 338a C901      		movw r24,r18
 8279               	.L403:
 8280 338c 9093 0000 		sts (yMin)+1,r25
 8281 3390 8093 0000 		sts yMin,r24
 8282               	.LM1187:
 8283 3394 2091 0000 		lds r18,zMin
 8284 3398 3091 0000 		lds r19,(zMin)+1
 8285 339c 8091 0000 		lds r24,z
 8286 33a0 9091 0000 		lds r25,(z)+1
 8287 33a4 2817      		cp r18,r24
 8288 33a6 3907      		cpc r19,r25
 8289 33a8 04F4      		brge .L404
 8290 33aa C901      		movw r24,r18
 8291               	.L404:
 8292 33ac 9093 0000 		sts (zMin)+1,r25
 8293 33b0 8093 0000 		sts zMin,r24
 8294               	.LM1188:
 8295 33b4 2091 0000 		lds r18,xMax
 8296 33b8 3091 0000 		lds r19,(xMax)+1
 8297 33bc 8091 0000 		lds r24,x
 8298 33c0 9091 0000 		lds r25,(x)+1
 8299 33c4 8217      		cp r24,r18
 8300 33c6 9307      		cpc r25,r19
 8301 33c8 04F4      		brge .L405
 8302 33ca C901      		movw r24,r18
 8303               	.L405:
 8304 33cc 9093 0000 		sts (xMax)+1,r25
 8305 33d0 8093 0000 		sts xMax,r24
 8306               	.LM1189:
 8307 33d4 2091 0000 		lds r18,yMax
 8308 33d8 3091 0000 		lds r19,(yMax)+1
 8309 33dc 8091 0000 		lds r24,y
 8310 33e0 9091 0000 		lds r25,(y)+1
 8311 33e4 8217      		cp r24,r18
 8312 33e6 9307      		cpc r25,r19
 8313 33e8 04F4      		brge .L406
 8314 33ea C901      		movw r24,r18
 8315               	.L406:
 8316 33ec 9093 0000 		sts (yMax)+1,r25
 8317 33f0 8093 0000 		sts yMax,r24
 8318               	.LM1190:
 8319 33f4 2091 0000 		lds r18,zMax
 8320 33f8 3091 0000 		lds r19,(zMax)+1
 8321 33fc 8091 0000 		lds r24,z
 8322 3400 9091 0000 		lds r25,(z)+1
 8323 3404 8217      		cp r24,r18
 8324 3406 9307      		cpc r25,r19
 8325 3408 04F4      		brge .L407
 8326 340a C901      		movw r24,r18
 8327               	.L407:
 8328 340c 9093 0000 		sts (zMax)+1,r25
 8329 3410 8093 0000 		sts zMax,r24
 8330               	.L401:
 8331               	.LM1191:
 8332 3414 8091 0000 		lds r24,ax0
 8333 3418 9091 0000 		lds r25,(ax0)+1
 8334 341c 9093 0000 		sts (ax00)+1,r25
 8335 3420 8093 0000 		sts ax00,r24
 8336               	.LM1192:
 8337 3424 8091 0000 		lds r24,ay0
 8338 3428 9091 0000 		lds r25,(ay0)+1
 8339 342c 9093 0000 		sts (ay00)+1,r25
 8340 3430 8093 0000 		sts ay00,r24
 8341               	.LM1193:
 8342 3434 8091 0000 		lds r24,az0
 8343 3438 9091 0000 		lds r25,(az0)+1
 8344 343c 9093 0000 		sts (az00)+1,r25
 8345 3440 8093 0000 		sts az00,r24
 8346               	.LM1194:
 8347 3444 8091 0000 		lds r24,ax
 8348 3448 9091 0000 		lds r25,(ax)+1
 8349 344c 9093 0000 		sts (ax0)+1,r25
 8350 3450 8093 0000 		sts ax0,r24
 8351               	.LM1195:
 8352 3454 8091 0000 		lds r24,ay
 8353 3458 9091 0000 		lds r25,(ay)+1
 8354 345c 9093 0000 		sts (ay0)+1,r25
 8355 3460 8093 0000 		sts ay0,r24
 8356               	.LM1196:
 8357 3464 8091 0000 		lds r24,az
 8358 3468 9091 0000 		lds r25,(az)+1
 8359 346c 9093 0000 		sts (az0)+1,r25
 8360 3470 8093 0000 		sts az0,r24
 8361               	.LM1197:
 8362 3474 6091 0000 		lds r22,x
 8363 3478 7091 0000 		lds r23,(x)+1
 8364 347c 8827      		clr r24
 8365 347e 77FD      		sbrc r23,7
 8366 3480 8095      		com r24
 8367 3482 982F      		mov r25,r24
 8368 3484 0E94 0000 		call __floatsisf
 8369 3488 20E0      		ldi r18,lo8(0x3b800000)
 8370 348a 30E0      		ldi r19,hi8(0x3b800000)
 8371 348c 40E8      		ldi r20,hlo8(0x3b800000)
 8372 348e 5BE3      		ldi r21,hhi8(0x3b800000)
 8373 3490 0E94 0000 		call __mulsf3
 8374 3494 7B01      		movw r14,r22
 8375 3496 8C01      		movw r16,r24
 8376 3498 6091 0000 		lds r22,y
 8377 349c 7091 0000 		lds r23,(y)+1
 8378 34a0 8827      		clr r24
 8379 34a2 77FD      		sbrc r23,7
 8380 34a4 8095      		com r24
 8381 34a6 982F      		mov r25,r24
 8382 34a8 0E94 0000 		call __floatsisf
 8383 34ac 20E0      		ldi r18,lo8(0x3b800000)
 8384 34ae 30E0      		ldi r19,hi8(0x3b800000)
 8385 34b0 40E8      		ldi r20,hlo8(0x3b800000)
 8386 34b2 5BE3      		ldi r21,hhi8(0x3b800000)
 8387 34b4 0E94 0000 		call __mulsf3
 8388 34b8 5B01      		movw r10,r22
 8389 34ba 6C01      		movw r12,r24
 8390 34bc 6091 0000 		lds r22,z
 8391 34c0 7091 0000 		lds r23,(z)+1
 8392 34c4 8827      		clr r24
 8393 34c6 77FD      		sbrc r23,7
 8394 34c8 8095      		com r24
 8395 34ca 982F      		mov r25,r24
 8396 34cc 0E94 0000 		call __floatsisf
 8397 34d0 20E0      		ldi r18,lo8(0x3b800000)
 8398 34d2 30E0      		ldi r19,hi8(0x3b800000)
 8399 34d4 40E8      		ldi r20,hlo8(0x3b800000)
 8400 34d6 5BE3      		ldi r21,hhi8(0x3b800000)
 8401 34d8 0E94 0000 		call __mulsf3
 8402 34dc 1B01      		movw r2,r22
 8403 34de 2C01      		movw r4,r24
 8404               	.LM1198:
 8405 34e0 C601      		movw r24,r12
 8406 34e2 B501      		movw r22,r10
 8407 34e4 A601      		movw r20,r12
 8408 34e6 9501      		movw r18,r10
 8409 34e8 0E94 0000 		call __mulsf3
 8410 34ec 6983      		std Y+1,r22
 8411 34ee 7A83      		std Y+2,r23
 8412 34f0 8B83      		std Y+3,r24
 8413 34f2 9C83      		std Y+4,r25
 8414 34f4 C201      		movw r24,r4
 8415 34f6 B101      		movw r22,r2
 8416 34f8 A201      		movw r20,r4
 8417 34fa 9101      		movw r18,r2
 8418 34fc 0E94 0000 		call __mulsf3
 8419 3500 6D83      		std Y+5,r22
 8420 3502 7E83      		std Y+6,r23
 8421 3504 8F83      		std Y+7,r24
 8422 3506 9887      		std Y+8,r25
 8423 3508 6981      		ldd r22,Y+1
 8424 350a 7A81      		ldd r23,Y+2
 8425 350c 8B81      		ldd r24,Y+3
 8426 350e 9C81      		ldd r25,Y+4
 8427 3510 2D81      		ldd r18,Y+5
 8428 3512 3E81      		ldd r19,Y+6
 8429 3514 4F81      		ldd r20,Y+7
 8430 3516 5885      		ldd r21,Y+8
 8431 3518 0E94 0000 		call __addsf3
 8432 351c 0E94 0000 		call sqrt
 8433 3520 9B01      		movw r18,r22
 8434 3522 AC01      		movw r20,r24
 8435 3524 C801      		movw r24,r16
 8436 3526 B701      		movw r22,r14
 8437 3528 0E94 0000 		call __divsf3
 8438 352c 0E94 0000 		call atan
 8439 3530 21EE      		ldi r18,lo8(0x42652ee1)
 8440 3532 3EE2      		ldi r19,hi8(0x42652ee1)
 8441 3534 45E6      		ldi r20,hlo8(0x42652ee1)
 8442 3536 52E4      		ldi r21,hhi8(0x42652ee1)
 8443 3538 0E94 0000 		call __mulsf3
 8444 353c 0E94 0000 		call __fixsfsi
 8445 3540 3B01      		movw r6,r22
 8446 3542 4C01      		movw r8,r24
 8447 3544 7093 0000 		sts (ax)+1,r23
 8448 3548 6093 0000 		sts ax,r22
 8449               	.LM1199:
 8450 354c C801      		movw r24,r16
 8451 354e B701      		movw r22,r14
 8452 3550 A801      		movw r20,r16
 8453 3552 9701      		movw r18,r14
 8454 3554 0E94 0000 		call __mulsf3
 8455 3558 7B01      		movw r14,r22
 8456 355a 8C01      		movw r16,r24
 8457 355c 2D81      		ldd r18,Y+5
 8458 355e 3E81      		ldd r19,Y+6
 8459 3560 4F81      		ldd r20,Y+7
 8460 3562 5885      		ldd r21,Y+8
 8461 3564 0E94 0000 		call __addsf3
 8462 3568 0E94 0000 		call sqrt
 8463 356c 9B01      		movw r18,r22
 8464 356e AC01      		movw r20,r24
 8465 3570 C601      		movw r24,r12
 8466 3572 B501      		movw r22,r10
 8467 3574 0E94 0000 		call __divsf3
 8468 3578 0E94 0000 		call atan
 8469 357c 21EE      		ldi r18,lo8(0x42652ee1)
 8470 357e 3EE2      		ldi r19,hi8(0x42652ee1)
 8471 3580 45E6      		ldi r20,hlo8(0x42652ee1)
 8472 3582 52E4      		ldi r21,hhi8(0x42652ee1)
 8473 3584 0E94 0000 		call __mulsf3
 8474 3588 0E94 0000 		call __fixsfsi
 8475 358c 7093 0000 		sts (ay)+1,r23
 8476 3590 6093 0000 		sts ay,r22
 8477               	.LM1200:
 8478 3594 C801      		movw r24,r16
 8479 3596 B701      		movw r22,r14
 8480 3598 2981      		ldd r18,Y+1
 8481 359a 3A81      		ldd r19,Y+2
 8482 359c 4B81      		ldd r20,Y+3
 8483 359e 5C81      		ldd r21,Y+4
 8484 35a0 0E94 0000 		call __addsf3
 8485 35a4 0E94 0000 		call sqrt
 8486 35a8 9B01      		movw r18,r22
 8487 35aa AC01      		movw r20,r24
 8488 35ac C201      		movw r24,r4
 8489 35ae B101      		movw r22,r2
 8490 35b0 0E94 0000 		call __divsf3
 8491 35b4 0E94 0000 		call atan
 8492 35b8 21EE      		ldi r18,lo8(0x42652ee1)
 8493 35ba 3EE2      		ldi r19,hi8(0x42652ee1)
 8494 35bc 45E6      		ldi r20,hlo8(0x42652ee1)
 8495 35be 52E4      		ldi r21,hhi8(0x42652ee1)
 8496 35c0 0E94 0000 		call __mulsf3
 8497 35c4 0E94 0000 		call __fixsfsi
 8498 35c8 AB01      		movw r20,r22
 8499 35ca 7093 0000 		sts (az)+1,r23
 8500 35ce 6093 0000 		sts az,r22
 8501               	.LM1201:
 8502 35d2 2091 0000 		lds r18,ay
 8503 35d6 3091 0000 		lds r19,ay+1
 8504               	.LM1202:
 8505 35da C301      		movw r24,r6
 8506 35dc 77FE      		sbrs r7,7
 8507 35de 00C0      		rjmp .L409
 8508 35e0 9095      		com r25
 8509 35e2 8195      		neg r24
 8510 35e4 9F4F      		sbci r25,lo8(-1)
 8511               	.L409:
 8512 35e6 8B35      		cpi r24,91
 8513 35e8 9105      		cpc r25,__zero_reg__
 8514 35ea 04F4      		brge .L408
 8515 35ec 37FF      		sbrs r19,7
 8516 35ee 00C0      		rjmp .L411
 8517 35f0 3095      		com r19
 8518 35f2 2195      		neg r18
 8519 35f4 3F4F      		sbci r19,lo8(-1)
 8520               	.L411:
 8521 35f6 2B35      		cpi r18,91
 8522 35f8 3105      		cpc r19,__zero_reg__
 8523 35fa 04F0      		brlt .L410
 8524               	.L408:
 8525 35fc 4C54      		subi r20,lo8(-(180))
 8526 35fe 5F4F      		sbci r21,hi8(-(180))
 8527 3600 5093 0000 		sts (az)+1,r21
 8528 3604 4093 0000 		sts az,r20
 8529               	.L410:
 8530               	.LM1203:
 8531 3608 8091 0000 		lds r24,accelTick
 8532 360c 9091 0000 		lds r25,(accelTick)+1
 8533 3610 0196      		adiw r24,1
 8534 3612 9093 0000 		sts (accelTick)+1,r25
 8535 3616 8093 0000 		sts accelTick,r24
 8536               	.LM1204:
 8537 361a 8091 0000 		lds r24,gx0
 8538 361e 9091 0000 		lds r25,(gx0)+1
 8539 3622 9093 0000 		sts (gx00)+1,r25
 8540 3626 8093 0000 		sts gx00,r24
 8541               	.LM1205:
 8542 362a 8091 0000 		lds r24,gy0
 8543 362e 9091 0000 		lds r25,(gy0)+1
 8544 3632 9093 0000 		sts (gy00)+1,r25
 8545 3636 8093 0000 		sts gy00,r24
 8546               	.LM1206:
 8547 363a 8091 0000 		lds r24,gz0
 8548 363e 9091 0000 		lds r25,(gz0)+1
 8549 3642 9093 0000 		sts (gz00)+1,r25
 8550 3646 8093 0000 		sts gz00,r24
 8551               	.LM1207:
 8552 364a 8091 0000 		lds r24,gx
 8553 364e 9091 0000 		lds r25,(gx)+1
 8554 3652 9093 0000 		sts (gx0)+1,r25
 8555 3656 8093 0000 		sts gx0,r24
 8556               	.LM1208:
 8557 365a 8091 0000 		lds r24,gy
 8558 365e 9091 0000 		lds r25,(gy)+1
 8559 3662 9093 0000 		sts (gy0)+1,r25
 8560 3666 8093 0000 		sts gy0,r24
 8561               	.LM1209:
 8562 366a 8091 0000 		lds r24,gz
 8563 366e 9091 0000 		lds r25,(gz)+1
 8564 3672 9093 0000 		sts (gz0)+1,r25
 8565 3676 8093 0000 		sts gz0,r24
 8566               	.LM1210:
 8567 367a 8091 0000 		lds r24,opt_gyro_rot90
 8568 367e 8823      		tst r24
 8569 3680 01F4      		brne .L412
 8570               	.LM1211:
 8571 3682 80E0      		ldi r24,lo8(gyro)
 8572 3684 90E0      		ldi r25,hi8(gyro)
 8573 3686 60E0      		ldi r22,lo8(gxRaw)
 8574 3688 70E0      		ldi r23,hi8(gxRaw)
 8575 368a 40E0      		ldi r20,lo8(gyRaw)
 8576 368c 50E0      		ldi r21,hi8(gyRaw)
 8577 368e 20E0      		ldi r18,lo8(gzRaw)
 8578 3690 30E0      		ldi r19,hi8(gzRaw)
 8579 3692 0E94 0000 		call _ZN7ITG320011readGyroRawEPiS0_S0_
 8580 3696 00C0      		rjmp .L413
 8581               	.L412:
 8582               	.LM1212:
 8583 3698 8130      		cpi r24,lo8(1)
 8584 369a 01F4      		brne .L414
 8585               	.LM1213:
 8586 369c 80E0      		ldi r24,lo8(gyro)
 8587 369e 90E0      		ldi r25,hi8(gyro)
 8588 36a0 60E0      		ldi r22,lo8(gxRaw)
 8589 36a2 70E0      		ldi r23,hi8(gxRaw)
 8590 36a4 40E0      		ldi r20,lo8(gzRaw)
 8591 36a6 50E0      		ldi r21,hi8(gzRaw)
 8592 36a8 20E0      		ldi r18,lo8(gyRaw)
 8593 36aa 30E0      		ldi r19,hi8(gyRaw)
 8594 36ac 00C0      		rjmp .L505
 8595               	.L414:
 8596               	.LM1214:
 8597 36ae 8230      		cpi r24,lo8(2)
 8598 36b0 01F4      		brne .+2
 8599 36b2 00C0      		rjmp .L518
 8600               	.L415:
 8601               	.LM1215:
 8602 36b4 8430      		cpi r24,lo8(4)
 8603 36b6 01F4      		brne .L416
 8604               	.LM1216:
 8605 36b8 80E0      		ldi r24,lo8(gyro)
 8606 36ba 90E0      		ldi r25,hi8(gyro)
 8607 36bc 60E0      		ldi r22,lo8(gyRaw)
 8608 36be 70E0      		ldi r23,hi8(gyRaw)
 8609 36c0 40E0      		ldi r20,lo8(gxRaw)
 8610 36c2 50E0      		ldi r21,hi8(gxRaw)
 8611 36c4 20E0      		ldi r18,lo8(gzRaw)
 8612 36c6 30E0      		ldi r19,hi8(gzRaw)
 8613 36c8 0E94 0000 		call _ZN7ITG320011readGyroRawEPiS0_S0_
 8614               	.LM1217:
 8615 36cc 8091 0000 		lds r24,gyRaw
 8616 36d0 9091 0000 		lds r25,(gyRaw)+1
 8617 36d4 9095      		com r25
 8618 36d6 8195      		neg r24
 8619 36d8 9F4F      		sbci r25,lo8(-1)
 8620 36da 9093 0000 		sts (gyRaw)+1,r25
 8621 36de 8093 0000 		sts gyRaw,r24
 8622 36e2 00C0      		rjmp .L413
 8623               	.L416:
 8624               	.LM1218:
 8625 36e4 8330      		cpi r24,lo8(3)
 8626 36e6 01F4      		brne .L417
 8627               	.LM1219:
 8628 36e8 80E0      		ldi r24,lo8(gyro)
 8629 36ea 90E0      		ldi r25,hi8(gyro)
 8630 36ec 60E0      		ldi r22,lo8(gzRaw)
 8631 36ee 70E0      		ldi r23,hi8(gzRaw)
 8632 36f0 40E0      		ldi r20,lo8(gxRaw)
 8633 36f2 50E0      		ldi r21,hi8(gxRaw)
 8634 36f4 20E0      		ldi r18,lo8(gyRaw)
 8635 36f6 30E0      		ldi r19,hi8(gyRaw)
 8636 36f8 0E94 0000 		call _ZN7ITG320011readGyroRawEPiS0_S0_
 8637               	.LM1220:
 8638 36fc 8091 0000 		lds r24,gxRaw
 8639 3700 9091 0000 		lds r25,(gxRaw)+1
 8640 3704 9095      		com r25
 8641 3706 8195      		neg r24
 8642 3708 9F4F      		sbci r25,lo8(-1)
 8643 370a 9093 0000 		sts (gxRaw)+1,r25
 8644 370e 8093 0000 		sts gxRaw,r24
 8645 3712 00C0      		rjmp .L506
 8646               	.L417:
 8647               	.LM1221:
 8648 3714 8530      		cpi r24,lo8(5)
 8649 3716 01F4      		brne .L418
 8650               	.LM1222:
 8651 3718 80E0      		ldi r24,lo8(gyro)
 8652 371a 90E0      		ldi r25,hi8(gyro)
 8653 371c 60E0      		ldi r22,lo8(gyRaw)
 8654 371e 70E0      		ldi r23,hi8(gyRaw)
 8655 3720 40E0      		ldi r20,lo8(gzRaw)
 8656 3722 50E0      		ldi r21,hi8(gzRaw)
 8657 3724 20E0      		ldi r18,lo8(gxRaw)
 8658 3726 30E0      		ldi r19,hi8(gxRaw)
 8659 3728 00C0      		rjmp .L513
 8660               	.L418:
 8661               	.LM1223:
 8662 372a 8630      		cpi r24,lo8(6)
 8663 372c 01F4      		brne .L419
 8664               	.LM1224:
 8665 372e 80E0      		ldi r24,lo8(gyro)
 8666 3730 90E0      		ldi r25,hi8(gyro)
 8667 3732 60E0      		ldi r22,lo8(gzRaw)
 8668 3734 70E0      		ldi r23,hi8(gzRaw)
 8669 3736 40E0      		ldi r20,lo8(gxRaw)
 8670 3738 50E0      		ldi r21,hi8(gxRaw)
 8671 373a 20E0      		ldi r18,lo8(gyRaw)
 8672 373c 30E0      		ldi r19,hi8(gyRaw)
 8673               	.L513:
 8674 373e 0E94 0000 		call _ZN7ITG320011readGyroRawEPiS0_S0_
 8675               	.LM1225:
 8676 3742 8091 0000 		lds r24,gyRaw
 8677 3746 9091 0000 		lds r25,(gyRaw)+1
 8678 374a 9095      		com r25
 8679 374c 8195      		neg r24
 8680 374e 9F4F      		sbci r25,lo8(-1)
 8681 3750 9093 0000 		sts (gyRaw)+1,r25
 8682 3754 8093 0000 		sts gyRaw,r24
 8683 3758 00C0      		rjmp .L506
 8684               	.L419:
 8685               	.LM1226:
 8686 375a 8730      		cpi r24,lo8(7)
 8687 375c 01F4      		brne .L413
 8688               	.L518:
 8689               	.LM1227:
 8690 375e 80E0      		ldi r24,lo8(gyro)
 8691 3760 90E0      		ldi r25,hi8(gyro)
 8692 3762 60E0      		ldi r22,lo8(gzRaw)
 8693 3764 70E0      		ldi r23,hi8(gzRaw)
 8694 3766 40E0      		ldi r20,lo8(gyRaw)
 8695 3768 50E0      		ldi r21,hi8(gyRaw)
 8696 376a 20E0      		ldi r18,lo8(gxRaw)
 8697 376c 30E0      		ldi r19,hi8(gxRaw)
 8698               	.L505:
 8699 376e 0E94 0000 		call _ZN7ITG320011readGyroRawEPiS0_S0_
 8700               	.L506:
 8701               	.LM1228:
 8702 3772 8091 0000 		lds r24,gzRaw
 8703 3776 9091 0000 		lds r25,(gzRaw)+1
 8704 377a 9095      		com r25
 8705 377c 8195      		neg r24
 8706 377e 9F4F      		sbci r25,lo8(-1)
 8707 3780 9093 0000 		sts (gzRaw)+1,r25
 8708 3784 8093 0000 		sts gzRaw,r24
 8709               	.L413:
 8710               	.LM1229:
 8711 3788 8091 0000 		lds r24,gyroMicros
 8712 378c 9091 0000 		lds r25,(gyroMicros)+1
 8713 3790 A091 0000 		lds r26,(gyroMicros)+2
 8714 3794 B091 0000 		lds r27,(gyroMicros)+3
 8715 3798 0097      		sbiw r24,0
 8716 379a A105      		cpc r26,__zero_reg__
 8717 379c B105      		cpc r27,__zero_reg__
 8718 379e 01F4      		brne .L420
 8719 37a0 21E0      		ldi r18,lo8(1)
 8720 37a2 30E0      		ldi r19,hi8(1)
 8721 37a4 40E0      		ldi r20,hlo8(1)
 8722 37a6 50E0      		ldi r21,hhi8(1)
 8723 37a8 00C0      		rjmp .L421
 8724               	.L420:
 8725 37aa 0E94 0000 		call micros
 8726 37ae 9B01      		movw r18,r22
 8727 37b0 AC01      		movw r20,r24
 8728 37b2 8091 0000 		lds r24,gyroMicros
 8729 37b6 9091 0000 		lds r25,(gyroMicros)+1
 8730 37ba A091 0000 		lds r26,(gyroMicros)+2
 8731 37be B091 0000 		lds r27,(gyroMicros)+3
 8732 37c2 281B      		sub r18,r24
 8733 37c4 390B      		sbc r19,r25
 8734 37c6 4A0B      		sbc r20,r26
 8735 37c8 5B0B      		sbc r21,r27
 8736               	.L421:
 8737 37ca 2093 0000 		sts gyroDiff,r18
 8738 37ce 3093 0000 		sts (gyroDiff)+1,r19
 8739 37d2 4093 0000 		sts (gyroDiff)+2,r20
 8740 37d6 5093 0000 		sts (gyroDiff)+3,r21
 8741               	.LM1230:
 8742 37da 0E94 0000 		call micros
 8743 37de 6093 0000 		sts gyroMicros,r22
 8744 37e2 7093 0000 		sts (gyroMicros)+1,r23
 8745 37e6 8093 0000 		sts (gyroMicros)+2,r24
 8746 37ea 9093 0000 		sts (gyroMicros)+3,r25
 8747               	.LM1231:
 8748 37ee 6091 0000 		lds r22,gxRaw
 8749 37f2 7091 0000 		lds r23,(gxRaw)+1
 8750 37f6 2091 0000 		lds r18,opt_gyro_offset
 8751 37fa 3091 0000 		lds r19,(opt_gyro_offset)+1
 8752 37fe 620F      		add r22,r18
 8753 3800 731F      		adc r23,r19
 8754               	.LM1232:
 8755 3802 E090 0000 		lds r14,gyRaw
 8756 3806 F090 0000 		lds r15,(gyRaw)+1
 8757 380a 2091 0000 		lds r18,opt_gyro_offset+2
 8758 380e 3091 0000 		lds r19,(opt_gyro_offset+2)+1
 8759 3812 E20E      		add r14,r18
 8760 3814 F31E      		adc r15,r19
 8761               	.LM1233:
 8762 3816 A090 0000 		lds r10,gzRaw
 8763 381a B090 0000 		lds r11,(gzRaw)+1
 8764 381e 2091 0000 		lds r18,opt_gyro_offset+4
 8765 3822 3091 0000 		lds r19,(opt_gyro_offset+4)+1
 8766 3826 A20E      		add r10,r18
 8767 3828 B31E      		adc r11,r19
 8768               	.LM1234:
 8769 382a 8827      		clr r24
 8770 382c 77FD      		sbrc r23,7
 8771 382e 8095      		com r24
 8772 3830 982F      		mov r25,r24
 8773 3832 0E94 0000 		call __floatsisf
 8774 3836 2091 0000 		lds r18,opt_gyro_calibrate
 8775 383a 3091 0000 		lds r19,(opt_gyro_calibrate)+1
 8776 383e 4091 0000 		lds r20,(opt_gyro_calibrate)+2
 8777 3842 5091 0000 		lds r21,(opt_gyro_calibrate)+3
 8778 3846 0E94 0000 		call __mulsf3
 8779 384a 20E0      		ldi r18,lo8(0x41700000)
 8780 384c 30E0      		ldi r19,hi8(0x41700000)
 8781 384e 40E7      		ldi r20,hlo8(0x41700000)
 8782 3850 51E4      		ldi r21,hhi8(0x41700000)
 8783 3852 0E94 0000 		call __divsf3
 8784 3856 0E94 0000 		call __fixsfsi
 8785 385a 3B01      		movw r6,r22
 8786 385c 4C01      		movw r8,r24
 8787 385e 7093 0000 		sts (gxRaw)+1,r23
 8788 3862 6093 0000 		sts gxRaw,r22
 8789               	.LM1235:
 8790 3866 0027      		clr r16
 8791 3868 F7FC      		sbrc r15,7
 8792 386a 0095      		com r16
 8793 386c 102F      		mov r17,r16
 8794 386e C801      		movw r24,r16
 8795 3870 B701      		movw r22,r14
 8796 3872 0E94 0000 		call __floatsisf
 8797 3876 2091 0000 		lds r18,opt_gyro_calibrate+4
 8798 387a 3091 0000 		lds r19,(opt_gyro_calibrate+4)+1
 8799 387e 4091 0000 		lds r20,(opt_gyro_calibrate+4)+2
 8800 3882 5091 0000 		lds r21,(opt_gyro_calibrate+4)+3
 8801 3886 0E94 0000 		call __mulsf3
 8802 388a 20E0      		ldi r18,lo8(0x41700000)
 8803 388c 30E0      		ldi r19,hi8(0x41700000)
 8804 388e 40E7      		ldi r20,hlo8(0x41700000)
 8805 3890 51E4      		ldi r21,hhi8(0x41700000)
 8806 3892 0E94 0000 		call __divsf3
 8807 3896 0E94 0000 		call __fixsfsi
 8808 389a 1B01      		movw r2,r22
 8809 389c 2C01      		movw r4,r24
 8810 389e 7093 0000 		sts (gyRaw)+1,r23
 8811 38a2 6093 0000 		sts gyRaw,r22
 8812               	.LM1236:
 8813 38a6 CC24      		clr r12
 8814 38a8 B7FC      		sbrc r11,7
 8815 38aa C094      		com r12
 8816 38ac DC2C      		mov r13,r12
 8817 38ae C601      		movw r24,r12
 8818 38b0 B501      		movw r22,r10
 8819 38b2 0E94 0000 		call __floatsisf
 8820 38b6 2091 0000 		lds r18,opt_gyro_calibrate+8
 8821 38ba 3091 0000 		lds r19,(opt_gyro_calibrate+8)+1
 8822 38be 4091 0000 		lds r20,(opt_gyro_calibrate+8)+2
 8823 38c2 5091 0000 		lds r21,(opt_gyro_calibrate+8)+3
 8824 38c6 0E94 0000 		call __mulsf3
 8825 38ca 20E0      		ldi r18,lo8(0x41700000)
 8826 38cc 30E0      		ldi r19,hi8(0x41700000)
 8827 38ce 40E7      		ldi r20,hlo8(0x41700000)
 8828 38d0 51E4      		ldi r21,hhi8(0x41700000)
 8829 38d2 0E94 0000 		call __divsf3
 8830 38d6 0E94 0000 		call __fixsfsi
 8831 38da 4B01      		movw r8,r22
 8832 38dc 5C01      		movw r10,r24
 8833 38de 7093 0000 		sts (gzRaw)+1,r23
 8834 38e2 6093 0000 		sts gzRaw,r22
 8835               	.LM1237:
 8836 38e6 0091 0000 		lds r16,gx0
 8837 38ea 1091 0000 		lds r17,(gx0)+1
 8838 38ee B801      		movw r22,r16
 8839 38f0 8827      		clr r24
 8840 38f2 77FD      		sbrc r23,7
 8841 38f4 8095      		com r24
 8842 38f6 982F      		mov r25,r24
 8843 38f8 0E94 0000 		call __floatsisf
 8844 38fc 6B01      		movw r12,r22
 8845 38fe 7C01      		movw r14,r24
 8846 3900 601A      		sub r6,r16
 8847 3902 710A      		sbc r7,r17
 8848 3904 B301      		movw r22,r6
 8849 3906 8827      		clr r24
 8850 3908 77FD      		sbrc r23,7
 8851 390a 8095      		com r24
 8852 390c 982F      		mov r25,r24
 8853 390e 0E94 0000 		call __floatsisf
 8854 3912 2091 0000 		lds r18,opt_gyro_kalman_constant
 8855 3916 3091 0000 		lds r19,(opt_gyro_kalman_constant)+1
 8856 391a 4091 0000 		lds r20,(opt_gyro_kalman_constant)+2
 8857 391e 5091 0000 		lds r21,(opt_gyro_kalman_constant)+3
 8858 3922 0E94 0000 		call __mulsf3
 8859 3926 9B01      		movw r18,r22
 8860 3928 AC01      		movw r20,r24
 8861 392a C701      		movw r24,r14
 8862 392c B601      		movw r22,r12
 8863 392e 0E94 0000 		call __addsf3
 8864 3932 0E94 0000 		call __fixsfsi
 8865 3936 7093 0000 		sts (gx)+1,r23
 8866 393a 6093 0000 		sts gx,r22
 8867               	.LM1238:
 8868 393e 0091 0000 		lds r16,gy0
 8869 3942 1091 0000 		lds r17,(gy0)+1
 8870 3946 B801      		movw r22,r16
 8871 3948 8827      		clr r24
 8872 394a 77FD      		sbrc r23,7
 8873 394c 8095      		com r24
 8874 394e 982F      		mov r25,r24
 8875 3950 0E94 0000 		call __floatsisf
 8876 3954 6B01      		movw r12,r22
 8877 3956 7C01      		movw r14,r24
 8878 3958 201A      		sub r2,r16
 8879 395a 310A      		sbc r3,r17
 8880 395c B101      		movw r22,r2
 8881 395e 8827      		clr r24
 8882 3960 77FD      		sbrc r23,7
 8883 3962 8095      		com r24
 8884 3964 982F      		mov r25,r24
 8885 3966 0E94 0000 		call __floatsisf
 8886 396a 2091 0000 		lds r18,opt_gyro_kalman_constant
 8887 396e 3091 0000 		lds r19,(opt_gyro_kalman_constant)+1
 8888 3972 4091 0000 		lds r20,(opt_gyro_kalman_constant)+2
 8889 3976 5091 0000 		lds r21,(opt_gyro_kalman_constant)+3
 8890 397a 0E94 0000 		call __mulsf3
 8891 397e 9B01      		movw r18,r22
 8892 3980 AC01      		movw r20,r24
 8893 3982 C701      		movw r24,r14
 8894 3984 B601      		movw r22,r12
 8895 3986 0E94 0000 		call __addsf3
 8896 398a 0E94 0000 		call __fixsfsi
 8897 398e 7093 0000 		sts (gy)+1,r23
 8898 3992 6093 0000 		sts gy,r22
 8899               	.LM1239:
 8900 3996 0091 0000 		lds r16,gz0
 8901 399a 1091 0000 		lds r17,(gz0)+1
 8902 399e B801      		movw r22,r16
 8903 39a0 8827      		clr r24
 8904 39a2 77FD      		sbrc r23,7
 8905 39a4 8095      		com r24
 8906 39a6 982F      		mov r25,r24
 8907 39a8 0E94 0000 		call __floatsisf
 8908 39ac 6B01      		movw r12,r22
 8909 39ae 7C01      		movw r14,r24
 8910 39b0 9401      		movw r18,r8
 8911 39b2 201B      		sub r18,r16
 8912 39b4 310B      		sbc r19,r17
 8913 39b6 B901      		movw r22,r18
 8914 39b8 8827      		clr r24
 8915 39ba 77FD      		sbrc r23,7
 8916 39bc 8095      		com r24
 8917 39be 982F      		mov r25,r24
 8918 39c0 0E94 0000 		call __floatsisf
 8919 39c4 2091 0000 		lds r18,opt_gyro_kalman_constant
 8920 39c8 3091 0000 		lds r19,(opt_gyro_kalman_constant)+1
 8921 39cc 4091 0000 		lds r20,(opt_gyro_kalman_constant)+2
 8922 39d0 5091 0000 		lds r21,(opt_gyro_kalman_constant)+3
 8923 39d4 0E94 0000 		call __mulsf3
 8924 39d8 9B01      		movw r18,r22
 8925 39da AC01      		movw r20,r24
 8926 39dc C701      		movw r24,r14
 8927 39de B601      		movw r22,r12
 8928 39e0 0E94 0000 		call __addsf3
 8929 39e4 0E94 0000 		call __fixsfsi
 8930 39e8 7093 0000 		sts (gz)+1,r23
 8931 39ec 6093 0000 		sts gz,r22
 8932               	.LM1240:
 8933 39f0 8091 0000 		lds r24,opt_gyro_smooth_average
 8934 39f4 8823      		tst r24
 8935 39f6 01F4      		brne .+2
 8936 39f8 00C0      		rjmp .L422
 8937               	.LM1241:
 8938 39fa 81E0      		ldi r24,lo8(1)
 8939 39fc 90E0      		ldi r25,hi8(1)
 8940 39fe A0E0      		ldi r26,hlo8(1)
 8941 3a00 B0E0      		ldi r27,hhi8(1)
 8942 3a02 8093 0000 		sts i,r24
 8943 3a06 9093 0000 		sts (i)+1,r25
 8944 3a0a A093 0000 		sts (i)+2,r26
 8945 3a0e B093 0000 		sts (i)+3,r27
 8946 3a12 00C0      		rjmp .L423
 8947               	.L424:
 8948               	.LM1242:
 8949 3a14 B401      		movw r22,r8
 8950 3a16 8827      		clr r24
 8951 3a18 77FD      		sbrc r23,7
 8952 3a1a 8095      		com r24
 8953 3a1c 982F      		mov r25,r24
 8954 3a1e 6E0D      		add r22,r14
 8955 3a20 7F1D      		adc r23,r15
 8956 3a22 801F      		adc r24,r16
 8957 3a24 911F      		adc r25,r17
 8958 3a26 0E94 0000 		call __divmodsi4
 8959 3a2a DC01      		movw r26,r24
 8960 3a2c CB01      		movw r24,r22
 8961 3a2e 880F      		lsl r24
 8962 3a30 991F      		rol r25
 8963 3a32 FC01      		movw r30,r24
 8964 3a34 E050      		subi r30,lo8(-(gxHist))
 8965 3a36 F040      		sbci r31,hi8(-(gxHist))
 8966 3a38 2081      		ld r18,Z
 8967 3a3a 3181      		ldd r19,Z+1
 8968 3a3c 420E      		add r4,r18
 8969 3a3e 531E      		adc r5,r19
 8970 3a40 5092 0000 		sts (gx)+1,r5
 8971 3a44 4092 0000 		sts gx,r4
 8972               	.LM1243:
 8973 3a48 FC01      		movw r30,r24
 8974 3a4a E050      		subi r30,lo8(-(gyHist))
 8975 3a4c F040      		sbci r31,hi8(-(gyHist))
 8976 3a4e 2081      		ld r18,Z
 8977 3a50 3181      		ldd r19,Z+1
 8978 3a52 C20E      		add r12,r18
 8979 3a54 D31E      		adc r13,r19
 8980 3a56 D092 0000 		sts (gy)+1,r13
 8981 3a5a C092 0000 		sts gy,r12
 8982               	.LM1244:
 8983 3a5e 8050      		subi r24,lo8(-(gzHist))
 8984 3a60 9040      		sbci r25,hi8(-(gzHist))
 8985 3a62 FC01      		movw r30,r24
 8986 3a64 8081      		ld r24,Z
 8987 3a66 9181      		ldd r25,Z+1
 8988 3a68 680E      		add r6,r24
 8989 3a6a 791E      		adc r7,r25
 8990 3a6c 7092 0000 		sts (gz)+1,r7
 8991 3a70 6092 0000 		sts gz,r6
 8992               	.LM1245:
 8993 3a74 0894      		sec
 8994 3a76 E11C      		adc r14,__zero_reg__
 8995 3a78 F11C      		adc r15,__zero_reg__
 8996 3a7a 011D      		adc r16,__zero_reg__
 8997 3a7c 111D      		adc r17,__zero_reg__
 8998 3a7e E092 0000 		sts i,r14
 8999 3a82 F092 0000 		sts (i)+1,r15
 9000 3a86 0093 0000 		sts (i)+2,r16
 9001 3a8a 1093 0000 		sts (i)+3,r17
 9002               	.L423:
 9003 3a8e E090 0000 		lds r14,i
 9004 3a92 F090 0000 		lds r15,(i)+1
 9005 3a96 0091 0000 		lds r16,(i)+2
 9006 3a9a 1091 0000 		lds r17,(i)+3
 9007 3a9e B090 0000 		lds r11,opt_gyro_smooth_average
 9008 3aa2 2B2D      		mov r18,r11
 9009 3aa4 30E0      		ldi r19,lo8(0)
 9010 3aa6 40E0      		ldi r20,lo8(0)
 9011 3aa8 50E0      		ldi r21,hi8(0)
 9012 3aaa 4090 0000 		lds r4,gx
 9013 3aae 5090 0000 		lds r5,(gx)+1
 9014 3ab2 C090 0000 		lds r12,gy
 9015 3ab6 D090 0000 		lds r13,(gy)+1
 9016 3aba 6090 0000 		lds r6,gz
 9017 3abe 7090 0000 		lds r7,(gz)+1
 9018 3ac2 8090 0000 		lds r8,gyroTick
 9019 3ac6 9090 0000 		lds r9,(gyroTick)+1
 9020 3aca E216      		cp r14,r18
 9021 3acc F306      		cpc r15,r19
 9022 3ace 0407      		cpc r16,r20
 9023 3ad0 1507      		cpc r17,r21
 9024 3ad2 04F4      		brge .+2
 9025 3ad4 00C0      		rjmp .L424
 9026               	.LM1246:
 9027 3ad6 C201      		movw r24,r4
 9028 3ad8 6B2D      		mov r22,r11
 9029 3ada 70E0      		ldi r23,lo8(0)
 9030 3adc 0E94 0000 		call __divmodhi4
 9031 3ae0 9B01      		movw r18,r22
 9032 3ae2 7093 0000 		sts (gx)+1,r23
 9033 3ae6 6093 0000 		sts gx,r22
 9034               	.LM1247:
 9035 3aea C601      		movw r24,r12
 9036 3aec 6B2D      		mov r22,r11
 9037 3aee 70E0      		ldi r23,lo8(0)
 9038 3af0 0E94 0000 		call __divmodhi4
 9039 3af4 8B01      		movw r16,r22
 9040 3af6 7093 0000 		sts (gy)+1,r23
 9041 3afa 6093 0000 		sts gy,r22
 9042               	.LM1248:
 9043 3afe C301      		movw r24,r6
 9044 3b00 6B2D      		mov r22,r11
 9045 3b02 70E0      		ldi r23,lo8(0)
 9046 3b04 0E94 0000 		call __divmodhi4
 9047 3b08 7B01      		movw r14,r22
 9048 3b0a 7093 0000 		sts (gz)+1,r23
 9049 3b0e 6093 0000 		sts gz,r22
 9050               	.LM1249:
 9051 3b12 C401      		movw r24,r8
 9052 3b14 6B2D      		mov r22,r11
 9053 3b16 70E0      		ldi r23,lo8(0)
 9054 3b18 0E94 0000 		call __divmodhi4
 9055 3b1c FC01      		movw r30,r24
 9056 3b1e EE0F      		lsl r30
 9057 3b20 FF1F      		rol r31
 9058 3b22 E050      		subi r30,lo8(-(gxHist))
 9059 3b24 F040      		sbci r31,hi8(-(gxHist))
 9060 3b26 3183      		std Z+1,r19
 9061 3b28 2083      		st Z,r18
 9062               	.LM1250:
 9063 3b2a C401      		movw r24,r8
 9064 3b2c 6B2D      		mov r22,r11
 9065 3b2e 70E0      		ldi r23,lo8(0)
 9066 3b30 0E94 0000 		call __divmodhi4
 9067 3b34 FC01      		movw r30,r24
 9068 3b36 EE0F      		lsl r30
 9069 3b38 FF1F      		rol r31
 9070 3b3a E050      		subi r30,lo8(-(gyHist))
 9071 3b3c F040      		sbci r31,hi8(-(gyHist))
 9072 3b3e 1183      		std Z+1,r17
 9073 3b40 0083      		st Z,r16
 9074               	.LM1251:
 9075 3b42 C401      		movw r24,r8
 9076 3b44 6B2D      		mov r22,r11
 9077 3b46 70E0      		ldi r23,lo8(0)
 9078 3b48 0E94 0000 		call __divmodhi4
 9079 3b4c FC01      		movw r30,r24
 9080 3b4e EE0F      		lsl r30
 9081 3b50 FF1F      		rol r31
 9082 3b52 E050      		subi r30,lo8(-(gzHist))
 9083 3b54 F040      		sbci r31,hi8(-(gzHist))
 9084 3b56 F182      		std Z+1,r15
 9085 3b58 E082      		st Z,r14
 9086               	.L422:
 9087               	.LM1252:
 9088 3b5a 8091 0000 		lds r24,opt_enable_calibration
 9089 3b5e 9091 0000 		lds r25,(opt_enable_calibration)+1
 9090 3b62 892B      		or r24,r25
 9091 3b64 01F4      		brne .+2
 9092 3b66 00C0      		rjmp .L425
 9093               	.LM1253:
 9094 3b68 2091 0000 		lds r18,gxMin
 9095 3b6c 3091 0000 		lds r19,(gxMin)+1
 9096 3b70 8091 0000 		lds r24,gx
 9097 3b74 9091 0000 		lds r25,(gx)+1
 9098 3b78 2817      		cp r18,r24
 9099 3b7a 3907      		cpc r19,r25
 9100 3b7c 04F4      		brge .L426
 9101 3b7e C901      		movw r24,r18
 9102               	.L426:
 9103 3b80 9093 0000 		sts (gxMin)+1,r25
 9104 3b84 8093 0000 		sts gxMin,r24
 9105               	.LM1254:
 9106 3b88 2091 0000 		lds r18,gyMin
 9107 3b8c 3091 0000 		lds r19,(gyMin)+1
 9108 3b90 8091 0000 		lds r24,gy
 9109 3b94 9091 0000 		lds r25,(gy)+1
 9110 3b98 2817      		cp r18,r24
 9111 3b9a 3907      		cpc r19,r25
 9112 3b9c 04F4      		brge .L427
 9113 3b9e C901      		movw r24,r18
 9114               	.L427:
 9115 3ba0 9093 0000 		sts (gyMin)+1,r25
 9116 3ba4 8093 0000 		sts gyMin,r24
 9117               	.LM1255:
 9118 3ba8 2091 0000 		lds r18,gzMin
 9119 3bac 3091 0000 		lds r19,(gzMin)+1
 9120 3bb0 8091 0000 		lds r24,gz
 9121 3bb4 9091 0000 		lds r25,(gz)+1
 9122 3bb8 2817      		cp r18,r24
 9123 3bba 3907      		cpc r19,r25
 9124 3bbc 04F4      		brge .L428
 9125 3bbe C901      		movw r24,r18
 9126               	.L428:
 9127 3bc0 9093 0000 		sts (gzMin)+1,r25
 9128 3bc4 8093 0000 		sts gzMin,r24
 9129               	.LM1256:
 9130 3bc8 2091 0000 		lds r18,gxMax
 9131 3bcc 3091 0000 		lds r19,(gxMax)+1
 9132 3bd0 8091 0000 		lds r24,gx
 9133 3bd4 9091 0000 		lds r25,(gx)+1
 9134 3bd8 8217      		cp r24,r18
 9135 3bda 9307      		cpc r25,r19
 9136 3bdc 04F4      		brge .L429
 9137 3bde C901      		movw r24,r18
 9138               	.L429:
 9139 3be0 9093 0000 		sts (gxMax)+1,r25
 9140 3be4 8093 0000 		sts gxMax,r24
 9141               	.LM1257:
 9142 3be8 2091 0000 		lds r18,gyMax
 9143 3bec 3091 0000 		lds r19,(gyMax)+1
 9144 3bf0 8091 0000 		lds r24,gy
 9145 3bf4 9091 0000 		lds r25,(gy)+1
 9146 3bf8 8217      		cp r24,r18
 9147 3bfa 9307      		cpc r25,r19
 9148 3bfc 04F4      		brge .L430
 9149 3bfe C901      		movw r24,r18
 9150               	.L430:
 9151 3c00 9093 0000 		sts (gyMax)+1,r25
 9152 3c04 8093 0000 		sts gyMax,r24
 9153               	.LM1258:
 9154 3c08 2091 0000 		lds r18,gzMax
 9155 3c0c 3091 0000 		lds r19,(gzMax)+1
 9156 3c10 8091 0000 		lds r24,gz
 9157 3c14 9091 0000 		lds r25,(gz)+1
 9158 3c18 8217      		cp r24,r18
 9159 3c1a 9307      		cpc r25,r19
 9160 3c1c 04F4      		brge .L431
 9161 3c1e C901      		movw r24,r18
 9162               	.L431:
 9163 3c20 9093 0000 		sts (gzMax)+1,r25
 9164 3c24 8093 0000 		sts gzMax,r24
 9165               	.L425:
 9166               	.LM1259:
 9167 3c28 8091 0000 		lds r24,gyroTick
 9168 3c2c 9091 0000 		lds r25,(gyroTick)+1
 9169 3c30 0196      		adiw r24,1
 9170 3c32 9093 0000 		sts (gyroTick)+1,r25
 9171 3c36 8093 0000 		sts gyroTick,r24
 9172               	.L387:
 9173               	.LBE751:
 9174               	.LM1260:
 9175 3c3a 9090 0000 		lds r9,opt_mouse_mode
 9176 3c3e F2E0      		ldi r31,lo8(2)
 9177 3c40 9F16      		cp r9,r31
 9178 3c42 01F4      		brne .+2
 9179 3c44 00C0      		rjmp .L434
 9180 3c46 F915      		cp r31,r9
 9181 3c48 00F0      		brlo .L437
 9182 3c4a 21E0      		ldi r18,lo8(1)
 9183 3c4c 9216      		cp r9,r18
 9184 3c4e 01F0      		breq .+2
 9185 3c50 00C0      		rjmp .L432
 9186 3c52 00C0      		rjmp .L520
 9187               	.L437:
 9188 3c54 33E0      		ldi r19,lo8(3)
 9189 3c56 9316      		cp r9,r19
 9190 3c58 01F4      		brne .+2
 9191 3c5a 00C0      		rjmp .L435
 9192 3c5c 84E0      		ldi r24,lo8(4)
 9193 3c5e 9816      		cp r9,r24
 9194 3c60 01F0      		breq .+2
 9195 3c62 00C0      		rjmp .L432
 9196 3c64 00C0      		rjmp .L521
 9197               	.L520:
 9198               	.LM1261:
 9199 3c66 8091 0000 		lds r24,aset
 9200 3c6a 0091 0000 		lds r16,ax
 9201 3c6e 1091 0000 		lds r17,(ax)+1
 9202 3c72 6090 0000 		lds r6,ay
 9203 3c76 7090 0000 		lds r7,(ay)+1
 9204 3c7a 8823      		tst r24
 9205 3c7c 01F4      		brne .+2
 9206 3c7e 00C0      		rjmp .L438
 9207               	.LM1262:
 9208 3c80 6091 0000 		lds r22,mx
 9209 3c84 7091 0000 		lds r23,(mx)+1
 9210 3c88 7093 0000 		sts (mx0)+1,r23
 9211 3c8c 6093 0000 		sts mx0,r22
 9212               	.LM1263:
 9213 3c90 E090 0000 		lds r14,my
 9214 3c94 F090 0000 		lds r15,(my)+1
 9215 3c98 F092 0000 		sts (my0)+1,r15
 9216 3c9c E092 0000 		sts my0,r14
 9217               	.LM1264:
 9218 3ca0 8827      		clr r24
 9219 3ca2 77FD      		sbrc r23,7
 9220 3ca4 8095      		com r24
 9221 3ca6 982F      		mov r25,r24
 9222 3ca8 0E94 0000 		call __floatsisf
 9223 3cac 5B01      		movw r10,r22
 9224 3cae 6C01      		movw r12,r24
 9225 3cb0 8091 0000 		lds r24,axBase
 9226 3cb4 9091 0000 		lds r25,(axBase)+1
 9227 3cb8 081B      		sub r16,r24
 9228 3cba 190B      		sbc r17,r25
 9229 3cbc B801      		movw r22,r16
 9230 3cbe 8827      		clr r24
 9231 3cc0 77FD      		sbrc r23,7
 9232 3cc2 8095      		com r24
 9233 3cc4 982F      		mov r25,r24
 9234 3cc6 0E94 0000 		call __floatsisf
 9235 3cca 2091 0000 		lds r18,opt_mouse_scale_mode1
 9236 3cce 3091 0000 		lds r19,(opt_mouse_scale_mode1)+1
 9237 3cd2 4091 0000 		lds r20,(opt_mouse_scale_mode1)+2
 9238 3cd6 5091 0000 		lds r21,(opt_mouse_scale_mode1)+3
 9239 3cda 0E94 0000 		call __divsf3
 9240 3cde 9B01      		movw r18,r22
 9241 3ce0 AC01      		movw r20,r24
 9242 3ce2 C601      		movw r24,r12
 9243 3ce4 B501      		movw r22,r10
 9244 3ce6 0E94 0000 		call __subsf3
 9245 3cea 0E94 0000 		call __fixsfsi
 9246 3cee 7093 0000 		sts (mx)+1,r23
 9247 3cf2 6093 0000 		sts mx,r22
 9248               	.LM1265:
 9249 3cf6 0027      		clr r16
 9250 3cf8 F7FC      		sbrc r15,7
 9251 3cfa 0095      		com r16
 9252 3cfc 102F      		mov r17,r16
 9253 3cfe C801      		movw r24,r16
 9254 3d00 B701      		movw r22,r14
 9255 3d02 0E94 0000 		call __floatsisf
 9256 3d06 7B01      		movw r14,r22
 9257 3d08 8C01      		movw r16,r24
 9258 3d0a 8091 0000 		lds r24,ayBase
 9259 3d0e 9091 0000 		lds r25,(ayBase)+1
 9260 3d12 681A      		sub r6,r24
 9261 3d14 790A      		sbc r7,r25
 9262 3d16 B301      		movw r22,r6
 9263 3d18 8827      		clr r24
 9264 3d1a 77FD      		sbrc r23,7
 9265 3d1c 8095      		com r24
 9266 3d1e 982F      		mov r25,r24
 9267 3d20 0E94 0000 		call __floatsisf
 9268 3d24 2091 0000 		lds r18,opt_mouse_scale_mode1+4
 9269 3d28 3091 0000 		lds r19,(opt_mouse_scale_mode1+4)+1
 9270 3d2c 4091 0000 		lds r20,(opt_mouse_scale_mode1+4)+2
 9271 3d30 5091 0000 		lds r21,(opt_mouse_scale_mode1+4)+3
 9272 3d34 0E94 0000 		call __divsf3
 9273 3d38 9B01      		movw r18,r22
 9274 3d3a AC01      		movw r20,r24
 9275 3d3c C801      		movw r24,r16
 9276 3d3e B701      		movw r22,r14
 9277 3d40 0E94 0000 		call __subsf3
 9278 3d44 0E94 0000 		call __fixsfsi
 9279 3d48 7093 0000 		sts (my)+1,r23
 9280 3d4c 6093 0000 		sts my,r22
 9281               	.LM1266:
 9282 3d50 9092 0000 		sts moveMouse,r9
 9283 3d54 00C0      		rjmp .L432
 9284               	.L438:
 9285               	.LM1267:
 9286 3d56 1093 0000 		sts (axBase)+1,r17
 9287 3d5a 0093 0000 		sts axBase,r16
 9288               	.LM1268:
 9289 3d5e 7092 0000 		sts (ayBase)+1,r7
 9290 3d62 6092 0000 		sts ayBase,r6
 9291               	.LM1269:
 9292 3d66 8091 0000 		lds r24,az
 9293 3d6a 9091 0000 		lds r25,(az)+1
 9294 3d6e 9093 0000 		sts (azBase)+1,r25
 9295 3d72 8093 0000 		sts azBase,r24
 9296               	.LM1270:
 9297 3d76 9092 0000 		sts aset,r9
 9298 3d7a 00C0      		rjmp .L432
 9299               	.L434:
 9300               	.LM1271:
 9301 3d7c C090 0000 		lds r12,mx
 9302 3d80 D090 0000 		lds r13,(mx)+1
 9303 3d84 D092 0000 		sts (mx0)+1,r13
 9304 3d88 C092 0000 		sts mx0,r12
 9305               	.LM1272:
 9306 3d8c 8091 0000 		lds r24,my
 9307 3d90 9091 0000 		lds r25,(my)+1
 9308 3d94 9093 0000 		sts (my0)+1,r25
 9309 3d98 8093 0000 		sts my0,r24
 9310               	.LM1273:
 9311 3d9c 2091 0000 		lds r18,gx
 9312 3da0 3091 0000 		lds r19,(gx)+1
 9313 3da4 37FF      		sbrs r19,7
 9314 3da6 00C0      		rjmp .L439
 9315 3da8 6627      		clr r22
 9316 3daa 7727      		clr r23
 9317 3dac 621B      		sub r22,r18
 9318 3dae 730B      		sbc r23,r19
 9319 3db0 8827      		clr r24
 9320 3db2 77FD      		sbrc r23,7
 9321 3db4 8095      		com r24
 9322 3db6 982F      		mov r25,r24
 9323 3db8 0E94 0000 		call __floatsisf
 9324 3dbc 0E94 0000 		call sqrt
 9325 3dc0 7B01      		movw r14,r22
 9326 3dc2 8C01      		movw r16,r24
 9327 3dc4 17FB      		bst r17,7
 9328 3dc6 1095      		com r17
 9329 3dc8 17F9      		bld r17,7
 9330 3dca 1095      		com r17
 9331 3dcc 00C0      		rjmp .L440
 9332               	.L439:
 9333 3dce B901      		movw r22,r18
 9334 3dd0 8827      		clr r24
 9335 3dd2 77FD      		sbrc r23,7
 9336 3dd4 8095      		com r24
 9337 3dd6 982F      		mov r25,r24
 9338 3dd8 0E94 0000 		call __floatsisf
 9339 3ddc 0E94 0000 		call sqrt
 9340 3de0 7B01      		movw r14,r22
 9341 3de2 8C01      		movw r16,r24
 9342               	.L440:
 9343 3de4 B601      		movw r22,r12
 9344 3de6 8827      		clr r24
 9345 3de8 77FD      		sbrc r23,7
 9346 3dea 8095      		com r24
 9347 3dec 982F      		mov r25,r24
 9348 3dee 0E94 0000 		call __floatsisf
 9349 3df2 A801      		movw r20,r16
 9350 3df4 9701      		movw r18,r14
 9351 3df6 0E94 0000 		call __addsf3
 9352 3dfa 0E94 0000 		call __fixsfsi
 9353 3dfe 7093 0000 		sts (mx)+1,r23
 9354 3e02 6093 0000 		sts mx,r22
 9355               	.LM1274:
 9356 3e06 C090 0000 		lds r12,my
 9357 3e0a D090 0000 		lds r13,(my)+1
 9358 3e0e 2091 0000 		lds r18,gy
 9359 3e12 3091 0000 		lds r19,(gy)+1
 9360 3e16 37FF      		sbrs r19,7
 9361 3e18 00C0      		rjmp .L441
 9362 3e1a 6627      		clr r22
 9363 3e1c 7727      		clr r23
 9364 3e1e 621B      		sub r22,r18
 9365 3e20 730B      		sbc r23,r19
 9366 3e22 8827      		clr r24
 9367 3e24 77FD      		sbrc r23,7
 9368 3e26 8095      		com r24
 9369 3e28 982F      		mov r25,r24
 9370 3e2a 0E94 0000 		call __floatsisf
 9371 3e2e 0E94 0000 		call sqrt
 9372 3e32 7B01      		movw r14,r22
 9373 3e34 8C01      		movw r16,r24
 9374 3e36 17FB      		bst r17,7
 9375 3e38 1095      		com r17
 9376 3e3a 17F9      		bld r17,7
 9377 3e3c 1095      		com r17
 9378 3e3e 00C0      		rjmp .L442
 9379               	.L441:
 9380 3e40 B901      		movw r22,r18
 9381 3e42 8827      		clr r24
 9382 3e44 77FD      		sbrc r23,7
 9383 3e46 8095      		com r24
 9384 3e48 982F      		mov r25,r24
 9385 3e4a 0E94 0000 		call __floatsisf
 9386 3e4e 0E94 0000 		call sqrt
 9387 3e52 7B01      		movw r14,r22
 9388 3e54 8C01      		movw r16,r24
 9389               	.L442:
 9390 3e56 B601      		movw r22,r12
 9391 3e58 8827      		clr r24
 9392 3e5a 77FD      		sbrc r23,7
 9393 3e5c 8095      		com r24
 9394 3e5e 982F      		mov r25,r24
 9395 3e60 0E94 0000 		call __floatsisf
 9396 3e64 A801      		movw r20,r16
 9397 3e66 9701      		movw r18,r14
 9398 3e68 0E94 0000 		call __addsf3
 9399 3e6c 00C0      		rjmp .L514
 9400               	.L435:
 9401               	.LM1275:
 9402 3e6e 8091 0000 		lds r24,aset
 9403 3e72 0091 0000 		lds r16,x
 9404 3e76 1091 0000 		lds r17,(x)+1
 9405 3e7a 4090 0000 		lds r4,z
 9406 3e7e 5090 0000 		lds r5,(z)+1
 9407 3e82 8823      		tst r24
 9408 3e84 01F4      		brne .+2
 9409 3e86 00C0      		rjmp .L443
 9410               	.LM1276:
 9411 3e88 6091 0000 		lds r22,mx
 9412 3e8c 7091 0000 		lds r23,(mx)+1
 9413 3e90 7093 0000 		sts (mx0)+1,r23
 9414 3e94 6093 0000 		sts mx0,r22
 9415               	.LM1277:
 9416 3e98 E090 0000 		lds r14,my
 9417 3e9c F090 0000 		lds r15,(my)+1
 9418 3ea0 F092 0000 		sts (my0)+1,r15
 9419 3ea4 E092 0000 		sts my0,r14
 9420               	.LM1278:
 9421 3ea8 8827      		clr r24
 9422 3eaa 77FD      		sbrc r23,7
 9423 3eac 8095      		com r24
 9424 3eae 982F      		mov r25,r24
 9425 3eb0 0E94 0000 		call __floatsisf
 9426 3eb4 5B01      		movw r10,r22
 9427 3eb6 6C01      		movw r12,r24
 9428 3eb8 8091 0000 		lds r24,xBase
 9429 3ebc 9091 0000 		lds r25,(xBase)+1
 9430 3ec0 081B      		sub r16,r24
 9431 3ec2 190B      		sbc r17,r25
 9432 3ec4 B801      		movw r22,r16
 9433 3ec6 8827      		clr r24
 9434 3ec8 77FD      		sbrc r23,7
 9435 3eca 8095      		com r24
 9436 3ecc 982F      		mov r25,r24
 9437 3ece 0E94 0000 		call __floatsisf
 9438 3ed2 2091 0000 		lds r18,opt_mouse_scale_mode3
 9439 3ed6 3091 0000 		lds r19,(opt_mouse_scale_mode3)+1
 9440 3eda 4091 0000 		lds r20,(opt_mouse_scale_mode3)+2
 9441 3ede 5091 0000 		lds r21,(opt_mouse_scale_mode3)+3
 9442 3ee2 0E94 0000 		call __divsf3
 9443 3ee6 9B01      		movw r18,r22
 9444 3ee8 AC01      		movw r20,r24
 9445 3eea C601      		movw r24,r12
 9446 3eec B501      		movw r22,r10
 9447 3eee 0E94 0000 		call __subsf3
 9448 3ef2 0E94 0000 		call __fixsfsi
 9449 3ef6 7093 0000 		sts (mx)+1,r23
 9450 3efa 6093 0000 		sts mx,r22
 9451               	.LM1279:
 9452 3efe 0027      		clr r16
 9453 3f00 F7FC      		sbrc r15,7
 9454 3f02 0095      		com r16
 9455 3f04 102F      		mov r17,r16
 9456 3f06 C801      		movw r24,r16
 9457 3f08 B701      		movw r22,r14
 9458 3f0a 0E94 0000 		call __floatsisf
 9459 3f0e 7B01      		movw r14,r22
 9460 3f10 8C01      		movw r16,r24
 9461 3f12 A0E0      		ldi r26,lo8(-256)
 9462 3f14 BFEF      		ldi r27,hi8(-256)
 9463 3f16 4A0E      		add r4,r26
 9464 3f18 5B1E      		adc r5,r27
 9465 3f1a 8091 0000 		lds r24,zBase
 9466 3f1e 9091 0000 		lds r25,(zBase)+1
 9467 3f22 481A      		sub r4,r24
 9468 3f24 590A      		sbc r5,r25
 9469 3f26 B201      		movw r22,r4
 9470 3f28 8827      		clr r24
 9471 3f2a 77FD      		sbrc r23,7
 9472 3f2c 8095      		com r24
 9473 3f2e 982F      		mov r25,r24
 9474 3f30 0E94 0000 		call __floatsisf
 9475 3f34 2091 0000 		lds r18,opt_mouse_scale_mode3+4
 9476 3f38 3091 0000 		lds r19,(opt_mouse_scale_mode3+4)+1
 9477 3f3c 4091 0000 		lds r20,(opt_mouse_scale_mode3+4)+2
 9478 3f40 5091 0000 		lds r21,(opt_mouse_scale_mode3+4)+3
 9479 3f44 0E94 0000 		call __divsf3
 9480 3f48 9B01      		movw r18,r22
 9481 3f4a AC01      		movw r20,r24
 9482 3f4c C801      		movw r24,r16
 9483 3f4e B701      		movw r22,r14
 9484 3f50 0E94 0000 		call __subsf3
 9485               	.L514:
 9486 3f54 0E94 0000 		call __fixsfsi
 9487 3f58 7093 0000 		sts (my)+1,r23
 9488 3f5c 6093 0000 		sts my,r22
 9489 3f60 00C0      		rjmp .L507
 9490               	.L443:
 9491               	.LM1280:
 9492 3f62 1093 0000 		sts (xBase)+1,r17
 9493 3f66 0093 0000 		sts xBase,r16
 9494               	.LM1281:
 9495 3f6a 8091 0000 		lds r24,y
 9496 3f6e 9091 0000 		lds r25,(y)+1
 9497 3f72 9093 0000 		sts (yBase)+1,r25
 9498 3f76 8093 0000 		sts yBase,r24
 9499               	.LM1282:
 9500 3f7a E0E0      		ldi r30,lo8(-256)
 9501 3f7c FFEF      		ldi r31,hi8(-256)
 9502 3f7e 4E0E      		add r4,r30
 9503 3f80 5F1E      		adc r5,r31
 9504 3f82 5092 0000 		sts (zBase)+1,r5
 9505 3f86 4092 0000 		sts zBase,r4
 9506               	.LM1283:
 9507 3f8a 81E0      		ldi r24,lo8(1)
 9508 3f8c 8093 0000 		sts aset,r24
 9509 3f90 00C0      		rjmp .L432
 9510               	.L521:
 9511               	.LM1284:
 9512 3f92 6091 0000 		lds r22,mx
 9513 3f96 7091 0000 		lds r23,(mx)+1
 9514 3f9a 7093 0000 		sts (mx0)+1,r23
 9515 3f9e 6093 0000 		sts mx0,r22
 9516               	.LM1285:
 9517 3fa2 E090 0000 		lds r14,my
 9518 3fa6 F090 0000 		lds r15,(my)+1
 9519 3faa F092 0000 		sts (my0)+1,r15
 9520 3fae E092 0000 		sts my0,r14
 9521               	.LM1286:
 9522 3fb2 A090 0000 		lds r10,mz
 9523 3fb6 B090 0000 		lds r11,(mz)+1
 9524 3fba B092 0000 		sts (mz0)+1,r11
 9525 3fbe A092 0000 		sts mz0,r10
 9526               	.LM1287:
 9527 3fc2 8827      		clr r24
 9528 3fc4 77FD      		sbrc r23,7
 9529 3fc6 8095      		com r24
 9530 3fc8 982F      		mov r25,r24
 9531 3fca 0E94 0000 		call __floatsisf
 9532 3fce 3B01      		movw r6,r22
 9533 3fd0 4C01      		movw r8,r24
 9534 3fd2 6091 0000 		lds r22,xv
 9535 3fd6 7091 0000 		lds r23,(xv)+1
 9536 3fda 8827      		clr r24
 9537 3fdc 77FD      		sbrc r23,7
 9538 3fde 8095      		com r24
 9539 3fe0 982F      		mov r25,r24
 9540 3fe2 0E94 0000 		call __floatsisf
 9541 3fe6 2091 0000 		lds r18,opt_mouse_scale_mode4
 9542 3fea 3091 0000 		lds r19,(opt_mouse_scale_mode4)+1
 9543 3fee 4091 0000 		lds r20,(opt_mouse_scale_mode4)+2
 9544 3ff2 5091 0000 		lds r21,(opt_mouse_scale_mode4)+3
 9545 3ff6 0E94 0000 		call __divsf3
 9546 3ffa 9B01      		movw r18,r22
 9547 3ffc AC01      		movw r20,r24
 9548 3ffe C401      		movw r24,r8
 9549 4000 B301      		movw r22,r6
 9550 4002 0E94 0000 		call __subsf3
 9551 4006 0E94 0000 		call __fixsfsi
 9552 400a 7093 0000 		sts (mx)+1,r23
 9553 400e 6093 0000 		sts mx,r22
 9554               	.LM1288:
 9555 4012 0027      		clr r16
 9556 4014 F7FC      		sbrc r15,7
 9557 4016 0095      		com r16
 9558 4018 102F      		mov r17,r16
 9559 401a C801      		movw r24,r16
 9560 401c B701      		movw r22,r14
 9561 401e 0E94 0000 		call __floatsisf
 9562 4022 7B01      		movw r14,r22
 9563 4024 8C01      		movw r16,r24
 9564 4026 6091 0000 		lds r22,zv
 9565 402a 7091 0000 		lds r23,(zv)+1
 9566 402e 8827      		clr r24
 9567 4030 77FD      		sbrc r23,7
 9568 4032 8095      		com r24
 9569 4034 982F      		mov r25,r24
 9570 4036 0E94 0000 		call __floatsisf
 9571 403a 2091 0000 		lds r18,opt_mouse_scale_mode4+4
 9572 403e 3091 0000 		lds r19,(opt_mouse_scale_mode4+4)+1
 9573 4042 4091 0000 		lds r20,(opt_mouse_scale_mode4+4)+2
 9574 4046 5091 0000 		lds r21,(opt_mouse_scale_mode4+4)+3
 9575 404a 0E94 0000 		call __divsf3
 9576 404e 9B01      		movw r18,r22
 9577 4050 AC01      		movw r20,r24
 9578 4052 C801      		movw r24,r16
 9579 4054 B701      		movw r22,r14
 9580 4056 0E94 0000 		call __subsf3
 9581 405a 0E94 0000 		call __fixsfsi
 9582 405e 7093 0000 		sts (my)+1,r23
 9583 4062 6093 0000 		sts my,r22
 9584               	.LM1289:
 9585 4066 CC24      		clr r12
 9586 4068 B7FC      		sbrc r11,7
 9587 406a C094      		com r12
 9588 406c DC2C      		mov r13,r12
 9589 406e C601      		movw r24,r12
 9590 4070 B501      		movw r22,r10
 9591 4072 0E94 0000 		call __floatsisf
 9592 4076 7B01      		movw r14,r22
 9593 4078 8C01      		movw r16,r24
 9594 407a 6091 0000 		lds r22,yv
 9595 407e 7091 0000 		lds r23,(yv)+1
 9596 4082 8827      		clr r24
 9597 4084 77FD      		sbrc r23,7
 9598 4086 8095      		com r24
 9599 4088 982F      		mov r25,r24
 9600 408a 0E94 0000 		call __floatsisf
 9601 408e 2091 0000 		lds r18,opt_mouse_scale_mode4+8
 9602 4092 3091 0000 		lds r19,(opt_mouse_scale_mode4+8)+1
 9603 4096 4091 0000 		lds r20,(opt_mouse_scale_mode4+8)+2
 9604 409a 5091 0000 		lds r21,(opt_mouse_scale_mode4+8)+3
 9605 409e 0E94 0000 		call __divsf3
 9606 40a2 9B01      		movw r18,r22
 9607 40a4 AC01      		movw r20,r24
 9608 40a6 C801      		movw r24,r16
 9609 40a8 B701      		movw r22,r14
 9610 40aa 0E94 0000 		call __subsf3
 9611 40ae 0E94 0000 		call __fixsfsi
 9612 40b2 7093 0000 		sts (mz)+1,r23
 9613 40b6 6093 0000 		sts mz,r22
 9614               	.L507:
 9615               	.LM1290:
 9616 40ba 81E0      		ldi r24,lo8(1)
 9617 40bc 8093 0000 		sts moveMouse,r24
 9618               	.L432:
 9619               	.LM1291:
 9620 40c0 9090 0000 		lds r9,opt_scroll_mode
 9621 40c4 F2E0      		ldi r31,lo8(2)
 9622 40c6 9F16      		cp r9,r31
 9623 40c8 01F4      		brne .+2
 9624 40ca 00C0      		rjmp .L446
 9625 40cc 23E0      		ldi r18,lo8(3)
 9626 40ce 9216      		cp r9,r18
 9627 40d0 01F4      		brne .+2
 9628 40d2 00C0      		rjmp .L447
 9629 40d4 31E0      		ldi r19,lo8(1)
 9630 40d6 9316      		cp r9,r19
 9631 40d8 01F0      		breq .+2
 9632 40da 00C0      		rjmp .L444
 9633               	.LM1292:
 9634 40dc 8091 0000 		lds r24,aset
 9635 40e0 0091 0000 		lds r16,ax
 9636 40e4 1091 0000 		lds r17,(ax)+1
 9637 40e8 6090 0000 		lds r6,ay
 9638 40ec 7090 0000 		lds r7,(ay)+1
 9639 40f0 8823      		tst r24
 9640 40f2 01F4      		brne .+2
 9641 40f4 00C0      		rjmp .L448
 9642               	.LM1293:
 9643 40f6 6091 0000 		lds r22,mx
 9644 40fa 7091 0000 		lds r23,(mx)+1
 9645 40fe 7093 0000 		sts (mx0)+1,r23
 9646 4102 6093 0000 		sts mx0,r22
 9647               	.LM1294:
 9648 4106 E090 0000 		lds r14,my
 9649 410a F090 0000 		lds r15,(my)+1
 9650 410e F092 0000 		sts (my0)+1,r15
 9651 4112 E092 0000 		sts my0,r14
 9652               	.LM1295:
 9653 4116 8827      		clr r24
 9654 4118 77FD      		sbrc r23,7
 9655 411a 8095      		com r24
 9656 411c 982F      		mov r25,r24
 9657 411e 0E94 0000 		call __floatsisf
 9658 4122 5B01      		movw r10,r22
 9659 4124 6C01      		movw r12,r24
 9660 4126 8091 0000 		lds r24,axBase
 9661 412a 9091 0000 		lds r25,(axBase)+1
 9662 412e 081B      		sub r16,r24
 9663 4130 190B      		sbc r17,r25
 9664 4132 B801      		movw r22,r16
 9665 4134 8827      		clr r24
 9666 4136 77FD      		sbrc r23,7
 9667 4138 8095      		com r24
 9668 413a 982F      		mov r25,r24
 9669 413c 0E94 0000 		call __floatsisf
 9670 4140 2091 0000 		lds r18,opt_mouse_scale_mode1
 9671 4144 3091 0000 		lds r19,(opt_mouse_scale_mode1)+1
 9672 4148 4091 0000 		lds r20,(opt_mouse_scale_mode1)+2
 9673 414c 5091 0000 		lds r21,(opt_mouse_scale_mode1)+3
 9674 4150 0E94 0000 		call __divsf3
 9675 4154 9B01      		movw r18,r22
 9676 4156 AC01      		movw r20,r24
 9677 4158 C601      		movw r24,r12
 9678 415a B501      		movw r22,r10
 9679 415c 0E94 0000 		call __subsf3
 9680 4160 0E94 0000 		call __fixsfsi
 9681 4164 7093 0000 		sts (mx)+1,r23
 9682 4168 6093 0000 		sts mx,r22
 9683               	.LM1296:
 9684 416c 0027      		clr r16
 9685 416e F7FC      		sbrc r15,7
 9686 4170 0095      		com r16
 9687 4172 102F      		mov r17,r16
 9688 4174 C801      		movw r24,r16
 9689 4176 B701      		movw r22,r14
 9690 4178 0E94 0000 		call __floatsisf
 9691 417c 7B01      		movw r14,r22
 9692 417e 8C01      		movw r16,r24
 9693 4180 8091 0000 		lds r24,ayBase
 9694 4184 9091 0000 		lds r25,(ayBase)+1
 9695 4188 681A      		sub r6,r24
 9696 418a 790A      		sbc r7,r25
 9697 418c B301      		movw r22,r6
 9698 418e 8827      		clr r24
 9699 4190 77FD      		sbrc r23,7
 9700 4192 8095      		com r24
 9701 4194 982F      		mov r25,r24
 9702 4196 0E94 0000 		call __floatsisf
 9703 419a 2091 0000 		lds r18,opt_mouse_scale_mode1+4
 9704 419e 3091 0000 		lds r19,(opt_mouse_scale_mode1+4)+1
 9705 41a2 4091 0000 		lds r20,(opt_mouse_scale_mode1+4)+2
 9706 41a6 5091 0000 		lds r21,(opt_mouse_scale_mode1+4)+3
 9707 41aa 0E94 0000 		call __divsf3
 9708 41ae 9B01      		movw r18,r22
 9709 41b0 AC01      		movw r20,r24
 9710 41b2 C801      		movw r24,r16
 9711 41b4 B701      		movw r22,r14
 9712 41b6 0E94 0000 		call __subsf3
 9713 41ba 0E94 0000 		call __fixsfsi
 9714 41be 7093 0000 		sts (my)+1,r23
 9715 41c2 6093 0000 		sts my,r22
 9716               	.LM1297:
 9717 41c6 9092 0000 		sts scrollMouse,r9
 9718 41ca 00C0      		rjmp .L444
 9719               	.L448:
 9720               	.LM1298:
 9721 41cc 1093 0000 		sts (axBase)+1,r17
 9722 41d0 0093 0000 		sts axBase,r16
 9723               	.LM1299:
 9724 41d4 7092 0000 		sts (ayBase)+1,r7
 9725 41d8 6092 0000 		sts ayBase,r6
 9726               	.LM1300:
 9727 41dc 8091 0000 		lds r24,az
 9728 41e0 9091 0000 		lds r25,(az)+1
 9729 41e4 9093 0000 		sts (azBase)+1,r25
 9730 41e8 8093 0000 		sts azBase,r24
 9731               	.LM1301:
 9732 41ec 9092 0000 		sts aset,r9
 9733 41f0 00C0      		rjmp .L444
 9734               	.L446:
 9735               	.LM1302:
 9736 41f2 C090 0000 		lds r12,sy
 9737 41f6 D090 0000 		lds r13,(sy)+1
 9738 41fa D092 0000 		sts (sy0)+1,r13
 9739 41fe C092 0000 		sts sy0,r12
 9740               	.LM1303:
 9741 4202 8091 0000 		lds r24,gx
 9742 4206 9091 0000 		lds r25,(gx)+1
 9743 420a 97FF      		sbrs r25,7
 9744 420c 00C0      		rjmp .L449
 9745 420e 62EE      		ldi r22,lo8(-30)
 9746 4210 7FEF      		ldi r23,hi8(-30)
 9747 4212 0E94 0000 		call __divmodhi4
 9748 4216 8827      		clr r24
 9749 4218 77FD      		sbrc r23,7
 9750 421a 8095      		com r24
 9751 421c 982F      		mov r25,r24
 9752 421e 0E94 0000 		call __floatsisf
 9753 4222 0E94 0000 		call sqrt
 9754 4226 7B01      		movw r14,r22
 9755 4228 8C01      		movw r16,r24
 9756 422a 17FB      		bst r17,7
 9757 422c 1095      		com r17
 9758 422e 17F9      		bld r17,7
 9759 4230 1095      		com r17
 9760 4232 00C0      		rjmp .L450
 9761               	.L449:
 9762 4234 6EE1      		ldi r22,lo8(30)
 9763 4236 70E0      		ldi r23,hi8(30)
 9764 4238 0E94 0000 		call __divmodhi4
 9765 423c 8827      		clr r24
 9766 423e 77FD      		sbrc r23,7
 9767 4240 8095      		com r24
 9768 4242 982F      		mov r25,r24
 9769 4244 0E94 0000 		call __floatsisf
 9770 4248 0E94 0000 		call sqrt
 9771 424c 7B01      		movw r14,r22
 9772 424e 8C01      		movw r16,r24
 9773               	.L450:
 9774 4250 B601      		movw r22,r12
 9775 4252 8827      		clr r24
 9776 4254 77FD      		sbrc r23,7
 9777 4256 8095      		com r24
 9778 4258 982F      		mov r25,r24
 9779 425a 0E94 0000 		call __floatsisf
 9780 425e A801      		movw r20,r16
 9781 4260 9701      		movw r18,r14
 9782 4262 0E94 0000 		call __subsf3
 9783 4266 0E94 0000 		call __fixsfsi
 9784 426a 7093 0000 		sts (sy)+1,r23
 9785 426e 6093 0000 		sts sy,r22
 9786 4272 00C0      		rjmp .L508
 9787               	.L447:
 9788               	.LM1304:
 9789 4274 8091 0000 		lds r24,aset
 9790 4278 0091 0000 		lds r16,x
 9791 427c 1091 0000 		lds r17,(x)+1
 9792 4280 4090 0000 		lds r4,z
 9793 4284 5090 0000 		lds r5,(z)+1
 9794 4288 8823      		tst r24
 9795 428a 01F4      		brne .+2
 9796 428c 00C0      		rjmp .L451
 9797               	.LM1305:
 9798 428e 6091 0000 		lds r22,mx
 9799 4292 7091 0000 		lds r23,(mx)+1
 9800 4296 7093 0000 		sts (mx0)+1,r23
 9801 429a 6093 0000 		sts mx0,r22
 9802               	.LM1306:
 9803 429e E090 0000 		lds r14,my
 9804 42a2 F090 0000 		lds r15,(my)+1
 9805 42a6 F092 0000 		sts (my0)+1,r15
 9806 42aa E092 0000 		sts my0,r14
 9807               	.LM1307:
 9808 42ae 8827      		clr r24
 9809 42b0 77FD      		sbrc r23,7
 9810 42b2 8095      		com r24
 9811 42b4 982F      		mov r25,r24
 9812 42b6 0E94 0000 		call __floatsisf
 9813 42ba 5B01      		movw r10,r22
 9814 42bc 6C01      		movw r12,r24
 9815 42be 8091 0000 		lds r24,xBase
 9816 42c2 9091 0000 		lds r25,(xBase)+1
 9817 42c6 081B      		sub r16,r24
 9818 42c8 190B      		sbc r17,r25
 9819 42ca B801      		movw r22,r16
 9820 42cc 8827      		clr r24
 9821 42ce 77FD      		sbrc r23,7
 9822 42d0 8095      		com r24
 9823 42d2 982F      		mov r25,r24
 9824 42d4 0E94 0000 		call __floatsisf
 9825 42d8 2091 0000 		lds r18,opt_mouse_scale_mode3
 9826 42dc 3091 0000 		lds r19,(opt_mouse_scale_mode3)+1
 9827 42e0 4091 0000 		lds r20,(opt_mouse_scale_mode3)+2
 9828 42e4 5091 0000 		lds r21,(opt_mouse_scale_mode3)+3
 9829 42e8 0E94 0000 		call __divsf3
 9830 42ec 9B01      		movw r18,r22
 9831 42ee AC01      		movw r20,r24
 9832 42f0 C601      		movw r24,r12
 9833 42f2 B501      		movw r22,r10
 9834 42f4 0E94 0000 		call __subsf3
 9835 42f8 0E94 0000 		call __fixsfsi
 9836 42fc 7093 0000 		sts (mx)+1,r23
 9837 4300 6093 0000 		sts mx,r22
 9838               	.LM1308:
 9839 4304 0027      		clr r16
 9840 4306 F7FC      		sbrc r15,7
 9841 4308 0095      		com r16
 9842 430a 102F      		mov r17,r16
 9843 430c C801      		movw r24,r16
 9844 430e B701      		movw r22,r14
 9845 4310 0E94 0000 		call __floatsisf
 9846 4314 7B01      		movw r14,r22
 9847 4316 8C01      		movw r16,r24
 9848 4318 80E0      		ldi r24,lo8(-256)
 9849 431a 9FEF      		ldi r25,hi8(-256)
 9850 431c 480E      		add r4,r24
 9851 431e 591E      		adc r5,r25
 9852 4320 8091 0000 		lds r24,zBase
 9853 4324 9091 0000 		lds r25,(zBase)+1
 9854 4328 481A      		sub r4,r24
 9855 432a 590A      		sbc r5,r25
 9856 432c B201      		movw r22,r4
 9857 432e 8827      		clr r24
 9858 4330 77FD      		sbrc r23,7
 9859 4332 8095      		com r24
 9860 4334 982F      		mov r25,r24
 9861 4336 0E94 0000 		call __floatsisf
 9862 433a 2091 0000 		lds r18,opt_mouse_scale_mode3+4
 9863 433e 3091 0000 		lds r19,(opt_mouse_scale_mode3+4)+1
 9864 4342 4091 0000 		lds r20,(opt_mouse_scale_mode3+4)+2
 9865 4346 5091 0000 		lds r21,(opt_mouse_scale_mode3+4)+3
 9866 434a 0E94 0000 		call __divsf3
 9867 434e 9B01      		movw r18,r22
 9868 4350 AC01      		movw r20,r24
 9869 4352 C801      		movw r24,r16
 9870 4354 B701      		movw r22,r14
 9871 4356 0E94 0000 		call __subsf3
 9872 435a 0E94 0000 		call __fixsfsi
 9873 435e 7093 0000 		sts (my)+1,r23
 9874 4362 6093 0000 		sts my,r22
 9875               	.L508:
 9876               	.LM1309:
 9877 4366 81E0      		ldi r24,lo8(1)
 9878 4368 8093 0000 		sts scrollMouse,r24
 9879 436c 00C0      		rjmp .L444
 9880               	.L451:
 9881               	.LM1310:
 9882 436e 1093 0000 		sts (xBase)+1,r17
 9883 4372 0093 0000 		sts xBase,r16
 9884               	.LM1311:
 9885 4376 8091 0000 		lds r24,y
 9886 437a 9091 0000 		lds r25,(y)+1
 9887 437e 9093 0000 		sts (yBase)+1,r25
 9888 4382 8093 0000 		sts yBase,r24
 9889               	.LM1312:
 9890 4386 A0E0      		ldi r26,lo8(-256)
 9891 4388 BFEF      		ldi r27,hi8(-256)
 9892 438a 4A0E      		add r4,r26
 9893 438c 5B1E      		adc r5,r27
 9894 438e 5092 0000 		sts (zBase)+1,r5
 9895 4392 4092 0000 		sts zBase,r4
 9896               	.LM1313:
 9897 4396 81E0      		ldi r24,lo8(1)
 9898 4398 8093 0000 		sts aset,r24
 9899               	.L444:
 9900               	.LM1314:
 9901 439c 4091 0000 		lds r20,mx
 9902 43a0 5091 0000 		lds r21,(mx)+1
 9903 43a4 8091 0000 		lds r24,mx0
 9904 43a8 9091 0000 		lds r25,(mx0)+1
 9905 43ac 481B      		sub r20,r24
 9906 43ae 590B      		sbc r21,r25
 9907 43b0 5093 0000 		sts (mdx)+1,r21
 9908 43b4 4093 0000 		sts mdx,r20
 9909               	.LM1315:
 9910 43b8 8091 0000 		lds r24,my
 9911 43bc 9091 0000 		lds r25,(my)+1
 9912 43c0 2091 0000 		lds r18,my0
 9913 43c4 3091 0000 		lds r19,(my0)+1
 9914 43c8 821B      		sub r24,r18
 9915 43ca 930B      		sbc r25,r19
 9916 43cc 9093 0000 		sts (mdy)+1,r25
 9917 43d0 8093 0000 		sts mdy,r24
 9918               	.LM1316:
 9919 43d4 8091 0000 		lds r24,mz
 9920 43d8 9091 0000 		lds r25,(mz)+1
 9921 43dc 2091 0000 		lds r18,mz0
 9922 43e0 3091 0000 		lds r19,(mz0)+1
 9923 43e4 821B      		sub r24,r18
 9924 43e6 930B      		sbc r25,r19
 9925 43e8 9093 0000 		sts (mdz)+1,r25
 9926 43ec 8093 0000 		sts mdz,r24
 9927               	.LM1317:
 9928 43f0 8091 0000 		lds r24,opt_mouse_invert_x
 9929 43f4 8130      		cpi r24,lo8(1)
 9930 43f6 01F4      		brne .L452
 9931 43f8 8827      		clr r24
 9932 43fa 9927      		clr r25
 9933 43fc 841B      		sub r24,r20
 9934 43fe 950B      		sbc r25,r21
 9935 4400 9093 0000 		sts (mdx)+1,r25
 9936 4404 8093 0000 		sts mdx,r24
 9937               	.L452:
 9938               	.LM1318:
 9939 4408 8091 0000 		lds r24,opt_mouse_invert_y
 9940 440c 8130      		cpi r24,lo8(1)
 9941 440e 01F4      		brne .L453
 9942 4410 8091 0000 		lds r24,mdy
 9943 4414 9091 0000 		lds r25,(mdy)+1
 9944 4418 9095      		com r25
 9945 441a 8195      		neg r24
 9946 441c 9F4F      		sbci r25,lo8(-1)
 9947 441e 9093 0000 		sts (mdy)+1,r25
 9948 4422 8093 0000 		sts mdy,r24
 9949               	.L453:
 9950               	.LM1319:
 9951 4426 8091 0000 		lds r24,opt_mouse_invert_z
 9952 442a 8130      		cpi r24,lo8(1)
 9953 442c 01F4      		brne .L454
 9954 442e 8091 0000 		lds r24,mdz
 9955 4432 9091 0000 		lds r25,(mdz)+1
 9956 4436 9095      		com r25
 9957 4438 8195      		neg r24
 9958 443a 9F4F      		sbci r25,lo8(-1)
 9959 443c 9093 0000 		sts (mdz)+1,r25
 9960 4440 8093 0000 		sts mdz,r24
 9961               	.L454:
 9962               	.LM1320:
 9963 4444 8091 0000 		lds r24,moveMouse
 9964 4448 8823      		tst r24
 9965 444a 01F0      		breq .L455
 9966 444c 8091 0000 		lds r24,opt_mouse_mode
 9967 4450 8823      		tst r24
 9968 4452 01F0      		breq .L455
 9969 4454 6091 0000 		lds r22,mdx
 9970 4458 7091 0000 		lds r23,(mdx)+1
 9971 445c 6115      		cp r22,__zero_reg__
 9972 445e 7105      		cpc r23,__zero_reg__
 9973 4460 01F4      		brne .L456
 9974 4462 8091 0000 		lds r24,mdy
 9975 4466 9091 0000 		lds r25,(mdy)+1
 9976 446a 892B      		or r24,r25
 9977 446c 01F4      		brne .L456
 9978 446e 8091 0000 		lds r24,mdz
 9979 4472 9091 0000 		lds r25,(mdz)+1
 9980 4476 892B      		or r24,r25
 9981 4478 01F0      		breq .L455
 9982               	.L456:
 9983               	.LM1321:
 9984 447a 2091 0000 		lds r18,mdz
 9985 447e 3091 0000 		lds r19,(mdz)+1
 9986 4482 1216      		cp __zero_reg__,r18
 9987 4484 1306      		cpc __zero_reg__,r19
 9988 4486 04F4      		brge .L457
 9989 4488 80E0      		ldi r24,lo8(Mouse)
 9990 448a 90E0      		ldi r25,hi8(Mouse)
 9991 448c 4091 0000 		lds r20,mdy
 9992 4490 0E94 0000 		call _ZN8USBMouse4moveEhhh
 9993 4494 00C0      		rjmp .L455
 9994               	.L457:
 9995               	.LM1322:
 9996 4496 80E0      		ldi r24,lo8(Mouse)
 9997 4498 90E0      		ldi r25,hi8(Mouse)
 9998 449a 4091 0000 		lds r20,mdy
 9999 449e 0E94 0000 		call _ZN8USBMouse4moveEhh
 10000               	.L455:
 10001               	.LM1323:
 10002 44a2 8091 0000 		lds r24,scrollMouse
 10003 44a6 8823      		tst r24
 10004 44a8 01F0      		breq .L385
 10005 44aa 8091 0000 		lds r24,opt_scroll_mode
 10006 44ae 8823      		tst r24
 10007 44b0 01F0      		breq .L385
 10008 44b2 6091 0000 		lds r22,sdy
 10009 44b6 7091 0000 		lds r23,(sdy)+1
 10010 44ba 6115      		cp r22,__zero_reg__
 10011 44bc 7105      		cpc r23,__zero_reg__
 10012 44be 01F0      		breq .L385
 10013               	.LM1324:
 10014 44c0 80E0      		ldi r24,lo8(Mouse)
 10015 44c2 90E0      		ldi r25,hi8(Mouse)
 10016 44c4 0E94 0000 		call _ZN8USBMouse6scrollEh
 10017               	.L385:
 10018               	.LM1325:
 10019 44c8 1092 0000 		sts detect1,__zero_reg__
 10020 44cc 1092 0000 		sts (detect1)+1,__zero_reg__
 10021 44d0 1092 0000 		sts (detect1)+2,__zero_reg__
 10022 44d4 1092 0000 		sts (detect1)+3,__zero_reg__
 10023               	.LM1326:
 10024 44d8 1092 0000 		sts detect2,__zero_reg__
 10025 44dc 1092 0000 		sts (detect2)+1,__zero_reg__
 10026 44e0 1092 0000 		sts (detect2)+2,__zero_reg__
 10027 44e4 1092 0000 		sts (detect2)+3,__zero_reg__
 10028               	.LM1327:
 10029 44e8 1092 0000 		sts removing,__zero_reg__
 10030               	.LM1328:
 10031 44ec 1092 0000 		sts i,__zero_reg__
 10032 44f0 1092 0000 		sts (i)+1,__zero_reg__
 10033 44f4 1092 0000 		sts (i)+2,__zero_reg__
 10034 44f8 1092 0000 		sts (i)+3,__zero_reg__
 10035               	.LBB752:
 10036               	.LM1329:
 10037 44fc 11E0      		ldi r17,lo8(1)
 10038 44fe C12E      		mov r12,r17
 10039 4500 D12C      		mov r13,__zero_reg__
 10040 4502 E12C      		mov r14,__zero_reg__
 10041 4504 F12C      		mov r15,__zero_reg__
 10042 4506 00C0      		rjmp .L458
 10043               	.LVL404:
 10044               	.L461:
 10045               	.LM1330:
 10046 4508 FC01      		movw r30,r24
 10047 450a EE0F      		lsl r30
 10048 450c FF1F      		rol r31
 10049 450e EE0F      		lsl r30
 10050 4510 FF1F      		rol r31
 10051 4512 DF01      		movw r26,r30
 10052 4514 A050      		subi r26,lo8(-(combinations+2))
 10053 4516 B040      		sbci r27,hi8(-(combinations+2))
 10054 4518 0C91      		ld r16,X
 10055               	.LM1331:
 10056 451a E050      		subi r30,lo8(-(combinations))
 10057 451c F040      		sbci r31,hi8(-(combinations))
 10058 451e 1081      		ld r17,Z
 10059 4520 812F      		mov r24,r17
 10060 4522 61E0      		ldi r22,lo8(1)
 10061 4524 0E94 0000 		call pinMode
 10062               	.LM1332:
 10063 4528 812F      		mov r24,r17
 10064 452a 60E0      		ldi r22,lo8(0)
 10065 452c 0E94 0000 		call digitalWrite
 10066               	.LM1333:
 10067 4530 8091 0000 		lds r24,i
 10068 4534 9091 0000 		lds r25,(i)+1
 10069 4538 A091 0000 		lds r26,(i)+2
 10070 453c B091 0000 		lds r27,(i)+3
 10071 4540 8097      		sbiw r24,32
 10072 4542 A105      		cpc r26,__zero_reg__
 10073 4544 B105      		cpc r27,__zero_reg__
 10074 4546 04F4      		brge .L459
 10075               	.LM1334:
 10076 4548 802F      		mov r24,r16
 10077 454a 0E94 0000 		call digitalRead
 10078 454e 892B      		or r24,r25
 10079 4550 01F0      		breq .+2
 10080 4552 00C0      		rjmp .L460
 10081 4554 A701      		movw r20,r14
 10082 4556 9601      		movw r18,r12
 10083 4558 0090 0000 		lds r0,i
 10084 455c 00C0      		rjmp 2f
 10085 455e 220F      	1:	lsl r18
 10086 4560 331F      		rol r19
 10087 4562 441F      		rol r20
 10088 4564 551F      		rol r21
 10089 4566 0A94      	2:	dec r0
 10090 4568 02F4      		brpl 1b
 10091 456a 8091 0000 		lds r24,detect1
 10092 456e 9091 0000 		lds r25,(detect1)+1
 10093 4572 A091 0000 		lds r26,(detect1)+2
 10094 4576 B091 0000 		lds r27,(detect1)+3
 10095 457a 822B      		or r24,r18
 10096 457c 932B      		or r25,r19
 10097 457e A42B      		or r26,r20
 10098 4580 B52B      		or r27,r21
 10099 4582 8093 0000 		sts detect1,r24
 10100 4586 9093 0000 		sts (detect1)+1,r25
 10101 458a A093 0000 		sts (detect1)+2,r26
 10102 458e B093 0000 		sts (detect1)+3,r27
 10103 4592 00C0      		rjmp .L460
 10104               	.L459:
 10105               	.LM1335:
 10106 4594 802F      		mov r24,r16
 10107 4596 0E94 0000 		call digitalRead
 10108 459a 892B      		or r24,r25
 10109 459c 01F4      		brne .L460
 10110 459e 2091 0000 		lds r18,i
 10111 45a2 3091 0000 		lds r19,(i)+1
 10112 45a6 2052      		subi r18,lo8(-(-32))
 10113 45a8 3040      		sbci r19,hi8(-(-32))
 10114 45aa D701      		movw r26,r14
 10115 45ac C601      		movw r24,r12
 10116 45ae 00C0      		rjmp 2f
 10117 45b0 880F      	1:	lsl r24
 10118 45b2 991F      		rol r25
 10119 45b4 AA1F      		rol r26
 10120 45b6 BB1F      		rol r27
 10121 45b8 2A95      	2:	dec r18
 10122 45ba 02F4      		brpl 1b
 10123 45bc 9C01      		movw r18,r24
 10124 45be AD01      		movw r20,r26
 10125 45c0 8091 0000 		lds r24,detect2
 10126 45c4 9091 0000 		lds r25,(detect2)+1
 10127 45c8 A091 0000 		lds r26,(detect2)+2
 10128 45cc B091 0000 		lds r27,(detect2)+3
 10129 45d0 822B      		or r24,r18
 10130 45d2 932B      		or r25,r19
 10131 45d4 A42B      		or r26,r20
 10132 45d6 B52B      		or r27,r21
 10133 45d8 8093 0000 		sts detect2,r24
 10134 45dc 9093 0000 		sts (detect2)+1,r25
 10135 45e0 A093 0000 		sts (detect2)+2,r26
 10136 45e4 B093 0000 		sts (detect2)+3,r27
 10137               	.L460:
 10138               	.LM1336:
 10139 45e8 812F      		mov r24,r17
 10140 45ea 60E0      		ldi r22,lo8(0)
 10141 45ec 0E94 0000 		call pinMode
 10142               	.LM1337:
 10143 45f0 812F      		mov r24,r17
 10144 45f2 61E0      		ldi r22,lo8(1)
 10145 45f4 0E94 0000 		call digitalWrite
 10146               	.LBE752:
 10147               	.LM1338:
 10148 45f8 8091 0000 		lds r24,i
 10149 45fc 9091 0000 		lds r25,(i)+1
 10150 4600 A091 0000 		lds r26,(i)+2
 10151 4604 B091 0000 		lds r27,(i)+3
 10152 4608 0196      		adiw r24,1
 10153 460a A11D      		adc r26,__zero_reg__
 10154 460c B11D      		adc r27,__zero_reg__
 10155 460e 8093 0000 		sts i,r24
 10156 4612 9093 0000 		sts (i)+1,r25
 10157 4616 A093 0000 		sts (i)+2,r26
 10158 461a B093 0000 		sts (i)+3,r27
 10159               	.L458:
 10160 461e 8091 0000 		lds r24,i
 10161 4622 9091 0000 		lds r25,(i)+1
 10162 4626 A091 0000 		lds r26,(i)+2
 10163 462a B091 0000 		lds r27,(i)+3
 10164 462e 8C33      		cpi r24,lo8(60)
 10165 4630 9105      		cpc r25,__zero_reg__
 10166 4632 A105      		cpc r26,__zero_reg__
 10167 4634 B105      		cpc r27,__zero_reg__
 10168 4636 04F4      		brge .+2
 10169 4638 00C0      		rjmp .L461
 10170               	.LM1339:
 10171 463a E090 0000 		lds r14,verify1
 10172 463e F090 0000 		lds r15,(verify1)+1
 10173 4642 0091 0000 		lds r16,(verify1)+2
 10174 4646 1091 0000 		lds r17,(verify1)+3
 10175 464a 8091 0000 		lds r24,detect1
 10176 464e 9091 0000 		lds r25,(detect1)+1
 10177 4652 A091 0000 		lds r26,(detect1)+2
 10178 4656 B091 0000 		lds r27,(detect1)+3
 10179 465a E816      		cp r14,r24
 10180 465c F906      		cpc r15,r25
 10181 465e 0A07      		cpc r16,r26
 10182 4660 1B07      		cpc r17,r27
 10183 4662 01F4      		brne .L462
 10184 4664 2091 0000 		lds r18,verify2
 10185 4668 3091 0000 		lds r19,(verify2)+1
 10186 466c 4091 0000 		lds r20,(verify2)+2
 10187 4670 5091 0000 		lds r21,(verify2)+3
 10188 4674 8091 0000 		lds r24,detect2
 10189 4678 9091 0000 		lds r25,(detect2)+1
 10190 467c A091 0000 		lds r26,(detect2)+2
 10191 4680 B091 0000 		lds r27,(detect2)+3
 10192 4684 2817      		cp r18,r24
 10193 4686 3907      		cpc r19,r25
 10194 4688 4A07      		cpc r20,r26
 10195 468a 5B07      		cpc r21,r27
 10196 468c 01F0      		breq .L463
 10197               	.L462:
 10198               	.LM1340:
 10199 468e 0E94 0000 		call millis
 10200 4692 6093 0000 		sts touchTime,r22
 10201 4696 7093 0000 		sts (touchTime)+1,r23
 10202 469a 8093 0000 		sts (touchTime)+2,r24
 10203 469e 9093 0000 		sts (touchTime)+3,r25
 10204 46a2 00C0      		rjmp .L464
 10205               	.L463:
 10206               	.LM1341:
 10207 46a4 8091 0000 		lds r24,sensors1
 10208 46a8 9091 0000 		lds r25,(sensors1)+1
 10209 46ac A091 0000 		lds r26,(sensors1)+2
 10210 46b0 B091 0000 		lds r27,(sensors1)+3
 10211 46b4 E816      		cp r14,r24
 10212 46b6 F906      		cpc r15,r25
 10213 46b8 0A07      		cpc r16,r26
 10214 46ba 1B07      		cpc r17,r27
 10215 46bc 01F4      		brne .L465
 10216 46be 8091 0000 		lds r24,sensors2
 10217 46c2 9091 0000 		lds r25,(sensors2)+1
 10218 46c6 A091 0000 		lds r26,(sensors2)+2
 10219 46ca B091 0000 		lds r27,(sensors2)+3
 10220 46ce 2817      		cp r18,r24
 10221 46d0 3907      		cpc r19,r25
 10222 46d2 4A07      		cpc r20,r26
 10223 46d4 5B07      		cpc r21,r27
 10224 46d6 01F4      		brne .+2
 10225 46d8 00C0      		rjmp .L464
 10226               	.L465:
 10227 46da 0E94 0000 		call millis
 10228 46de 2091 0000 		lds r18,touchTime
 10229 46e2 3091 0000 		lds r19,(touchTime)+1
 10230 46e6 4091 0000 		lds r20,(touchTime)+2
 10231 46ea 5091 0000 		lds r21,(touchTime)+3
 10232 46ee 621B      		sub r22,r18
 10233 46f0 730B      		sbc r23,r19
 10234 46f2 840B      		sbc r24,r20
 10235 46f4 950B      		sbc r25,r21
 10236 46f6 2091 0000 		lds r18,opt_touch_detect_threshold
 10237 46fa 3091 0000 		lds r19,(opt_touch_detect_threshold)+1
 10238 46fe 40E0      		ldi r20,lo8(0)
 10239 4700 50E0      		ldi r21,hi8(0)
 10240 4702 6217      		cp r22,r18
 10241 4704 7307      		cpc r23,r19
 10242 4706 8407      		cpc r24,r20
 10243 4708 9507      		cpc r25,r21
 10244 470a 00F4      		brsh .+2
 10245 470c 00C0      		rjmp .L464
 10246               	.LM1342:
 10247 470e 80E0      		ldi r24,lo8(Serial)
 10248 4710 90E0      		ldi r25,hi8(Serial)
 10249 4712 60E0      		ldi r22,lo8(.LC22)
 10250 4714 70E0      		ldi r23,hi8(.LC22)
 10251 4716 0E94 0000 		call _ZN16USBVirtualSerial5printEPKc
 10252               	.LM1343:
 10253 471a 1092 0000 		sts i,__zero_reg__
 10254 471e 1092 0000 		sts (i)+1,__zero_reg__
 10255 4722 1092 0000 		sts (i)+2,__zero_reg__
 10256 4726 1092 0000 		sts (i)+3,__zero_reg__
 10257 472a 00C0      		rjmp .L466
 10258               	.L469:
 10259               	.LM1344:
 10260 472c 8032      		cpi r24,lo8(32)
 10261 472e 9105      		cpc r25,__zero_reg__
 10262 4730 A105      		cpc r26,__zero_reg__
 10263 4732 B105      		cpc r27,__zero_reg__
 10264 4734 04F4      		brge .L467
 10265 4736 4091 0000 		lds r20,detect1
 10266 473a 5091 0000 		lds r21,(detect1)+1
 10267 473e 6091 0000 		lds r22,(detect1)+2
 10268 4742 7091 0000 		lds r23,(detect1)+3
 10269 4746 00C0      		rjmp .L509
 10270               	.L467:
 10271               	.LM1345:
 10272 4748 8097      		sbiw r24,32
 10273 474a 4091 0000 		lds r20,detect2
 10274 474e 5091 0000 		lds r21,(detect2)+1
 10275 4752 6091 0000 		lds r22,(detect2)+2
 10276 4756 7091 0000 		lds r23,(detect2)+3
 10277               	.L509:
 10278 475a 00C0      		rjmp 2f
 10279 475c 7695      	1:	lsr r23
 10280 475e 6795      		ror r22
 10281 4760 5795      		ror r21
 10282 4762 4795      		ror r20
 10283 4764 8A95      	2:	dec r24
 10284 4766 02F4      		brpl 1b
 10285 4768 4170      		andi r20,lo8(1)
 10286 476a 5070      		andi r21,hi8(1)
 10287 476c 6070      		andi r22,hlo8(1)
 10288 476e 7070      		andi r23,hhi8(1)
 10289 4770 80E0      		ldi r24,lo8(Serial)
 10290 4772 90E0      		ldi r25,hi8(Serial)
 10291 4774 0E94 0000 		call _ZN16USBVirtualSerial5printEm
 10292               	.LM1346:
 10293 4778 8091 0000 		lds r24,i
 10294 477c 9091 0000 		lds r25,(i)+1
 10295 4780 A091 0000 		lds r26,(i)+2
 10296 4784 B091 0000 		lds r27,(i)+3
 10297 4788 0196      		adiw r24,1
 10298 478a A11D      		adc r26,__zero_reg__
 10299 478c B11D      		adc r27,__zero_reg__
 10300 478e 8093 0000 		sts i,r24
 10301 4792 9093 0000 		sts (i)+1,r25
 10302 4796 A093 0000 		sts (i)+2,r26
 10303 479a B093 0000 		sts (i)+3,r27
 10304               	.L466:
 10305 479e 8091 0000 		lds r24,i
 10306 47a2 9091 0000 		lds r25,(i)+1
 10307 47a6 A091 0000 		lds r26,(i)+2
 10308 47aa B091 0000 		lds r27,(i)+3
 10309 47ae 8C33      		cpi r24,lo8(60)
 10310 47b0 9105      		cpc r25,__zero_reg__
 10311 47b2 A105      		cpc r26,__zero_reg__
 10312 47b4 B105      		cpc r27,__zero_reg__
 10313 47b6 04F4      		brge .+2
 10314 47b8 00C0      		rjmp .L469
 10315               	.LM1347:
 10316 47ba 80E0      		ldi r24,lo8(Serial)
 10317 47bc 90E0      		ldi r25,hi8(Serial)
 10318 47be 60E0      		ldi r22,lo8(.LC23)
 10319 47c0 70E0      		ldi r23,hi8(.LC23)
 10320 47c2 0E94 0000 		call _ZN16USBVirtualSerial5printEPKc
 10321               	.LM1348:
 10322 47c6 6090 0000 		lds r6,verify1
 10323 47ca 7090 0000 		lds r7,(verify1)+1
 10324 47ce 8090 0000 		lds r8,(verify1)+2
 10325 47d2 9090 0000 		lds r9,(verify1)+3
 10326 47d6 A090 0000 		lds r10,sensors1
 10327 47da B090 0000 		lds r11,(sensors1)+1
 10328 47de C090 0000 		lds r12,(sensors1)+2
 10329 47e2 D090 0000 		lds r13,(sensors1)+3
 10330 47e6 A614      		cp r10,r6
 10331 47e8 B704      		cpc r11,r7
 10332 47ea C804      		cpc r12,r8
 10333 47ec D904      		cpc r13,r9
 10334 47ee 00F0      		brlo .L470
 10335 47f0 E090 0000 		lds r14,verify2
 10336 47f4 F090 0000 		lds r15,(verify2)+1
 10337 47f8 0091 0000 		lds r16,(verify2)+2
 10338 47fc 1091 0000 		lds r17,(verify2)+3
 10339 4800 2091 0000 		lds r18,sensors2
 10340 4804 3091 0000 		lds r19,(sensors2)+1
 10341 4808 4091 0000 		lds r20,(sensors2)+2
 10342 480c 5091 0000 		lds r21,(sensors2)+3
 10343 4810 2E15      		cp r18,r14
 10344 4812 3F05      		cpc r19,r15
 10345 4814 4007      		cpc r20,r16
 10346 4816 5107      		cpc r21,r17
 10347 4818 00F4      		brsh .L471
 10348               	.L470:
 10349               	.LM1349:
 10350 481a 81E0      		ldi r24,lo8(1)
 10351 481c 8093 0000 		sts adding,r24
 10352               	.LM1350:
 10353 4820 6091 0000 		lds r22,verify1
 10354 4824 7091 0000 		lds r23,(verify1)+1
 10355 4828 8091 0000 		lds r24,(verify1)+2
 10356 482c 9091 0000 		lds r25,(verify1)+3
 10357 4830 2091 0000 		lds r18,verify2
 10358 4834 3091 0000 		lds r19,(verify2)+1
 10359 4838 4091 0000 		lds r20,(verify2)+2
 10360 483c 5091 0000 		lds r21,(verify2)+3
 10361 4840 01E0      		ldi r16,lo8(1)
 10362 4842 10E0      		ldi r17,hi8(1)
 10363               	.LVL405:
 10364 4844 0E94 0000 		call _Z19check_sensors_touchmmi
 10365 4848 00C0      		rjmp .L472
 10366               	.LVL406:
 10367               	.L471:
 10368               	.LM1351:
 10369 484a 8091 0000 		lds r24,adding
 10370 484e 8823      		tst r24
 10371 4850 01F0      		breq .L472
 10372 4852 6A14      		cp r6,r10
 10373 4854 7B04      		cpc r7,r11
 10374 4856 8C04      		cpc r8,r12
 10375 4858 9D04      		cpc r9,r13
 10376 485a 00F0      		brlo .L473
 10377 485c E216      		cp r14,r18
 10378 485e F306      		cpc r15,r19
 10379 4860 0407      		cpc r16,r20
 10380 4862 1507      		cpc r17,r21
 10381 4864 00F4      		brsh .L472
 10382               	.L473:
 10383               	.LM1352:
 10384 4866 1092 0000 		sts adding,__zero_reg__
 10385               	.LM1353:
 10386 486a 81E0      		ldi r24,lo8(1)
 10387 486c 8093 0000 		sts removing,r24
 10388               	.LM1354:
 10389 4870 6091 0000 		lds r22,sensors1
 10390 4874 7091 0000 		lds r23,(sensors1)+1
 10391 4878 8091 0000 		lds r24,(sensors1)+2
 10392 487c 9091 0000 		lds r25,(sensors1)+3
 10393 4880 2091 0000 		lds r18,sensors2
 10394 4884 3091 0000 		lds r19,(sensors2)+1
 10395 4888 4091 0000 		lds r20,(sensors2)+2
 10396 488c 5091 0000 		lds r21,(sensors2)+3
 10397 4890 01E0      		ldi r16,lo8(1)
 10398 4892 10E0      		ldi r17,hi8(1)
 10399               	.LVL407:
 10400 4894 0E94 0000 		call _Z21check_sensors_releasemmi
 10401               	.LVL408:
 10402               	.L472:
 10403               	.LM1355:
 10404 4898 8091 0000 		lds r24,verify1
 10405 489c 9091 0000 		lds r25,(verify1)+1
 10406 48a0 A091 0000 		lds r26,(verify1)+2
 10407 48a4 B091 0000 		lds r27,(verify1)+3
 10408 48a8 8093 0000 		sts sensors1,r24
 10409 48ac 9093 0000 		sts (sensors1)+1,r25
 10410 48b0 A093 0000 		sts (sensors1)+2,r26
 10411 48b4 B093 0000 		sts (sensors1)+3,r27
 10412               	.LM1356:
 10413 48b8 8091 0000 		lds r24,verify2
 10414 48bc 9091 0000 		lds r25,(verify2)+1
 10415 48c0 A091 0000 		lds r26,(verify2)+2
 10416 48c4 B091 0000 		lds r27,(verify2)+3
 10417 48c8 8093 0000 		sts sensors2,r24
 10418 48cc 9093 0000 		sts (sensors2)+1,r25
 10419 48d0 A093 0000 		sts (sensors2)+2,r26
 10420 48d4 B093 0000 		sts (sensors2)+3,r27
 10421               	.L464:
 10422               	.LM1357:
 10423 48d8 8091 0000 		lds r24,detect1
 10424 48dc 9091 0000 		lds r25,(detect1)+1
 10425 48e0 A091 0000 		lds r26,(detect1)+2
 10426 48e4 B091 0000 		lds r27,(detect1)+3
 10427 48e8 8093 0000 		sts verify1,r24
 10428 48ec 9093 0000 		sts (verify1)+1,r25
 10429 48f0 A093 0000 		sts (verify1)+2,r26
 10430 48f4 B093 0000 		sts (verify1)+3,r27
 10431               	.LM1358:
 10432 48f8 8091 0000 		lds r24,detect2
 10433 48fc 9091 0000 		lds r25,(detect2)+1
 10434 4900 A091 0000 		lds r26,(detect2)+2
 10435 4904 B091 0000 		lds r27,(detect2)+3
 10436 4908 8093 0000 		sts verify2,r24
 10437 490c 9093 0000 		sts (verify2)+1,r25
 10438 4910 A093 0000 		sts (verify2)+2,r26
 10439 4914 B093 0000 		sts (verify2)+3,r27
 10440               	.LM1359:
 10441 4918 2091 0000 		lds r18,counter
 10442 491c 3091 0000 		lds r19,(counter)+1
 10443 4920 2F5F      		subi r18,lo8(-(1))
 10444 4922 3F4F      		sbci r19,hi8(-(1))
 10445 4924 3093 0000 		sts (counter)+1,r19
 10446 4928 2093 0000 		sts counter,r18
 10447               	.LM1360:
 10448 492c E091 0000 		lds r30,tricolorBlinkRed
 10449 4930 F091 0000 		lds r31,(tricolorBlinkRed)+1
 10450 4934 E130      		cpi r30,1
 10451 4936 F105      		cpc r31,__zero_reg__
 10452 4938 01F4      		brne .L474
 10453 493a C901      		movw r24,r18
 10454 493c 64EF      		ldi r22,lo8(500)
 10455 493e 71E0      		ldi r23,hi8(500)
 10456 4940 0E94 0000 		call __divmodhi4
 10457 4944 892B      		or r24,r25
 10458 4946 01F4      		brne .L474
 10459 4948 40E0      		ldi r20,lo8(0)
 10460 494a C901      		movw r24,r18
 10461 494c 68EE      		ldi r22,lo8(1000)
 10462 494e 73E0      		ldi r23,hi8(1000)
 10463 4950 0E94 0000 		call __divmodhi4
 10464 4954 845F      		subi r24,lo8(500)
 10465 4956 9140      		sbci r25,hi8(500)
 10466 4958 04F4      		brge .L481
 10467 495a 00C0      		rjmp .L515
 10468               	.L474:
 10469               	.LM1361:
 10470 495c E230      		cpi r30,2
 10471 495e F105      		cpc r31,__zero_reg__
 10472 4960 01F4      		brne .L477
 10473 4962 C901      		movw r24,r18
 10474 4964 64E6      		ldi r22,lo8(100)
 10475 4966 70E0      		ldi r23,hi8(100)
 10476 4968 0E94 0000 		call __divmodhi4
 10477 496c 892B      		or r24,r25
 10478 496e 01F4      		brne .L477
 10479 4970 40E0      		ldi r20,lo8(0)
 10480 4972 C901      		movw r24,r18
 10481 4974 68EE      		ldi r22,lo8(1000)
 10482 4976 73E0      		ldi r23,hi8(1000)
 10483 4978 0E94 0000 		call __divmodhi4
 10484 497c 8436      		cpi r24,100
 10485 497e 9105      		cpc r25,__zero_reg__
 10486 4980 04F4      		brge .L481
 10487 4982 00C0      		rjmp .L515
 10488               	.L477:
 10489               	.LM1362:
 10490 4984 E330      		cpi r30,3
 10491 4986 F105      		cpc r31,__zero_reg__
 10492 4988 01F4      		brne .L479
 10493 498a C901      		movw r24,r18
 10494 498c 62E3      		ldi r22,lo8(50)
 10495 498e 70E0      		ldi r23,hi8(50)
 10496 4990 0E94 0000 		call __divmodhi4
 10497 4994 892B      		or r24,r25
 10498 4996 01F4      		brne .L479
 10499 4998 40E0      		ldi r20,lo8(0)
 10500 499a C901      		movw r24,r18
 10501 499c 64E6      		ldi r22,lo8(100)
 10502 499e 70E0      		ldi r23,hi8(100)
 10503 49a0 0E94 0000 		call __divmodhi4
 10504 49a4 C297      		sbiw r24,50
 10505 49a6 04F4      		brge .L481
 10506 49a8 00C0      		rjmp .L515
 10507               	.L479:
 10508               	.LM1363:
 10509 49aa 3497      		sbiw r30,4
 10510 49ac 01F4      		brne .L476
 10511 49ae C901      		movw r24,r18
 10512 49b0 6AE0      		ldi r22,lo8(10)
 10513 49b2 70E0      		ldi r23,hi8(10)
 10514 49b4 0E94 0000 		call __divmodhi4
 10515 49b8 892B      		or r24,r25
 10516 49ba 01F4      		brne .L476
 10517 49bc 40E0      		ldi r20,lo8(0)
 10518 49be C901      		movw r24,r18
 10519 49c0 64E6      		ldi r22,lo8(100)
 10520 49c2 70E0      		ldi r23,hi8(100)
 10521 49c4 0E94 0000 		call __divmodhi4
 10522 49c8 0A97      		sbiw r24,10
 10523 49ca 04F4      		brge .L481
 10524               	.L515:
 10525 49cc 41E0      		ldi r20,lo8(1)
 10526               	.L481:
 10527 49ce 842F      		mov r24,r20
 10528 49d0 6FEF      		ldi r22,lo8(-1)
 10529 49d2 4FEF      		ldi r20,lo8(-1)
 10530 49d4 0E94 0000 		call _Z8tricolorhhh
 10531               	.L476:
 10532               	.LM1364:
 10533 49d8 2091 0000 		lds r18,tricolorBlinkGreen
 10534 49dc 3091 0000 		lds r19,(tricolorBlinkGreen)+1
 10535 49e0 2130      		cpi r18,1
 10536 49e2 3105      		cpc r19,__zero_reg__
 10537 49e4 01F4      		brne .L482
 10538 49e6 E091 0000 		lds r30,counter
 10539 49ea F091 0000 		lds r31,(counter)+1
 10540 49ee CF01      		movw r24,r30
 10541 49f0 64EF      		ldi r22,lo8(500)
 10542 49f2 71E0      		ldi r23,hi8(500)
 10543 49f4 0E94 0000 		call __divmodhi4
 10544 49f8 892B      		or r24,r25
 10545 49fa 01F4      		brne .L482
 10546 49fc 20E0      		ldi r18,lo8(0)
 10547 49fe CF01      		movw r24,r30
 10548 4a00 68EE      		ldi r22,lo8(1000)
 10549 4a02 73E0      		ldi r23,hi8(1000)
 10550 4a04 0E94 0000 		call __divmodhi4
 10551 4a08 845F      		subi r24,lo8(500)
 10552 4a0a 9140      		sbci r25,hi8(500)
 10553 4a0c 04F4      		brge .L488
 10554 4a0e 00C0      		rjmp .L519
 10555               	.L482:
 10556               	.LM1365:
 10557 4a10 2330      		cpi r18,3
 10558 4a12 3105      		cpc r19,__zero_reg__
 10559 4a14 01F4      		brne .L485
 10560 4a16 E091 0000 		lds r30,counter
 10561 4a1a F091 0000 		lds r31,(counter)+1
 10562 4a1e CF01      		movw r24,r30
 10563 4a20 64E6      		ldi r22,lo8(100)
 10564 4a22 70E0      		ldi r23,hi8(100)
 10565 4a24 0E94 0000 		call __divmodhi4
 10566 4a28 892B      		or r24,r25
 10567 4a2a 01F4      		brne .L485
 10568 4a2c 20E0      		ldi r18,lo8(0)
 10569 4a2e CF01      		movw r24,r30
 10570 4a30 68EE      		ldi r22,lo8(1000)
 10571 4a32 73E0      		ldi r23,hi8(1000)
 10572 4a34 0E94 0000 		call __divmodhi4
 10573 4a38 8436      		cpi r24,100
 10574 4a3a 9105      		cpc r25,__zero_reg__
 10575 4a3c 04F4      		brge .L488
 10576 4a3e 00C0      		rjmp .L519
 10577               	.L485:
 10578               	.LM1366:
 10579 4a40 2230      		cpi r18,2
 10580 4a42 3105      		cpc r19,__zero_reg__
 10581 4a44 01F4      		brne .L487
 10582 4a46 E091 0000 		lds r30,counter
 10583 4a4a F091 0000 		lds r31,(counter)+1
 10584 4a4e CF01      		movw r24,r30
 10585 4a50 62E3      		ldi r22,lo8(50)
 10586 4a52 70E0      		ldi r23,hi8(50)
 10587 4a54 0E94 0000 		call __divmodhi4
 10588 4a58 892B      		or r24,r25
 10589 4a5a 01F4      		brne .L487
 10590 4a5c 20E0      		ldi r18,lo8(0)
 10591 4a5e CF01      		movw r24,r30
 10592 4a60 64E6      		ldi r22,lo8(100)
 10593 4a62 70E0      		ldi r23,hi8(100)
 10594 4a64 0E94 0000 		call __divmodhi4
 10595 4a68 C297      		sbiw r24,50
 10596 4a6a 04F4      		brge .L488
 10597               	.L519:
 10598 4a6c 21E0      		ldi r18,lo8(1)
 10599               	.L488:
 10600 4a6e 8FEF      		ldi r24,lo8(-1)
 10601 4a70 622F      		mov r22,r18
 10602 4a72 00C0      		rjmp .L510
 10603               	.L487:
 10604               	.LM1367:
 10605 4a74 2430      		cpi r18,4
 10606 4a76 3105      		cpc r19,__zero_reg__
 10607 4a78 01F4      		brne .L484
 10608 4a7a 2091 0000 		lds r18,counter
 10609 4a7e 3091 0000 		lds r19,(counter)+1
 10610 4a82 C901      		movw r24,r18
 10611 4a84 6AE0      		ldi r22,lo8(10)
 10612 4a86 70E0      		ldi r23,hi8(10)
 10613 4a88 0E94 0000 		call __divmodhi4
 10614 4a8c 892B      		or r24,r25
 10615 4a8e 01F4      		brne .L484
 10616 4a90 40E0      		ldi r20,lo8(0)
 10617 4a92 C901      		movw r24,r18
 10618 4a94 64E6      		ldi r22,lo8(100)
 10619 4a96 70E0      		ldi r23,hi8(100)
 10620 4a98 0E94 0000 		call __divmodhi4
 10621 4a9c 0A97      		sbiw r24,10
 10622 4a9e 04F4      		brge .L489
 10623 4aa0 41E0      		ldi r20,lo8(1)
 10624               	.L489:
 10625 4aa2 8FEF      		ldi r24,lo8(-1)
 10626 4aa4 642F      		mov r22,r20
 10627               	.L510:
 10628 4aa6 4FEF      		ldi r20,lo8(-1)
 10629 4aa8 0E94 0000 		call _Z8tricolorhhh
 10630               	.L484:
 10631               	.LM1368:
 10632 4aac 2091 0000 		lds r18,tricolorBlinkBlue
 10633 4ab0 3091 0000 		lds r19,(tricolorBlinkBlue)+1
 10634 4ab4 2130      		cpi r18,1
 10635 4ab6 3105      		cpc r19,__zero_reg__
 10636 4ab8 01F4      		brne .L490
 10637 4aba E091 0000 		lds r30,counter
 10638 4abe F091 0000 		lds r31,(counter)+1
 10639 4ac2 CF01      		movw r24,r30
 10640 4ac4 64EF      		ldi r22,lo8(500)
 10641 4ac6 71E0      		ldi r23,hi8(500)
 10642 4ac8 0E94 0000 		call __divmodhi4
 10643 4acc 892B      		or r24,r25
 10644 4ace 01F4      		brne .L490
 10645 4ad0 40E0      		ldi r20,lo8(0)
 10646 4ad2 CF01      		movw r24,r30
 10647 4ad4 68EE      		ldi r22,lo8(1000)
 10648 4ad6 73E0      		ldi r23,hi8(1000)
 10649 4ad8 0E94 0000 		call __divmodhi4
 10650 4adc 845F      		subi r24,lo8(500)
 10651 4ade 9140      		sbci r25,hi8(500)
 10652 4ae0 04F0      		brlt .+2
 10653 4ae2 00C0      		rjmp .L497
 10654 4ae4 00C0      		rjmp .L516
 10655               	.L490:
 10656               	.LM1369:
 10657 4ae6 2230      		cpi r18,2
 10658 4ae8 3105      		cpc r19,__zero_reg__
 10659 4aea 01F4      		brne .L493
 10660 4aec E091 0000 		lds r30,counter
 10661 4af0 F091 0000 		lds r31,(counter)+1
 10662 4af4 CF01      		movw r24,r30
 10663 4af6 64E6      		ldi r22,lo8(100)
 10664 4af8 70E0      		ldi r23,hi8(100)
 10665 4afa 0E94 0000 		call __divmodhi4
 10666 4afe 892B      		or r24,r25
 10667 4b00 01F4      		brne .L493
 10668 4b02 40E0      		ldi r20,lo8(0)
 10669 4b04 CF01      		movw r24,r30
 10670 4b06 68EE      		ldi r22,lo8(1000)
 10671 4b08 73E0      		ldi r23,hi8(1000)
 10672 4b0a 0E94 0000 		call __divmodhi4
 10673 4b0e 8436      		cpi r24,100
 10674 4b10 9105      		cpc r25,__zero_reg__
 10675 4b12 04F4      		brge .L497
 10676 4b14 00C0      		rjmp .L516
 10677               	.L493:
 10678               	.LM1370:
 10679 4b16 2330      		cpi r18,3
 10680 4b18 3105      		cpc r19,__zero_reg__
 10681 4b1a 01F4      		brne .L495
 10682 4b1c E091 0000 		lds r30,counter
 10683 4b20 F091 0000 		lds r31,(counter)+1
 10684 4b24 CF01      		movw r24,r30
 10685 4b26 62E3      		ldi r22,lo8(50)
 10686 4b28 70E0      		ldi r23,hi8(50)
 10687 4b2a 0E94 0000 		call __divmodhi4
 10688 4b2e 892B      		or r24,r25
 10689 4b30 01F4      		brne .L495
 10690 4b32 40E0      		ldi r20,lo8(0)
 10691 4b34 CF01      		movw r24,r30
 10692 4b36 64E6      		ldi r22,lo8(100)
 10693 4b38 70E0      		ldi r23,hi8(100)
 10694 4b3a 0E94 0000 		call __divmodhi4
 10695 4b3e C297      		sbiw r24,50
 10696 4b40 04F4      		brge .L497
 10697 4b42 00C0      		rjmp .L516
 10698               	.L495:
 10699               	.LM1371:
 10700 4b44 2430      		cpi r18,4
 10701 4b46 3105      		cpc r19,__zero_reg__
 10702 4b48 01F4      		brne .L492
 10703 4b4a 2091 0000 		lds r18,counter
 10704 4b4e 3091 0000 		lds r19,(counter)+1
 10705 4b52 C901      		movw r24,r18
 10706 4b54 6AE0      		ldi r22,lo8(10)
 10707 4b56 70E0      		ldi r23,hi8(10)
 10708 4b58 0E94 0000 		call __divmodhi4
 10709 4b5c 892B      		or r24,r25
 10710 4b5e 01F4      		brne .L492
 10711 4b60 40E0      		ldi r20,lo8(0)
 10712 4b62 C901      		movw r24,r18
 10713 4b64 64E6      		ldi r22,lo8(100)
 10714 4b66 70E0      		ldi r23,hi8(100)
 10715 4b68 0E94 0000 		call __divmodhi4
 10716 4b6c 0A97      		sbiw r24,10
 10717 4b6e 04F4      		brge .L497
 10718               	.L516:
 10719 4b70 41E0      		ldi r20,lo8(1)
 10720               	.L497:
 10721 4b72 8FEF      		ldi r24,lo8(-1)
 10722 4b74 6FEF      		ldi r22,lo8(-1)
 10723 4b76 0E94 0000 		call _Z8tricolorhhh
 10724               	.L492:
 10725               	.LM1372:
 10726 4b7a 8091 0000 		lds r24,counter
 10727 4b7e 9091 0000 		lds r25,(counter)+1
 10728 4b82 885E      		subi r24,lo8(1000)
 10729 4b84 9340      		sbci r25,hi8(1000)
 10730 4b86 01F0      		breq .+2
 10731 4b88 00C0      		rjmp .L502
 10732               	.LM1373:
 10733 4b8a 1092 0000 		sts (counter)+1,__zero_reg__
 10734 4b8e 1092 0000 		sts counter,__zero_reg__
 10735               	.LM1374:
 10736 4b92 8091 0000 		lds r24,ticks
 10737 4b96 9091 0000 		lds r25,(ticks)+1
 10738 4b9a 0196      		adiw r24,1
 10739 4b9c 9093 0000 		sts (ticks)+1,r25
 10740 4ba0 8093 0000 		sts ticks,r24
 10741               	.LM1375:
 10742 4ba4 90E0      		ldi r25,lo8(0)
 10743 4ba6 8091 0000 		lds r24,blink_led
 10744 4baa 8823      		tst r24
 10745 4bac 01F4      		brne .L499
 10746 4bae 91E0      		ldi r25,lo8(1)
 10747               	.L499:
 10748 4bb0 9093 0000 		sts blink_led,r25
 10749               	.LM1376:
 10750 4bb4 9923      		tst r25
 10751 4bb6 01F0      		breq .L500
 10752 4bb8 86E0      		ldi r24,lo8(6)
 10753 4bba 61E0      		ldi r22,lo8(1)
 10754 4bbc 00C0      		rjmp .L511
 10755               	.L500:
 10756               	.LM1377:
 10757 4bbe 86E0      		ldi r24,lo8(6)
 10758 4bc0 60E0      		ldi r22,lo8(0)
 10759               	.L511:
 10760 4bc2 0E94 0000 		call digitalWrite
 10761               	.LM1378:
 10762 4bc6 80E0      		ldi r24,lo8(Serial)
 10763 4bc8 90E0      		ldi r25,hi8(Serial)
 10764 4bca 60E0      		ldi r22,lo8(.LC24)
 10765 4bcc 70E0      		ldi r23,hi8(.LC24)
 10766 4bce 0E94 0000 		call _ZN16USBVirtualSerial5printEPKc
 10767               	.LM1379:
 10768 4bd2 0E94 0000 		call millis
 10769 4bd6 AB01      		movw r20,r22
 10770 4bd8 BC01      		movw r22,r24
 10771 4bda 8091 0000 		lds r24,t
 10772 4bde 9091 0000 		lds r25,(t)+1
 10773 4be2 A091 0000 		lds r26,(t)+2
 10774 4be6 B091 0000 		lds r27,(t)+3
 10775 4bea 481B      		sub r20,r24
 10776 4bec 590B      		sbc r21,r25
 10777 4bee 6A0B      		sbc r22,r26
 10778 4bf0 7B0B      		sbc r23,r27
 10779 4bf2 80E0      		ldi r24,lo8(Serial)
 10780 4bf4 90E0      		ldi r25,hi8(Serial)
 10781 4bf6 0E94 0000 		call _ZN16USBVirtualSerial5printEm
 10782               	.LM1380:
 10783 4bfa 80E0      		ldi r24,lo8(Serial)
 10784 4bfc 90E0      		ldi r25,hi8(Serial)
 10785 4bfe 60E0      		ldi r22,lo8(.LC3)
 10786 4c00 70E0      		ldi r23,hi8(.LC3)
 10787 4c02 0E94 0000 		call _ZN16USBVirtualSerial5printEPKc
 10788               	.LM1381:
 10789 4c06 6091 0000 		lds r22,ticks
 10790 4c0a 7091 0000 		lds r23,(ticks)+1
 10791 4c0e 80E0      		ldi r24,lo8(Serial)
 10792 4c10 90E0      		ldi r25,hi8(Serial)
 10793 4c12 0E94 0000 		call _ZN16USBVirtualSerial7printlnEi
 10794               	.LM1382:
 10795 4c16 0E94 0000 		call millis
 10796 4c1a 6093 0000 		sts t,r22
 10797 4c1e 7093 0000 		sts (t)+1,r23
 10798 4c22 8093 0000 		sts (t)+2,r24
 10799 4c26 9093 0000 		sts (t)+3,r25
 10800               	.L502:
 10801               	/* epilogue start */
 10802               	.LBE750:
 10803               	.LM1383:
 10804 4c2a 2896      		adiw r28,8
 10805 4c2c 0FB6      		in __tmp_reg__,__SREG__
 10806 4c2e F894      		cli
 10807 4c30 DEBF      		out __SP_H__,r29
 10808 4c32 0FBE      		out __SREG__,__tmp_reg__
 10809 4c34 CDBF      		out __SP_L__,r28
 10810 4c36 CF91      		pop r28
 10811 4c38 DF91      		pop r29
 10812 4c3a 1F91      		pop r17
 10813 4c3c 0F91      		pop r16
 10814               	.LVL409:
 10815 4c3e FF90      		pop r15
 10816 4c40 EF90      		pop r14
 10817 4c42 DF90      		pop r13
 10818 4c44 CF90      		pop r12
 10819 4c46 BF90      		pop r11
 10820 4c48 AF90      		pop r10
 10821 4c4a 9F90      		pop r9
 10822 4c4c 8F90      		pop r8
 10823 4c4e 7F90      		pop r7
 10824 4c50 6F90      		pop r6
 10825 4c52 5F90      		pop r5
 10826 4c54 4F90      		pop r4
 10827 4c56 3F90      		pop r3
 10828 4c58 2F90      		pop r2
 10829 4c5a 0895      		ret
 10830               	.LFE154:
 10832               	.global	main
 10834               	main:
 10835               	.LFB155:
 10836               	.LM1384:
 10837               	/* prologue: function */
 10838               	/* frame size = 0 */
 10839               	.LBB753:
 10840               	.LBB754:
 10841               	.LBB755:
 10842               	.LM1385:
 10843 4c5c E0E0      		ldi r30,lo8(HostRXSerial_Buffer)
 10844 4c5e F0E0      		ldi r31,hi8(HostRXSerial_Buffer)
 10845               	.LVL410:
 10846               	.LBB756:
 10847               	.LBB757:
 10848               	.LM1386:
 10849               	.LM1387:
 10850 4c60 2FB7      		in r18,__SREG__
 10851               	.LVL411:
 10852               	.LBE757:
 10853               	.LBE756:
 10854               	.LBB758:
 10855               	.LBB759:
 10856               	.LM1388:
 10857               	.LM1389:
 10858               	/* #APP */
 10859               	 ;  370 "./LUFA/Drivers/USB/../../Common/Common.h" 1
 10860 4c62 F894      		cli
 10861               	 ;  0 "" 2
 10862               	.LM1390:
 10863               	/* #NOAPP */
 10864               	.LBE759:
 10865               	.LBE758:
 10866               	.LM1391:
 10867 4c64 80E0      		ldi r24,lo8(HostRXSerial_Buffer_Data)
 10868 4c66 90E0      		ldi r25,hi8(HostRXSerial_Buffer_Data)
 10869 4c68 9183      		std Z+1,r25
 10870 4c6a 8083      		st Z,r24
 10871               	.LM1392:
 10872 4c6c 9383      		std Z+3,r25
 10873 4c6e 8283      		std Z+2,r24
 10874               	.LM1393:
 10875 4c70 9583      		std Z+5,r25
 10876 4c72 8483      		std Z+4,r24
 10877               	.LM1394:
 10878 4c74 80E0      		ldi r24,lo8(HostRXSerial_Buffer_Data+256)
 10879 4c76 90E0      		ldi r25,hi8(HostRXSerial_Buffer_Data+256)
 10880 4c78 9783      		std Z+7,r25
 10881 4c7a 8683      		std Z+6,r24
 10882               	.LM1395:
 10883 4c7c 1086      		std Z+8,__zero_reg__
 10884               	.LM1396:
 10885 4c7e 1286      		std Z+10,__zero_reg__
 10886 4c80 1186      		std Z+9,__zero_reg__
 10887               	.LBB760:
 10888               	.LBB761:
 10889               	.LM1397:
 10890               	.LM1398:
 10891 4c82 2FBF      		out __SREG__,r18
 10892               	.LM1399:
 10893               	.LBE761:
 10894               	.LBE760:
 10895               	.LBE755:
 10896               	.LBE754:
 10897               	.LBE753:
 10898               	.LBB762:
 10899               	.LBB763:
 10900               	.LBB764:
 10901               	.LM1400:
 10902 4c84 E0E0      		ldi r30,lo8(HostTXSerial_Buffer)
 10903 4c86 F0E0      		ldi r31,hi8(HostTXSerial_Buffer)
 10904               	.LVL412:
 10905               	.LBB765:
 10906               	.LBB766:
 10907               	.LM1401:
 10908               	.LM1402:
 10909 4c88 2FB7      		in r18,__SREG__
 10910               	.LVL413:
 10911               	.LBE766:
 10912               	.LBE765:
 10913               	.LBB767:
 10914               	.LBB768:
 10915               	.LM1403:
 10916               	.LM1404:
 10917               	/* #APP */
 10918               	 ;  370 "./LUFA/Drivers/USB/../../Common/Common.h" 1
 10919 4c8a F894      		cli
 10920               	 ;  0 "" 2
 10921               	.LM1405:
 10922               	/* #NOAPP */
 10923               	.LBE768:
 10924               	.LBE767:
 10925               	.LM1406:
 10926 4c8c 80E0      		ldi r24,lo8(HostTXSerial_Buffer_Data)
 10927 4c8e 90E0      		ldi r25,hi8(HostTXSerial_Buffer_Data)
 10928 4c90 9183      		std Z+1,r25
 10929 4c92 8083      		st Z,r24
 10930               	.LM1407:
 10931 4c94 9383      		std Z+3,r25
 10932 4c96 8283      		std Z+2,r24
 10933               	.LM1408:
 10934 4c98 9583      		std Z+5,r25
 10935 4c9a 8483      		std Z+4,r24
 10936               	.LM1409:
 10937 4c9c 80E0      		ldi r24,lo8(HostTXSerial_Buffer_Data+256)
 10938 4c9e 90E0      		ldi r25,hi8(HostTXSerial_Buffer_Data+256)
 10939 4ca0 9783      		std Z+7,r25
 10940 4ca2 8683      		std Z+6,r24
 10941               	.LM1410:
 10942 4ca4 1086      		std Z+8,__zero_reg__
 10943               	.LM1411:
 10944 4ca6 1286      		std Z+10,__zero_reg__
 10945 4ca8 1186      		std Z+9,__zero_reg__
 10946               	.LBB769:
 10947               	.LBB770:
 10948               	.LM1412:
 10949               	.LM1413:
 10950 4caa 2FBF      		out __SREG__,r18
 10951               	.LM1414:
 10952               	.LBE770:
 10953               	.LBE769:
 10954               	.LBE764:
 10955               	.LBE763:
 10956               	.LBE762:
 10957               	.LM1415:
 10958 4cac 0E94 0000 		call SetupHardware
 10959               	.LVL414:
 10960               	.LM1416:
 10961 4cb0 0E94 0000 		call init
 10962               	.LM1417:
 10963 4cb4 0E94 0000 		call setup
 10964               	.L527:
 10965               	.LM1418:
 10966 4cb8 0E94 0000 		call loop
 10967               	.LM1419:
 10968 4cbc 8091 0000 		lds r24,CDCTaskRun
 10969 4cc0 8823      		tst r24
 10970 4cc2 01F4      		brne .L523
 10971 4cc4 0E94 0000 		call CDC_Task
 10972 4cc8 00C0      		rjmp .L524
 10973               	.L523:
 10974 4cca 1092 0000 		sts CDCTaskRun,__zero_reg__
 10975               	.L524:
 10976               	.LM1420:
 10977 4cce 8091 0000 		lds r24,HIDTaskRun
 10978 4cd2 8823      		tst r24
 10979 4cd4 01F4      		brne .L525
 10980 4cd6 0E94 0000 		call HID_Task
 10981 4cda 00C0      		rjmp .L526
 10982               	.L525:
 10983 4cdc 1092 0000 		sts HIDTaskRun,__zero_reg__
 10984               	.L526:
 10985               	.LM1421:
 10986 4ce0 0E94 0000 		call USB_USBTask
 10987 4ce4 00C0      		rjmp .L527
 10988               	.LFE155:
 10990               		.data
 10991               	.LC25:
 10992 01b9 746F 7563 		.string	"touchset mouseclick "
 10992      6873 6574 
 10992      206D 6F75 
 10992      7365 636C 
 10992      6963 6B20 
 10993               		.text
 10994               	.global	_Z10mouseclicki
 10996               	_Z10mouseclicki:
 10997               	.LFB136:
 10998               	.LM1422:
 10999               	.LVL415:
 11000 4ce6 EF92      		push r14
 11001 4ce8 FF92      		push r15
 11002 4cea 0F93      		push r16
 11003 4cec 1F93      		push r17
 11004               	/* prologue: function */
 11005               	/* frame size = 0 */
 11006 4cee 7C01      		movw r14,r24
 11007               	.LM1423:
 11008 4cf0 00E0      		ldi r16,lo8(Serial)
 11009 4cf2 10E0      		ldi r17,hi8(Serial)
 11010 4cf4 C801      		movw r24,r16
 11011               	.LVL416:
 11012 4cf6 60E0      		ldi r22,lo8(.LC25)
 11013 4cf8 70E0      		ldi r23,hi8(.LC25)
 11014 4cfa 0E94 0000 		call _ZN16USBVirtualSerial5printEPKc
 11015               	.LM1424:
 11016 4cfe C801      		movw r24,r16
 11017 4d00 B701      		movw r22,r14
 11018 4d02 0E94 0000 		call _ZN16USBVirtualSerial7printlnEi
 11019               	.LM1425:
 11020 4d06 C701      		movw r24,r14
 11021 4d08 0E94 0000 		call _Z9mousedowni
 11022               	.LM1426:
 11023 4d0c 65E0      		ldi r22,lo8(5)
 11024 4d0e 70E0      		ldi r23,hi8(5)
 11025 4d10 80E0      		ldi r24,hlo8(5)
 11026 4d12 90E0      		ldi r25,hhi8(5)
 11027 4d14 0E94 0000 		call delay
 11028               	.LM1427:
 11029 4d18 C701      		movw r24,r14
 11030 4d1a 0E94 0000 		call _Z7mouseupi
 11031               	/* epilogue start */
 11032               	.LM1428:
 11033 4d1e 1F91      		pop r17
 11034 4d20 0F91      		pop r16
 11035 4d22 FF90      		pop r15
 11036 4d24 EF90      		pop r14
 11037               	.LVL417:
 11038 4d26 0895      		ret
 11039               	.LFE136:
 11041               	.global	HIDReportInData
 11042               	.global	HIDReportInData
 11043               		.section .bss
 11046               	HIDReportInData:
 11047 0000 0000 0000 		.skip 9,0
 11047      0000 0000 
 11047      00
 11048               	.global	HIDReportOutData
 11049               	.global	HIDReportOutData
 11052               	HIDReportOutData:
 11053 0009 0000 0000 		.skip 9,0
 11053      0000 0000 
 11053      00
 11054               	.global	LineEncodingData
 11055               		.data
 11058               	LineEncodingData:
 11059 01ce 00        		.byte	0
 11060 01cf 00        		.byte	0
 11061 01d0 00        		.byte	0
 11062 01d1 00        		.byte	0
 11063 01d2 00        		.byte	0
 11064 01d3 00        		.byte	0
 11065 01d4 08        		.byte	8
 11066               	.global	HostRXSerial_Buffer
 11067               	.global	HostRXSerial_Buffer
 11068               		.section .bss
 11071               	HostRXSerial_Buffer:
 11072 0012 0000 0000 		.skip 11,0
 11072      0000 0000 
 11072      0000 00
 11073               	.global	HostRXSerial_Buffer_Data
 11074               	.global	HostRXSerial_Buffer_Data
 11077               	HostRXSerial_Buffer_Data:
 11078 001d 0000 0000 		.skip 256,0
 11078      0000 0000 
 11078      0000 0000 
 11078      0000 0000 
 11078      0000 0000 
 11079               	.global	HostTXSerial_Buffer
 11080               	.global	HostTXSerial_Buffer
 11083               	HostTXSerial_Buffer:
 11084 011d 0000 0000 		.skip 11,0
 11084      0000 0000 
 11084      0000 00
 11085               	.global	HostTXSerial_Buffer_Data
 11086               	.global	HostTXSerial_Buffer_Data
 11089               	HostTXSerial_Buffer_Data:
 11090 0128 0000 0000 		.skip 256,0
 11090      0000 0000 
 11090      0000 0000 
 11090      0000 0000 
 11090      0000 0000 
 11091               	.global	CDCTaskRun
 11092               	.global	CDCTaskRun
 11095               	CDCTaskRun:
 11096 0228 00        		.skip 1,0
 11097               	.global	HIDTaskRun
 11098               	.global	HIDTaskRun
 11101               	HIDTaskRun:
 11102 0229 00        		.skip 1,0
 11103               	.global	ide_workaround
 11104               	.global	ide_workaround
 11107               	ide_workaround:
 11108 022a 00        		.skip 1,0
 11109               	.global	pins
 11110               		.data
 11113               	pins:
 11114 01d5 0400      		.word	4
 11115 01d7 0500      		.word	5
 11116 01d9 0700      		.word	7
 11117 01db 0800      		.word	8
 11118 01dd 0900      		.word	9
 11119 01df 0A00      		.word	10
 11120 01e1 0B00      		.word	11
 11121 01e3 0C00      		.word	12
 11122 01e5 0D00      		.word	13
 11123 01e7 0E00      		.word	14
 11124 01e9 0F00      		.word	15
 11125 01eb 1000      		.word	16
 11126 01ed 1100      		.word	17
 11127 01ef 1200      		.word	18
 11128 01f1 1300      		.word	19
 11129 01f3 1400      		.word	20
 11130 01f5 1500      		.word	21
 11131 01f7 1600      		.word	22
 11132 01f9 1700      		.word	23
 11133 01fb 1800      		.word	24
 11134 01fd 1900      		.word	25
 11135 01ff 1A00      		.word	26
 11136 0201 1B00      		.word	27
 11137 0203 1C00      		.word	28
 11138 0205 1D00      		.word	29
 11139 0207 1E00      		.word	30
 11140 0209 1F00      		.word	31
 11141 020b 2000      		.word	32
 11142 020d 2100      		.word	33
 11143 020f 2200      		.word	34
 11144 0211 2300      		.word	35
 11145 0213 2600      		.word	38
 11146 0215 2700      		.word	39
 11147 0217 2800      		.word	40
 11148               	.global	combinations
 11151               	combinations:
 11152 0219 1E00      		.word	30
 11153 021b 2700      		.word	39
 11154 021d 1D00      		.word	29
 11155 021f 2700      		.word	39
 11156 0221 0E00      		.word	14
 11157 0223 2800      		.word	40
 11158 0225 0E00      		.word	14
 11159 0227 1D00      		.word	29
 11160 0229 0F00      		.word	15
 11161 022b 1D00      		.word	29
 11162 022d 1000      		.word	16
 11163 022f 1D00      		.word	29
 11164 0231 0C00      		.word	12
 11165 0233 1D00      		.word	29
 11166 0235 1A00      		.word	26
 11167 0237 1D00      		.word	29
 11168 0239 1B00      		.word	27
 11169 023b 1D00      		.word	29
 11170 023d 1C00      		.word	28
 11171 023f 1D00      		.word	29
 11172 0241 1E00      		.word	30
 11173 0243 2600      		.word	38
 11174 0245 1D00      		.word	29
 11175 0247 2600      		.word	38
 11176 0249 0B00      		.word	11
 11177 024b 2800      		.word	40
 11178 024d 0B00      		.word	11
 11179 024f 1D00      		.word	29
 11180 0251 0D00      		.word	13
 11181 0253 1D00      		.word	29
 11182 0255 1700      		.word	23
 11183 0257 1D00      		.word	29
 11184 0259 1800      		.word	24
 11185 025b 1D00      		.word	29
 11186 025d 1900      		.word	25
 11187 025f 1D00      		.word	29
 11188 0261 0B00      		.word	11
 11189 0263 2700      		.word	39
 11190 0265 1E00      		.word	30
 11191 0267 2300      		.word	35
 11192 0269 1D00      		.word	29
 11193 026b 2300      		.word	35
 11194 026d 0800      		.word	8
 11195 026f 2800      		.word	40
 11196 0271 0800      		.word	8
 11197 0273 1D00      		.word	29
 11198 0275 0900      		.word	9
 11199 0277 1D00      		.word	29
 11200 0279 0A00      		.word	10
 11201 027b 1D00      		.word	29
 11202 027d 1400      		.word	20
 11203 027f 1E00      		.word	30
 11204 0281 1400      		.word	20
 11205 0283 1D00      		.word	29
 11206 0285 1500      		.word	21
 11207 0287 1E00      		.word	30
 11208 0289 1500      		.word	21
 11209 028b 1D00      		.word	29
 11210 028d 1600      		.word	22
 11211 028f 1E00      		.word	30
 11212 0291 1600      		.word	22
 11213 0293 1D00      		.word	29
 11214 0295 0800      		.word	8
 11215 0297 2200      		.word	34
 11216 0299 0800      		.word	8
 11217 029b 2600      		.word	38
 11218 029d 0800      		.word	8
 11219 029f 2700      		.word	39
 11220 02a1 0800      		.word	8
 11221 02a3 1100      		.word	17
 11222 02a5 1E00      		.word	30
 11223 02a7 2200      		.word	34
 11224 02a9 1D00      		.word	29
 11225 02ab 2200      		.word	34
 11226 02ad 0400      		.word	4
 11227 02af 2800      		.word	40
 11228 02b1 1100      		.word	17
 11229 02b3 1D00      		.word	29
 11230 02b5 0400      		.word	4
 11231 02b7 1D00      		.word	29
 11232 02b9 0500      		.word	5
 11233 02bb 1D00      		.word	29
 11234 02bd 0700      		.word	7
 11235 02bf 1D00      		.word	29
 11236 02c1 1100      		.word	17
 11237 02c3 1E00      		.word	30
 11238 02c5 1200      		.word	18
 11239 02c7 1E00      		.word	30
 11240 02c9 1200      		.word	18
 11241 02cb 1D00      		.word	29
 11242 02cd 1300      		.word	19
 11243 02cf 1E00      		.word	30
 11244 02d1 1300      		.word	19
 11245 02d3 1D00      		.word	29
 11246 02d5 0400      		.word	4
 11247 02d7 2100      		.word	33
 11248 02d9 0400      		.word	4
 11249 02db 2000      		.word	32
 11250 02dd 0400      		.word	4
 11251 02df 1F00      		.word	31
 11252 02e1 0800      		.word	8
 11253 02e3 2100      		.word	33
 11254 02e5 0800      		.word	8
 11255 02e7 2000      		.word	32
 11256 02e9 0800      		.word	8
 11257 02eb 1F00      		.word	31
 11258 02ed 0B00      		.word	11
 11259 02ef 2100      		.word	33
 11260 02f1 0B00      		.word	11
 11261 02f3 2000      		.word	32
 11262 02f5 0B00      		.word	11
 11263 02f7 1F00      		.word	31
 11264 02f9 0E00      		.word	14
 11265 02fb 2100      		.word	33
 11266 02fd 0E00      		.word	14
 11267 02ff 2000      		.word	32
 11268 0301 0E00      		.word	14
 11269 0303 1F00      		.word	31
 11270 0305 1D00      		.word	29
 11271 0307 1F00      		.word	31
 11272               	.global	counter
 11273               	.global	counter
 11274               		.section .bss
 11277               	counter:
 11278 022b 0000      		.skip 2,0
 11279               	.global	ticks
 11280               	.global	ticks
 11283               	ticks:
 11284 022d 0000      		.skip 2,0
 11285               	.global	t
 11286               	.global	t
 11289               	t:
 11290 022f 0000 0000 		.skip 4,0
 11291               	.global	i
 11292               	.global	i
 11295               	i:
 11296 0233 0000 0000 		.skip 4,0
 11297               	.global	moveMouse
 11298               	.global	moveMouse
 11301               	moveMouse:
 11302 0237 00        		.skip 1,0
 11303               	.global	scrollMouse
 11304               	.global	scrollMouse
 11307               	scrollMouse:
 11308 0238 00        		.skip 1,0
 11309               	.global	mx
 11310               	.global	mx
 11313               	mx:
 11314 0239 0000      		.skip 2,0
 11315               	.global	my
 11316               	.global	my
 11319               	my:
 11320 023b 0000      		.skip 2,0
 11321               	.global	mz
 11322               	.global	mz
 11325               	mz:
 11326 023d 0000      		.skip 2,0
 11327               	.global	sy
 11328               	.global	sy
 11331               	sy:
 11332 023f 0000      		.skip 2,0
 11333               	.global	mx0
 11334               	.global	mx0
 11337               	mx0:
 11338 0241 0000      		.skip 2,0
 11339               	.global	my0
 11340               	.global	my0
 11343               	my0:
 11344 0243 0000      		.skip 2,0
 11345               	.global	mz0
 11346               	.global	mz0
 11349               	mz0:
 11350 0245 0000      		.skip 2,0
 11351               	.global	sy0
 11352               	.global	sy0
 11355               	sy0:
 11356 0247 0000      		.skip 2,0
 11357               	.global	mdx
 11358               	.global	mdx
 11361               	mdx:
 11362 0249 0000      		.skip 2,0
 11363               	.global	mdy
 11364               	.global	mdy
 11367               	mdy:
 11368 024b 0000      		.skip 2,0
 11369               	.global	mdz
 11370               	.global	mdz
 11373               	mdz:
 11374 024d 0000      		.skip 2,0
 11375               	.global	sdy
 11376               	.global	sdy
 11379               	sdy:
 11380 024f 0000      		.skip 2,0
 11381               	.global	opt_touch_detect_threshold
 11382               		.data
 11385               	opt_touch_detect_threshold:
 11386 0309 1400      		.word	20
 11387               	.global	opt_enable_calibration
 11388               	.global	opt_enable_calibration
 11389               		.section .bss
 11392               	opt_enable_calibration:
 11393 0251 0000      		.skip 2,0
 11394               	.global	opt_accel_offset
 11395               		.data
 11398               	opt_accel_offset:
 11399 030b 0700      		.word	7
 11400 030d F0FF      		.word	-16
 11401 030f 0100      		.word	1
 11402               	.global	opt_accel_calibrate
 11405               	opt_accel_calibrate:
 11406 0311 00        		.byte	0
 11407 0312 00        		.byte	0
 11408 0313 80        		.byte	-128
 11409 0314 3F        		.byte	63
 11410 0315 00        		.byte	0
 11411 0316 00        		.byte	0
 11412 0317 80        		.byte	-128
 11413 0318 3F        		.byte	63
 11414 0319 00        		.byte	0
 11415 031a 00        		.byte	0
 11416 031b 80        		.byte	-128
 11417 031c 3F        		.byte	63
 11418               	.global	opt_gyro_offset
 11419               	.global	opt_gyro_offset
 11420               		.section .bss
 11423               	opt_gyro_offset:
 11424 0253 0000 0000 		.skip 6,0
 11424      0000 
 11425               	.global	opt_gyro_calibrate
 11426               		.data
 11429               	opt_gyro_calibrate:
 11430 031d 00        		.byte	0
 11431 031e 00        		.byte	0
 11432 031f 80        		.byte	-128
 11433 0320 3F        		.byte	63
 11434 0321 00        		.byte	0
 11435 0322 00        		.byte	0
 11436 0323 80        		.byte	-128
 11437 0324 3F        		.byte	63
 11438 0325 00        		.byte	0
 11439 0326 00        		.byte	0
 11440 0327 80        		.byte	-128
 11441 0328 3F        		.byte	63
 11442               	.global	opt_motion_sampling_div
 11445               	opt_motion_sampling_div:
 11446 0329 0C00      		.word	12
 11447               	.global	opt_accel_kalman_constant
 11450               	opt_accel_kalman_constant:
 11451 032b 9A        		.byte	-102
 11452 032c 99        		.byte	-103
 11453 032d 19        		.byte	25
 11454 032e 3F        		.byte	63
 11455               	.global	opt_gyro_kalman_constant
 11458               	opt_gyro_kalman_constant:
 11459 032f 9A        		.byte	-102
 11460 0330 99        		.byte	-103
 11461 0331 99        		.byte	-103
 11462 0332 3E        		.byte	62
 11463               	.global	opt_accel_smooth_average
 11466               	opt_accel_smooth_average:
 11467 0333 04        		.byte	4
 11468               	.global	opt_gyro_smooth_average
 11469               	.global	opt_gyro_smooth_average
 11470               		.section .bss
 11473               	opt_gyro_smooth_average:
 11474 0259 00        		.skip 1,0
 11475               	.global	opt_accel_rot90
 11476               	.global	opt_accel_rot90
 11479               	opt_accel_rot90:
 11480 025a 00        		.skip 1,0
 11481               	.global	opt_gyro_rot90
 11482               		.data
 11485               	opt_gyro_rot90:
 11486 0334 04        		.byte	4
 11487               	.global	opt_mouse_invert_x
 11490               	opt_mouse_invert_x:
 11491 0335 01        		.byte	1
 11492               	.global	opt_mouse_invert_y
 11495               	opt_mouse_invert_y:
 11496 0336 01        		.byte	1
 11497               	.global	opt_mouse_invert_z
 11498               	.global	opt_mouse_invert_z
 11499               		.section .bss
 11502               	opt_mouse_invert_z:
 11503 025b 00        		.skip 1,0
 11504               	.global	opt_mouse_mode
 11505               	.global	opt_mouse_mode
 11508               	opt_mouse_mode:
 11509 025c 00        		.skip 1,0
 11510               	.global	opt_scroll_mode
 11511               	.global	opt_scroll_mode
 11514               	opt_scroll_mode:
 11515 025d 00        		.skip 1,0
 11516               	.global	opt_mouse_scale_mode1
 11517               		.data
 11520               	opt_mouse_scale_mode1:
 11521 0337 00        		.byte	0
 11522 0338 00        		.byte	0
 11523 0339 80        		.byte	-128
 11524 033a 3F        		.byte	63
 11525 033b 00        		.byte	0
 11526 033c 00        		.byte	0
 11527 033d 80        		.byte	-128
 11528 033e 3F        		.byte	63
 11529               	.global	opt_mouse_scale_mode2
 11532               	opt_mouse_scale_mode2:
 11533 033f 00        		.byte	0
 11534 0340 00        		.byte	0
 11535 0341 80        		.byte	-128
 11536 0342 3F        		.byte	63
 11537 0343 00        		.byte	0
 11538 0344 00        		.byte	0
 11539 0345 80        		.byte	-128
 11540 0346 3F        		.byte	63
 11541               	.global	opt_mouse_scale_mode3
 11544               	opt_mouse_scale_mode3:
 11545 0347 00        		.byte	0
 11546 0348 00        		.byte	0
 11547 0349 80        		.byte	-128
 11548 034a 3F        		.byte	63
 11549 034b 00        		.byte	0
 11550 034c 00        		.byte	0
 11551 034d 80        		.byte	-128
 11552 034e 3F        		.byte	63
 11553               	.global	opt_mouse_scale_mode4
 11556               	opt_mouse_scale_mode4:
 11557 034f 00        		.byte	0
 11558 0350 00        		.byte	0
 11559 0351 80        		.byte	-128
 11560 0352 3F        		.byte	63
 11561 0353 00        		.byte	0
 11562 0354 00        		.byte	0
 11563 0355 80        		.byte	-128
 11564 0356 3F        		.byte	63
 11565 0357 00        		.byte	0
 11566 0358 00        		.byte	0
 11567 0359 80        		.byte	-128
 11568 035a 3F        		.byte	63
 11569               	.global	accel
 11570               	.global	accel
 11571               		.section .bss
 11574               	accel:
 11575 025e 0000 0000 		.skip 6,0
 11575      0000 
 11576               	.global	accelMicros
 11577               	.global	accelMicros
 11580               	accelMicros:
 11581 0264 0000 0000 		.skip 4,0
 11582               	.global	accelDiff
 11583               	.global	accelDiff
 11586               	accelDiff:
 11587 0268 0000 0000 		.skip 4,0
 11588               	.global	accelTick
 11589               	.global	accelTick
 11592               	accelTick:
 11593 026c 0000      		.skip 2,0
 11594               	.global	xRaw
 11595               	.global	xRaw
 11598               	xRaw:
 11599 026e 0000      		.skip 2,0
 11600               	.global	yRaw
 11601               	.global	yRaw
 11604               	yRaw:
 11605 0270 0000      		.skip 2,0
 11606               	.global	zRaw
 11607               	.global	zRaw
 11610               	zRaw:
 11611 0272 0000      		.skip 2,0
 11612               	.global	x
 11613               	.global	x
 11616               	x:
 11617 0274 0000      		.skip 2,0
 11618               	.global	y
 11619               	.global	y
 11622               	y:
 11623 0276 0000      		.skip 2,0
 11624               	.global	z
 11625               	.global	z
 11628               	z:
 11629 0278 0000      		.skip 2,0
 11630               	.global	x0
 11631               	.global	x0
 11634               	x0:
 11635 027a 0000      		.skip 2,0
 11636               	.global	y0
 11637               	.global	y0
 11640               	y0:
 11641 027c 0000      		.skip 2,0
 11642               	.global	z0
 11643               	.global	z0
 11646               	z0:
 11647 027e 0000      		.skip 2,0
 11648               	.global	x00
 11649               	.global	x00
 11652               	x00:
 11653 0280 0000      		.skip 2,0
 11654               	.global	y00
 11655               	.global	y00
 11658               	y00:
 11659 0282 0000      		.skip 2,0
 11660               	.global	z00
 11661               	.global	z00
 11664               	z00:
 11665 0284 0000      		.skip 2,0
 11666               	.global	xv
 11667               	.global	xv
 11670               	xv:
 11671 0286 0000      		.skip 2,0
 11672               	.global	yv
 11673               	.global	yv
 11676               	yv:
 11677 0288 0000      		.skip 2,0
 11678               	.global	zv
 11679               	.global	zv
 11682               	zv:
 11683 028a 0000      		.skip 2,0
 11684               	.global	cx
 11685               	.global	cx
 11688               	cx:
 11689 028c 0000 0000 		.skip 4,0
 11690               	.global	cy
 11691               	.global	cy
 11694               	cy:
 11695 0290 0000 0000 		.skip 4,0
 11696               	.global	cz
 11697               	.global	cz
 11700               	cz:
 11701 0294 0000 0000 		.skip 4,0
 11702               	.global	xBase
 11703               	.global	xBase
 11706               	xBase:
 11707 0298 0000      		.skip 2,0
 11708               	.global	yBase
 11709               	.global	yBase
 11712               	yBase:
 11713 029a 0000      		.skip 2,0
 11714               	.global	zBase
 11715               	.global	zBase
 11718               	zBase:
 11719 029c 0000      		.skip 2,0
 11720               	.global	xHist
 11721               	.global	xHist
 11724               	xHist:
 11725 029e 0000 0000 		.skip 40,0
 11725      0000 0000 
 11725      0000 0000 
 11725      0000 0000 
 11725      0000 0000 
 11726               	.global	yHist
 11727               	.global	yHist
 11730               	yHist:
 11731 02c6 0000 0000 		.skip 40,0
 11731      0000 0000 
 11731      0000 0000 
 11731      0000 0000 
 11731      0000 0000 
 11732               	.global	zHist
 11733               	.global	zHist
 11736               	zHist:
 11737 02ee 0000 0000 		.skip 40,0
 11737      0000 0000 
 11737      0000 0000 
 11737      0000 0000 
 11737      0000 0000 
 11738               	.global	xMin
 11739               	.global	xMin
 11742               	xMin:
 11743 0316 0000      		.skip 2,0
 11744               	.global	yMin
 11745               	.global	yMin
 11748               	yMin:
 11749 0318 0000      		.skip 2,0
 11750               	.global	zMin
 11751               	.global	zMin
 11754               	zMin:
 11755 031a 0000      		.skip 2,0
 11756               	.global	xMax
 11757               	.global	xMax
 11760               	xMax:
 11761 031c 0000      		.skip 2,0
 11762               	.global	yMax
 11763               	.global	yMax
 11766               	yMax:
 11767 031e 0000      		.skip 2,0
 11768               	.global	zMax
 11769               	.global	zMax
 11772               	zMax:
 11773 0320 0000      		.skip 2,0
 11774               	.global	ax
 11775               	.global	ax
 11778               	ax:
 11779 0322 0000      		.skip 2,0
 11780               	.global	ay
 11781               	.global	ay
 11784               	ay:
 11785 0324 0000      		.skip 2,0
 11786               	.global	az
 11787               	.global	az
 11790               	az:
 11791 0326 0000      		.skip 2,0
 11792               	.global	ax0
 11793               	.global	ax0
 11796               	ax0:
 11797 0328 0000      		.skip 2,0
 11798               	.global	ay0
 11799               	.global	ay0
 11802               	ay0:
 11803 032a 0000      		.skip 2,0
 11804               	.global	az0
 11805               	.global	az0
 11808               	az0:
 11809 032c 0000      		.skip 2,0
 11810               	.global	ax00
 11811               	.global	ax00
 11814               	ax00:
 11815 032e 0000      		.skip 2,0
 11816               	.global	ay00
 11817               	.global	ay00
 11820               	ay00:
 11821 0330 0000      		.skip 2,0
 11822               	.global	az00
 11823               	.global	az00
 11826               	az00:
 11827 0332 0000      		.skip 2,0
 11828               	.global	axBase
 11829               	.global	axBase
 11832               	axBase:
 11833 0334 0000      		.skip 2,0
 11834               	.global	ayBase
 11835               	.global	ayBase
 11838               	ayBase:
 11839 0336 0000      		.skip 2,0
 11840               	.global	azBase
 11841               	.global	azBase
 11844               	azBase:
 11845 0338 0000      		.skip 2,0
 11846               	.global	aset
 11847               	.global	aset
 11850               	aset:
 11851 033a 00        		.skip 1,0
 11852               	.global	calAccel
 11853               	.global	calAccel
 11856               	calAccel:
 11857 033b 0000      		.skip 2,0
 11858               	.global	accelCalibrated
 11859               	.global	accelCalibrated
 11862               	accelCalibrated:
 11863 033d 00        		.skip 1,0
 11864               	.global	gyro
 11865               	.global	gyro
 11868               	gyro:
 11869 033e 0000 0000 		.skip 25,0
 11869      0000 0000 
 11869      0000 0000 
 11869      0000 0000 
 11869      0000 0000 
 11870               	.global	gyroMicros
 11871               	.global	gyroMicros
 11874               	gyroMicros:
 11875 0357 0000 0000 		.skip 4,0
 11876               	.global	gyroDiff
 11877               	.global	gyroDiff
 11880               	gyroDiff:
 11881 035b 0000 0000 		.skip 4,0
 11882               	.global	gyroTick
 11883               	.global	gyroTick
 11886               	gyroTick:
 11887 035f 0000      		.skip 2,0
 11888               	.global	gxRaw
 11889               	.global	gxRaw
 11892               	gxRaw:
 11893 0361 0000      		.skip 2,0
 11894               	.global	gyRaw
 11895               	.global	gyRaw
 11898               	gyRaw:
 11899 0363 0000      		.skip 2,0
 11900               	.global	gzRaw
 11901               	.global	gzRaw
 11904               	gzRaw:
 11905 0365 0000      		.skip 2,0
 11906               	.global	gx
 11907               	.global	gx
 11910               	gx:
 11911 0367 0000      		.skip 2,0
 11912               	.global	gy
 11913               	.global	gy
 11916               	gy:
 11917 0369 0000      		.skip 2,0
 11918               	.global	gz
 11919               	.global	gz
 11922               	gz:
 11923 036b 0000      		.skip 2,0
 11924               	.global	gx0
 11925               	.global	gx0
 11928               	gx0:
 11929 036d 0000      		.skip 2,0
 11930               	.global	gy0
 11931               	.global	gy0
 11934               	gy0:
 11935 036f 0000      		.skip 2,0
 11936               	.global	gz0
 11937               	.global	gz0
 11940               	gz0:
 11941 0371 0000      		.skip 2,0
 11942               	.global	gx00
 11943               	.global	gx00
 11946               	gx00:
 11947 0373 0000      		.skip 2,0
 11948               	.global	gy00
 11949               	.global	gy00
 11952               	gy00:
 11953 0375 0000      		.skip 2,0
 11954               	.global	gz00
 11955               	.global	gz00
 11958               	gz00:
 11959 0377 0000      		.skip 2,0
 11960               	.global	cgx
 11961               	.global	cgx
 11964               	cgx:
 11965 0379 0000 0000 		.skip 4,0
 11966               	.global	cgy
 11967               	.global	cgy
 11970               	cgy:
 11971 037d 0000 0000 		.skip 4,0
 11972               	.global	cgz
 11973               	.global	cgz
 11976               	cgz:
 11977 0381 0000 0000 		.skip 4,0
 11978               	.global	gxBase
 11979               	.global	gxBase
 11982               	gxBase:
 11983 0385 0000      		.skip 2,0
 11984               	.global	gyBase
 11985               	.global	gyBase
 11988               	gyBase:
 11989 0387 0000      		.skip 2,0
 11990               	.global	gzBase
 11991               	.global	gzBase
 11994               	gzBase:
 11995 0389 0000      		.skip 2,0
 11996               	.global	gxHist
 11997               	.global	gxHist
 12000               	gxHist:
 12001 038b 0000 0000 		.skip 40,0
 12001      0000 0000 
 12001      0000 0000 
 12001      0000 0000 
 12001      0000 0000 
 12002               	.global	gyHist
 12003               	.global	gyHist
 12006               	gyHist:
 12007 03b3 0000 0000 		.skip 40,0
 12007      0000 0000 
 12007      0000 0000 
 12007      0000 0000 
 12007      0000 0000 
 12008               	.global	gzHist
 12009               	.global	gzHist
 12012               	gzHist:
 12013 03db 0000 0000 		.skip 40,0
 12013      0000 0000 
 12013      0000 0000 
 12013      0000 0000 
 12013      0000 0000 
 12014               	.global	gxMin
 12015               	.global	gxMin
 12018               	gxMin:
 12019 0403 0000      		.skip 2,0
 12020               	.global	gyMin
 12021               	.global	gyMin
 12024               	gyMin:
 12025 0405 0000      		.skip 2,0
 12026               	.global	gzMin
 12027               	.global	gzMin
 12030               	gzMin:
 12031 0407 0000      		.skip 2,0
 12032               	.global	gxMax
 12033               	.global	gxMax
 12036               	gxMax:
 12037 0409 0000      		.skip 2,0
 12038               	.global	gyMax
 12039               	.global	gyMax
 12042               	gyMax:
 12043 040b 0000      		.skip 2,0
 12044               	.global	gzMax
 12045               	.global	gzMax
 12048               	gzMax:
 12049 040d 0000      		.skip 2,0
 12050               	.global	gset
 12051               	.global	gset
 12054               	gset:
 12055 040f 00        		.skip 1,0
 12056               	.global	calGyro
 12057               	.global	calGyro
 12060               	calGyro:
 12061 0410 0000      		.skip 2,0
 12062               	.global	gyroCalibrated
 12063               	.global	gyroCalibrated
 12066               	gyroCalibrated:
 12067 0412 00        		.skip 1,0
 12068               	.global	tricolorBlinkRed
 12069               	.global	tricolorBlinkRed
 12072               	tricolorBlinkRed:
 12073 0413 0000      		.skip 2,0
 12074               	.global	tricolorBlinkGreen
 12075               	.global	tricolorBlinkGreen
 12078               	tricolorBlinkGreen:
 12079 0415 0000      		.skip 2,0
 12080               	.global	tricolorBlinkBlue
 12081               	.global	tricolorBlinkBlue
 12084               	tricolorBlinkBlue:
 12085 0417 0000      		.skip 2,0
 12086               	.global	blink_led
 12087               	.global	blink_led
 12090               	blink_led:
 12091 0419 00        		.skip 1,0
 12092               	.global	modifiersDown
 12093               	.global	modifiersDown
 12096               	modifiersDown:
 12097 041a 0000      		.skip 2,0
 12098               	.global	keysDown
 12099               	.global	keysDown
 12102               	keysDown:
 12103 041c 0000 0000 		.skip 12,0
 12103      0000 0000 
 12103      0000 0000 
 12104               	.global	mouseDown
 12105               	.global	mouseDown
 12108               	mouseDown:
 12109 0428 0000      		.skip 2,0
 12110               	.global	modeStack
 12111               	.global	modeStack
 12114               	modeStack:
 12115 042a 0000 0000 		.skip 20,0
 12115      0000 0000 
 12115      0000 0000 
 12115      0000 0000 
 12115      0000 0000 
 12116               	.global	modeStackPos
 12117               	.global	modeStackPos
 12120               	modeStackPos:
 12121 043e 0000      		.skip 2,0
 12122               	.global	touchTime
 12123               	.global	touchTime
 12126               	touchTime:
 12127 0440 0000 0000 		.skip 4,0
 12128               	.global	adding
 12129               	.global	adding
 12132               	adding:
 12133 0444 00        		.skip 1,0
 12134               	.global	removing
 12135               	.global	removing
 12138               	removing:
 12139 0445 00        		.skip 1,0
 12140               	.global	detect1
 12141               	.global	detect1
 12144               	detect1:
 12145 0446 0000 0000 		.skip 4,0
 12146               	.global	detect2
 12147               	.global	detect2
 12150               	detect2:
 12151 044a 0000 0000 		.skip 4,0
 12152               	.global	verify1
 12153               	.global	verify1
 12156               	verify1:
 12157 044e 0000 0000 		.skip 4,0
 12158               	.global	verify2
 12159               	.global	verify2
 12162               	verify2:
 12163 0452 0000 0000 		.skip 4,0
 12164               	.global	sensors1
 12165               	.global	sensors1
 12168               	sensors1:
 12169 0456 0000 0000 		.skip 4,0
 12170               	.global	sensors2
 12171               	.global	sensors2
 12174               	sensors2:
 12175 045a 0000 0000 		.skip 4,0
 12176               	.global	mode
 12177               	.global	mode
 12180               	mode:
 12181 045e 00        		.skip 1,0
 12518               	.Letext0:
DEFINED SYMBOLS
                            *ABS*:00000000 Keyglove.cpp
C:\Users\JEFFRO~1\AppData\Local\Temp/ccWfYyW7.s:2      *ABS*:0000003f __SREG__
C:\Users\JEFFRO~1\AppData\Local\Temp/ccWfYyW7.s:3      *ABS*:0000003e __SP_H__
C:\Users\JEFFRO~1\AppData\Local\Temp/ccWfYyW7.s:4      *ABS*:0000003d __SP_L__
C:\Users\JEFFRO~1\AppData\Local\Temp/ccWfYyW7.s:5      *ABS*:00000034 __CCP__
C:\Users\JEFFRO~1\AppData\Local\Temp/ccWfYyW7.s:6      *ABS*:00000000 __tmp_reg__
C:\Users\JEFFRO~1\AppData\Local\Temp/ccWfYyW7.s:7      *ABS*:00000001 __zero_reg__
C:\Users\JEFFRO~1\AppData\Local\Temp/ccWfYyW7.s:18     .text:00000000 _Z9modeCheckii
C:\Users\JEFFRO~1\AppData\Local\Temp/ccWfYyW7.s:12120  .bss:0000043e modeStackPos
C:\Users\JEFFRO~1\AppData\Local\Temp/ccWfYyW7.s:12114  .bss:0000042a modeStack
C:\Users\JEFFRO~1\AppData\Local\Temp/ccWfYyW7.s:59     .text:00000032 EVENT_USB_Device_Connect
C:\Users\JEFFRO~1\AppData\Local\Temp/ccWfYyW7.s:80     .text:0000003c EVENT_USB_Device_Disconnect
C:\Users\JEFFRO~1\AppData\Local\Temp/ccWfYyW7.s:101    .text:00000046 ProcessHIDReport
C:\Users\JEFFRO~1\AppData\Local\Temp/ccWfYyW7.s:114    .text:00000048 _Z25Keyboard_ProcessLEDReporth
C:\Users\JEFFRO~1\AppData\Local\Temp/ccWfYyW7.s:156    .text:00000062 _GLOBAL__I_HIDReportInData
C:\Users\JEFFRO~1\AppData\Local\Temp/ccWfYyW7.s:11574  .bss:0000025e accel
C:\Users\JEFFRO~1\AppData\Local\Temp/ccWfYyW7.s:11868  .bss:0000033e gyro
C:\Users\JEFFRO~1\AppData\Local\Temp/ccWfYyW7.s:184    .text:00000074 HID_Task
C:\Users\JEFFRO~1\AppData\Local\Temp/ccWfYyW7.s:11052  .bss:00000009 HIDReportOutData
C:\Users\JEFFRO~1\AppData\Local\Temp/ccWfYyW7.s:11046  .bss:00000000 HIDReportInData
C:\Users\JEFFRO~1\AppData\Local\Temp/ccWfYyW7.s:287    .text:000000ea CDC_Task
C:\Users\JEFFRO~1\AppData\Local\Temp/ccWfYyW7.s:11083  .bss:0000011d HostTXSerial_Buffer
C:\Users\JEFFRO~1\AppData\Local\Temp/ccWfYyW7.s:11058  .data:000001ce LineEncodingData
C:\Users\JEFFRO~1\AppData\Local\Temp/ccWfYyW7.s:11071  .bss:00000012 HostRXSerial_Buffer
C:\Users\JEFFRO~1\AppData\Local\Temp/ccWfYyW7.s:626    .text:00000210 EVENT_USB_Device_ControlRequest
C:\Users\JEFFRO~1\AppData\Local\Temp/ccWfYyW7.s:783    .text:000002f0 EVENT_USB_Device_ConfigurationChanged
C:\Users\JEFFRO~1\AppData\Local\Temp/ccWfYyW7.s:903    .text:000003a6 SetupHardware
C:\Users\JEFFRO~1\AppData\Local\Temp/ccWfYyW7.s:985    .text:00000408 _Z8tricolorhhh
C:\Users\JEFFRO~1\AppData\Local\Temp/ccWfYyW7.s:1039   .text:0000043c _Z8mouseoffi
C:\Users\JEFFRO~1\AppData\Local\Temp/ccWfYyW7.s:11508  .bss:0000025c opt_mouse_mode
C:\Users\JEFFRO~1\AppData\Local\Temp/ccWfYyW7.s:11514  .bss:0000025d opt_scroll_mode
C:\Users\JEFFRO~1\AppData\Local\Temp/ccWfYyW7.s:1087   .text:00000470 _Z7mouseoni
C:\Users\JEFFRO~1\AppData\Local\Temp/ccWfYyW7.s:1139   .text:000004a8 _Z7vibrateii
C:\Users\JEFFRO~1\AppData\Local\Temp/ccWfYyW7.s:1196   .text:000004f2 _Z7blueledii
C:\Users\JEFFRO~1\AppData\Local\Temp/ccWfYyW7.s:12084  .bss:00000417 tricolorBlinkBlue
C:\Users\JEFFRO~1\AppData\Local\Temp/ccWfYyW7.s:1303   .text:00000598 _Z8greenledii
C:\Users\JEFFRO~1\AppData\Local\Temp/ccWfYyW7.s:12078  .bss:00000415 tricolorBlinkGreen
C:\Users\JEFFRO~1\AppData\Local\Temp/ccWfYyW7.s:1409   .text:0000063c _Z6redledii
C:\Users\JEFFRO~1\AppData\Local\Temp/ccWfYyW7.s:12072  .bss:00000413 tricolorBlinkRed
C:\Users\JEFFRO~1\AppData\Local\Temp/ccWfYyW7.s:1514   .text:000006de _Z4beepiii
C:\Users\JEFFRO~1\AppData\Local\Temp/ccWfYyW7.s:1666   .text:000007ac _Z10modifierupi
C:\Users\JEFFRO~1\AppData\Local\Temp/ccWfYyW7.s:12096  .bss:0000041a modifiersDown
C:\Users\JEFFRO~1\AppData\Local\Temp/ccWfYyW7.s:1720   .text:000007fe _Z15deactivate_modei
C:\Users\JEFFRO~1\AppData\Local\Temp/ccWfYyW7.s:1745   .text:0000080c _Z12modifierdowni
C:\Users\JEFFRO~1\AppData\Local\Temp/ccWfYyW7.s:1795   .text:0000085a _Z13activate_modei
C:\Users\JEFFRO~1\AppData\Local\Temp/ccWfYyW7.s:1955   .text:0000094e _Z7popmodev
C:\Users\JEFFRO~1\AppData\Local\Temp/ccWfYyW7.s:2016   .text:000009bc _Z8pushmodei
C:\Users\JEFFRO~1\AppData\Local\Temp/ccWfYyW7.s:2073   .text:00000a0a _Z10togglemodei
C:\Users\JEFFRO~1\AppData\Local\Temp/ccWfYyW7.s:2178   .text:00000a9e _Z7setmodei
C:\Users\JEFFRO~1\AppData\Local\Temp/ccWfYyW7.s:2245   .text:00000b0c setup
C:\Users\JEFFRO~1\AppData\Local\Temp/ccWfYyW7.s:12090  .bss:00000419 blink_led
C:\Users\JEFFRO~1\AppData\Local\Temp/ccWfYyW7.s:11295  .bss:00000233 i
C:\Users\JEFFRO~1\AppData\Local\Temp/ccWfYyW7.s:11113  .data:000001d5 pins
C:\Users\JEFFRO~1\AppData\Local\Temp/ccWfYyW7.s:12180  .bss:0000045e mode
C:\Users\JEFFRO~1\AppData\Local\Temp/ccWfYyW7.s:11628  .bss:00000278 z
C:\Users\JEFFRO~1\AppData\Local\Temp/ccWfYyW7.s:11622  .bss:00000276 y
C:\Users\JEFFRO~1\AppData\Local\Temp/ccWfYyW7.s:11616  .bss:00000274 x
C:\Users\JEFFRO~1\AppData\Local\Temp/ccWfYyW7.s:11700  .bss:00000294 cz
C:\Users\JEFFRO~1\AppData\Local\Temp/ccWfYyW7.s:11694  .bss:00000290 cy
C:\Users\JEFFRO~1\AppData\Local\Temp/ccWfYyW7.s:11688  .bss:0000028c cx
C:\Users\JEFFRO~1\AppData\Local\Temp/ccWfYyW7.s:11790  .bss:00000326 az
C:\Users\JEFFRO~1\AppData\Local\Temp/ccWfYyW7.s:11784  .bss:00000324 ay
C:\Users\JEFFRO~1\AppData\Local\Temp/ccWfYyW7.s:11778  .bss:00000322 ax
C:\Users\JEFFRO~1\AppData\Local\Temp/ccWfYyW7.s:11580  .bss:00000264 accelMicros
C:\Users\JEFFRO~1\AppData\Local\Temp/ccWfYyW7.s:11592  .bss:0000026c accelTick
C:\Users\JEFFRO~1\AppData\Local\Temp/ccWfYyW7.s:11862  .bss:0000033d accelCalibrated
C:\Users\JEFFRO~1\AppData\Local\Temp/ccWfYyW7.s:11754  .bss:0000031a zMin
C:\Users\JEFFRO~1\AppData\Local\Temp/ccWfYyW7.s:11748  .bss:00000318 yMin
C:\Users\JEFFRO~1\AppData\Local\Temp/ccWfYyW7.s:11742  .bss:00000316 xMin
C:\Users\JEFFRO~1\AppData\Local\Temp/ccWfYyW7.s:11772  .bss:00000320 zMax
C:\Users\JEFFRO~1\AppData\Local\Temp/ccWfYyW7.s:11766  .bss:0000031e yMax
C:\Users\JEFFRO~1\AppData\Local\Temp/ccWfYyW7.s:11760  .bss:0000031c xMax
C:\Users\JEFFRO~1\AppData\Local\Temp/ccWfYyW7.s:11922  .bss:0000036b gz
C:\Users\JEFFRO~1\AppData\Local\Temp/ccWfYyW7.s:11916  .bss:00000369 gy
C:\Users\JEFFRO~1\AppData\Local\Temp/ccWfYyW7.s:11910  .bss:00000367 gx
C:\Users\JEFFRO~1\AppData\Local\Temp/ccWfYyW7.s:11874  .bss:00000357 gyroMicros
C:\Users\JEFFRO~1\AppData\Local\Temp/ccWfYyW7.s:11886  .bss:0000035f gyroTick
C:\Users\JEFFRO~1\AppData\Local\Temp/ccWfYyW7.s:12066  .bss:00000412 gyroCalibrated
C:\Users\JEFFRO~1\AppData\Local\Temp/ccWfYyW7.s:12030  .bss:00000407 gzMin
C:\Users\JEFFRO~1\AppData\Local\Temp/ccWfYyW7.s:12024  .bss:00000405 gyMin
C:\Users\JEFFRO~1\AppData\Local\Temp/ccWfYyW7.s:12018  .bss:00000403 gxMin
C:\Users\JEFFRO~1\AppData\Local\Temp/ccWfYyW7.s:12048  .bss:0000040d gzMax
C:\Users\JEFFRO~1\AppData\Local\Temp/ccWfYyW7.s:12042  .bss:0000040b gyMax
C:\Users\JEFFRO~1\AppData\Local\Temp/ccWfYyW7.s:12036  .bss:00000409 gxMax
C:\Users\JEFFRO~1\AppData\Local\Temp/ccWfYyW7.s:11349  .bss:00000245 mz0
C:\Users\JEFFRO~1\AppData\Local\Temp/ccWfYyW7.s:11343  .bss:00000243 my0
C:\Users\JEFFRO~1\AppData\Local\Temp/ccWfYyW7.s:11337  .bss:00000241 mx0
C:\Users\JEFFRO~1\AppData\Local\Temp/ccWfYyW7.s:11325  .bss:0000023d mz
C:\Users\JEFFRO~1\AppData\Local\Temp/ccWfYyW7.s:11319  .bss:0000023b my
C:\Users\JEFFRO~1\AppData\Local\Temp/ccWfYyW7.s:11313  .bss:00000239 mx
C:\Users\JEFFRO~1\AppData\Local\Temp/ccWfYyW7.s:11355  .bss:00000247 sy0
C:\Users\JEFFRO~1\AppData\Local\Temp/ccWfYyW7.s:11331  .bss:0000023f sy
C:\Users\JEFFRO~1\AppData\Local\Temp/ccWfYyW7.s:11289  .bss:0000022f t
C:\Users\JEFFRO~1\AppData\Local\Temp/ccWfYyW7.s:2539   .text:00000de6 _Z13modifierpressi
C:\Users\JEFFRO~1\AppData\Local\Temp/ccWfYyW7.s:2590   .text:00000e28 _Z14togglemodifieri
C:\Users\JEFFRO~1\AppData\Local\Temp/ccWfYyW7.s:2642   .text:00000e6a _Z5keyupi
C:\Users\JEFFRO~1\AppData\Local\Temp/ccWfYyW7.s:12102  .bss:0000041c keysDown
C:\Users\JEFFRO~1\AppData\Local\Temp/ccWfYyW7.s:2792   .text:00000f38 _Z7keydowni
C:\Users\JEFFRO~1\AppData\Local\Temp/ccWfYyW7.s:2946   .text:00001008 _Z8keypressi
C:\Users\JEFFRO~1\AppData\Local\Temp/ccWfYyW7.s:2997   .text:0000104a _Z7mouseupi
C:\Users\JEFFRO~1\AppData\Local\Temp/ccWfYyW7.s:12108  .bss:00000428 mouseDown
C:\Users\JEFFRO~1\AppData\Local\Temp/ccWfYyW7.s:3058   .text:000010a8 _Z21check_sensors_releasemmi
C:\Users\JEFFRO~1\AppData\Local\Temp/ccWfYyW7.s:7111   .text:00002a30 _Z9mousedowni
C:\Users\JEFFRO~1\AppData\Local\Temp/ccWfYyW7.s:7164   .text:00002a82 _Z19check_sensors_touchmmi
C:\Users\JEFFRO~1\AppData\Local\Temp/ccWfYyW7.s:7605   .text:00002d1e loop
C:\Users\JEFFRO~1\AppData\Local\Temp/ccWfYyW7.s:11301  .bss:00000237 moveMouse
C:\Users\JEFFRO~1\AppData\Local\Temp/ccWfYyW7.s:11307  .bss:00000238 scrollMouse
C:\Users\JEFFRO~1\AppData\Local\Temp/ccWfYyW7.s:11445  .data:00000329 opt_motion_sampling_div
C:\Users\JEFFRO~1\AppData\Local\Temp/ccWfYyW7.s:11277  .bss:0000022b counter
C:\Users\JEFFRO~1\AppData\Local\Temp/ccWfYyW7.s:11634  .bss:0000027a x0
C:\Users\JEFFRO~1\AppData\Local\Temp/ccWfYyW7.s:11652  .bss:00000280 x00
C:\Users\JEFFRO~1\AppData\Local\Temp/ccWfYyW7.s:11640  .bss:0000027c y0
C:\Users\JEFFRO~1\AppData\Local\Temp/ccWfYyW7.s:11658  .bss:00000282 y00
C:\Users\JEFFRO~1\AppData\Local\Temp/ccWfYyW7.s:11646  .bss:0000027e z0
C:\Users\JEFFRO~1\AppData\Local\Temp/ccWfYyW7.s:11664  .bss:00000284 z00
C:\Users\JEFFRO~1\AppData\Local\Temp/ccWfYyW7.s:11479  .bss:0000025a opt_accel_rot90
C:\Users\JEFFRO~1\AppData\Local\Temp/ccWfYyW7.s:11598  .bss:0000026e xRaw
C:\Users\JEFFRO~1\AppData\Local\Temp/ccWfYyW7.s:11604  .bss:00000270 yRaw
C:\Users\JEFFRO~1\AppData\Local\Temp/ccWfYyW7.s:11610  .bss:00000272 zRaw
C:\Users\JEFFRO~1\AppData\Local\Temp/ccWfYyW7.s:11586  .bss:00000268 accelDiff
C:\Users\JEFFRO~1\AppData\Local\Temp/ccWfYyW7.s:11398  .data:0000030b opt_accel_offset
C:\Users\JEFFRO~1\AppData\Local\Temp/ccWfYyW7.s:11405  .data:00000311 opt_accel_calibrate
C:\Users\JEFFRO~1\AppData\Local\Temp/ccWfYyW7.s:11450  .data:0000032b opt_accel_kalman_constant
C:\Users\JEFFRO~1\AppData\Local\Temp/ccWfYyW7.s:11466  .data:00000333 opt_accel_smooth_average
C:\Users\JEFFRO~1\AppData\Local\Temp/ccWfYyW7.s:11724  .bss:0000029e xHist
C:\Users\JEFFRO~1\AppData\Local\Temp/ccWfYyW7.s:11730  .bss:000002c6 yHist
C:\Users\JEFFRO~1\AppData\Local\Temp/ccWfYyW7.s:11736  .bss:000002ee zHist
C:\Users\JEFFRO~1\AppData\Local\Temp/ccWfYyW7.s:11670  .bss:00000286 xv
C:\Users\JEFFRO~1\AppData\Local\Temp/ccWfYyW7.s:11676  .bss:00000288 yv
C:\Users\JEFFRO~1\AppData\Local\Temp/ccWfYyW7.s:11682  .bss:0000028a zv
C:\Users\JEFFRO~1\AppData\Local\Temp/ccWfYyW7.s:11392  .bss:00000251 opt_enable_calibration
C:\Users\JEFFRO~1\AppData\Local\Temp/ccWfYyW7.s:11796  .bss:00000328 ax0
C:\Users\JEFFRO~1\AppData\Local\Temp/ccWfYyW7.s:11814  .bss:0000032e ax00
C:\Users\JEFFRO~1\AppData\Local\Temp/ccWfYyW7.s:11802  .bss:0000032a ay0
C:\Users\JEFFRO~1\AppData\Local\Temp/ccWfYyW7.s:11820  .bss:00000330 ay00
C:\Users\JEFFRO~1\AppData\Local\Temp/ccWfYyW7.s:11808  .bss:0000032c az0
C:\Users\JEFFRO~1\AppData\Local\Temp/ccWfYyW7.s:11826  .bss:00000332 az00
C:\Users\JEFFRO~1\AppData\Local\Temp/ccWfYyW7.s:11928  .bss:0000036d gx0
C:\Users\JEFFRO~1\AppData\Local\Temp/ccWfYyW7.s:11946  .bss:00000373 gx00
C:\Users\JEFFRO~1\AppData\Local\Temp/ccWfYyW7.s:11934  .bss:0000036f gy0
C:\Users\JEFFRO~1\AppData\Local\Temp/ccWfYyW7.s:11952  .bss:00000375 gy00
C:\Users\JEFFRO~1\AppData\Local\Temp/ccWfYyW7.s:11940  .bss:00000371 gz0
C:\Users\JEFFRO~1\AppData\Local\Temp/ccWfYyW7.s:11958  .bss:00000377 gz00
C:\Users\JEFFRO~1\AppData\Local\Temp/ccWfYyW7.s:11485  .data:00000334 opt_gyro_rot90
C:\Users\JEFFRO~1\AppData\Local\Temp/ccWfYyW7.s:11892  .bss:00000361 gxRaw
C:\Users\JEFFRO~1\AppData\Local\Temp/ccWfYyW7.s:11898  .bss:00000363 gyRaw
C:\Users\JEFFRO~1\AppData\Local\Temp/ccWfYyW7.s:11904  .bss:00000365 gzRaw
C:\Users\JEFFRO~1\AppData\Local\Temp/ccWfYyW7.s:11880  .bss:0000035b gyroDiff
C:\Users\JEFFRO~1\AppData\Local\Temp/ccWfYyW7.s:11423  .bss:00000253 opt_gyro_offset
C:\Users\JEFFRO~1\AppData\Local\Temp/ccWfYyW7.s:11429  .data:0000031d opt_gyro_calibrate
C:\Users\JEFFRO~1\AppData\Local\Temp/ccWfYyW7.s:11458  .data:0000032f opt_gyro_kalman_constant
C:\Users\JEFFRO~1\AppData\Local\Temp/ccWfYyW7.s:11473  .bss:00000259 opt_gyro_smooth_average
C:\Users\JEFFRO~1\AppData\Local\Temp/ccWfYyW7.s:12000  .bss:0000038b gxHist
C:\Users\JEFFRO~1\AppData\Local\Temp/ccWfYyW7.s:12006  .bss:000003b3 gyHist
C:\Users\JEFFRO~1\AppData\Local\Temp/ccWfYyW7.s:12012  .bss:000003db gzHist
C:\Users\JEFFRO~1\AppData\Local\Temp/ccWfYyW7.s:11850  .bss:0000033a aset
C:\Users\JEFFRO~1\AppData\Local\Temp/ccWfYyW7.s:11832  .bss:00000334 axBase
C:\Users\JEFFRO~1\AppData\Local\Temp/ccWfYyW7.s:11520  .data:00000337 opt_mouse_scale_mode1
C:\Users\JEFFRO~1\AppData\Local\Temp/ccWfYyW7.s:11838  .bss:00000336 ayBase
C:\Users\JEFFRO~1\AppData\Local\Temp/ccWfYyW7.s:11844  .bss:00000338 azBase
C:\Users\JEFFRO~1\AppData\Local\Temp/ccWfYyW7.s:11706  .bss:00000298 xBase
C:\Users\JEFFRO~1\AppData\Local\Temp/ccWfYyW7.s:11544  .data:00000347 opt_mouse_scale_mode3
C:\Users\JEFFRO~1\AppData\Local\Temp/ccWfYyW7.s:11718  .bss:0000029c zBase
C:\Users\JEFFRO~1\AppData\Local\Temp/ccWfYyW7.s:11712  .bss:0000029a yBase
C:\Users\JEFFRO~1\AppData\Local\Temp/ccWfYyW7.s:11556  .data:0000034f opt_mouse_scale_mode4
C:\Users\JEFFRO~1\AppData\Local\Temp/ccWfYyW7.s:11361  .bss:00000249 mdx
C:\Users\JEFFRO~1\AppData\Local\Temp/ccWfYyW7.s:11367  .bss:0000024b mdy
C:\Users\JEFFRO~1\AppData\Local\Temp/ccWfYyW7.s:11373  .bss:0000024d mdz
C:\Users\JEFFRO~1\AppData\Local\Temp/ccWfYyW7.s:11490  .data:00000335 opt_mouse_invert_x
C:\Users\JEFFRO~1\AppData\Local\Temp/ccWfYyW7.s:11495  .data:00000336 opt_mouse_invert_y
C:\Users\JEFFRO~1\AppData\Local\Temp/ccWfYyW7.s:11502  .bss:0000025b opt_mouse_invert_z
C:\Users\JEFFRO~1\AppData\Local\Temp/ccWfYyW7.s:11379  .bss:0000024f sdy
C:\Users\JEFFRO~1\AppData\Local\Temp/ccWfYyW7.s:12144  .bss:00000446 detect1
C:\Users\JEFFRO~1\AppData\Local\Temp/ccWfYyW7.s:12150  .bss:0000044a detect2
C:\Users\JEFFRO~1\AppData\Local\Temp/ccWfYyW7.s:12138  .bss:00000445 removing
C:\Users\JEFFRO~1\AppData\Local\Temp/ccWfYyW7.s:11151  .data:00000219 combinations
C:\Users\JEFFRO~1\AppData\Local\Temp/ccWfYyW7.s:12156  .bss:0000044e verify1
C:\Users\JEFFRO~1\AppData\Local\Temp/ccWfYyW7.s:12162  .bss:00000452 verify2
C:\Users\JEFFRO~1\AppData\Local\Temp/ccWfYyW7.s:12126  .bss:00000440 touchTime
C:\Users\JEFFRO~1\AppData\Local\Temp/ccWfYyW7.s:12168  .bss:00000456 sensors1
C:\Users\JEFFRO~1\AppData\Local\Temp/ccWfYyW7.s:12174  .bss:0000045a sensors2
C:\Users\JEFFRO~1\AppData\Local\Temp/ccWfYyW7.s:11385  .data:00000309 opt_touch_detect_threshold
C:\Users\JEFFRO~1\AppData\Local\Temp/ccWfYyW7.s:12132  .bss:00000444 adding
C:\Users\JEFFRO~1\AppData\Local\Temp/ccWfYyW7.s:11283  .bss:0000022d ticks
C:\Users\JEFFRO~1\AppData\Local\Temp/ccWfYyW7.s:10834  .text:00004c5c main
C:\Users\JEFFRO~1\AppData\Local\Temp/ccWfYyW7.s:11077  .bss:0000001d HostRXSerial_Buffer_Data
C:\Users\JEFFRO~1\AppData\Local\Temp/ccWfYyW7.s:11089  .bss:00000128 HostTXSerial_Buffer_Data
C:\Users\JEFFRO~1\AppData\Local\Temp/ccWfYyW7.s:11095  .bss:00000228 CDCTaskRun
C:\Users\JEFFRO~1\AppData\Local\Temp/ccWfYyW7.s:11101  .bss:00000229 HIDTaskRun
C:\Users\JEFFRO~1\AppData\Local\Temp/ccWfYyW7.s:10996  .text:00004ce6 _Z10mouseclicki
C:\Users\JEFFRO~1\AppData\Local\Temp/ccWfYyW7.s:11107  .bss:0000022a ide_workaround
C:\Users\JEFFRO~1\AppData\Local\Temp/ccWfYyW7.s:11532  .data:0000033f opt_mouse_scale_mode2
C:\Users\JEFFRO~1\AppData\Local\Temp/ccWfYyW7.s:11856  .bss:0000033b calAccel
C:\Users\JEFFRO~1\AppData\Local\Temp/ccWfYyW7.s:11964  .bss:00000379 cgx
C:\Users\JEFFRO~1\AppData\Local\Temp/ccWfYyW7.s:11970  .bss:0000037d cgy
C:\Users\JEFFRO~1\AppData\Local\Temp/ccWfYyW7.s:11976  .bss:00000381 cgz
C:\Users\JEFFRO~1\AppData\Local\Temp/ccWfYyW7.s:11982  .bss:00000385 gxBase
C:\Users\JEFFRO~1\AppData\Local\Temp/ccWfYyW7.s:11988  .bss:00000387 gyBase
C:\Users\JEFFRO~1\AppData\Local\Temp/ccWfYyW7.s:11994  .bss:00000389 gzBase
C:\Users\JEFFRO~1\AppData\Local\Temp/ccWfYyW7.s:12054  .bss:0000040f gset
C:\Users\JEFFRO~1\AppData\Local\Temp/ccWfYyW7.s:12060  .bss:00000410 calGyro

UNDEFINED SYMBOLS
_ZN13AccelerometerC1Ev
_ZN7ITG3200C1Ev
__do_global_ctors
USB_DeviceState
Endpoint_Read_Stream_LE
Endpoint_Write_Stream_LE
Endpoint_WaitUntilReady
USB_ControlRequest
Endpoint_Write_Control_Stream_LE
Endpoint_Read_Control_Stream_LE
Endpoint_ClearStatusStage
Endpoint_ConfigureEndpoint_Prv
USB_Init
digitalWrite
Serial
_ZN16USBVirtualSerial5printEPKc
_ZN16USBVirtualSerial7printlnEi
_ZN16USBVirtualSerial5printEi
_Z6noToneh
delay
_Z4tonehjm
Keyboard
_ZN11USBKeyboard12set_modifierEh
_ZN11USBKeyboard8send_nowEv
_ZN16USBVirtualSerial7printlnEPKc
_ZN16USBVirtualSerial5beginEm
pinMode
_ZN13Accelerometer7powerOnEv
_ZN13Accelerometer7setRateEf
_ZN7ITG32004initEj
millis
_ZN11USBKeyboard8set_key1Eh
_ZN11USBKeyboard8set_key2Eh
_ZN11USBKeyboard8set_key3Eh
_ZN11USBKeyboard8set_key4Eh
_ZN11USBKeyboard8set_key5Eh
_ZN11USBKeyboard8set_key6Eh
Mouse
_ZN8USBMouse11set_buttonsEhhh
__divmodhi4
_ZN13Accelerometer9readAccelEPiS0_S0_
micros
__floatsisf
__mulsf3
__fixsfsi
__addsf3
__divmodsi4
sqrt
__divsf3
atan
_ZN7ITG320011readGyroRawEPiS0_S0_
__subsf3
_ZN8USBMouse4moveEhhh
_ZN8USBMouse4moveEhh
_ZN8USBMouse6scrollEh
digitalRead
_ZN16USBVirtualSerial5printEm
init
USB_USBTask
__do_copy_data
__do_clear_bss
