   1               		.file	"EndpointStream.c"
   2               	__SREG__ = 0x3f
   3               	__SP_H__ = 0x3e
   4               	__SP_L__ = 0x3d
   5               	__CCP__  = 0x34
   6               	__tmp_reg__ = 0
   7               	__zero_reg__ = 1
  15               	.Ltext0:
  16               		.section	.text.Endpoint_Write_Control_Stream_LE,"ax",@progbits
  17               	.global	Endpoint_Write_Control_Stream_LE
  19               	Endpoint_Write_Control_Stream_LE:
  20               	.LFB95:
  21               	.LSM0:
  22               	.LVL0:
  23               	/* prologue: function */
  24               	/* frame size = 0 */
  25 0000 9C01      		movw r18,r24
  26               	.LVL1:
  27               	.LSM1:
  28 0002 4091 0000 		lds r20,USB_ControlRequest+6
  29 0006 5091 0000 		lds r21,(USB_ControlRequest+6)+1
  30               	.LVL2:
  31 000a 4617      		cp r20,r22
  32 000c 5707      		cpc r21,r23
  33 000e 00F4      		brsh .L2
  34               	.L5:
  35               	.LSM2:
  36 0010 F901      		movw r30,r18
  37               	.LVL3:
  38 0012 90E0      		ldi r25,lo8(0)
  39               	.LVL4:
  40 0014 00C0      		rjmp .L21
  41               	.LVL5:
  42               	.L2:
  43               	.LSM3:
  44 0016 6115      		cp r22,__zero_reg__
  45 0018 7105      		cpc r23,__zero_reg__
  46 001a 01F0      		breq .L4
  47               	.LVL6:
  48 001c AB01      		movw r20,r22
  49 001e 00C0      		rjmp .L5
  50               	.L4:
  51               	.LBB256:
  52               	.LBB257:
  53               	.LSM4:
  54 0020 8091 E800 		lds r24,232
  55 0024 8E77      		andi r24,lo8(126)
  56 0026 8093 E800 		sts 232,r24
  57 002a 40E0      		ldi r20,lo8(0)
  58 002c 50E0      		ldi r21,hi8(0)
  59               	.LVL7:
  60 002e 00C0      		rjmp .L5
  61               	.LVL8:
  62               	.L15:
  63               	.LBE257:
  64               	.LBE256:
  65               	.LBB258:
  66               	.LSM5:
  67 0030 8091 0000 		lds r24,USB_DeviceState
  68               	.LVL9:
  69               	.LSM6:
  70 0034 8823      		tst r24
  71 0036 01F0      		breq .L6
  72               	.LSM7:
  73 0038 8530      		cpi r24,lo8(5)
  74 003a 01F0      		breq .L7
  75               	.LBB259:
  76               	.LBB260:
  77               	.LSM8:
  78 003c 8091 E800 		lds r24,232
  79               	.LVL10:
  80               	.LBE260:
  81               	.LBE259:
  82               	.LSM9:
  83 0040 83FF      		sbrs r24,3
  84 0042 00C0      		rjmp .L8
  85 0044 81E0      		ldi r24,lo8(1)
  86 0046 0895      		ret
  87               	.L8:
  88               	.LBB261:
  89               	.LBB262:
  90               	.LSM10:
  91 0048 8091 E800 		lds r24,232
  92               	.LBE262:
  93               	.LBE261:
  94               	.LSM11:
  95 004c 82FD      		sbrc r24,2
  96 004e 00C0      		rjmp .L19
  97               	.LBB263:
  98               	.LBB264:
  99               	.LSM12:
 100 0050 8091 E800 		lds r24,232
 101               	.LBE264:
 102               	.LBE263:
 103               	.LSM13:
 104 0054 80FF      		sbrs r24,0
 105 0056 00C0      		rjmp .L21
 106               	.LBB265:
 107               	.LBB266:
 108               	.LBB267:
 109               	.LSM14:
 110 0058 2091 F200 		lds r18,242
 111 005c 3091 F300 		lds r19,(242)+1
 112 0060 00C0      		rjmp .L11
 113               	.L13:
 114               	.LBE267:
 115               	.LBE266:
 116               	.LSM15:
 117 0062 8191      		ld r24,Z+
 118               	.LBB268:
 119               	.LBB269:
 120               	.LSM16:
 121 0064 8093 F100 		sts 241,r24
 122               	.LBE269:
 123               	.LBE268:
 124               	.LSM17:
 125 0068 4150      		subi r20,lo8(-(-1))
 126 006a 5040      		sbci r21,hi8(-(-1))
 127               	.LSM18:
 128 006c 2F5F      		subi r18,lo8(-(1))
 129 006e 3F4F      		sbci r19,hi8(-(1))
 130               	.LVL11:
 131               	.L11:
 132               	.LSM19:
 133 0070 4115      		cp r20,__zero_reg__
 134 0072 5105      		cpc r21,__zero_reg__
 135 0074 01F0      		breq .L12
 136 0076 2830      		cpi r18,8
 137 0078 3105      		cpc r19,__zero_reg__
 138 007a 00F0      		brlo .L13
 139               	.L12:
 140               	.LSM20:
 141 007c 90E0      		ldi r25,lo8(0)
 142 007e 2830      		cpi r18,8
 143 0080 3105      		cpc r19,__zero_reg__
 144 0082 01F4      		brne .L14
 145 0084 91E0      		ldi r25,lo8(1)
 146               	.L14:
 147               	.LBB270:
 148               	.LBB271:
 149               	.LSM21:
 150 0086 8091 E800 		lds r24,232
 151 008a 8E77      		andi r24,lo8(126)
 152 008c 8093 E800 		sts 232,r24
 153               	.LVL12:
 154               	.L21:
 155               	.LBE271:
 156               	.LBE270:
 157               	.LBE265:
 158               	.LBE258:
 159               	.LSM22:
 160 0090 4115      		cp r20,__zero_reg__
 161 0092 5105      		cpc r21,__zero_reg__
 162 0094 01F4      		brne .L15
 163 0096 9923      		tst r25
 164 0098 01F4      		brne .L15
 165 009a 00C0      		rjmp .L19
 166               	.L16:
 167               	.LBB272:
 168               	.LSM23:
 169 009c 8091 0000 		lds r24,USB_DeviceState
 170               	.LVL13:
 171               	.LSM24:
 172 00a0 8823      		tst r24
 173 00a2 01F0      		breq .L6
 174               	.LSM25:
 175 00a4 8530      		cpi r24,lo8(5)
 176 00a6 01F0      		breq .L7
 177               	.L19:
 178               	.LBE272:
 179               	.LBB273:
 180               	.LBB274:
 181               	.LSM26:
 182 00a8 8091 E800 		lds r24,232
 183               	.LVL14:
 184               	.LBE274:
 185               	.LBE273:
 186               	.LSM27:
 187 00ac 82FF      		sbrs r24,2
 188 00ae 00C0      		rjmp .L16
 189 00b0 80E0      		ldi r24,lo8(0)
 190 00b2 0895      		ret
 191               	.LVL15:
 192               	.L6:
 193 00b4 82E0      		ldi r24,lo8(2)
 194               	.LVL16:
 195 00b6 0895      		ret
 196               	.LVL17:
 197               	.L7:
 198 00b8 83E0      		ldi r24,lo8(3)
 199               	.LVL18:
 200               	.LSM28:
 201 00ba 0895      		ret
 202               	.LFE95:
 204               		.section	.text.Endpoint_Write_Control_Stream_BE,"ax",@progbits
 205               	.global	Endpoint_Write_Control_Stream_BE
 207               	Endpoint_Write_Control_Stream_BE:
 208               	.LFB96:
 209               	.LSM29:
 210               	.LVL19:
 211               	/* prologue: function */
 212               	/* frame size = 0 */
 213 0000 9C01      		movw r18,r24
 214               	.LSM30:
 215 0002 4091 0000 		lds r20,USB_ControlRequest+6
 216 0006 5091 0000 		lds r21,(USB_ControlRequest+6)+1
 217               	.LVL20:
 218 000a 4617      		cp r20,r22
 219 000c 5707      		cpc r21,r23
 220 000e 00F4      		brsh .L23
 221               	.LVL21:
 222               	.L26:
 223               	.LSM31:
 224 0010 FB01      		movw r30,r22
 225               	.LVL22:
 226 0012 3197      		sbiw r30,1
 227 0014 E20F      		add r30,r18
 228 0016 F31F      		adc r31,r19
 229 0018 90E0      		ldi r25,lo8(0)
 230               	.LVL23:
 231 001a 00C0      		rjmp .L42
 232               	.LVL24:
 233               	.L23:
 234               	.LSM32:
 235 001c 6115      		cp r22,__zero_reg__
 236 001e 7105      		cpc r23,__zero_reg__
 237 0020 01F0      		breq .L25
 238               	.LVL25:
 239 0022 AB01      		movw r20,r22
 240 0024 00C0      		rjmp .L26
 241               	.L25:
 242               	.LBB275:
 243               	.LBB276:
 244               	.LSM33:
 245 0026 8091 E800 		lds r24,232
 246 002a 8E77      		andi r24,lo8(126)
 247 002c 8093 E800 		sts 232,r24
 248 0030 40E0      		ldi r20,lo8(0)
 249 0032 50E0      		ldi r21,hi8(0)
 250               	.LVL26:
 251 0034 00C0      		rjmp .L26
 252               	.LVL27:
 253               	.L36:
 254               	.LBE276:
 255               	.LBE275:
 256               	.LBB277:
 257               	.LSM34:
 258 0036 8091 0000 		lds r24,USB_DeviceState
 259               	.LVL28:
 260               	.LSM35:
 261 003a 8823      		tst r24
 262 003c 01F4      		brne .+2
 263 003e 00C0      		rjmp .L27
 264               	.LSM36:
 265 0040 8530      		cpi r24,lo8(5)
 266 0042 01F4      		brne .+2
 267 0044 00C0      		rjmp .L28
 268               	.LBB278:
 269               	.LBB279:
 270               	.LSM37:
 271 0046 8091 E800 		lds r24,232
 272               	.LVL29:
 273               	.LBE279:
 274               	.LBE278:
 275               	.LSM38:
 276 004a 83FF      		sbrs r24,3
 277 004c 00C0      		rjmp .L29
 278 004e 81E0      		ldi r24,lo8(1)
 279 0050 0895      		ret
 280               	.L29:
 281               	.LBB280:
 282               	.LBB281:
 283               	.LSM39:
 284 0052 8091 E800 		lds r24,232
 285               	.LBE281:
 286               	.LBE280:
 287               	.LSM40:
 288 0056 82FD      		sbrc r24,2
 289 0058 00C0      		rjmp .L40
 290               	.LBB282:
 291               	.LBB283:
 292               	.LSM41:
 293 005a 8091 E800 		lds r24,232
 294               	.LBE283:
 295               	.LBE282:
 296               	.LSM42:
 297 005e 80FF      		sbrs r24,0
 298 0060 00C0      		rjmp .L42
 299               	.LBB284:
 300               	.LBB285:
 301               	.LBB286:
 302               	.LSM43:
 303 0062 2091 F200 		lds r18,242
 304 0066 3091 F300 		lds r19,(242)+1
 305               	.LVL30:
 306 006a 00C0      		rjmp .L32
 307               	.L34:
 308               	.LBE286:
 309               	.LBE285:
 310               	.LSM44:
 311 006c 8081      		ld r24,Z
 312               	.LBB287:
 313               	.LBB288:
 314               	.LSM45:
 315 006e 8093 F100 		sts 241,r24
 316               	.LBE288:
 317               	.LBE287:
 318               	.LSM46:
 319 0072 3197      		sbiw r30,1
 320               	.LSM47:
 321 0074 4150      		subi r20,lo8(-(-1))
 322 0076 5040      		sbci r21,hi8(-(-1))
 323               	.LSM48:
 324 0078 2F5F      		subi r18,lo8(-(1))
 325 007a 3F4F      		sbci r19,hi8(-(1))
 326               	.LVL31:
 327               	.L32:
 328               	.LSM49:
 329 007c 4115      		cp r20,__zero_reg__
 330 007e 5105      		cpc r21,__zero_reg__
 331 0080 01F0      		breq .L33
 332 0082 2830      		cpi r18,8
 333 0084 3105      		cpc r19,__zero_reg__
 334 0086 00F0      		brlo .L34
 335               	.L33:
 336               	.LSM50:
 337 0088 90E0      		ldi r25,lo8(0)
 338 008a 2830      		cpi r18,8
 339 008c 3105      		cpc r19,__zero_reg__
 340 008e 01F4      		brne .L35
 341 0090 91E0      		ldi r25,lo8(1)
 342               	.L35:
 343               	.LBB289:
 344               	.LBB290:
 345               	.LSM51:
 346 0092 8091 E800 		lds r24,232
 347 0096 8E77      		andi r24,lo8(126)
 348 0098 8093 E800 		sts 232,r24
 349               	.LVL32:
 350               	.L42:
 351               	.LBE290:
 352               	.LBE289:
 353               	.LBE284:
 354               	.LBE277:
 355               	.LSM52:
 356 009c 4115      		cp r20,__zero_reg__
 357 009e 5105      		cpc r21,__zero_reg__
 358 00a0 01F4      		brne .L36
 359 00a2 9923      		tst r25
 360 00a4 01F4      		brne .L36
 361 00a6 00C0      		rjmp .L40
 362               	.LVL33:
 363               	.L37:
 364               	.LBB291:
 365               	.LSM53:
 366 00a8 8091 0000 		lds r24,USB_DeviceState
 367               	.LVL34:
 368               	.LSM54:
 369 00ac 8823      		tst r24
 370 00ae 01F0      		breq .L27
 371               	.LSM55:
 372 00b0 8530      		cpi r24,lo8(5)
 373 00b2 01F0      		breq .L28
 374               	.LVL35:
 375               	.L40:
 376               	.LBE291:
 377               	.LBB292:
 378               	.LBB293:
 379               	.LSM56:
 380 00b4 8091 E800 		lds r24,232
 381               	.LVL36:
 382               	.LBE293:
 383               	.LBE292:
 384               	.LSM57:
 385 00b8 82FF      		sbrs r24,2
 386 00ba 00C0      		rjmp .L37
 387 00bc 80E0      		ldi r24,lo8(0)
 388 00be 0895      		ret
 389               	.LVL37:
 390               	.L27:
 391 00c0 82E0      		ldi r24,lo8(2)
 392               	.LVL38:
 393 00c2 0895      		ret
 394               	.LVL39:
 395               	.L28:
 396 00c4 83E0      		ldi r24,lo8(3)
 397               	.LVL40:
 398               	.LSM58:
 399 00c6 0895      		ret
 400               	.LFE96:
 402               		.section	.text.Endpoint_Read_Control_Stream_LE,"ax",@progbits
 403               	.global	Endpoint_Read_Control_Stream_LE
 405               	Endpoint_Read_Control_Stream_LE:
 406               	.LFB97:
 407               	.LSM59:
 408               	.LVL41:
 409               	/* prologue: function */
 410               	/* frame size = 0 */
 411 0000 9C01      		movw r18,r24
 412               	.LVL42:
 413               	.LSM60:
 414 0002 6115      		cp r22,__zero_reg__
 415 0004 7105      		cpc r23,__zero_reg__
 416 0006 01F4      		brne .L44
 417               	.LBB294:
 418               	.LBB295:
 419               	.LSM61:
 420 0008 8091 E800 		lds r24,232
 421 000c 8B77      		andi r24,lo8(123)
 422 000e 8093 E800 		sts 232,r24
 423               	.L44:
 424               	.LBE295:
 425               	.LBE294:
 426               	.LSM62:
 427 0012 F901      		movw r30,r18
 428               	.LVL43:
 429 0014 00C0      		rjmp .L45
 430               	.LVL44:
 431               	.L58:
 432               	.LBB296:
 433               	.LSM63:
 434 0016 8091 0000 		lds r24,USB_DeviceState
 435               	.LVL45:
 436               	.LSM64:
 437 001a 8823      		tst r24
 438 001c 01F0      		breq .L46
 439               	.LSM65:
 440 001e 8530      		cpi r24,lo8(5)
 441 0020 01F0      		breq .L47
 442               	.LBB297:
 443               	.LBB298:
 444               	.LSM66:
 445 0022 8091 E800 		lds r24,232
 446               	.LVL46:
 447               	.LBE298:
 448               	.LBE297:
 449               	.LSM67:
 450 0026 83FF      		sbrs r24,3
 451 0028 00C0      		rjmp .L48
 452 002a 81E0      		ldi r24,lo8(1)
 453 002c 0895      		ret
 454               	.L48:
 455               	.LBB299:
 456               	.LBB300:
 457               	.LSM68:
 458 002e 8091 E800 		lds r24,232
 459               	.LBE300:
 460               	.LBE299:
 461               	.LSM69:
 462 0032 82FF      		sbrs r24,2
 463 0034 00C0      		rjmp .L58
 464 0036 00C0      		rjmp .L57
 465               	.L53:
 466               	.LBB301:
 467               	.LBB302:
 468               	.LSM70:
 469 0038 8091 F100 		lds r24,241
 470               	.LBE302:
 471               	.LBE301:
 472               	.LSM71:
 473 003c 8193      		st Z+,r24
 474               	.LSM72:
 475 003e 6150      		subi r22,lo8(-(-1))
 476 0040 7040      		sbci r23,hi8(-(-1))
 477               	.LVL47:
 478               	.LSM73:
 479 0042 01F0      		breq .L52
 480               	.L57:
 481               	.LBB303:
 482               	.LBB304:
 483               	.LSM74:
 484 0044 8091 F200 		lds r24,242
 485 0048 9091 F300 		lds r25,(242)+1
 486               	.LBE304:
 487               	.LBE303:
 488               	.LSM75:
 489 004c 892B      		or r24,r25
 490 004e 01F4      		brne .L53
 491               	.L52:
 492               	.LBB305:
 493               	.LBB306:
 494               	.LSM76:
 495 0050 8091 E800 		lds r24,232
 496 0054 8B77      		andi r24,lo8(123)
 497 0056 8093 E800 		sts 232,r24
 498               	.L45:
 499               	.LBE306:
 500               	.LBE305:
 501               	.LBE296:
 502               	.LSM77:
 503 005a 6115      		cp r22,__zero_reg__
 504 005c 7105      		cpc r23,__zero_reg__
 505 005e 01F4      		brne .L58
 506 0060 00C0      		rjmp .L59
 507               	.L55:
 508               	.LBB307:
 509               	.LSM78:
 510 0062 8091 0000 		lds r24,USB_DeviceState
 511               	.LVL48:
 512               	.LSM79:
 513 0066 8823      		tst r24
 514 0068 01F0      		breq .L46
 515               	.LSM80:
 516 006a 8530      		cpi r24,lo8(5)
 517 006c 01F0      		breq .L47
 518               	.L59:
 519               	.LBE307:
 520               	.LBB308:
 521               	.LBB309:
 522               	.LSM81:
 523 006e 8091 E800 		lds r24,232
 524               	.LVL49:
 525               	.LBE309:
 526               	.LBE308:
 527               	.LSM82:
 528 0072 80FF      		sbrs r24,0
 529 0074 00C0      		rjmp .L55
 530 0076 80E0      		ldi r24,lo8(0)
 531 0078 0895      		ret
 532               	.LVL50:
 533               	.L46:
 534 007a 82E0      		ldi r24,lo8(2)
 535               	.LVL51:
 536 007c 0895      		ret
 537               	.LVL52:
 538               	.L47:
 539 007e 83E0      		ldi r24,lo8(3)
 540               	.LVL53:
 541               	.LSM83:
 542 0080 0895      		ret
 543               	.LFE97:
 545               		.section	.text.Endpoint_Read_Control_Stream_BE,"ax",@progbits
 546               	.global	Endpoint_Read_Control_Stream_BE
 548               	Endpoint_Read_Control_Stream_BE:
 549               	.LFB98:
 550               	.LSM84:
 551               	.LVL54:
 552               	/* prologue: function */
 553               	/* frame size = 0 */
 554 0000 AC01      		movw r20,r24
 555               	.LSM85:
 556 0002 6115      		cp r22,__zero_reg__
 557 0004 7105      		cpc r23,__zero_reg__
 558 0006 01F0      		breq .L61
 559               	.LVL55:
 560 0008 9B01      		movw r18,r22
 561 000a 00C0      		rjmp .L62
 562               	.LVL56:
 563               	.L61:
 564               	.LBB310:
 565               	.LBB311:
 566               	.LSM86:
 567 000c 8091 E800 		lds r24,232
 568 0010 8B77      		andi r24,lo8(123)
 569 0012 8093 E800 		sts 232,r24
 570 0016 20E0      		ldi r18,lo8(0)
 571 0018 30E0      		ldi r19,hi8(0)
 572               	.LVL57:
 573               	.L62:
 574               	.LBE311:
 575               	.LBE310:
 576               	.LSM87:
 577 001a FB01      		movw r30,r22
 578               	.LVL58:
 579 001c 3197      		sbiw r30,1
 580 001e E40F      		add r30,r20
 581 0020 F51F      		adc r31,r21
 582 0022 00C0      		rjmp .L63
 583               	.L76:
 584               	.LBB312:
 585               	.LSM88:
 586 0024 8091 0000 		lds r24,USB_DeviceState
 587               	.LVL59:
 588               	.LSM89:
 589 0028 8823      		tst r24
 590 002a 01F0      		breq .L64
 591               	.LSM90:
 592 002c 8530      		cpi r24,lo8(5)
 593 002e 01F0      		breq .L65
 594               	.LBB313:
 595               	.LBB314:
 596               	.LSM91:
 597 0030 8091 E800 		lds r24,232
 598               	.LVL60:
 599               	.LBE314:
 600               	.LBE313:
 601               	.LSM92:
 602 0034 83FF      		sbrs r24,3
 603 0036 00C0      		rjmp .L66
 604 0038 81E0      		ldi r24,lo8(1)
 605 003a 0895      		ret
 606               	.L66:
 607               	.LBB315:
 608               	.LBB316:
 609               	.LSM93:
 610 003c 8091 E800 		lds r24,232
 611               	.LBE316:
 612               	.LBE315:
 613               	.LSM94:
 614 0040 82FF      		sbrs r24,2
 615 0042 00C0      		rjmp .L76
 616 0044 00C0      		rjmp .L75
 617               	.L71:
 618               	.LBB317:
 619               	.LBB318:
 620               	.LSM95:
 621 0046 8091 F100 		lds r24,241
 622               	.LBE318:
 623               	.LBE317:
 624               	.LSM96:
 625 004a 8083      		st Z,r24
 626               	.LSM97:
 627 004c 3197      		sbiw r30,1
 628               	.LSM98:
 629 004e 2150      		subi r18,lo8(-(-1))
 630 0050 3040      		sbci r19,hi8(-(-1))
 631               	.LSM99:
 632 0052 01F0      		breq .L70
 633               	.LVL61:
 634               	.L75:
 635               	.LBB319:
 636               	.LBB320:
 637               	.LSM100:
 638 0054 8091 F200 		lds r24,242
 639 0058 9091 F300 		lds r25,(242)+1
 640               	.LBE320:
 641               	.LBE319:
 642               	.LSM101:
 643 005c 892B      		or r24,r25
 644 005e 01F4      		brne .L71
 645               	.L70:
 646               	.LBB321:
 647               	.LBB322:
 648               	.LSM102:
 649 0060 8091 E800 		lds r24,232
 650 0064 8B77      		andi r24,lo8(123)
 651 0066 8093 E800 		sts 232,r24
 652               	.LVL62:
 653               	.L63:
 654               	.LBE322:
 655               	.LBE321:
 656               	.LBE312:
 657               	.LSM103:
 658 006a 2115      		cp r18,__zero_reg__
 659 006c 3105      		cpc r19,__zero_reg__
 660 006e 01F4      		brne .L76
 661 0070 00C0      		rjmp .L77
 662               	.LVL63:
 663               	.L73:
 664               	.LBB323:
 665               	.LSM104:
 666 0072 8091 0000 		lds r24,USB_DeviceState
 667               	.LVL64:
 668               	.LSM105:
 669 0076 8823      		tst r24
 670 0078 01F0      		breq .L64
 671               	.LSM106:
 672 007a 8530      		cpi r24,lo8(5)
 673 007c 01F0      		breq .L65
 674               	.LVL65:
 675               	.L77:
 676               	.LBE323:
 677               	.LBB324:
 678               	.LBB325:
 679               	.LSM107:
 680 007e 8091 E800 		lds r24,232
 681               	.LVL66:
 682               	.LBE325:
 683               	.LBE324:
 684               	.LSM108:
 685 0082 80FF      		sbrs r24,0
 686 0084 00C0      		rjmp .L73
 687 0086 80E0      		ldi r24,lo8(0)
 688 0088 0895      		ret
 689               	.LVL67:
 690               	.L64:
 691 008a 82E0      		ldi r24,lo8(2)
 692               	.LVL68:
 693 008c 0895      		ret
 694               	.LVL69:
 695               	.L65:
 696 008e 83E0      		ldi r24,lo8(3)
 697               	.LVL70:
 698               	.LSM109:
 699 0090 0895      		ret
 700               	.LFE98:
 702               		.section	.text.Endpoint_Write_Control_PStream_LE,"ax",@progbits
 703               	.global	Endpoint_Write_Control_PStream_LE
 705               	Endpoint_Write_Control_PStream_LE:
 706               	.LFB99:
 707               	.LSM110:
 708               	.LVL71:
 709               	/* prologue: function */
 710               	/* frame size = 0 */
 711 0000 9C01      		movw r18,r24
 712               	.LVL72:
 713               	.LSM111:
 714 0002 4091 0000 		lds r20,USB_ControlRequest+6
 715 0006 5091 0000 		lds r21,(USB_ControlRequest+6)+1
 716               	.LVL73:
 717 000a 4617      		cp r20,r22
 718 000c 5707      		cpc r21,r23
 719 000e 00F4      		brsh .L79
 720               	.L82:
 721               	.LSM112:
 722 0010 F901      		movw r30,r18
 723 0012 90E0      		ldi r25,lo8(0)
 724               	.LVL74:
 725 0014 00C0      		rjmp .L98
 726               	.LVL75:
 727               	.L79:
 728               	.LSM113:
 729 0016 6115      		cp r22,__zero_reg__
 730 0018 7105      		cpc r23,__zero_reg__
 731 001a 01F0      		breq .L81
 732               	.LVL76:
 733 001c AB01      		movw r20,r22
 734 001e 00C0      		rjmp .L82
 735               	.L81:
 736               	.LBB326:
 737               	.LBB327:
 738               	.LSM114:
 739 0020 8091 E800 		lds r24,232
 740 0024 8E77      		andi r24,lo8(126)
 741 0026 8093 E800 		sts 232,r24
 742 002a 40E0      		ldi r20,lo8(0)
 743 002c 50E0      		ldi r21,hi8(0)
 744               	.LVL77:
 745 002e 00C0      		rjmp .L82
 746               	.LVL78:
 747               	.L92:
 748               	.LBE327:
 749               	.LBE326:
 750               	.LBB328:
 751               	.LSM115:
 752 0030 8091 0000 		lds r24,USB_DeviceState
 753               	.LVL79:
 754               	.LSM116:
 755 0034 8823      		tst r24
 756 0036 01F4      		brne .+2
 757 0038 00C0      		rjmp .L83
 758               	.LSM117:
 759 003a 8530      		cpi r24,lo8(5)
 760 003c 01F4      		brne .+2
 761 003e 00C0      		rjmp .L84
 762               	.LBB329:
 763               	.LBB330:
 764               	.LSM118:
 765 0040 8091 E800 		lds r24,232
 766               	.LVL80:
 767               	.LBE330:
 768               	.LBE329:
 769               	.LSM119:
 770 0044 83FF      		sbrs r24,3
 771 0046 00C0      		rjmp .L85
 772 0048 81E0      		ldi r24,lo8(1)
 773 004a 0895      		ret
 774               	.L85:
 775               	.LBB331:
 776               	.LBB332:
 777               	.LSM120:
 778 004c 8091 E800 		lds r24,232
 779               	.LBE332:
 780               	.LBE331:
 781               	.LSM121:
 782 0050 82FD      		sbrc r24,2
 783 0052 00C0      		rjmp .L96
 784               	.LBB333:
 785               	.LBB334:
 786               	.LSM122:
 787 0054 8091 E800 		lds r24,232
 788               	.LBE334:
 789               	.LBE333:
 790               	.LSM123:
 791 0058 80FF      		sbrs r24,0
 792 005a 00C0      		rjmp .L98
 793               	.LBB335:
 794               	.LBB336:
 795               	.LBB337:
 796               	.LSM124:
 797 005c 2091 F200 		lds r18,242
 798 0060 3091 F300 		lds r19,(242)+1
 799 0064 00C0      		rjmp .L88
 800               	.LVL81:
 801               	.L90:
 802               	.LBE337:
 803               	.LBE336:
 804               	.LBB338:
 805               	.LSM125:
 806               	/* #APP */
 807               	 ;  31 "LUFA/Drivers/USB/Core/Template/Template_Endpoint_Control_W.c" 1
 808 0066 8491      		lpm r24, Z
 809               		
 810               	 ;  0 "" 2
 811               	/* #NOAPP */
 812               	.LBE338:
 813               	.LBB339:
 814               	.LBB340:
 815               	.LSM126:
 816 0068 8093 F100 		sts 241,r24
 817               	.LBE340:
 818               	.LBE339:
 819               	.LSM127:
 820 006c 3196      		adiw r30,1
 821               	.LSM128:
 822 006e 4150      		subi r20,lo8(-(-1))
 823 0070 5040      		sbci r21,hi8(-(-1))
 824               	.LSM129:
 825 0072 2F5F      		subi r18,lo8(-(1))
 826 0074 3F4F      		sbci r19,hi8(-(1))
 827               	.LVL82:
 828               	.L88:
 829               	.LSM130:
 830 0076 4115      		cp r20,__zero_reg__
 831 0078 5105      		cpc r21,__zero_reg__
 832 007a 01F0      		breq .L89
 833 007c 2830      		cpi r18,8
 834 007e 3105      		cpc r19,__zero_reg__
 835 0080 00F0      		brlo .L90
 836               	.L89:
 837               	.LSM131:
 838 0082 90E0      		ldi r25,lo8(0)
 839 0084 2830      		cpi r18,8
 840 0086 3105      		cpc r19,__zero_reg__
 841 0088 01F4      		brne .L91
 842 008a 91E0      		ldi r25,lo8(1)
 843               	.L91:
 844               	.LBB341:
 845               	.LBB342:
 846               	.LSM132:
 847 008c 8091 E800 		lds r24,232
 848               	.LVL83:
 849 0090 8E77      		andi r24,lo8(126)
 850 0092 8093 E800 		sts 232,r24
 851               	.L98:
 852               	.LBE342:
 853               	.LBE341:
 854               	.LBE335:
 855               	.LBE328:
 856               	.LSM133:
 857 0096 4115      		cp r20,__zero_reg__
 858 0098 5105      		cpc r21,__zero_reg__
 859 009a 01F4      		brne .L92
 860 009c 9923      		tst r25
 861 009e 01F4      		brne .L92
 862 00a0 00C0      		rjmp .L96
 863               	.L93:
 864               	.LBB343:
 865               	.LSM134:
 866 00a2 8091 0000 		lds r24,USB_DeviceState
 867               	.LVL84:
 868               	.LSM135:
 869 00a6 8823      		tst r24
 870 00a8 01F0      		breq .L83
 871               	.LSM136:
 872 00aa 8530      		cpi r24,lo8(5)
 873 00ac 01F0      		breq .L84
 874               	.L96:
 875               	.LBE343:
 876               	.LBB344:
 877               	.LBB345:
 878               	.LSM137:
 879 00ae 8091 E800 		lds r24,232
 880               	.LVL85:
 881               	.LBE345:
 882               	.LBE344:
 883               	.LSM138:
 884 00b2 82FF      		sbrs r24,2
 885 00b4 00C0      		rjmp .L93
 886 00b6 80E0      		ldi r24,lo8(0)
 887 00b8 0895      		ret
 888               	.LVL86:
 889               	.L83:
 890 00ba 82E0      		ldi r24,lo8(2)
 891               	.LVL87:
 892 00bc 0895      		ret
 893               	.LVL88:
 894               	.L84:
 895 00be 83E0      		ldi r24,lo8(3)
 896               	.LVL89:
 897               	.LSM139:
 898 00c0 0895      		ret
 899               	.LFE99:
 901               		.section	.text.Endpoint_Write_Control_PStream_BE,"ax",@progbits
 902               	.global	Endpoint_Write_Control_PStream_BE
 904               	Endpoint_Write_Control_PStream_BE:
 905               	.LFB100:
 906               	.LSM140:
 907               	.LVL90:
 908               	/* prologue: function */
 909               	/* frame size = 0 */
 910 0000 9C01      		movw r18,r24
 911               	.LSM141:
 912 0002 4091 0000 		lds r20,USB_ControlRequest+6
 913 0006 5091 0000 		lds r21,(USB_ControlRequest+6)+1
 914               	.LVL91:
 915 000a 4617      		cp r20,r22
 916 000c 5707      		cpc r21,r23
 917 000e 00F4      		brsh .L100
 918               	.LVL92:
 919               	.L103:
 920               	.LSM142:
 921 0010 FB01      		movw r30,r22
 922               	.LVL93:
 923 0012 3197      		sbiw r30,1
 924 0014 E20F      		add r30,r18
 925 0016 F31F      		adc r31,r19
 926 0018 90E0      		ldi r25,lo8(0)
 927               	.LVL94:
 928 001a 00C0      		rjmp .L119
 929               	.LVL95:
 930               	.L100:
 931               	.LSM143:
 932 001c 6115      		cp r22,__zero_reg__
 933 001e 7105      		cpc r23,__zero_reg__
 934 0020 01F0      		breq .L102
 935               	.LVL96:
 936 0022 AB01      		movw r20,r22
 937 0024 00C0      		rjmp .L103
 938               	.L102:
 939               	.LBB346:
 940               	.LBB347:
 941               	.LSM144:
 942 0026 8091 E800 		lds r24,232
 943 002a 8E77      		andi r24,lo8(126)
 944 002c 8093 E800 		sts 232,r24
 945 0030 40E0      		ldi r20,lo8(0)
 946 0032 50E0      		ldi r21,hi8(0)
 947               	.LVL97:
 948 0034 00C0      		rjmp .L103
 949               	.LVL98:
 950               	.L113:
 951               	.LBE347:
 952               	.LBE346:
 953               	.LBB348:
 954               	.LSM145:
 955 0036 8091 0000 		lds r24,USB_DeviceState
 956               	.LVL99:
 957               	.LSM146:
 958 003a 8823      		tst r24
 959 003c 01F4      		brne .+2
 960 003e 00C0      		rjmp .L104
 961               	.LSM147:
 962 0040 8530      		cpi r24,lo8(5)
 963 0042 01F4      		brne .+2
 964 0044 00C0      		rjmp .L105
 965               	.LBB349:
 966               	.LBB350:
 967               	.LSM148:
 968 0046 8091 E800 		lds r24,232
 969               	.LVL100:
 970               	.LBE350:
 971               	.LBE349:
 972               	.LSM149:
 973 004a 83FF      		sbrs r24,3
 974 004c 00C0      		rjmp .L106
 975 004e 81E0      		ldi r24,lo8(1)
 976 0050 0895      		ret
 977               	.L106:
 978               	.LBB351:
 979               	.LBB352:
 980               	.LSM150:
 981 0052 8091 E800 		lds r24,232
 982               	.LBE352:
 983               	.LBE351:
 984               	.LSM151:
 985 0056 82FD      		sbrc r24,2
 986 0058 00C0      		rjmp .L117
 987               	.LBB353:
 988               	.LBB354:
 989               	.LSM152:
 990 005a 8091 E800 		lds r24,232
 991               	.LBE354:
 992               	.LBE353:
 993               	.LSM153:
 994 005e 80FF      		sbrs r24,0
 995 0060 00C0      		rjmp .L119
 996               	.LBB355:
 997               	.LBB356:
 998               	.LBB357:
 999               	.LSM154:
 1000 0062 2091 F200 		lds r18,242
 1001 0066 3091 F300 		lds r19,(242)+1
 1002               	.LVL101:
 1003 006a 00C0      		rjmp .L109
 1004               	.LVL102:
 1005               	.L111:
 1006               	.LBE357:
 1007               	.LBE356:
 1008               	.LBB358:
 1009               	.LSM155:
 1010               	/* #APP */
 1011               	 ;  31 "LUFA/Drivers/USB/Core/Template/Template_Endpoint_Control_W.c" 1
 1012 006c 8491      		lpm r24, Z
 1013               		
 1014               	 ;  0 "" 2
 1015               	/* #NOAPP */
 1016               	.LBE358:
 1017               	.LBB359:
 1018               	.LBB360:
 1019               	.LSM156:
 1020 006e 8093 F100 		sts 241,r24
 1021               	.LBE360:
 1022               	.LBE359:
 1023               	.LSM157:
 1024 0072 3197      		sbiw r30,1
 1025               	.LSM158:
 1026 0074 4150      		subi r20,lo8(-(-1))
 1027 0076 5040      		sbci r21,hi8(-(-1))
 1028               	.LSM159:
 1029 0078 2F5F      		subi r18,lo8(-(1))
 1030 007a 3F4F      		sbci r19,hi8(-(1))
 1031               	.LVL103:
 1032               	.L109:
 1033               	.LSM160:
 1034 007c 4115      		cp r20,__zero_reg__
 1035 007e 5105      		cpc r21,__zero_reg__
 1036 0080 01F0      		breq .L110
 1037 0082 2830      		cpi r18,8
 1038 0084 3105      		cpc r19,__zero_reg__
 1039 0086 00F0      		brlo .L111
 1040               	.L110:
 1041               	.LSM161:
 1042 0088 90E0      		ldi r25,lo8(0)
 1043 008a 2830      		cpi r18,8
 1044 008c 3105      		cpc r19,__zero_reg__
 1045 008e 01F4      		brne .L112
 1046 0090 91E0      		ldi r25,lo8(1)
 1047               	.L112:
 1048               	.LBB361:
 1049               	.LBB362:
 1050               	.LSM162:
 1051 0092 8091 E800 		lds r24,232
 1052               	.LVL104:
 1053 0096 8E77      		andi r24,lo8(126)
 1054 0098 8093 E800 		sts 232,r24
 1055               	.LVL105:
 1056               	.L119:
 1057               	.LBE362:
 1058               	.LBE361:
 1059               	.LBE355:
 1060               	.LBE348:
 1061               	.LSM163:
 1062 009c 4115      		cp r20,__zero_reg__
 1063 009e 5105      		cpc r21,__zero_reg__
 1064 00a0 01F4      		brne .L113
 1065 00a2 9923      		tst r25
 1066 00a4 01F4      		brne .L113
 1067 00a6 00C0      		rjmp .L117
 1068               	.LVL106:
 1069               	.L114:
 1070               	.LBB363:
 1071               	.LSM164:
 1072 00a8 8091 0000 		lds r24,USB_DeviceState
 1073               	.LVL107:
 1074               	.LSM165:
 1075 00ac 8823      		tst r24
 1076 00ae 01F0      		breq .L104
 1077               	.LSM166:
 1078 00b0 8530      		cpi r24,lo8(5)
 1079 00b2 01F0      		breq .L105
 1080               	.LVL108:
 1081               	.L117:
 1082               	.LBE363:
 1083               	.LBB364:
 1084               	.LBB365:
 1085               	.LSM167:
 1086 00b4 8091 E800 		lds r24,232
 1087               	.LVL109:
 1088               	.LBE365:
 1089               	.LBE364:
 1090               	.LSM168:
 1091 00b8 82FF      		sbrs r24,2
 1092 00ba 00C0      		rjmp .L114
 1093 00bc 80E0      		ldi r24,lo8(0)
 1094 00be 0895      		ret
 1095               	.LVL110:
 1096               	.L104:
 1097 00c0 82E0      		ldi r24,lo8(2)
 1098               	.LVL111:
 1099 00c2 0895      		ret
 1100               	.LVL112:
 1101               	.L105:
 1102 00c4 83E0      		ldi r24,lo8(3)
 1103               	.LVL113:
 1104               	.LSM169:
 1105 00c6 0895      		ret
 1106               	.LFE100:
 1108               		.section	.text.Endpoint_Read_Control_EStream_BE,"ax",@progbits
 1109               	.global	Endpoint_Read_Control_EStream_BE
 1111               	Endpoint_Read_Control_EStream_BE:
 1112               	.LFB104:
 1113               	.LSM170:
 1114               	.LVL114:
 1115 0000 0F93      		push r16
 1116 0002 1F93      		push r17
 1117 0004 CF93      		push r28
 1118 0006 DF93      		push r29
 1119               	/* prologue: function */
 1120               	/* frame size = 0 */
 1121 0008 9C01      		movw r18,r24
 1122               	.LSM171:
 1123 000a 6115      		cp r22,__zero_reg__
 1124 000c 7105      		cpc r23,__zero_reg__
 1125 000e 01F0      		breq .L121
 1126               	.LVL115:
 1127 0010 8B01      		movw r16,r22
 1128 0012 00C0      		rjmp .L122
 1129               	.LVL116:
 1130               	.L121:
 1131               	.LBB366:
 1132               	.LBB367:
 1133               	.LSM172:
 1134 0014 8091 E800 		lds r24,232
 1135 0018 8B77      		andi r24,lo8(123)
 1136 001a 8093 E800 		sts 232,r24
 1137 001e 00E0      		ldi r16,lo8(0)
 1138 0020 10E0      		ldi r17,hi8(0)
 1139               	.LVL117:
 1140               	.L122:
 1141               	.LBE367:
 1142               	.LBE366:
 1143               	.LSM173:
 1144 0022 EB01      		movw r28,r22
 1145               	.LVL118:
 1146 0024 2197      		sbiw r28,1
 1147 0026 C20F      		add r28,r18
 1148 0028 D31F      		adc r29,r19
 1149 002a 00C0      		rjmp .L123
 1150               	.L136:
 1151               	.LBB368:
 1152               	.LSM174:
 1153 002c 8091 0000 		lds r24,USB_DeviceState
 1154               	.LVL119:
 1155               	.LSM175:
 1156 0030 8823      		tst r24
 1157 0032 01F0      		breq .L124
 1158               	.LSM176:
 1159 0034 8530      		cpi r24,lo8(5)
 1160 0036 01F0      		breq .L125
 1161               	.LBB369:
 1162               	.LBB370:
 1163               	.LSM177:
 1164 0038 8091 E800 		lds r24,232
 1165               	.LVL120:
 1166               	.LBE370:
 1167               	.LBE369:
 1168               	.LSM178:
 1169 003c 83FF      		sbrs r24,3
 1170 003e 00C0      		rjmp .L126
 1171 0040 81E0      		ldi r24,lo8(1)
 1172 0042 00C0      		rjmp .L127
 1173               	.L126:
 1174               	.LBB371:
 1175               	.LBB372:
 1176               	.LSM179:
 1177 0044 8091 E800 		lds r24,232
 1178               	.LBE372:
 1179               	.LBE371:
 1180               	.LSM180:
 1181 0048 82FF      		sbrs r24,2
 1182 004a 00C0      		rjmp .L136
 1183 004c 00C0      		rjmp .L135
 1184               	.L131:
 1185               	.LBB373:
 1186               	.LBB374:
 1187               	.LSM181:
 1188 004e 6091 F100 		lds r22,241
 1189               	.LBE374:
 1190               	.LBE373:
 1191               	.LSM182:
 1192 0052 CE01      		movw r24,r28
 1193 0054 0E94 0000 		call __eeupd_byte_usb1287
 1194               	.LVL121:
 1195               	.LSM183:
 1196 0058 2197      		sbiw r28,1
 1197               	.LSM184:
 1198 005a 0150      		subi r16,lo8(-(-1))
 1199 005c 1040      		sbci r17,hi8(-(-1))
 1200               	.LSM185:
 1201 005e 01F0      		breq .L130
 1202               	.LVL122:
 1203               	.L135:
 1204               	.LBB375:
 1205               	.LBB376:
 1206               	.LSM186:
 1207 0060 8091 F200 		lds r24,242
 1208 0064 9091 F300 		lds r25,(242)+1
 1209               	.LBE376:
 1210               	.LBE375:
 1211               	.LSM187:
 1212 0068 892B      		or r24,r25
 1213 006a 01F4      		brne .L131
 1214               	.L130:
 1215               	.LBB377:
 1216               	.LBB378:
 1217               	.LSM188:
 1218 006c 8091 E800 		lds r24,232
 1219 0070 8B77      		andi r24,lo8(123)
 1220 0072 8093 E800 		sts 232,r24
 1221               	.LVL123:
 1222               	.L123:
 1223               	.LBE378:
 1224               	.LBE377:
 1225               	.LBE368:
 1226               	.LSM189:
 1227 0076 0115      		cp r16,__zero_reg__
 1228 0078 1105      		cpc r17,__zero_reg__
 1229 007a 01F4      		brne .L136
 1230 007c 00C0      		rjmp .L137
 1231               	.LVL124:
 1232               	.L133:
 1233               	.LBB379:
 1234               	.LSM190:
 1235 007e 8091 0000 		lds r24,USB_DeviceState
 1236               	.LVL125:
 1237               	.LSM191:
 1238 0082 8823      		tst r24
 1239 0084 01F0      		breq .L124
 1240               	.LSM192:
 1241 0086 8530      		cpi r24,lo8(5)
 1242 0088 01F0      		breq .L125
 1243               	.LVL126:
 1244               	.L137:
 1245               	.LBE379:
 1246               	.LBB380:
 1247               	.LBB381:
 1248               	.LSM193:
 1249 008a 8091 E800 		lds r24,232
 1250               	.LVL127:
 1251               	.LBE381:
 1252               	.LBE380:
 1253               	.LSM194:
 1254 008e 80FF      		sbrs r24,0
 1255 0090 00C0      		rjmp .L133
 1256 0092 80E0      		ldi r24,lo8(0)
 1257 0094 00C0      		rjmp .L127
 1258               	.LVL128:
 1259               	.L124:
 1260 0096 82E0      		ldi r24,lo8(2)
 1261               	.LVL129:
 1262 0098 00C0      		rjmp .L127
 1263               	.LVL130:
 1264               	.L125:
 1265 009a 83E0      		ldi r24,lo8(3)
 1266               	.LVL131:
 1267               	.L127:
 1268               	/* epilogue start */
 1269               	.LSM195:
 1270 009c DF91      		pop r29
 1271 009e CF91      		pop r28
 1272               	.LVL132:
 1273 00a0 1F91      		pop r17
 1274 00a2 0F91      		pop r16
 1275               	.LVL133:
 1276 00a4 0895      		ret
 1277               	.LFE104:
 1279               		.section	.text.Endpoint_Read_Control_EStream_LE,"ax",@progbits
 1280               	.global	Endpoint_Read_Control_EStream_LE
 1282               	Endpoint_Read_Control_EStream_LE:
 1283               	.LFB103:
 1284               	.LSM196:
 1285               	.LVL134:
 1286 0000 0F93      		push r16
 1287 0002 1F93      		push r17
 1288 0004 CF93      		push r28
 1289 0006 DF93      		push r29
 1290               	/* prologue: function */
 1291               	/* frame size = 0 */
 1292 0008 9C01      		movw r18,r24
 1293               	.LVL135:
 1294 000a EB01      		movw r28,r22
 1295               	.LSM197:
 1296 000c 6115      		cp r22,__zero_reg__
 1297 000e 7105      		cpc r23,__zero_reg__
 1298 0010 01F4      		brne .L139
 1299               	.LBB382:
 1300               	.LBB383:
 1301               	.LSM198:
 1302 0012 8091 E800 		lds r24,232
 1303 0016 8B77      		andi r24,lo8(123)
 1304 0018 8093 E800 		sts 232,r24
 1305               	.L139:
 1306               	.LBE383:
 1307               	.LBE382:
 1308               	.LSM199:
 1309 001c 8901      		movw r16,r18
 1310               	.LVL136:
 1311 001e 00C0      		rjmp .L140
 1312               	.LVL137:
 1313               	.L153:
 1314               	.LBB384:
 1315               	.LSM200:
 1316 0020 8091 0000 		lds r24,USB_DeviceState
 1317               	.LVL138:
 1318               	.LSM201:
 1319 0024 8823      		tst r24
 1320 0026 01F0      		breq .L141
 1321               	.LSM202:
 1322 0028 8530      		cpi r24,lo8(5)
 1323 002a 01F0      		breq .L142
 1324               	.LBB385:
 1325               	.LBB386:
 1326               	.LSM203:
 1327 002c 8091 E800 		lds r24,232
 1328               	.LVL139:
 1329               	.LBE386:
 1330               	.LBE385:
 1331               	.LSM204:
 1332 0030 83FF      		sbrs r24,3
 1333 0032 00C0      		rjmp .L143
 1334 0034 81E0      		ldi r24,lo8(1)
 1335 0036 00C0      		rjmp .L144
 1336               	.L143:
 1337               	.LBB387:
 1338               	.LBB388:
 1339               	.LSM205:
 1340 0038 8091 E800 		lds r24,232
 1341               	.LBE388:
 1342               	.LBE387:
 1343               	.LSM206:
 1344 003c 82FF      		sbrs r24,2
 1345 003e 00C0      		rjmp .L153
 1346 0040 00C0      		rjmp .L152
 1347               	.L148:
 1348               	.LBB389:
 1349               	.LBB390:
 1350               	.LSM207:
 1351 0042 6091 F100 		lds r22,241
 1352               	.LBE390:
 1353               	.LBE389:
 1354               	.LSM208:
 1355 0046 C801      		movw r24,r16
 1356 0048 0E94 0000 		call __eeupd_byte_usb1287
 1357               	.LSM209:
 1358 004c 0F5F      		subi r16,lo8(-(1))
 1359 004e 1F4F      		sbci r17,hi8(-(1))
 1360               	.LSM210:
 1361 0050 2197      		sbiw r28,1
 1362               	.LSM211:
 1363 0052 01F0      		breq .L147
 1364               	.LVL140:
 1365               	.L152:
 1366               	.LBB391:
 1367               	.LBB392:
 1368               	.LSM212:
 1369 0054 8091 F200 		lds r24,242
 1370 0058 9091 F300 		lds r25,(242)+1
 1371               	.LBE392:
 1372               	.LBE391:
 1373               	.LSM213:
 1374 005c 892B      		or r24,r25
 1375 005e 01F4      		brne .L148
 1376               	.L147:
 1377               	.LBB393:
 1378               	.LBB394:
 1379               	.LSM214:
 1380 0060 8091 E800 		lds r24,232
 1381 0064 8B77      		andi r24,lo8(123)
 1382 0066 8093 E800 		sts 232,r24
 1383               	.L140:
 1384               	.LBE394:
 1385               	.LBE393:
 1386               	.LBE384:
 1387               	.LSM215:
 1388 006a 2097      		sbiw r28,0
 1389 006c 01F4      		brne .L153
 1390 006e 00C0      		rjmp .L154
 1391               	.L150:
 1392               	.LBB395:
 1393               	.LSM216:
 1394 0070 8091 0000 		lds r24,USB_DeviceState
 1395               	.LVL141:
 1396               	.LSM217:
 1397 0074 8823      		tst r24
 1398 0076 01F0      		breq .L141
 1399               	.LSM218:
 1400 0078 8530      		cpi r24,lo8(5)
 1401 007a 01F0      		breq .L142
 1402               	.L154:
 1403               	.LBE395:
 1404               	.LBB396:
 1405               	.LBB397:
 1406               	.LSM219:
 1407 007c 8091 E800 		lds r24,232
 1408               	.LVL142:
 1409               	.LBE397:
 1410               	.LBE396:
 1411               	.LSM220:
 1412 0080 80FF      		sbrs r24,0
 1413 0082 00C0      		rjmp .L150
 1414 0084 80E0      		ldi r24,lo8(0)
 1415 0086 00C0      		rjmp .L144
 1416               	.LVL143:
 1417               	.L141:
 1418 0088 82E0      		ldi r24,lo8(2)
 1419               	.LVL144:
 1420 008a 00C0      		rjmp .L144
 1421               	.LVL145:
 1422               	.L142:
 1423 008c 83E0      		ldi r24,lo8(3)
 1424               	.LVL146:
 1425               	.L144:
 1426               	/* epilogue start */
 1427               	.LSM221:
 1428 008e DF91      		pop r29
 1429 0090 CF91      		pop r28
 1430               	.LVL147:
 1431 0092 1F91      		pop r17
 1432 0094 0F91      		pop r16
 1433               	.LVL148:
 1434 0096 0895      		ret
 1435               	.LFE103:
 1437               		.section	.text.Endpoint_Write_Control_EStream_BE,"ax",@progbits
 1438               	.global	Endpoint_Write_Control_EStream_BE
 1440               	Endpoint_Write_Control_EStream_BE:
 1441               	.LFB102:
 1442               	.LSM222:
 1443               	.LVL149:
 1444 0000 EF92      		push r14
 1445 0002 FF92      		push r15
 1446 0004 0F93      		push r16
 1447 0006 1F93      		push r17
 1448 0008 CF93      		push r28
 1449 000a DF93      		push r29
 1450               	/* prologue: function */
 1451               	/* frame size = 0 */
 1452 000c 9C01      		movw r18,r24
 1453               	.LSM223:
 1454 000e 0091 0000 		lds r16,USB_ControlRequest+6
 1455 0012 1091 0000 		lds r17,(USB_ControlRequest+6)+1
 1456               	.LVL150:
 1457 0016 0617      		cp r16,r22
 1458 0018 1707      		cpc r17,r23
 1459 001a 00F4      		brsh .L156
 1460               	.LVL151:
 1461               	.L159:
 1462               	.LSM224:
 1463 001c 7B01      		movw r14,r22
 1464               	.LVL152:
 1465 001e 0894      		sec
 1466 0020 E108      		sbc r14,__zero_reg__
 1467 0022 F108      		sbc r15,__zero_reg__
 1468 0024 E20E      		add r14,r18
 1469 0026 F31E      		adc r15,r19
 1470 0028 90E0      		ldi r25,lo8(0)
 1471               	.LVL153:
 1472 002a 00C0      		rjmp .L175
 1473               	.LVL154:
 1474               	.L156:
 1475               	.LSM225:
 1476 002c 6115      		cp r22,__zero_reg__
 1477 002e 7105      		cpc r23,__zero_reg__
 1478 0030 01F0      		breq .L158
 1479               	.LVL155:
 1480 0032 8B01      		movw r16,r22
 1481 0034 00C0      		rjmp .L159
 1482               	.L158:
 1483               	.LBB398:
 1484               	.LBB399:
 1485               	.LSM226:
 1486 0036 8091 E800 		lds r24,232
 1487 003a 8E77      		andi r24,lo8(126)
 1488 003c 8093 E800 		sts 232,r24
 1489 0040 00E0      		ldi r16,lo8(0)
 1490 0042 10E0      		ldi r17,hi8(0)
 1491               	.LVL156:
 1492 0044 00C0      		rjmp .L159
 1493               	.LVL157:
 1494               	.L169:
 1495               	.LBE399:
 1496               	.LBE398:
 1497               	.LBB400:
 1498               	.LSM227:
 1499 0046 8091 0000 		lds r24,USB_DeviceState
 1500               	.LVL158:
 1501               	.LSM228:
 1502 004a 8823      		tst r24
 1503 004c 01F4      		brne .+2
 1504 004e 00C0      		rjmp .L160
 1505               	.LSM229:
 1506 0050 8530      		cpi r24,lo8(5)
 1507 0052 01F4      		brne .+2
 1508 0054 00C0      		rjmp .L161
 1509               	.LBB401:
 1510               	.LBB402:
 1511               	.LSM230:
 1512 0056 8091 E800 		lds r24,232
 1513               	.LVL159:
 1514               	.LBE402:
 1515               	.LBE401:
 1516               	.LSM231:
 1517 005a 83FF      		sbrs r24,3
 1518 005c 00C0      		rjmp .L162
 1519 005e 81E0      		ldi r24,lo8(1)
 1520 0060 00C0      		rjmp .L163
 1521               	.L162:
 1522               	.LBB403:
 1523               	.LBB404:
 1524               	.LSM232:
 1525 0062 8091 E800 		lds r24,232
 1526               	.LBE404:
 1527               	.LBE403:
 1528               	.LSM233:
 1529 0066 82FD      		sbrc r24,2
 1530 0068 00C0      		rjmp .L173
 1531               	.LBB405:
 1532               	.LBB406:
 1533               	.LSM234:
 1534 006a 8091 E800 		lds r24,232
 1535               	.LBE406:
 1536               	.LBE405:
 1537               	.LSM235:
 1538 006e 80FF      		sbrs r24,0
 1539 0070 00C0      		rjmp .L175
 1540               	.LBB407:
 1541               	.LBB408:
 1542               	.LBB409:
 1543               	.LSM236:
 1544 0072 C091 F200 		lds r28,242
 1545 0076 D091 F300 		lds r29,(242)+1
 1546 007a 00C0      		rjmp .L165
 1547               	.L167:
 1548               	.LBE409:
 1549               	.LBE408:
 1550               	.LSM237:
 1551 007c C701      		movw r24,r14
 1552 007e 0E94 0000 		call __eerd_byte_usb1287
 1553               	.LVL160:
 1554               	.LBB410:
 1555               	.LBB411:
 1556               	.LSM238:
 1557 0082 8093 F100 		sts 241,r24
 1558               	.LBE411:
 1559               	.LBE410:
 1560               	.LSM239:
 1561 0086 0894      		sec
 1562 0088 E108      		sbc r14,__zero_reg__
 1563 008a F108      		sbc r15,__zero_reg__
 1564               	.LSM240:
 1565 008c 0150      		subi r16,lo8(-(-1))
 1566 008e 1040      		sbci r17,hi8(-(-1))
 1567               	.LSM241:
 1568 0090 2196      		adiw r28,1
 1569               	.LVL161:
 1570               	.L165:
 1571               	.LSM242:
 1572 0092 0115      		cp r16,__zero_reg__
 1573 0094 1105      		cpc r17,__zero_reg__
 1574 0096 01F0      		breq .L166
 1575 0098 C830      		cpi r28,8
 1576 009a D105      		cpc r29,__zero_reg__
 1577 009c 00F0      		brlo .L167
 1578               	.L166:
 1579               	.LSM243:
 1580 009e 90E0      		ldi r25,lo8(0)
 1581 00a0 2897      		sbiw r28,8
 1582 00a2 01F4      		brne .L168
 1583 00a4 91E0      		ldi r25,lo8(1)
 1584               	.L168:
 1585               	.LBB412:
 1586               	.LBB413:
 1587               	.LSM244:
 1588 00a6 8091 E800 		lds r24,232
 1589 00aa 8E77      		andi r24,lo8(126)
 1590 00ac 8093 E800 		sts 232,r24
 1591               	.LVL162:
 1592               	.L175:
 1593               	.LBE413:
 1594               	.LBE412:
 1595               	.LBE407:
 1596               	.LBE400:
 1597               	.LSM245:
 1598 00b0 0115      		cp r16,__zero_reg__
 1599 00b2 1105      		cpc r17,__zero_reg__
 1600 00b4 01F4      		brne .L169
 1601 00b6 9923      		tst r25
 1602 00b8 01F4      		brne .L169
 1603 00ba 00C0      		rjmp .L173
 1604               	.LVL163:
 1605               	.L170:
 1606               	.LBB414:
 1607               	.LSM246:
 1608 00bc 8091 0000 		lds r24,USB_DeviceState
 1609               	.LVL164:
 1610               	.LSM247:
 1611 00c0 8823      		tst r24
 1612 00c2 01F0      		breq .L160
 1613               	.LSM248:
 1614 00c4 8530      		cpi r24,lo8(5)
 1615 00c6 01F0      		breq .L161
 1616               	.LVL165:
 1617               	.L173:
 1618               	.LBE414:
 1619               	.LBB415:
 1620               	.LBB416:
 1621               	.LSM249:
 1622 00c8 8091 E800 		lds r24,232
 1623               	.LVL166:
 1624               	.LBE416:
 1625               	.LBE415:
 1626               	.LSM250:
 1627 00cc 82FF      		sbrs r24,2
 1628 00ce 00C0      		rjmp .L170
 1629 00d0 80E0      		ldi r24,lo8(0)
 1630 00d2 00C0      		rjmp .L163
 1631               	.LVL167:
 1632               	.L160:
 1633 00d4 82E0      		ldi r24,lo8(2)
 1634               	.LVL168:
 1635 00d6 00C0      		rjmp .L163
 1636               	.LVL169:
 1637               	.L161:
 1638 00d8 83E0      		ldi r24,lo8(3)
 1639               	.LVL170:
 1640               	.L163:
 1641               	/* epilogue start */
 1642               	.LSM251:
 1643 00da DF91      		pop r29
 1644 00dc CF91      		pop r28
 1645               	.LVL171:
 1646 00de 1F91      		pop r17
 1647 00e0 0F91      		pop r16
 1648               	.LVL172:
 1649 00e2 FF90      		pop r15
 1650 00e4 EF90      		pop r14
 1651               	.LVL173:
 1652 00e6 0895      		ret
 1653               	.LFE102:
 1655               		.section	.text.Endpoint_Write_Control_EStream_LE,"ax",@progbits
 1656               	.global	Endpoint_Write_Control_EStream_LE
 1658               	Endpoint_Write_Control_EStream_LE:
 1659               	.LFB101:
 1660               	.LSM252:
 1661               	.LVL174:
 1662 0000 EF92      		push r14
 1663 0002 FF92      		push r15
 1664 0004 0F93      		push r16
 1665 0006 1F93      		push r17
 1666 0008 CF93      		push r28
 1667 000a DF93      		push r29
 1668               	/* prologue: function */
 1669               	/* frame size = 0 */
 1670 000c 9C01      		movw r18,r24
 1671               	.LVL175:
 1672               	.LSM253:
 1673 000e 0091 0000 		lds r16,USB_ControlRequest+6
 1674 0012 1091 0000 		lds r17,(USB_ControlRequest+6)+1
 1675               	.LVL176:
 1676 0016 0617      		cp r16,r22
 1677 0018 1707      		cpc r17,r23
 1678 001a 00F4      		brsh .L177
 1679               	.L180:
 1680               	.LSM254:
 1681 001c 7901      		movw r14,r18
 1682               	.LVL177:
 1683 001e 90E0      		ldi r25,lo8(0)
 1684               	.LVL178:
 1685 0020 00C0      		rjmp .L196
 1686               	.LVL179:
 1687               	.L177:
 1688               	.LSM255:
 1689 0022 6115      		cp r22,__zero_reg__
 1690 0024 7105      		cpc r23,__zero_reg__
 1691 0026 01F0      		breq .L179
 1692               	.LVL180:
 1693 0028 8B01      		movw r16,r22
 1694 002a 00C0      		rjmp .L180
 1695               	.L179:
 1696               	.LBB417:
 1697               	.LBB418:
 1698               	.LSM256:
 1699 002c 8091 E800 		lds r24,232
 1700 0030 8E77      		andi r24,lo8(126)
 1701 0032 8093 E800 		sts 232,r24
 1702 0036 00E0      		ldi r16,lo8(0)
 1703 0038 10E0      		ldi r17,hi8(0)
 1704               	.LVL181:
 1705 003a 00C0      		rjmp .L180
 1706               	.LVL182:
 1707               	.L190:
 1708               	.LBE418:
 1709               	.LBE417:
 1710               	.LBB419:
 1711               	.LSM257:
 1712 003c 8091 0000 		lds r24,USB_DeviceState
 1713               	.LVL183:
 1714               	.LSM258:
 1715 0040 8823      		tst r24
 1716 0042 01F4      		brne .+2
 1717 0044 00C0      		rjmp .L181
 1718               	.LSM259:
 1719 0046 8530      		cpi r24,lo8(5)
 1720 0048 01F4      		brne .+2
 1721 004a 00C0      		rjmp .L182
 1722               	.LBB420:
 1723               	.LBB421:
 1724               	.LSM260:
 1725 004c 8091 E800 		lds r24,232
 1726               	.LVL184:
 1727               	.LBE421:
 1728               	.LBE420:
 1729               	.LSM261:
 1730 0050 83FF      		sbrs r24,3
 1731 0052 00C0      		rjmp .L183
 1732 0054 81E0      		ldi r24,lo8(1)
 1733 0056 00C0      		rjmp .L184
 1734               	.L183:
 1735               	.LBB422:
 1736               	.LBB423:
 1737               	.LSM262:
 1738 0058 8091 E800 		lds r24,232
 1739               	.LBE423:
 1740               	.LBE422:
 1741               	.LSM263:
 1742 005c 82FD      		sbrc r24,2
 1743 005e 00C0      		rjmp .L194
 1744               	.LBB424:
 1745               	.LBB425:
 1746               	.LSM264:
 1747 0060 8091 E800 		lds r24,232
 1748               	.LBE425:
 1749               	.LBE424:
 1750               	.LSM265:
 1751 0064 80FF      		sbrs r24,0
 1752 0066 00C0      		rjmp .L196
 1753               	.LBB426:
 1754               	.LBB427:
 1755               	.LBB428:
 1756               	.LSM266:
 1757 0068 C091 F200 		lds r28,242
 1758 006c D091 F300 		lds r29,(242)+1
 1759 0070 00C0      		rjmp .L186
 1760               	.L188:
 1761               	.LBE428:
 1762               	.LBE427:
 1763               	.LSM267:
 1764 0072 C701      		movw r24,r14
 1765 0074 0E94 0000 		call __eerd_byte_usb1287
 1766               	.LVL185:
 1767               	.LBB429:
 1768               	.LBB430:
 1769               	.LSM268:
 1770 0078 8093 F100 		sts 241,r24
 1771               	.LBE430:
 1772               	.LBE429:
 1773               	.LSM269:
 1774 007c 0894      		sec
 1775 007e E11C      		adc r14,__zero_reg__
 1776 0080 F11C      		adc r15,__zero_reg__
 1777               	.LSM270:
 1778 0082 0150      		subi r16,lo8(-(-1))
 1779 0084 1040      		sbci r17,hi8(-(-1))
 1780               	.LSM271:
 1781 0086 2196      		adiw r28,1
 1782               	.LVL186:
 1783               	.L186:
 1784               	.LSM272:
 1785 0088 0115      		cp r16,__zero_reg__
 1786 008a 1105      		cpc r17,__zero_reg__
 1787 008c 01F0      		breq .L187
 1788 008e C830      		cpi r28,8
 1789 0090 D105      		cpc r29,__zero_reg__
 1790 0092 00F0      		brlo .L188
 1791               	.L187:
 1792               	.LSM273:
 1793 0094 90E0      		ldi r25,lo8(0)
 1794 0096 2897      		sbiw r28,8
 1795 0098 01F4      		brne .L189
 1796 009a 91E0      		ldi r25,lo8(1)
 1797               	.L189:
 1798               	.LBB431:
 1799               	.LBB432:
 1800               	.LSM274:
 1801 009c 8091 E800 		lds r24,232
 1802 00a0 8E77      		andi r24,lo8(126)
 1803 00a2 8093 E800 		sts 232,r24
 1804               	.L196:
 1805               	.LBE432:
 1806               	.LBE431:
 1807               	.LBE426:
 1808               	.LBE419:
 1809               	.LSM275:
 1810 00a6 0115      		cp r16,__zero_reg__
 1811 00a8 1105      		cpc r17,__zero_reg__
 1812 00aa 01F4      		brne .L190
 1813 00ac 9923      		tst r25
 1814 00ae 01F4      		brne .L190
 1815 00b0 00C0      		rjmp .L194
 1816               	.L191:
 1817               	.LBB433:
 1818               	.LSM276:
 1819 00b2 8091 0000 		lds r24,USB_DeviceState
 1820               	.LVL187:
 1821               	.LSM277:
 1822 00b6 8823      		tst r24
 1823 00b8 01F0      		breq .L181
 1824               	.LSM278:
 1825 00ba 8530      		cpi r24,lo8(5)
 1826 00bc 01F0      		breq .L182
 1827               	.L194:
 1828               	.LBE433:
 1829               	.LBB434:
 1830               	.LBB435:
 1831               	.LSM279:
 1832 00be 8091 E800 		lds r24,232
 1833               	.LVL188:
 1834               	.LBE435:
 1835               	.LBE434:
 1836               	.LSM280:
 1837 00c2 82FF      		sbrs r24,2
 1838 00c4 00C0      		rjmp .L191
 1839 00c6 80E0      		ldi r24,lo8(0)
 1840 00c8 00C0      		rjmp .L184
 1841               	.LVL189:
 1842               	.L181:
 1843 00ca 82E0      		ldi r24,lo8(2)
 1844               	.LVL190:
 1845 00cc 00C0      		rjmp .L184
 1846               	.LVL191:
 1847               	.L182:
 1848 00ce 83E0      		ldi r24,lo8(3)
 1849               	.LVL192:
 1850               	.L184:
 1851               	/* epilogue start */
 1852               	.LSM281:
 1853 00d0 DF91      		pop r29
 1854 00d2 CF91      		pop r28
 1855               	.LVL193:
 1856 00d4 1F91      		pop r17
 1857 00d6 0F91      		pop r16
 1858               	.LVL194:
 1859 00d8 FF90      		pop r15
 1860 00da EF90      		pop r14
 1861               	.LVL195:
 1862 00dc 0895      		ret
 1863               	.LFE101:
 1865               		.section	.text.Endpoint_Null_Stream,"ax",@progbits
 1866               	.global	Endpoint_Null_Stream
 1868               	Endpoint_Null_Stream:
 1869               	.LFB84:
 1870               	.LSM282:
 1871               	.LVL196:
 1872 0000 DF92      		push r13
 1873 0002 EF92      		push r14
 1874 0004 FF92      		push r15
 1875 0006 0F93      		push r16
 1876 0008 1F93      		push r17
 1877 000a CF93      		push r28
 1878 000c DF93      		push r29
 1879               	/* prologue: function */
 1880               	/* frame size = 0 */
 1881 000e EC01      		movw r28,r24
 1882 0010 8B01      		movw r16,r22
 1883               	.LSM283:
 1884 0012 0E94 0000 		call Endpoint_WaitUntilReady
 1885               	.LVL197:
 1886 0016 D82E      		mov r13,r24
 1887               	.LVL198:
 1888 0018 8823      		tst r24
 1889 001a 01F4      		brne .L198
 1890               	.LVL199:
 1891               	.LSM284:
 1892 001c 0115      		cp r16,__zero_reg__
 1893 001e 1105      		cpc r17,__zero_reg__
 1894 0020 01F0      		breq .L199
 1895               	.LSM285:
 1896 0022 F801      		movw r30,r16
 1897 0024 8081      		ld r24,Z
 1898 0026 9181      		ldd r25,Z+1
 1899               	.LVL200:
 1900 0028 C81B      		sub r28,r24
 1901 002a D90B      		sbc r29,r25
 1902               	.LVL201:
 1903               	.L199:
 1904 002c EE24      		clr r14
 1905 002e FF24      		clr r15
 1906               	.LVL202:
 1907 0030 00C0      		rjmp .L206
 1908               	.L204:
 1909               	.LBB436:
 1910               	.LBB437:
 1911               	.LSM286:
 1912 0032 8091 E800 		lds r24,232
 1913               	.LBE437:
 1914               	.LBE436:
 1915               	.LSM287:
 1916 0036 85FD      		sbrc r24,5
 1917 0038 00C0      		rjmp .L201
 1918               	.LBB438:
 1919               	.LBB439:
 1920               	.LSM288:
 1921 003a 8091 E800 		lds r24,232
 1922 003e 8E77      		andi r24,lo8(126)
 1923 0040 8093 E800 		sts 232,r24
 1924               	.LBE439:
 1925               	.LBE438:
 1926               	.LSM289:
 1927 0044 0115      		cp r16,__zero_reg__
 1928 0046 1105      		cpc r17,__zero_reg__
 1929 0048 01F0      		breq .L202
 1930               	.LSM290:
 1931 004a F801      		movw r30,r16
 1932 004c 8081      		ld r24,Z
 1933 004e 9181      		ldd r25,Z+1
 1934 0050 8E0D      		add r24,r14
 1935 0052 9F1D      		adc r25,r15
 1936 0054 9183      		std Z+1,r25
 1937 0056 8083      		st Z,r24
 1938 0058 85E0      		ldi r24,lo8(5)
 1939               	.LVL203:
 1940 005a 00C0      		rjmp .L203
 1941               	.LVL204:
 1942               	.L202:
 1943               	.LSM291:
 1944 005c 0E94 0000 		call Endpoint_WaitUntilReady
 1945 0060 8823      		tst r24
 1946 0062 01F0      		breq .L206
 1947               	.LVL205:
 1948 0064 00C0      		rjmp .L203
 1949               	.LVL206:
 1950               	.L201:
 1951               	.LBB440:
 1952               	.LBB441:
 1953               	.LSM292:
 1954 0066 1092 F100 		sts 241,__zero_reg__
 1955               	.LBE441:
 1956               	.LBE440:
 1957               	.LSM293:
 1958 006a 2197      		sbiw r28,1
 1959               	.LSM294:
 1960 006c 0894      		sec
 1961 006e E11C      		adc r14,__zero_reg__
 1962 0070 F11C      		adc r15,__zero_reg__
 1963               	.LVL207:
 1964               	.L206:
 1965               	.LSM295:
 1966 0072 2097      		sbiw r28,0
 1967 0074 01F4      		brne .L204
 1968               	.LVL208:
 1969               	.L198:
 1970 0076 8D2D      		mov r24,r13
 1971               	.L203:
 1972               	.LVL209:
 1973               	/* epilogue start */
 1974               	.LSM296:
 1975 0078 DF91      		pop r29
 1976 007a CF91      		pop r28
 1977               	.LVL210:
 1978 007c 1F91      		pop r17
 1979 007e 0F91      		pop r16
 1980               	.LVL211:
 1981 0080 FF90      		pop r15
 1982 0082 EF90      		pop r14
 1983               	.LVL212:
 1984 0084 DF90      		pop r13
 1985               	.LVL213:
 1986 0086 0895      		ret
 1987               	.LFE84:
 1989               		.section	.text.Endpoint_Discard_Stream,"ax",@progbits
 1990               	.global	Endpoint_Discard_Stream
 1992               	Endpoint_Discard_Stream:
 1993               	.LFB83:
 1994               	.LSM297:
 1995               	.LVL214:
 1996 0000 DF92      		push r13
 1997 0002 EF92      		push r14
 1998 0004 FF92      		push r15
 1999 0006 0F93      		push r16
 2000 0008 1F93      		push r17
 2001 000a CF93      		push r28
 2002 000c DF93      		push r29
 2003               	/* prologue: function */
 2004               	/* frame size = 0 */
 2005 000e EC01      		movw r28,r24
 2006 0010 8B01      		movw r16,r22
 2007               	.LSM298:
 2008 0012 0E94 0000 		call Endpoint_WaitUntilReady
 2009               	.LVL215:
 2010 0016 D82E      		mov r13,r24
 2011               	.LVL216:
 2012 0018 8823      		tst r24
 2013 001a 01F4      		brne .L208
 2014               	.LVL217:
 2015               	.LSM299:
 2016 001c 0115      		cp r16,__zero_reg__
 2017 001e 1105      		cpc r17,__zero_reg__
 2018 0020 01F0      		breq .L209
 2019               	.LSM300:
 2020 0022 F801      		movw r30,r16
 2021 0024 8081      		ld r24,Z
 2022 0026 9181      		ldd r25,Z+1
 2023               	.LVL218:
 2024 0028 C81B      		sub r28,r24
 2025 002a D90B      		sbc r29,r25
 2026               	.LVL219:
 2027               	.L209:
 2028 002c EE24      		clr r14
 2029 002e FF24      		clr r15
 2030               	.LVL220:
 2031 0030 00C0      		rjmp .L216
 2032               	.LVL221:
 2033               	.L214:
 2034               	.LBB442:
 2035               	.LBB443:
 2036               	.LSM301:
 2037 0032 8091 E800 		lds r24,232
 2038               	.LVL222:
 2039               	.LBE443:
 2040               	.LBE442:
 2041               	.LSM302:
 2042 0036 85FD      		sbrc r24,5
 2043 0038 00C0      		rjmp .L211
 2044               	.LBB444:
 2045               	.LBB445:
 2046               	.LSM303:
 2047 003a 8091 E800 		lds r24,232
 2048 003e 8B77      		andi r24,lo8(123)
 2049 0040 8093 E800 		sts 232,r24
 2050               	.LBE445:
 2051               	.LBE444:
 2052               	.LSM304:
 2053 0044 0115      		cp r16,__zero_reg__
 2054 0046 1105      		cpc r17,__zero_reg__
 2055 0048 01F0      		breq .L212
 2056               	.LSM305:
 2057 004a F801      		movw r30,r16
 2058 004c 8081      		ld r24,Z
 2059 004e 9181      		ldd r25,Z+1
 2060 0050 8E0D      		add r24,r14
 2061 0052 9F1D      		adc r25,r15
 2062 0054 9183      		std Z+1,r25
 2063 0056 8083      		st Z,r24
 2064 0058 85E0      		ldi r24,lo8(5)
 2065               	.LVL223:
 2066 005a 00C0      		rjmp .L213
 2067               	.LVL224:
 2068               	.L212:
 2069               	.LSM306:
 2070 005c 0E94 0000 		call Endpoint_WaitUntilReady
 2071 0060 8823      		tst r24
 2072 0062 01F0      		breq .L216
 2073               	.LVL225:
 2074 0064 00C0      		rjmp .L213
 2075               	.LVL226:
 2076               	.L211:
 2077               	.LBB446:
 2078               	.LBB447:
 2079               	.LSM307:
 2080 0066 8091 F100 		lds r24,241
 2081               	.LVL227:
 2082               	.LBE447:
 2083               	.LBE446:
 2084               	.LSM308:
 2085 006a 2197      		sbiw r28,1
 2086               	.LSM309:
 2087 006c 0894      		sec
 2088 006e E11C      		adc r14,__zero_reg__
 2089 0070 F11C      		adc r15,__zero_reg__
 2090               	.LVL228:
 2091               	.L216:
 2092               	.LSM310:
 2093 0072 2097      		sbiw r28,0
 2094 0074 01F4      		brne .L214
 2095               	.LVL229:
 2096               	.L208:
 2097 0076 8D2D      		mov r24,r13
 2098               	.LVL230:
 2099               	.L213:
 2100               	.LVL231:
 2101               	/* epilogue start */
 2102               	.LSM311:
 2103 0078 DF91      		pop r29
 2104 007a CF91      		pop r28
 2105               	.LVL232:
 2106 007c 1F91      		pop r17
 2107 007e 0F91      		pop r16
 2108               	.LVL233:
 2109 0080 FF90      		pop r15
 2110 0082 EF90      		pop r14
 2111               	.LVL234:
 2112 0084 DF90      		pop r13
 2113               	.LVL235:
 2114 0086 0895      		ret
 2115               	.LFE83:
 2117               		.section	.text.Endpoint_Read_EStream_BE,"ax",@progbits
 2118               	.global	Endpoint_Read_EStream_BE
 2120               	Endpoint_Read_EStream_BE:
 2121               	.LFB94:
 2122               	.LSM312:
 2123               	.LVL236:
 2124 0000 BF92      		push r11
 2125 0002 CF92      		push r12
 2126 0004 DF92      		push r13
 2127 0006 EF92      		push r14
 2128 0008 FF92      		push r15
 2129 000a 0F93      		push r16
 2130 000c 1F93      		push r17
 2131 000e CF93      		push r28
 2132 0010 DF93      		push r29
 2133               	/* prologue: function */
 2134               	/* frame size = 0 */
 2135 0012 8C01      		movw r16,r24
 2136 0014 EB01      		movw r28,r22
 2137 0016 6A01      		movw r12,r20
 2138               	.LSM313:
 2139 0018 0E94 0000 		call Endpoint_WaitUntilReady
 2140               	.LVL237:
 2141 001c B82E      		mov r11,r24
 2142               	.LVL238:
 2143 001e 8823      		tst r24
 2144 0020 01F4      		brne .L218
 2145               	.LVL239:
 2146               	.LSM314:
 2147 0022 2197      		sbiw r28,1
 2148 0024 0C0F      		add r16,r28
 2149 0026 1D1F      		adc r17,r29
 2150               	.LVL240:
 2151 0028 2196      		adiw r28,1
 2152               	.LSM315:
 2153 002a C114      		cp r12,__zero_reg__
 2154 002c D104      		cpc r13,__zero_reg__
 2155 002e 01F0      		breq .L219
 2156               	.LSM316:
 2157 0030 F601      		movw r30,r12
 2158 0032 8081      		ld r24,Z
 2159 0034 9181      		ldd r25,Z+1
 2160               	.LVL241:
 2161 0036 C81B      		sub r28,r24
 2162 0038 D90B      		sbc r29,r25
 2163               	.LSM317:
 2164 003a 081B      		sub r16,r24
 2165 003c 190B      		sbc r17,r25
 2166               	.LVL242:
 2167               	.L219:
 2168 003e EE24      		clr r14
 2169 0040 FF24      		clr r15
 2170               	.LVL243:
 2171 0042 00C0      		rjmp .L226
 2172               	.L224:
 2173               	.LBB448:
 2174               	.LBB449:
 2175               	.LSM318:
 2176 0044 8091 E800 		lds r24,232
 2177               	.LBE449:
 2178               	.LBE448:
 2179               	.LSM319:
 2180 0048 85FD      		sbrc r24,5
 2181 004a 00C0      		rjmp .L221
 2182               	.LBB450:
 2183               	.LBB451:
 2184               	.LSM320:
 2185 004c 8091 E800 		lds r24,232
 2186 0050 8B77      		andi r24,lo8(123)
 2187 0052 8093 E800 		sts 232,r24
 2188               	.LBE451:
 2189               	.LBE450:
 2190               	.LSM321:
 2191 0056 C114      		cp r12,__zero_reg__
 2192 0058 D104      		cpc r13,__zero_reg__
 2193 005a 01F0      		breq .L222
 2194               	.LSM322:
 2195 005c F601      		movw r30,r12
 2196 005e 8081      		ld r24,Z
 2197 0060 9181      		ldd r25,Z+1
 2198 0062 8E0D      		add r24,r14
 2199 0064 9F1D      		adc r25,r15
 2200 0066 9183      		std Z+1,r25
 2201 0068 8083      		st Z,r24
 2202 006a 85E0      		ldi r24,lo8(5)
 2203               	.LVL244:
 2204 006c 00C0      		rjmp .L223
 2205               	.LVL245:
 2206               	.L222:
 2207               	.LSM323:
 2208 006e 0E94 0000 		call USB_USBTask
 2209               	.LSM324:
 2210 0072 0E94 0000 		call Endpoint_WaitUntilReady
 2211 0076 8823      		tst r24
 2212 0078 01F0      		breq .L226
 2213               	.LVL246:
 2214 007a 00C0      		rjmp .L223
 2215               	.LVL247:
 2216               	.L221:
 2217               	.LBB452:
 2218               	.LBB453:
 2219               	.LSM325:
 2220 007c 6091 F100 		lds r22,241
 2221               	.LBE453:
 2222               	.LBE452:
 2223               	.LSM326:
 2224 0080 C801      		movw r24,r16
 2225 0082 0E94 0000 		call __eeupd_byte_usb1287
 2226               	.LSM327:
 2227 0086 0150      		subi r16,lo8(-(-1))
 2228 0088 1040      		sbci r17,hi8(-(-1))
 2229               	.LSM328:
 2230 008a 2197      		sbiw r28,1
 2231               	.LSM329:
 2232 008c 0894      		sec
 2233 008e E11C      		adc r14,__zero_reg__
 2234 0090 F11C      		adc r15,__zero_reg__
 2235               	.LVL248:
 2236               	.L226:
 2237               	.LSM330:
 2238 0092 2097      		sbiw r28,0
 2239 0094 01F4      		brne .L224
 2240               	.LVL249:
 2241               	.L218:
 2242 0096 8B2D      		mov r24,r11
 2243               	.L223:
 2244               	.LVL250:
 2245               	/* epilogue start */
 2246               	.LSM331:
 2247 0098 DF91      		pop r29
 2248 009a CF91      		pop r28
 2249               	.LVL251:
 2250 009c 1F91      		pop r17
 2251 009e 0F91      		pop r16
 2252               	.LVL252:
 2253 00a0 FF90      		pop r15
 2254 00a2 EF90      		pop r14
 2255               	.LVL253:
 2256 00a4 DF90      		pop r13
 2257 00a6 CF90      		pop r12
 2258               	.LVL254:
 2259 00a8 BF90      		pop r11
 2260               	.LVL255:
 2261 00aa 0895      		ret
 2262               	.LFE94:
 2264               		.section	.text.Endpoint_Read_EStream_LE,"ax",@progbits
 2265               	.global	Endpoint_Read_EStream_LE
 2267               	Endpoint_Read_EStream_LE:
 2268               	.LFB93:
 2269               	.LSM332:
 2270               	.LVL256:
 2271 0000 BF92      		push r11
 2272 0002 CF92      		push r12
 2273 0004 DF92      		push r13
 2274 0006 EF92      		push r14
 2275 0008 FF92      		push r15
 2276 000a 0F93      		push r16
 2277 000c 1F93      		push r17
 2278 000e CF93      		push r28
 2279 0010 DF93      		push r29
 2280               	/* prologue: function */
 2281               	/* frame size = 0 */
 2282 0012 182F      		mov r17,r24
 2283 0014 092F      		mov r16,r25
 2284               	.LVL257:
 2285 0016 7B01      		movw r14,r22
 2286 0018 6A01      		movw r12,r20
 2287               	.LSM333:
 2288 001a 0E94 0000 		call Endpoint_WaitUntilReady
 2289               	.LVL258:
 2290 001e B82E      		mov r11,r24
 2291               	.LVL259:
 2292 0020 8823      		tst r24
 2293 0022 01F4      		brne .L228
 2294               	.LVL260:
 2295               	.LSM334:
 2296 0024 812F      		mov r24,r17
 2297               	.LVL261:
 2298 0026 902F      		mov r25,r16
 2299               	.LVL262:
 2300 0028 9C01      		movw r18,r24
 2301               	.LVL263:
 2302 002a E901      		movw r28,r18
 2303               	.LVL264:
 2304               	.LSM335:
 2305 002c C114      		cp r12,__zero_reg__
 2306 002e D104      		cpc r13,__zero_reg__
 2307 0030 01F0      		breq .L229
 2308               	.LVL265:
 2309               	.LSM336:
 2310 0032 F601      		movw r30,r12
 2311 0034 8081      		ld r24,Z
 2312 0036 9181      		ldd r25,Z+1
 2313 0038 E81A      		sub r14,r24
 2314 003a F90A      		sbc r15,r25
 2315               	.LSM337:
 2316 003c C80F      		add r28,r24
 2317 003e D91F      		adc r29,r25
 2318               	.LVL266:
 2319               	.L229:
 2320 0040 00E0      		ldi r16,lo8(0)
 2321 0042 10E0      		ldi r17,hi8(0)
 2322               	.LVL267:
 2323 0044 00C0      		rjmp .L236
 2324               	.LVL268:
 2325               	.L234:
 2326               	.LBB454:
 2327               	.LBB455:
 2328               	.LSM338:
 2329 0046 8091 E800 		lds r24,232
 2330               	.LBE455:
 2331               	.LBE454:
 2332               	.LSM339:
 2333 004a 85FD      		sbrc r24,5
 2334 004c 00C0      		rjmp .L231
 2335               	.LBB456:
 2336               	.LBB457:
 2337               	.LSM340:
 2338 004e 8091 E800 		lds r24,232
 2339 0052 8B77      		andi r24,lo8(123)
 2340 0054 8093 E800 		sts 232,r24
 2341               	.LBE457:
 2342               	.LBE456:
 2343               	.LSM341:
 2344 0058 C114      		cp r12,__zero_reg__
 2345 005a D104      		cpc r13,__zero_reg__
 2346 005c 01F0      		breq .L232
 2347               	.LSM342:
 2348 005e F601      		movw r30,r12
 2349 0060 8081      		ld r24,Z
 2350 0062 9181      		ldd r25,Z+1
 2351 0064 800F      		add r24,r16
 2352 0066 911F      		adc r25,r17
 2353 0068 9183      		std Z+1,r25
 2354 006a 8083      		st Z,r24
 2355 006c 85E0      		ldi r24,lo8(5)
 2356               	.LVL269:
 2357 006e 00C0      		rjmp .L233
 2358               	.LVL270:
 2359               	.L232:
 2360               	.LSM343:
 2361 0070 0E94 0000 		call USB_USBTask
 2362               	.LVL271:
 2363               	.LSM344:
 2364 0074 0E94 0000 		call Endpoint_WaitUntilReady
 2365 0078 8823      		tst r24
 2366 007a 01F0      		breq .L236
 2367               	.LVL272:
 2368 007c 00C0      		rjmp .L233
 2369               	.LVL273:
 2370               	.L231:
 2371               	.LBB458:
 2372               	.LBB459:
 2373               	.LSM345:
 2374 007e 6091 F100 		lds r22,241
 2375               	.LBE459:
 2376               	.LBE458:
 2377               	.LSM346:
 2378 0082 CE01      		movw r24,r28
 2379 0084 0E94 0000 		call __eeupd_byte_usb1287
 2380               	.LVL274:
 2381               	.LSM347:
 2382 0088 2196      		adiw r28,1
 2383               	.LSM348:
 2384 008a 0894      		sec
 2385 008c E108      		sbc r14,__zero_reg__
 2386 008e F108      		sbc r15,__zero_reg__
 2387               	.LSM349:
 2388 0090 0F5F      		subi r16,lo8(-(1))
 2389 0092 1F4F      		sbci r17,hi8(-(1))
 2390               	.LVL275:
 2391               	.L236:
 2392               	.LSM350:
 2393 0094 E114      		cp r14,__zero_reg__
 2394 0096 F104      		cpc r15,__zero_reg__
 2395 0098 01F4      		brne .L234
 2396               	.LVL276:
 2397               	.L228:
 2398 009a 8B2D      		mov r24,r11
 2399               	.L233:
 2400               	.LVL277:
 2401               	/* epilogue start */
 2402               	.LSM351:
 2403 009c DF91      		pop r29
 2404 009e CF91      		pop r28
 2405               	.LVL278:
 2406 00a0 1F91      		pop r17
 2407               	.LVL279:
 2408 00a2 0F91      		pop r16
 2409               	.LVL280:
 2410 00a4 FF90      		pop r15
 2411 00a6 EF90      		pop r14
 2412               	.LVL281:
 2413 00a8 DF90      		pop r13
 2414 00aa CF90      		pop r12
 2415               	.LVL282:
 2416 00ac BF90      		pop r11
 2417               	.LVL283:
 2418 00ae 0895      		ret
 2419               	.LFE93:
 2421               		.section	.text.Endpoint_Write_EStream_BE,"ax",@progbits
 2422               	.global	Endpoint_Write_EStream_BE
 2424               	Endpoint_Write_EStream_BE:
 2425               	.LFB92:
 2426               	.LSM352:
 2427               	.LVL284:
 2428 0000 BF92      		push r11
 2429 0002 CF92      		push r12
 2430 0004 DF92      		push r13
 2431 0006 EF92      		push r14
 2432 0008 FF92      		push r15
 2433 000a 0F93      		push r16
 2434 000c 1F93      		push r17
 2435 000e CF93      		push r28
 2436 0010 DF93      		push r29
 2437               	/* prologue: function */
 2438               	/* frame size = 0 */
 2439 0012 8C01      		movw r16,r24
 2440 0014 EB01      		movw r28,r22
 2441 0016 6A01      		movw r12,r20
 2442               	.LSM353:
 2443 0018 0E94 0000 		call Endpoint_WaitUntilReady
 2444               	.LVL285:
 2445 001c B82E      		mov r11,r24
 2446               	.LVL286:
 2447 001e 8823      		tst r24
 2448 0020 01F4      		brne .L238
 2449               	.LVL287:
 2450               	.LSM354:
 2451 0022 2197      		sbiw r28,1
 2452 0024 0C0F      		add r16,r28
 2453 0026 1D1F      		adc r17,r29
 2454               	.LVL288:
 2455 0028 2196      		adiw r28,1
 2456               	.LSM355:
 2457 002a C114      		cp r12,__zero_reg__
 2458 002c D104      		cpc r13,__zero_reg__
 2459 002e 01F0      		breq .L239
 2460               	.LSM356:
 2461 0030 F601      		movw r30,r12
 2462 0032 8081      		ld r24,Z
 2463 0034 9181      		ldd r25,Z+1
 2464               	.LVL289:
 2465 0036 C81B      		sub r28,r24
 2466 0038 D90B      		sbc r29,r25
 2467               	.LSM357:
 2468 003a 081B      		sub r16,r24
 2469 003c 190B      		sbc r17,r25
 2470               	.LVL290:
 2471               	.L239:
 2472 003e EE24      		clr r14
 2473 0040 FF24      		clr r15
 2474               	.LVL291:
 2475 0042 00C0      		rjmp .L246
 2476               	.L244:
 2477               	.LBB460:
 2478               	.LBB461:
 2479               	.LSM358:
 2480 0044 8091 E800 		lds r24,232
 2481               	.LBE461:
 2482               	.LBE460:
 2483               	.LSM359:
 2484 0048 85FD      		sbrc r24,5
 2485 004a 00C0      		rjmp .L241
 2486               	.LBB462:
 2487               	.LBB463:
 2488               	.LSM360:
 2489 004c 8091 E800 		lds r24,232
 2490 0050 8E77      		andi r24,lo8(126)
 2491 0052 8093 E800 		sts 232,r24
 2492               	.LBE463:
 2493               	.LBE462:
 2494               	.LSM361:
 2495 0056 C114      		cp r12,__zero_reg__
 2496 0058 D104      		cpc r13,__zero_reg__
 2497 005a 01F0      		breq .L242
 2498               	.LSM362:
 2499 005c F601      		movw r30,r12
 2500 005e 8081      		ld r24,Z
 2501 0060 9181      		ldd r25,Z+1
 2502 0062 8E0D      		add r24,r14
 2503 0064 9F1D      		adc r25,r15
 2504 0066 9183      		std Z+1,r25
 2505 0068 8083      		st Z,r24
 2506 006a 85E0      		ldi r24,lo8(5)
 2507               	.LVL292:
 2508 006c 00C0      		rjmp .L243
 2509               	.LVL293:
 2510               	.L242:
 2511               	.LSM363:
 2512 006e 0E94 0000 		call USB_USBTask
 2513               	.LSM364:
 2514 0072 0E94 0000 		call Endpoint_WaitUntilReady
 2515 0076 8823      		tst r24
 2516 0078 01F0      		breq .L246
 2517               	.LVL294:
 2518 007a 00C0      		rjmp .L243
 2519               	.LVL295:
 2520               	.L241:
 2521               	.LSM365:
 2522 007c C801      		movw r24,r16
 2523 007e 0E94 0000 		call __eerd_byte_usb1287
 2524               	.LBB464:
 2525               	.LBB465:
 2526               	.LSM366:
 2527 0082 8093 F100 		sts 241,r24
 2528               	.LBE465:
 2529               	.LBE464:
 2530               	.LSM367:
 2531 0086 0150      		subi r16,lo8(-(-1))
 2532 0088 1040      		sbci r17,hi8(-(-1))
 2533               	.LSM368:
 2534 008a 2197      		sbiw r28,1
 2535               	.LSM369:
 2536 008c 0894      		sec
 2537 008e E11C      		adc r14,__zero_reg__
 2538 0090 F11C      		adc r15,__zero_reg__
 2539               	.LVL296:
 2540               	.L246:
 2541               	.LSM370:
 2542 0092 2097      		sbiw r28,0
 2543 0094 01F4      		brne .L244
 2544               	.LVL297:
 2545               	.L238:
 2546 0096 8B2D      		mov r24,r11
 2547               	.L243:
 2548               	.LVL298:
 2549               	/* epilogue start */
 2550               	.LSM371:
 2551 0098 DF91      		pop r29
 2552 009a CF91      		pop r28
 2553               	.LVL299:
 2554 009c 1F91      		pop r17
 2555 009e 0F91      		pop r16
 2556               	.LVL300:
 2557 00a0 FF90      		pop r15
 2558 00a2 EF90      		pop r14
 2559               	.LVL301:
 2560 00a4 DF90      		pop r13
 2561 00a6 CF90      		pop r12
 2562               	.LVL302:
 2563 00a8 BF90      		pop r11
 2564               	.LVL303:
 2565 00aa 0895      		ret
 2566               	.LFE92:
 2568               		.section	.text.Endpoint_Write_EStream_LE,"ax",@progbits
 2569               	.global	Endpoint_Write_EStream_LE
 2571               	Endpoint_Write_EStream_LE:
 2572               	.LFB91:
 2573               	.LSM372:
 2574               	.LVL304:
 2575 0000 BF92      		push r11
 2576 0002 CF92      		push r12
 2577 0004 DF92      		push r13
 2578 0006 EF92      		push r14
 2579 0008 FF92      		push r15
 2580 000a 0F93      		push r16
 2581 000c 1F93      		push r17
 2582 000e CF93      		push r28
 2583 0010 DF93      		push r29
 2584               	/* prologue: function */
 2585               	/* frame size = 0 */
 2586 0012 182F      		mov r17,r24
 2587 0014 092F      		mov r16,r25
 2588               	.LVL305:
 2589 0016 7B01      		movw r14,r22
 2590 0018 6A01      		movw r12,r20
 2591               	.LSM373:
 2592 001a 0E94 0000 		call Endpoint_WaitUntilReady
 2593               	.LVL306:
 2594 001e B82E      		mov r11,r24
 2595               	.LVL307:
 2596 0020 8823      		tst r24
 2597 0022 01F4      		brne .L248
 2598               	.LVL308:
 2599               	.LSM374:
 2600 0024 812F      		mov r24,r17
 2601               	.LVL309:
 2602 0026 902F      		mov r25,r16
 2603               	.LVL310:
 2604 0028 9C01      		movw r18,r24
 2605               	.LVL311:
 2606 002a E901      		movw r28,r18
 2607               	.LVL312:
 2608               	.LSM375:
 2609 002c C114      		cp r12,__zero_reg__
 2610 002e D104      		cpc r13,__zero_reg__
 2611 0030 01F0      		breq .L249
 2612               	.LVL313:
 2613               	.LSM376:
 2614 0032 F601      		movw r30,r12
 2615 0034 8081      		ld r24,Z
 2616 0036 9181      		ldd r25,Z+1
 2617 0038 E81A      		sub r14,r24
 2618 003a F90A      		sbc r15,r25
 2619               	.LSM377:
 2620 003c C80F      		add r28,r24
 2621 003e D91F      		adc r29,r25
 2622               	.LVL314:
 2623               	.L249:
 2624 0040 00E0      		ldi r16,lo8(0)
 2625 0042 10E0      		ldi r17,hi8(0)
 2626               	.LVL315:
 2627 0044 00C0      		rjmp .L256
 2628               	.LVL316:
 2629               	.L254:
 2630               	.LBB466:
 2631               	.LBB467:
 2632               	.LSM378:
 2633 0046 8091 E800 		lds r24,232
 2634               	.LBE467:
 2635               	.LBE466:
 2636               	.LSM379:
 2637 004a 85FD      		sbrc r24,5
 2638 004c 00C0      		rjmp .L251
 2639               	.LBB468:
 2640               	.LBB469:
 2641               	.LSM380:
 2642 004e 8091 E800 		lds r24,232
 2643 0052 8E77      		andi r24,lo8(126)
 2644 0054 8093 E800 		sts 232,r24
 2645               	.LBE469:
 2646               	.LBE468:
 2647               	.LSM381:
 2648 0058 C114      		cp r12,__zero_reg__
 2649 005a D104      		cpc r13,__zero_reg__
 2650 005c 01F0      		breq .L252
 2651               	.LSM382:
 2652 005e F601      		movw r30,r12
 2653 0060 8081      		ld r24,Z
 2654 0062 9181      		ldd r25,Z+1
 2655 0064 800F      		add r24,r16
 2656 0066 911F      		adc r25,r17
 2657 0068 9183      		std Z+1,r25
 2658 006a 8083      		st Z,r24
 2659 006c 85E0      		ldi r24,lo8(5)
 2660               	.LVL317:
 2661 006e 00C0      		rjmp .L253
 2662               	.LVL318:
 2663               	.L252:
 2664               	.LSM383:
 2665 0070 0E94 0000 		call USB_USBTask
 2666               	.LVL319:
 2667               	.LSM384:
 2668 0074 0E94 0000 		call Endpoint_WaitUntilReady
 2669 0078 8823      		tst r24
 2670 007a 01F0      		breq .L256
 2671               	.LVL320:
 2672 007c 00C0      		rjmp .L253
 2673               	.LVL321:
 2674               	.L251:
 2675               	.LSM385:
 2676 007e CE01      		movw r24,r28
 2677 0080 0E94 0000 		call __eerd_byte_usb1287
 2678               	.LVL322:
 2679               	.LBB470:
 2680               	.LBB471:
 2681               	.LSM386:
 2682 0084 8093 F100 		sts 241,r24
 2683               	.LBE471:
 2684               	.LBE470:
 2685               	.LSM387:
 2686 0088 2196      		adiw r28,1
 2687               	.LSM388:
 2688 008a 0894      		sec
 2689 008c E108      		sbc r14,__zero_reg__
 2690 008e F108      		sbc r15,__zero_reg__
 2691               	.LSM389:
 2692 0090 0F5F      		subi r16,lo8(-(1))
 2693 0092 1F4F      		sbci r17,hi8(-(1))
 2694               	.LVL323:
 2695               	.L256:
 2696               	.LSM390:
 2697 0094 E114      		cp r14,__zero_reg__
 2698 0096 F104      		cpc r15,__zero_reg__
 2699 0098 01F4      		brne .L254
 2700               	.LVL324:
 2701               	.L248:
 2702 009a 8B2D      		mov r24,r11
 2703               	.L253:
 2704               	.LVL325:
 2705               	/* epilogue start */
 2706               	.LSM391:
 2707 009c DF91      		pop r29
 2708 009e CF91      		pop r28
 2709               	.LVL326:
 2710 00a0 1F91      		pop r17
 2711               	.LVL327:
 2712 00a2 0F91      		pop r16
 2713               	.LVL328:
 2714 00a4 FF90      		pop r15
 2715 00a6 EF90      		pop r14
 2716               	.LVL329:
 2717 00a8 DF90      		pop r13
 2718 00aa CF90      		pop r12
 2719               	.LVL330:
 2720 00ac BF90      		pop r11
 2721               	.LVL331:
 2722 00ae 0895      		ret
 2723               	.LFE91:
 2725               		.section	.text.Endpoint_Write_PStream_BE,"ax",@progbits
 2726               	.global	Endpoint_Write_PStream_BE
 2728               	Endpoint_Write_PStream_BE:
 2729               	.LFB90:
 2730               	.LSM392:
 2731               	.LVL332:
 2732 0000 BF92      		push r11
 2733 0002 CF92      		push r12
 2734 0004 DF92      		push r13
 2735 0006 EF92      		push r14
 2736 0008 FF92      		push r15
 2737 000a 0F93      		push r16
 2738 000c 1F93      		push r17
 2739 000e CF93      		push r28
 2740 0010 DF93      		push r29
 2741               	/* prologue: function */
 2742               	/* frame size = 0 */
 2743 0012 8C01      		movw r16,r24
 2744 0014 EB01      		movw r28,r22
 2745 0016 6A01      		movw r12,r20
 2746               	.LSM393:
 2747 0018 0E94 0000 		call Endpoint_WaitUntilReady
 2748               	.LVL333:
 2749 001c B82E      		mov r11,r24
 2750               	.LVL334:
 2751 001e 8823      		tst r24
 2752 0020 01F4      		brne .L258
 2753               	.LVL335:
 2754               	.LSM394:
 2755 0022 2197      		sbiw r28,1
 2756 0024 0C0F      		add r16,r28
 2757 0026 1D1F      		adc r17,r29
 2758               	.LVL336:
 2759 0028 2196      		adiw r28,1
 2760               	.LSM395:
 2761 002a C114      		cp r12,__zero_reg__
 2762 002c D104      		cpc r13,__zero_reg__
 2763 002e 01F0      		breq .L259
 2764               	.LSM396:
 2765 0030 F601      		movw r30,r12
 2766 0032 8081      		ld r24,Z
 2767 0034 9181      		ldd r25,Z+1
 2768               	.LVL337:
 2769 0036 C81B      		sub r28,r24
 2770 0038 D90B      		sbc r29,r25
 2771               	.LSM397:
 2772 003a 081B      		sub r16,r24
 2773 003c 190B      		sbc r17,r25
 2774               	.LVL338:
 2775               	.L259:
 2776 003e EE24      		clr r14
 2777 0040 FF24      		clr r15
 2778               	.LVL339:
 2779 0042 00C0      		rjmp .L266
 2780               	.LVL340:
 2781               	.L264:
 2782               	.LBB472:
 2783               	.LBB473:
 2784               	.LSM398:
 2785 0044 8091 E800 		lds r24,232
 2786               	.LVL341:
 2787               	.LBE473:
 2788               	.LBE472:
 2789               	.LSM399:
 2790 0048 85FD      		sbrc r24,5
 2791 004a 00C0      		rjmp .L261
 2792               	.LBB474:
 2793               	.LBB475:
 2794               	.LSM400:
 2795 004c 8091 E800 		lds r24,232
 2796 0050 8E77      		andi r24,lo8(126)
 2797 0052 8093 E800 		sts 232,r24
 2798               	.LBE475:
 2799               	.LBE474:
 2800               	.LSM401:
 2801 0056 C114      		cp r12,__zero_reg__
 2802 0058 D104      		cpc r13,__zero_reg__
 2803 005a 01F0      		breq .L262
 2804               	.LSM402:
 2805 005c F601      		movw r30,r12
 2806 005e 8081      		ld r24,Z
 2807 0060 9181      		ldd r25,Z+1
 2808 0062 8E0D      		add r24,r14
 2809 0064 9F1D      		adc r25,r15
 2810 0066 9183      		std Z+1,r25
 2811 0068 8083      		st Z,r24
 2812 006a 85E0      		ldi r24,lo8(5)
 2813               	.LVL342:
 2814 006c 00C0      		rjmp .L263
 2815               	.LVL343:
 2816               	.L262:
 2817               	.LSM403:
 2818 006e 0E94 0000 		call USB_USBTask
 2819               	.LSM404:
 2820 0072 0E94 0000 		call Endpoint_WaitUntilReady
 2821 0076 8823      		tst r24
 2822 0078 01F0      		breq .L266
 2823               	.LVL344:
 2824 007a 00C0      		rjmp .L263
 2825               	.LVL345:
 2826               	.L261:
 2827               	.LBB476:
 2828               	.LSM405:
 2829 007c F801      		movw r30,r16
 2830               	/* #APP */
 2831               	 ;  39 "LUFA/Drivers/USB/Core/Template/Template_Endpoint_RW.c" 1
 2832 007e 8491      		lpm r24, Z
 2833               		
 2834               	 ;  0 "" 2
 2835               	.LVL346:
 2836               	/* #NOAPP */
 2837               	.LBE476:
 2838               	.LBB477:
 2839               	.LBB478:
 2840               	.LSM406:
 2841 0080 8093 F100 		sts 241,r24
 2842               	.LBE478:
 2843               	.LBE477:
 2844               	.LSM407:
 2845 0084 0150      		subi r16,lo8(-(-1))
 2846 0086 1040      		sbci r17,hi8(-(-1))
 2847               	.LSM408:
 2848 0088 2197      		sbiw r28,1
 2849               	.LSM409:
 2850 008a 0894      		sec
 2851 008c E11C      		adc r14,__zero_reg__
 2852 008e F11C      		adc r15,__zero_reg__
 2853               	.LVL347:
 2854               	.L266:
 2855               	.LSM410:
 2856 0090 2097      		sbiw r28,0
 2857 0092 01F4      		brne .L264
 2858               	.LVL348:
 2859               	.L258:
 2860 0094 8B2D      		mov r24,r11
 2861               	.LVL349:
 2862               	.L263:
 2863               	.LVL350:
 2864               	/* epilogue start */
 2865               	.LSM411:
 2866 0096 DF91      		pop r29
 2867 0098 CF91      		pop r28
 2868               	.LVL351:
 2869 009a 1F91      		pop r17
 2870 009c 0F91      		pop r16
 2871               	.LVL352:
 2872 009e FF90      		pop r15
 2873 00a0 EF90      		pop r14
 2874               	.LVL353:
 2875 00a2 DF90      		pop r13
 2876 00a4 CF90      		pop r12
 2877               	.LVL354:
 2878 00a6 BF90      		pop r11
 2879               	.LVL355:
 2880 00a8 0895      		ret
 2881               	.LFE90:
 2883               		.section	.text.Endpoint_Write_PStream_LE,"ax",@progbits
 2884               	.global	Endpoint_Write_PStream_LE
 2886               	Endpoint_Write_PStream_LE:
 2887               	.LFB89:
 2888               	.LSM412:
 2889               	.LVL356:
 2890 0000 BF92      		push r11
 2891 0002 CF92      		push r12
 2892 0004 DF92      		push r13
 2893 0006 EF92      		push r14
 2894 0008 FF92      		push r15
 2895 000a 0F93      		push r16
 2896 000c 1F93      		push r17
 2897 000e CF93      		push r28
 2898 0010 DF93      		push r29
 2899               	/* prologue: function */
 2900               	/* frame size = 0 */
 2901 0012 182F      		mov r17,r24
 2902 0014 092F      		mov r16,r25
 2903               	.LVL357:
 2904 0016 7B01      		movw r14,r22
 2905 0018 6A01      		movw r12,r20
 2906               	.LSM413:
 2907 001a 0E94 0000 		call Endpoint_WaitUntilReady
 2908               	.LVL358:
 2909 001e B82E      		mov r11,r24
 2910               	.LVL359:
 2911 0020 8823      		tst r24
 2912 0022 01F4      		brne .L268
 2913               	.LVL360:
 2914               	.LSM414:
 2915 0024 812F      		mov r24,r17
 2916               	.LVL361:
 2917 0026 902F      		mov r25,r16
 2918               	.LVL362:
 2919 0028 FC01      		movw r30,r24
 2920               	.LVL363:
 2921 002a EF01      		movw r28,r30
 2922               	.LVL364:
 2923               	.LSM415:
 2924 002c C114      		cp r12,__zero_reg__
 2925 002e D104      		cpc r13,__zero_reg__
 2926 0030 01F0      		breq .L269
 2927               	.LVL365:
 2928               	.LSM416:
 2929 0032 F601      		movw r30,r12
 2930 0034 8081      		ld r24,Z
 2931 0036 9181      		ldd r25,Z+1
 2932 0038 E81A      		sub r14,r24
 2933 003a F90A      		sbc r15,r25
 2934               	.LSM417:
 2935 003c C80F      		add r28,r24
 2936 003e D91F      		adc r29,r25
 2937               	.LVL366:
 2938               	.L269:
 2939 0040 00E0      		ldi r16,lo8(0)
 2940 0042 10E0      		ldi r17,hi8(0)
 2941               	.LVL367:
 2942 0044 00C0      		rjmp .L276
 2943               	.LVL368:
 2944               	.L274:
 2945               	.LBB479:
 2946               	.LBB480:
 2947               	.LSM418:
 2948 0046 8091 E800 		lds r24,232
 2949               	.LVL369:
 2950               	.LBE480:
 2951               	.LBE479:
 2952               	.LSM419:
 2953 004a 85FD      		sbrc r24,5
 2954 004c 00C0      		rjmp .L271
 2955               	.LBB481:
 2956               	.LBB482:
 2957               	.LSM420:
 2958 004e 8091 E800 		lds r24,232
 2959 0052 8E77      		andi r24,lo8(126)
 2960 0054 8093 E800 		sts 232,r24
 2961               	.LBE482:
 2962               	.LBE481:
 2963               	.LSM421:
 2964 0058 C114      		cp r12,__zero_reg__
 2965 005a D104      		cpc r13,__zero_reg__
 2966 005c 01F0      		breq .L272
 2967               	.LSM422:
 2968 005e F601      		movw r30,r12
 2969 0060 8081      		ld r24,Z
 2970 0062 9181      		ldd r25,Z+1
 2971 0064 800F      		add r24,r16
 2972 0066 911F      		adc r25,r17
 2973 0068 9183      		std Z+1,r25
 2974 006a 8083      		st Z,r24
 2975 006c 85E0      		ldi r24,lo8(5)
 2976               	.LVL370:
 2977 006e 00C0      		rjmp .L273
 2978               	.LVL371:
 2979               	.L272:
 2980               	.LSM423:
 2981 0070 0E94 0000 		call USB_USBTask
 2982               	.LVL372:
 2983               	.LSM424:
 2984 0074 0E94 0000 		call Endpoint_WaitUntilReady
 2985 0078 8823      		tst r24
 2986 007a 01F0      		breq .L276
 2987               	.LVL373:
 2988 007c 00C0      		rjmp .L273
 2989               	.LVL374:
 2990               	.L271:
 2991               	.LBB483:
 2992               	.LSM425:
 2993 007e FE01      		movw r30,r28
 2994               	/* #APP */
 2995               	 ;  39 "LUFA/Drivers/USB/Core/Template/Template_Endpoint_RW.c" 1
 2996 0080 8491      		lpm r24, Z
 2997               		
 2998               	 ;  0 "" 2
 2999               	.LVL375:
 3000               	/* #NOAPP */
 3001               	.LBE483:
 3002               	.LBB484:
 3003               	.LBB485:
 3004               	.LSM426:
 3005 0082 8093 F100 		sts 241,r24
 3006               	.LBE485:
 3007               	.LBE484:
 3008               	.LSM427:
 3009 0086 2196      		adiw r28,1
 3010               	.LSM428:
 3011 0088 0894      		sec
 3012 008a E108      		sbc r14,__zero_reg__
 3013 008c F108      		sbc r15,__zero_reg__
 3014               	.LSM429:
 3015 008e 0F5F      		subi r16,lo8(-(1))
 3016 0090 1F4F      		sbci r17,hi8(-(1))
 3017               	.LVL376:
 3018               	.L276:
 3019               	.LSM430:
 3020 0092 E114      		cp r14,__zero_reg__
 3021 0094 F104      		cpc r15,__zero_reg__
 3022 0096 01F4      		brne .L274
 3023               	.LVL377:
 3024               	.L268:
 3025 0098 8B2D      		mov r24,r11
 3026               	.LVL378:
 3027               	.L273:
 3028               	.LVL379:
 3029               	/* epilogue start */
 3030               	.LSM431:
 3031 009a DF91      		pop r29
 3032 009c CF91      		pop r28
 3033               	.LVL380:
 3034 009e 1F91      		pop r17
 3035               	.LVL381:
 3036 00a0 0F91      		pop r16
 3037               	.LVL382:
 3038 00a2 FF90      		pop r15
 3039 00a4 EF90      		pop r14
 3040               	.LVL383:
 3041 00a6 DF90      		pop r13
 3042 00a8 CF90      		pop r12
 3043               	.LVL384:
 3044 00aa BF90      		pop r11
 3045               	.LVL385:
 3046 00ac 0895      		ret
 3047               	.LFE89:
 3049               		.section	.text.Endpoint_Read_Stream_BE,"ax",@progbits
 3050               	.global	Endpoint_Read_Stream_BE
 3052               	Endpoint_Read_Stream_BE:
 3053               	.LFB88:
 3054               	.LSM432:
 3055               	.LVL386:
 3056 0000 BF92      		push r11
 3057 0002 CF92      		push r12
 3058 0004 DF92      		push r13
 3059 0006 EF92      		push r14
 3060 0008 FF92      		push r15
 3061 000a 0F93      		push r16
 3062 000c 1F93      		push r17
 3063 000e CF93      		push r28
 3064 0010 DF93      		push r29
 3065               	/* prologue: function */
 3066               	/* frame size = 0 */
 3067 0012 8C01      		movw r16,r24
 3068 0014 EB01      		movw r28,r22
 3069 0016 6A01      		movw r12,r20
 3070               	.LSM433:
 3071 0018 0E94 0000 		call Endpoint_WaitUntilReady
 3072               	.LVL387:
 3073 001c B82E      		mov r11,r24
 3074               	.LVL388:
 3075 001e 8823      		tst r24
 3076 0020 01F4      		brne .L278
 3077               	.LVL389:
 3078               	.LSM434:
 3079 0022 2197      		sbiw r28,1
 3080 0024 0C0F      		add r16,r28
 3081 0026 1D1F      		adc r17,r29
 3082               	.LVL390:
 3083 0028 2196      		adiw r28,1
 3084               	.LSM435:
 3085 002a C114      		cp r12,__zero_reg__
 3086 002c D104      		cpc r13,__zero_reg__
 3087 002e 01F0      		breq .L279
 3088               	.LSM436:
 3089 0030 F601      		movw r30,r12
 3090 0032 8081      		ld r24,Z
 3091 0034 9181      		ldd r25,Z+1
 3092               	.LVL391:
 3093 0036 C81B      		sub r28,r24
 3094 0038 D90B      		sbc r29,r25
 3095               	.LSM437:
 3096 003a 081B      		sub r16,r24
 3097 003c 190B      		sbc r17,r25
 3098               	.LVL392:
 3099               	.L279:
 3100 003e EE24      		clr r14
 3101 0040 FF24      		clr r15
 3102               	.LVL393:
 3103 0042 00C0      		rjmp .L286
 3104               	.L284:
 3105               	.LBB486:
 3106               	.LBB487:
 3107               	.LSM438:
 3108 0044 8091 E800 		lds r24,232
 3109               	.LBE487:
 3110               	.LBE486:
 3111               	.LSM439:
 3112 0048 85FD      		sbrc r24,5
 3113 004a 00C0      		rjmp .L281
 3114               	.LBB488:
 3115               	.LBB489:
 3116               	.LSM440:
 3117 004c 8091 E800 		lds r24,232
 3118 0050 8B77      		andi r24,lo8(123)
 3119 0052 8093 E800 		sts 232,r24
 3120               	.LBE489:
 3121               	.LBE488:
 3122               	.LSM441:
 3123 0056 C114      		cp r12,__zero_reg__
 3124 0058 D104      		cpc r13,__zero_reg__
 3125 005a 01F0      		breq .L282
 3126               	.LSM442:
 3127 005c F601      		movw r30,r12
 3128 005e 8081      		ld r24,Z
 3129 0060 9181      		ldd r25,Z+1
 3130 0062 8E0D      		add r24,r14
 3131 0064 9F1D      		adc r25,r15
 3132 0066 9183      		std Z+1,r25
 3133 0068 8083      		st Z,r24
 3134 006a 85E0      		ldi r24,lo8(5)
 3135               	.LVL394:
 3136 006c 00C0      		rjmp .L283
 3137               	.LVL395:
 3138               	.L282:
 3139               	.LSM443:
 3140 006e 0E94 0000 		call USB_USBTask
 3141               	.LSM444:
 3142 0072 0E94 0000 		call Endpoint_WaitUntilReady
 3143 0076 8823      		tst r24
 3144 0078 01F0      		breq .L286
 3145               	.LVL396:
 3146 007a 00C0      		rjmp .L283
 3147               	.LVL397:
 3148               	.L281:
 3149               	.LBB490:
 3150               	.LBB491:
 3151               	.LSM445:
 3152 007c 8091 F100 		lds r24,241
 3153               	.LBE491:
 3154               	.LBE490:
 3155               	.LSM446:
 3156 0080 F801      		movw r30,r16
 3157 0082 8083      		st Z,r24
 3158               	.LSM447:
 3159 0084 0150      		subi r16,lo8(-(-1))
 3160 0086 1040      		sbci r17,hi8(-(-1))
 3161               	.LSM448:
 3162 0088 2197      		sbiw r28,1
 3163               	.LSM449:
 3164 008a 0894      		sec
 3165 008c E11C      		adc r14,__zero_reg__
 3166 008e F11C      		adc r15,__zero_reg__
 3167               	.LVL398:
 3168               	.L286:
 3169               	.LSM450:
 3170 0090 2097      		sbiw r28,0
 3171 0092 01F4      		brne .L284
 3172               	.LVL399:
 3173               	.L278:
 3174 0094 8B2D      		mov r24,r11
 3175               	.L283:
 3176               	.LVL400:
 3177               	/* epilogue start */
 3178               	.LSM451:
 3179 0096 DF91      		pop r29
 3180 0098 CF91      		pop r28
 3181               	.LVL401:
 3182 009a 1F91      		pop r17
 3183 009c 0F91      		pop r16
 3184               	.LVL402:
 3185 009e FF90      		pop r15
 3186 00a0 EF90      		pop r14
 3187               	.LVL403:
 3188 00a2 DF90      		pop r13
 3189 00a4 CF90      		pop r12
 3190               	.LVL404:
 3191 00a6 BF90      		pop r11
 3192               	.LVL405:
 3193 00a8 0895      		ret
 3194               	.LFE88:
 3196               		.section	.text.Endpoint_Read_Stream_LE,"ax",@progbits
 3197               	.global	Endpoint_Read_Stream_LE
 3199               	Endpoint_Read_Stream_LE:
 3200               	.LFB87:
 3201               	.LSM452:
 3202               	.LVL406:
 3203 0000 BF92      		push r11
 3204 0002 CF92      		push r12
 3205 0004 DF92      		push r13
 3206 0006 EF92      		push r14
 3207 0008 FF92      		push r15
 3208 000a 0F93      		push r16
 3209 000c 1F93      		push r17
 3210 000e CF93      		push r28
 3211 0010 DF93      		push r29
 3212               	/* prologue: function */
 3213               	/* frame size = 0 */
 3214 0012 182F      		mov r17,r24
 3215 0014 092F      		mov r16,r25
 3216               	.LVL407:
 3217 0016 7B01      		movw r14,r22
 3218 0018 6A01      		movw r12,r20
 3219               	.LSM453:
 3220 001a 0E94 0000 		call Endpoint_WaitUntilReady
 3221               	.LVL408:
 3222 001e B82E      		mov r11,r24
 3223               	.LVL409:
 3224 0020 8823      		tst r24
 3225 0022 01F4      		brne .L288
 3226               	.LVL410:
 3227               	.LSM454:
 3228 0024 812F      		mov r24,r17
 3229               	.LVL411:
 3230 0026 902F      		mov r25,r16
 3231               	.LVL412:
 3232 0028 9C01      		movw r18,r24
 3233               	.LVL413:
 3234 002a E901      		movw r28,r18
 3235               	.LVL414:
 3236               	.LSM455:
 3237 002c C114      		cp r12,__zero_reg__
 3238 002e D104      		cpc r13,__zero_reg__
 3239 0030 01F0      		breq .L289
 3240               	.LVL415:
 3241               	.LSM456:
 3242 0032 F601      		movw r30,r12
 3243 0034 8081      		ld r24,Z
 3244 0036 9181      		ldd r25,Z+1
 3245 0038 E81A      		sub r14,r24
 3246 003a F90A      		sbc r15,r25
 3247               	.LSM457:
 3248 003c C80F      		add r28,r24
 3249 003e D91F      		adc r29,r25
 3250               	.LVL416:
 3251               	.L289:
 3252 0040 00E0      		ldi r16,lo8(0)
 3253 0042 10E0      		ldi r17,hi8(0)
 3254               	.LVL417:
 3255 0044 00C0      		rjmp .L296
 3256               	.LVL418:
 3257               	.L294:
 3258               	.LBB492:
 3259               	.LBB493:
 3260               	.LSM458:
 3261 0046 8091 E800 		lds r24,232
 3262               	.LBE493:
 3263               	.LBE492:
 3264               	.LSM459:
 3265 004a 85FD      		sbrc r24,5
 3266 004c 00C0      		rjmp .L291
 3267               	.LBB494:
 3268               	.LBB495:
 3269               	.LSM460:
 3270 004e 8091 E800 		lds r24,232
 3271 0052 8B77      		andi r24,lo8(123)
 3272 0054 8093 E800 		sts 232,r24
 3273               	.LBE495:
 3274               	.LBE494:
 3275               	.LSM461:
 3276 0058 C114      		cp r12,__zero_reg__
 3277 005a D104      		cpc r13,__zero_reg__
 3278 005c 01F0      		breq .L292
 3279               	.LSM462:
 3280 005e F601      		movw r30,r12
 3281 0060 8081      		ld r24,Z
 3282 0062 9181      		ldd r25,Z+1
 3283 0064 800F      		add r24,r16
 3284 0066 911F      		adc r25,r17
 3285 0068 9183      		std Z+1,r25
 3286 006a 8083      		st Z,r24
 3287 006c 85E0      		ldi r24,lo8(5)
 3288               	.LVL419:
 3289 006e 00C0      		rjmp .L293
 3290               	.LVL420:
 3291               	.L292:
 3292               	.LSM463:
 3293 0070 0E94 0000 		call USB_USBTask
 3294               	.LVL421:
 3295               	.LSM464:
 3296 0074 0E94 0000 		call Endpoint_WaitUntilReady
 3297 0078 8823      		tst r24
 3298 007a 01F0      		breq .L296
 3299               	.LVL422:
 3300 007c 00C0      		rjmp .L293
 3301               	.LVL423:
 3302               	.L291:
 3303               	.LBB496:
 3304               	.LBB497:
 3305               	.LSM465:
 3306 007e 8091 F100 		lds r24,241
 3307               	.LBE497:
 3308               	.LBE496:
 3309               	.LSM466:
 3310 0082 8993      		st Y+,r24
 3311               	.LSM467:
 3312 0084 0894      		sec
 3313 0086 E108      		sbc r14,__zero_reg__
 3314 0088 F108      		sbc r15,__zero_reg__
 3315               	.LSM468:
 3316 008a 0F5F      		subi r16,lo8(-(1))
 3317 008c 1F4F      		sbci r17,hi8(-(1))
 3318               	.LVL424:
 3319               	.L296:
 3320               	.LSM469:
 3321 008e E114      		cp r14,__zero_reg__
 3322 0090 F104      		cpc r15,__zero_reg__
 3323 0092 01F4      		brne .L294
 3324               	.LVL425:
 3325               	.L288:
 3326 0094 8B2D      		mov r24,r11
 3327               	.L293:
 3328               	.LVL426:
 3329               	/* epilogue start */
 3330               	.LSM470:
 3331 0096 DF91      		pop r29
 3332 0098 CF91      		pop r28
 3333               	.LVL427:
 3334 009a 1F91      		pop r17
 3335               	.LVL428:
 3336 009c 0F91      		pop r16
 3337               	.LVL429:
 3338 009e FF90      		pop r15
 3339 00a0 EF90      		pop r14
 3340               	.LVL430:
 3341 00a2 DF90      		pop r13
 3342 00a4 CF90      		pop r12
 3343               	.LVL431:
 3344 00a6 BF90      		pop r11
 3345               	.LVL432:
 3346 00a8 0895      		ret
 3347               	.LFE87:
 3349               		.section	.text.Endpoint_Write_Stream_BE,"ax",@progbits
 3350               	.global	Endpoint_Write_Stream_BE
 3352               	Endpoint_Write_Stream_BE:
 3353               	.LFB86:
 3354               	.LSM471:
 3355               	.LVL433:
 3356 0000 BF92      		push r11
 3357 0002 CF92      		push r12
 3358 0004 DF92      		push r13
 3359 0006 EF92      		push r14
 3360 0008 FF92      		push r15
 3361 000a 0F93      		push r16
 3362 000c 1F93      		push r17
 3363 000e CF93      		push r28
 3364 0010 DF93      		push r29
 3365               	/* prologue: function */
 3366               	/* frame size = 0 */
 3367 0012 8C01      		movw r16,r24
 3368 0014 EB01      		movw r28,r22
 3369 0016 6A01      		movw r12,r20
 3370               	.LSM472:
 3371 0018 0E94 0000 		call Endpoint_WaitUntilReady
 3372               	.LVL434:
 3373 001c B82E      		mov r11,r24
 3374               	.LVL435:
 3375 001e 8823      		tst r24
 3376 0020 01F4      		brne .L298
 3377               	.LVL436:
 3378               	.LSM473:
 3379 0022 2197      		sbiw r28,1
 3380 0024 0C0F      		add r16,r28
 3381 0026 1D1F      		adc r17,r29
 3382               	.LVL437:
 3383 0028 2196      		adiw r28,1
 3384               	.LSM474:
 3385 002a C114      		cp r12,__zero_reg__
 3386 002c D104      		cpc r13,__zero_reg__
 3387 002e 01F0      		breq .L299
 3388               	.LSM475:
 3389 0030 F601      		movw r30,r12
 3390 0032 8081      		ld r24,Z
 3391 0034 9181      		ldd r25,Z+1
 3392               	.LVL438:
 3393 0036 C81B      		sub r28,r24
 3394 0038 D90B      		sbc r29,r25
 3395               	.LSM476:
 3396 003a 081B      		sub r16,r24
 3397 003c 190B      		sbc r17,r25
 3398               	.LVL439:
 3399               	.L299:
 3400 003e EE24      		clr r14
 3401 0040 FF24      		clr r15
 3402               	.LVL440:
 3403 0042 00C0      		rjmp .L306
 3404               	.L304:
 3405               	.LBB498:
 3406               	.LBB499:
 3407               	.LSM477:
 3408 0044 8091 E800 		lds r24,232
 3409               	.LBE499:
 3410               	.LBE498:
 3411               	.LSM478:
 3412 0048 85FD      		sbrc r24,5
 3413 004a 00C0      		rjmp .L301
 3414               	.LBB500:
 3415               	.LBB501:
 3416               	.LSM479:
 3417 004c 8091 E800 		lds r24,232
 3418 0050 8E77      		andi r24,lo8(126)
 3419 0052 8093 E800 		sts 232,r24
 3420               	.LBE501:
 3421               	.LBE500:
 3422               	.LSM480:
 3423 0056 C114      		cp r12,__zero_reg__
 3424 0058 D104      		cpc r13,__zero_reg__
 3425 005a 01F0      		breq .L302
 3426               	.LSM481:
 3427 005c F601      		movw r30,r12
 3428 005e 8081      		ld r24,Z
 3429 0060 9181      		ldd r25,Z+1
 3430 0062 8E0D      		add r24,r14
 3431 0064 9F1D      		adc r25,r15
 3432 0066 9183      		std Z+1,r25
 3433 0068 8083      		st Z,r24
 3434 006a 85E0      		ldi r24,lo8(5)
 3435               	.LVL441:
 3436 006c 00C0      		rjmp .L303
 3437               	.LVL442:
 3438               	.L302:
 3439               	.LSM482:
 3440 006e 0E94 0000 		call USB_USBTask
 3441               	.LSM483:
 3442 0072 0E94 0000 		call Endpoint_WaitUntilReady
 3443 0076 8823      		tst r24
 3444 0078 01F0      		breq .L306
 3445               	.LVL443:
 3446 007a 00C0      		rjmp .L303
 3447               	.LVL444:
 3448               	.L301:
 3449               	.LSM484:
 3450 007c F801      		movw r30,r16
 3451 007e 8081      		ld r24,Z
 3452               	.LBB502:
 3453               	.LBB503:
 3454               	.LSM485:
 3455 0080 8093 F100 		sts 241,r24
 3456               	.LBE503:
 3457               	.LBE502:
 3458               	.LSM486:
 3459 0084 0150      		subi r16,lo8(-(-1))
 3460 0086 1040      		sbci r17,hi8(-(-1))
 3461               	.LSM487:
 3462 0088 2197      		sbiw r28,1
 3463               	.LSM488:
 3464 008a 0894      		sec
 3465 008c E11C      		adc r14,__zero_reg__
 3466 008e F11C      		adc r15,__zero_reg__
 3467               	.LVL445:
 3468               	.L306:
 3469               	.LSM489:
 3470 0090 2097      		sbiw r28,0
 3471 0092 01F4      		brne .L304
 3472               	.LVL446:
 3473               	.L298:
 3474 0094 8B2D      		mov r24,r11
 3475               	.L303:
 3476               	.LVL447:
 3477               	/* epilogue start */
 3478               	.LSM490:
 3479 0096 DF91      		pop r29
 3480 0098 CF91      		pop r28
 3481               	.LVL448:
 3482 009a 1F91      		pop r17
 3483 009c 0F91      		pop r16
 3484               	.LVL449:
 3485 009e FF90      		pop r15
 3486 00a0 EF90      		pop r14
 3487               	.LVL450:
 3488 00a2 DF90      		pop r13
 3489 00a4 CF90      		pop r12
 3490               	.LVL451:
 3491 00a6 BF90      		pop r11
 3492               	.LVL452:
 3493 00a8 0895      		ret
 3494               	.LFE86:
 3496               		.section	.text.Endpoint_Write_Stream_LE,"ax",@progbits
 3497               	.global	Endpoint_Write_Stream_LE
 3499               	Endpoint_Write_Stream_LE:
 3500               	.LFB85:
 3501               	.LSM491:
 3502               	.LVL453:
 3503 0000 BF92      		push r11
 3504 0002 CF92      		push r12
 3505 0004 DF92      		push r13
 3506 0006 EF92      		push r14
 3507 0008 FF92      		push r15
 3508 000a 0F93      		push r16
 3509 000c 1F93      		push r17
 3510 000e CF93      		push r28
 3511 0010 DF93      		push r29
 3512               	/* prologue: function */
 3513               	/* frame size = 0 */
 3514 0012 182F      		mov r17,r24
 3515 0014 092F      		mov r16,r25
 3516               	.LVL454:
 3517 0016 7B01      		movw r14,r22
 3518 0018 6A01      		movw r12,r20
 3519               	.LSM492:
 3520 001a 0E94 0000 		call Endpoint_WaitUntilReady
 3521               	.LVL455:
 3522 001e B82E      		mov r11,r24
 3523               	.LVL456:
 3524 0020 8823      		tst r24
 3525 0022 01F4      		brne .L308
 3526               	.LVL457:
 3527               	.LSM493:
 3528 0024 812F      		mov r24,r17
 3529               	.LVL458:
 3530 0026 902F      		mov r25,r16
 3531               	.LVL459:
 3532 0028 9C01      		movw r18,r24
 3533               	.LVL460:
 3534 002a E901      		movw r28,r18
 3535               	.LVL461:
 3536               	.LSM494:
 3537 002c C114      		cp r12,__zero_reg__
 3538 002e D104      		cpc r13,__zero_reg__
 3539 0030 01F0      		breq .L309
 3540               	.LVL462:
 3541               	.LSM495:
 3542 0032 F601      		movw r30,r12
 3543 0034 8081      		ld r24,Z
 3544 0036 9181      		ldd r25,Z+1
 3545 0038 E81A      		sub r14,r24
 3546 003a F90A      		sbc r15,r25
 3547               	.LSM496:
 3548 003c C80F      		add r28,r24
 3549 003e D91F      		adc r29,r25
 3550               	.LVL463:
 3551               	.L309:
 3552 0040 00E0      		ldi r16,lo8(0)
 3553 0042 10E0      		ldi r17,hi8(0)
 3554               	.LVL464:
 3555 0044 00C0      		rjmp .L316
 3556               	.LVL465:
 3557               	.L314:
 3558               	.LBB504:
 3559               	.LBB505:
 3560               	.LSM497:
 3561 0046 8091 E800 		lds r24,232
 3562               	.LBE505:
 3563               	.LBE504:
 3564               	.LSM498:
 3565 004a 85FD      		sbrc r24,5
 3566 004c 00C0      		rjmp .L311
 3567               	.LBB506:
 3568               	.LBB507:
 3569               	.LSM499:
 3570 004e 8091 E800 		lds r24,232
 3571 0052 8E77      		andi r24,lo8(126)
 3572 0054 8093 E800 		sts 232,r24
 3573               	.LBE507:
 3574               	.LBE506:
 3575               	.LSM500:
 3576 0058 C114      		cp r12,__zero_reg__
 3577 005a D104      		cpc r13,__zero_reg__
 3578 005c 01F0      		breq .L312
 3579               	.LSM501:
 3580 005e F601      		movw r30,r12
 3581 0060 8081      		ld r24,Z
 3582 0062 9181      		ldd r25,Z+1
 3583 0064 800F      		add r24,r16
 3584 0066 911F      		adc r25,r17
 3585 0068 9183      		std Z+1,r25
 3586 006a 8083      		st Z,r24
 3587 006c 85E0      		ldi r24,lo8(5)
 3588               	.LVL466:
 3589 006e 00C0      		rjmp .L313
 3590               	.LVL467:
 3591               	.L312:
 3592               	.LSM502:
 3593 0070 0E94 0000 		call USB_USBTask
 3594               	.LVL468:
 3595               	.LSM503:
 3596 0074 0E94 0000 		call Endpoint_WaitUntilReady
 3597 0078 8823      		tst r24
 3598 007a 01F0      		breq .L316
 3599               	.LVL469:
 3600 007c 00C0      		rjmp .L313
 3601               	.LVL470:
 3602               	.L311:
 3603               	.LSM504:
 3604 007e 8991      		ld r24,Y+
 3605               	.LBB508:
 3606               	.LBB509:
 3607               	.LSM505:
 3608 0080 8093 F100 		sts 241,r24
 3609               	.LBE509:
 3610               	.LBE508:
 3611               	.LSM506:
 3612 0084 0894      		sec
 3613 0086 E108      		sbc r14,__zero_reg__
 3614 0088 F108      		sbc r15,__zero_reg__
 3615               	.LSM507:
 3616 008a 0F5F      		subi r16,lo8(-(1))
 3617 008c 1F4F      		sbci r17,hi8(-(1))
 3618               	.LVL471:
 3619               	.L316:
 3620               	.LSM508:
 3621 008e E114      		cp r14,__zero_reg__
 3622 0090 F104      		cpc r15,__zero_reg__
 3623 0092 01F4      		brne .L314
 3624               	.LVL472:
 3625               	.L308:
 3626 0094 8B2D      		mov r24,r11
 3627               	.L313:
 3628               	.LVL473:
 3629               	/* epilogue start */
 3630               	.LSM509:
 3631 0096 DF91      		pop r29
 3632 0098 CF91      		pop r28
 3633               	.LVL474:
 3634 009a 1F91      		pop r17
 3635               	.LVL475:
 3636 009c 0F91      		pop r16
 3637               	.LVL476:
 3638 009e FF90      		pop r15
 3639 00a0 EF90      		pop r14
 3640               	.LVL477:
 3641 00a2 DF90      		pop r13
 3642 00a4 CF90      		pop r12
 3643               	.LVL478:
 3644 00a6 BF90      		pop r11
 3645               	.LVL479:
 3646 00a8 0895      		ret
 3647               	.LFE85:
 3841               	.Letext0:
DEFINED SYMBOLS
                            *ABS*:00000000 EndpointStream.c
C:\Users\JEFFRO~1\AppData\Local\Temp/ccHcXBcG.s:2      *ABS*:0000003f __SREG__
C:\Users\JEFFRO~1\AppData\Local\Temp/ccHcXBcG.s:3      *ABS*:0000003e __SP_H__
C:\Users\JEFFRO~1\AppData\Local\Temp/ccHcXBcG.s:4      *ABS*:0000003d __SP_L__
C:\Users\JEFFRO~1\AppData\Local\Temp/ccHcXBcG.s:5      *ABS*:00000034 __CCP__
C:\Users\JEFFRO~1\AppData\Local\Temp/ccHcXBcG.s:6      *ABS*:00000000 __tmp_reg__
C:\Users\JEFFRO~1\AppData\Local\Temp/ccHcXBcG.s:7      *ABS*:00000001 __zero_reg__
C:\Users\JEFFRO~1\AppData\Local\Temp/ccHcXBcG.s:19     .text.Endpoint_Write_Control_Stream_LE:00000000 Endpoint_Write_Control_Stream_LE
C:\Users\JEFFRO~1\AppData\Local\Temp/ccHcXBcG.s:207    .text.Endpoint_Write_Control_Stream_BE:00000000 Endpoint_Write_Control_Stream_BE
C:\Users\JEFFRO~1\AppData\Local\Temp/ccHcXBcG.s:405    .text.Endpoint_Read_Control_Stream_LE:00000000 Endpoint_Read_Control_Stream_LE
C:\Users\JEFFRO~1\AppData\Local\Temp/ccHcXBcG.s:548    .text.Endpoint_Read_Control_Stream_BE:00000000 Endpoint_Read_Control_Stream_BE
C:\Users\JEFFRO~1\AppData\Local\Temp/ccHcXBcG.s:705    .text.Endpoint_Write_Control_PStream_LE:00000000 Endpoint_Write_Control_PStream_LE
C:\Users\JEFFRO~1\AppData\Local\Temp/ccHcXBcG.s:904    .text.Endpoint_Write_Control_PStream_BE:00000000 Endpoint_Write_Control_PStream_BE
C:\Users\JEFFRO~1\AppData\Local\Temp/ccHcXBcG.s:1111   .text.Endpoint_Read_Control_EStream_BE:00000000 Endpoint_Read_Control_EStream_BE
C:\Users\JEFFRO~1\AppData\Local\Temp/ccHcXBcG.s:1282   .text.Endpoint_Read_Control_EStream_LE:00000000 Endpoint_Read_Control_EStream_LE
C:\Users\JEFFRO~1\AppData\Local\Temp/ccHcXBcG.s:1440   .text.Endpoint_Write_Control_EStream_BE:00000000 Endpoint_Write_Control_EStream_BE
C:\Users\JEFFRO~1\AppData\Local\Temp/ccHcXBcG.s:1658   .text.Endpoint_Write_Control_EStream_LE:00000000 Endpoint_Write_Control_EStream_LE
C:\Users\JEFFRO~1\AppData\Local\Temp/ccHcXBcG.s:1868   .text.Endpoint_Null_Stream:00000000 Endpoint_Null_Stream
C:\Users\JEFFRO~1\AppData\Local\Temp/ccHcXBcG.s:1992   .text.Endpoint_Discard_Stream:00000000 Endpoint_Discard_Stream
C:\Users\JEFFRO~1\AppData\Local\Temp/ccHcXBcG.s:2120   .text.Endpoint_Read_EStream_BE:00000000 Endpoint_Read_EStream_BE
C:\Users\JEFFRO~1\AppData\Local\Temp/ccHcXBcG.s:2267   .text.Endpoint_Read_EStream_LE:00000000 Endpoint_Read_EStream_LE
C:\Users\JEFFRO~1\AppData\Local\Temp/ccHcXBcG.s:2424   .text.Endpoint_Write_EStream_BE:00000000 Endpoint_Write_EStream_BE
C:\Users\JEFFRO~1\AppData\Local\Temp/ccHcXBcG.s:2571   .text.Endpoint_Write_EStream_LE:00000000 Endpoint_Write_EStream_LE
C:\Users\JEFFRO~1\AppData\Local\Temp/ccHcXBcG.s:2728   .text.Endpoint_Write_PStream_BE:00000000 Endpoint_Write_PStream_BE
C:\Users\JEFFRO~1\AppData\Local\Temp/ccHcXBcG.s:2886   .text.Endpoint_Write_PStream_LE:00000000 Endpoint_Write_PStream_LE
C:\Users\JEFFRO~1\AppData\Local\Temp/ccHcXBcG.s:3052   .text.Endpoint_Read_Stream_BE:00000000 Endpoint_Read_Stream_BE
C:\Users\JEFFRO~1\AppData\Local\Temp/ccHcXBcG.s:3199   .text.Endpoint_Read_Stream_LE:00000000 Endpoint_Read_Stream_LE
C:\Users\JEFFRO~1\AppData\Local\Temp/ccHcXBcG.s:3352   .text.Endpoint_Write_Stream_BE:00000000 Endpoint_Write_Stream_BE
C:\Users\JEFFRO~1\AppData\Local\Temp/ccHcXBcG.s:3499   .text.Endpoint_Write_Stream_LE:00000000 Endpoint_Write_Stream_LE

UNDEFINED SYMBOLS
USB_ControlRequest
USB_DeviceState
__eeupd_byte_usb1287
__eerd_byte_usb1287
Endpoint_WaitUntilReady
USB_USBTask
